 TlsDxe

 Timestamp is 62b57364 (Fri Jun 24 16:18:44 2022)

 Preferred load address is 0000000000000000

 Start         Length     Name                   Class
 0001:00000000 00000188H .text                   CODE
 0001:00000188 0009bfedH .text$mn                CODE
 0002:00000000 00044dd4H .rdata                  DATA
 0002:00044dd4 000007e4H .rdata$voltmd           DATA
 0002:000455b8 0000012cH .rdata$zzzdbg           DATA
 0003:00000000 00003550H .data                   DATA
 0003:00003550 00000d20H .bss                    DATA
 0004:00000000 00005664H .pdata                  DATA
 0005:00000000 00002d34H .xdata                  DATA

  Address         Publics by Value              Rva+Base               Lib:Object

 0000:00000000       __guard_longjmp_count      0000000000000000     <absolute>
 0000:00000000       __dynamic_value_reloc_table 0000000000000000     <absolute>
 0000:00000000       __guard_iat_table          0000000000000000     <absolute>
 0000:00000000       __hybrid_auxiliary_iat     0000000000000000     <absolute>
 0000:00000000       __arm64x_redirection_metadata 0000000000000000     <absolute>
 0000:00000000       __hybrid_auxiliary_iat_copy 0000000000000000     <absolute>
 0000:00000000       __x64_code_ranges_to_entry_points_count 0000000000000000     <absolute>
 0000:00000000       __AbsoluteZero             0000000000000000     <absolute>
 0000:00000000       __guard_iat_count          0000000000000000     <absolute>
 0000:00000000       __guard_check_icall_a64n_fptr 0000000000000000     <absolute>
 0000:00000000       __guard_longjmp_table      0000000000000000     <absolute>
 0000:00000000       __x64_code_ranges_to_entry_points 0000000000000000     <absolute>
 0000:00000000       __guard_fids_table         0000000000000000     <absolute>
 0000:00000000       __guard_fids_count         0000000000000000     <absolute>
 0000:00000000       __arm64x_extra_rfe_table   0000000000000000     <absolute>
 0000:00000000       __hybrid_code_map          0000000000000000     <absolute>
 0000:00000000       __arm64x_extra_rfe_table_size 0000000000000000     <absolute>
 0000:00000000       __arm64x_redirection_metadata_count 0000000000000000     <absolute>
 0000:00000000       __enclave_config           0000000000000000     <absolute>
 0000:00000000       __guard_eh_cont_table      0000000000000000     <absolute>
 0000:00000000       __guard_flags              0000000000000000     <absolute>
 0000:00000000       __arm64x_native_entrypoint 0000000000000000     <absolute>
 0000:00000000       __guard_eh_cont_count      0000000000000000     <absolute>
 0000:00000000       __hybrid_code_map_count    0000000000000000     <absolute>
 0000:00000000       __ImageBase                0000000000000000     <linker-defined>
 0001:00000000       InternalMemCopyMem         00000000000002c0     BaseMemoryLibRepStr:CopyMem.obj
 0001:00000040       CpuPause                   0000000000000300     BaseLib:CpuPause.obj
 0001:00000050       InternalMemSetMem          0000000000000310     BaseMemoryLibRepStr:SetMem.obj
 0001:00000070       InternalMemZeroMem         0000000000000330     BaseMemoryLibRepStr:ZeroMem.obj
 0001:00000090       InternalMemSetMem64        0000000000000350     BaseMemoryLibRepStr:SetMem64.obj
 0001:000000b0       InternalMemSetMem32        0000000000000370     BaseMemoryLibRepStr:SetMem32.obj
 0001:000000d0       AsmReadTsc                 0000000000000390     BaseLib:ReadTsc.obj
 0001:000000e0       EnableInterrupts           00000000000003a0     BaseLib:EnableInterrupts.obj
 0001:000000f0       DisableInterrupts          00000000000003b0     BaseLib:DisableInterrupts.obj
 0001:00000100       AsmReadEflags              00000000000003c0     BaseLib:ReadEflags.obj
 0001:00000110       InternalMemCompareMem      00000000000003d0     BaseMemoryLibRepStr:CompareMem.obj
 0001:00000130       InternalMemScanMem8        00000000000003f0     BaseMemoryLibRepStr:ScanMem8.obj
 0001:00000150       InternalMemScanMem64       0000000000000410     BaseMemoryLibRepStr:ScanMem64.obj
 0001:00000170       InternalMemScanMem32       0000000000000430     BaseMemoryLibRepStr:ScanMem32.obj
 0001:00000188       _DriverUnloadHandler       0000000000000448 f   UefiDriverEntryPoint:DriverEntryPoint.obj
 0001:000002b4       _ModuleEntryPoint          0000000000000574 f   UefiDriverEntryPoint:DriverEntryPoint.obj
 0001:00000330       ProcessLibraryConstructorList 00000000000005f0 f   TlsDxe:AutoGen.obj
 0001:000005b0       TlsCreateInstance          0000000000000870 f   TlsDxe:TlsDriver.obj
 0001:0000066c       TlsDriverEntryPoint        000000000000092c f   TlsDxe:TlsDriver.obj
 0001:0000081c       TlsServiceBindingCreateChild 0000000000000adc f   TlsDxe:TlsDriver.obj
 0001:000009cc       TlsServiceBindingDestroyChild 0000000000000c8c f   TlsDxe:TlsDriver.obj
 0001:00000b7c       TlsSetSessionData          0000000000000e3c f   TlsDxe:TlsProtocol.obj
 0001:00000f2c       TlsGetSessionData          00000000000011ec f   TlsDxe:TlsProtocol.obj
 0001:00001338       TlsBuildResponsePacket     00000000000015f8 f   TlsDxe:TlsProtocol.obj
 0001:0000158c       TlsProcessPacket           000000000000184c f   TlsDxe:TlsProtocol.obj
 0001:00001678       TlsConfigurationSetData    0000000000001938 f   TlsDxe:TlsConfigProtocol.obj
 0001:00001768       TlsConfigurationGetData    0000000000001a28 f   TlsDxe:TlsConfigProtocol.obj
 0001:00001848       TlsEncryptPacket           0000000000001b08 f   TlsDxe:TlsImpl.obj
 0001:00001a78       TlsDecryptPacket           0000000000001d38 f   TlsDxe:TlsImpl.obj
 0001:00001d0c       InternalBaseLibIsListValid 0000000000001fcc f   BaseLib:LinkedList.obj
 0001:00001d78       InsertTailList             0000000000002038 f   BaseLib:LinkedList.obj
 0001:00001dcc       RemoveEntryList            000000000000208c f   BaseLib:LinkedList.obj
 0001:00001e34       CopyMem                    00000000000020f4 f   BaseMemoryLibRepStr:CopyMemWrapper.obj
 0001:00001ed0       DebugPrint                 0000000000002190 f   BaseDebugLibSerialPort:DebugLib.obj
 0001:00001ef4       DebugPrintMarker           00000000000021b4 f   BaseDebugLibSerialPort:DebugLib.obj
 0001:00001fa4       DebugAssert                0000000000002264 f   BaseDebugLibSerialPort:DebugLib.obj
 0001:0000201c       InternalAllocatePool       00000000000022dc f   UefiMemoryAllocationLib:MemoryAllocationLib.obj
 0001:0000204c       AllocateZeroPool           000000000000230c f   UefiMemoryAllocationLib:MemoryAllocationLib.obj
 0001:00002074       FreePool                   0000000000002334 f   UefiMemoryAllocationLib:MemoryAllocationLib.obj
 0001:000020b8       TlsNew                     0000000000002378 f   TlsLib:TlsInit.obj
 0001:00002c9c       TlsSetConnectionEnd        0000000000002f5c f   TlsLib:TlsConfig.obj
 0001:00002cf8       TlsSetCipherList           0000000000002fb8 f   TlsLib:TlsConfig.obj
 0001:00002ff0       TlsSetVerifyHost           00000000000032b0 f   TlsLib:TlsConfig.obj
 0001:00003128       TlsSetCaCertificate        00000000000033e8 f   TlsLib:TlsConfig.obj
 0001:0000329c       TlsSetHostPublicCert       000000000000355c f   TlsLib:TlsConfig.obj
 0001:000033d4       TlsGetHostPublicCert       0000000000003694 f   TlsLib:TlsConfig.obj
 0001:000034c0       TlsDoHandshake             0000000000003780 f   TlsLib:TlsProcess.obj
 0001:0000373c       TlsHandleAlert             00000000000039fc f   TlsLib:TlsProcess.obj
 0001:000038bc       TlsCloseNotify             0000000000003b7c f   TlsLib:TlsProcess.obj
 0001:00003a30       GetPcdProtocol             0000000000003cf0 f   DxePcdLib:DxePcdLib.obj
 0001:00003abc       AsciiStrLen                0000000000003d7c f   BaseLib:String.obj
 0001:00003b28       AsciiStrCmp                0000000000003de8 f   BaseLib:String.obj
 0001:00003bb4       AsciiStriCmp               0000000000003e74 f   BaseLib:String.obj
 0001:00003ca0       AsciiStrnCmp               0000000000003f60 f   BaseLib:String.obj
 0001:00003d6c       StrnLenS                   000000000000402c f   BaseLib:SafeString.obj
 0001:00003dc4       AsciiStrCpyS               0000000000004084 f   BaseLib:SafeString.obj
 0001:00003ee0       AsciiStrnCpyS              00000000000041a0 f   BaseLib:SafeString.obj
 0001:00004030       AsciiStrCatS               00000000000042f0 f   BaseLib:SafeString.obj
 0001:000041a4       AsciiStrDecimalToUintnS    0000000000004464 f   BaseLib:SafeString.obj
 0001:000042bc       SetMem                     000000000000457c f   BaseMemoryLibRepStr:SetMemWrapper.obj
 0001:00004320       ZeroMem                    00000000000045e0 f   BaseMemoryLibRepStr:ZeroMemWrapper.obj
 0001:00004390       IoRead32                   0000000000004650 f   BaseIoLibIntrinsicSev:IoLibMsc.obj
 0001:000043c4       AsciiSPrint                0000000000004684 f   BasePrintLib:PrintLib.obj
 0001:000043f0       BasePrintLibFillBuffer     00000000000046b0 f   BasePrintLib:PrintLibInternal.obj
 0001:00004424       BasePrintLibValueToString  00000000000046e4 f   BasePrintLib:PrintLibInternal.obj
 0001:00004474       BasePrintLibSPrintMarker   0000000000004734 f   BasePrintLib:PrintLibInternal.obj
 0001:00005380       BasePrintLibSPrint         0000000000005640 f   BasePrintLib:PrintLibInternal.obj
 0001:000053a4       PciExpressRead32           0000000000005664 f   BasePciExpressLib:PciExpressLib.obj
 0001:000053f4       PciCf8Read32               00000000000056b4 f   BasePciCf8Lib:PciCf8Lib.obj
 0001:000056fc       SSL_clear                  00000000000059bc f   OpensslLib:ssl_lib.obj
 0001:000058c8       SSL_new                    0000000000005b88 f   OpensslLib:ssl_lib.obj
 0001:000061e0       SSL_has_matching_session_id 00000000000064a0 f   OpensslLib:ssl_lib.obj
 0001:0000623c       SSL_free                   00000000000064fc f   OpensslLib:ssl_lib.obj
 0001:0000656c       SSL_set0_wbio              000000000000682c f   OpensslLib:ssl_lib.obj
 0001:000066c0       ssl_read_internal          0000000000006980 f   OpensslLib:ssl_lib.obj
 0001:000067dc       ssl_write_internal         0000000000006a9c f   OpensslLib:ssl_lib.obj
 0001:000068f4       SSL_ctrl                   0000000000006bb4 f   OpensslLib:ssl_lib.obj
 0001:00006b98       SSL_CTX_ctrl               0000000000006e58 f   OpensslLib:ssl_lib.obj
 0001:00006ed0       ssl_cipher_ptr_id_cmp      0000000000007190 f   OpensslLib:ssl_lib.obj
 0001:00006ee8       SSL_get_ciphers            00000000000071a8 f   OpensslLib:ssl_lib.obj
 0001:00006f14       SSL_get1_supported_ciphers 00000000000071d4 f   OpensslLib:ssl_lib.obj
 0001:00006fe4       SSL_set_cipher_list        00000000000072a4 f   OpensslLib:ssl_lib.obj
 0001:0000712c       SSL_CTX_new                00000000000073ec f   OpensslLib:ssl_lib.obj
 0001:00007660       SSL_CTX_free               0000000000007920 f   OpensslLib:ssl_lib.obj
 0001:0000780c       ssl_set_masks              0000000000007acc f   OpensslLib:ssl_lib.obj
 0001:000079f8       ssl_update_cache           0000000000007cb8 f   OpensslLib:ssl_lib.obj
 0001:00007b80       SSL_get_error              0000000000007e40 f   OpensslLib:ssl_lib.obj
 0001:00007c98       SSL_do_handshake           0000000000007f58 f   OpensslLib:ssl_lib.obj
 0001:00007d48       ssl_undefined_function     0000000000008008 f   OpensslLib:ssl_lib.obj
 0001:00007d68       ssl_undefined_void_function 0000000000008028 f   OpensslLib:ssl_lib.obj
 0001:00007d88       ssl_free_wbio_buffer       0000000000008048 f   OpensslLib:ssl_lib.obj
 0001:00007dc0       ssl_replace_hash           0000000000008080 f   OpensslLib:ssl_lib.obj
 0001:00007e04       ssl_handshake_hash         00000000000080c4 f   OpensslLib:ssl_lib.obj
 0001:0000808c       ssl_cache_cipherlist       000000000000834c f   OpensslLib:ssl_lib.obj
 0001:00008314       bytes_to_cipher_list       00000000000085d4 f   OpensslLib:ssl_lib.obj
 0001:00008714       OPENSSL_init_ssl           00000000000089d4 f   OpensslLib:ssl_init.obj
 0001:000087ec       CRYPTO_malloc              0000000000008aac f   OpensslLib:mem.obj
 0001:00008834       CRYPTO_zalloc              0000000000008af4 f   OpensslLib:mem.obj
 0001:00008874       CRYPTO_realloc             0000000000008b34 f   OpensslLib:mem.obj
 0001:00008938       CRYPTO_clear_realloc       0000000000008bf8 f   OpensslLib:mem.obj
 0001:00008f60       tlsv1_3_server_method      0000000000009220 f   OpensslLib:methods.obj
 0001:00008f68       tlsv1_2_server_method      0000000000009228 f   OpensslLib:methods.obj
 0001:00008f70       tlsv1_1_server_method      0000000000009230 f   OpensslLib:methods.obj
 0001:00008f78       tlsv1_server_method        0000000000009238 f   OpensslLib:methods.obj
 0001:00008f80       tlsv1_3_client_method      0000000000009240 f   OpensslLib:methods.obj
 0001:00008f88       tlsv1_2_client_method      0000000000009248 f   OpensslLib:methods.obj
 0001:00008f90       tlsv1_1_client_method      0000000000009250 f   OpensslLib:methods.obj
 0001:00008f98       tlsv1_client_method        0000000000009258 f   OpensslLib:methods.obj
 0001:00008fa0       X509_LOOKUP_ctrl           0000000000009260 f   OpensslLib:x509_lu.obj
 0001:00009030       X509_STORE_new             00000000000092f0 f   OpensslLib:x509_lu.obj
 0001:00009144       X509_STORE_free            0000000000009404 f   OpensslLib:x509_lu.obj
 0001:00009268       X509_STORE_add_lookup      0000000000009528 f   OpensslLib:x509_lu.obj
 0001:00009384       X509_STORE_CTX_get_by_subject 0000000000009644 f   OpensslLib:x509_lu.obj
 0001:0000959c       X509_OBJECT_new            000000000000985c f   OpensslLib:x509_lu.obj
 0001:000095cc       X509_OBJECT_free           000000000000988c f   OpensslLib:x509_lu.obj
 0001:00009700       X509_STORE_CTX_get1_certs  00000000000099c0 f   OpensslLib:x509_lu.obj
 0001:0000997c       X509_STORE_CTX_get1_crls   0000000000009c3c f   OpensslLib:x509_lu.obj
 0001:00009b50       X509_OBJECT_retrieve_match 0000000000009e10 f   OpensslLib:x509_lu.obj
 0001:00009c58       X509_STORE_CTX_get1_issuer 0000000000009f18 f   OpensslLib:x509_lu.obj
 0001:00009f0c       BIO_new                    000000000000a1cc f   OpensslLib:bio_lib.obj
 0001:0000a018       BIO_free                   000000000000a2d8 f   OpensslLib:bio_lib.obj
 0001:0000a2f4       BIO_puts                   000000000000a5b4 f   OpensslLib:bio_lib.obj
 0001:0000a428       BIO_gets                   000000000000a6e8 f   OpensslLib:bio_lib.obj
 0001:0000a55c       BIO_indent                 000000000000a81c f   OpensslLib:bio_lib.obj
 0001:0000a5a8       BIO_ctrl                   000000000000a868 f   OpensslLib:bio_lib.obj
 0001:0000a690       BIO_callback_ctrl          000000000000a950 f   OpensslLib:bio_lib.obj
 0001:0000a774       BIO_push                   000000000000aa34 f   OpensslLib:bio_lib.obj
 0001:0000a7c0       BIO_pop                    000000000000aa80 f   OpensslLib:bio_lib.obj
 0001:0000a824       BIO_free_all               000000000000aae4 f   OpensslLib:bio_lib.obj
 0001:0000a85c       ssl_load_ciphers           000000000000ab1c f   OpensslLib:ssl_ciph.obj
 0001:0000ab64       ssl_cipher_get_evp         000000000000ae24 f   OpensslLib:ssl_ciph.obj
 0001:0000ae20       ssl_handshake_md           000000000000b0e0 f   OpensslLib:ssl_ciph.obj
 0001:0000bc00       SSL_CTX_set_ciphersuites   000000000000bec0 f   OpensslLib:ssl_ciph.obj
 0001:0000bc3c       ssl_create_cipher_list     000000000000befc f   OpensslLib:ssl_ciph.obj
 0001:0000c3c0       policy_node_free           000000000000c680 f   OpensslLib:pcy_node.obj
 0001:0000c3c8       SSL_COMP_add_compression_method 000000000000c688 f   OpensslLib:ssl_ciph.obj
 0001:0000c4bc       SSL_SESSION_new            000000000000c77c f   OpensslLib:ssl_sess.obj
 0001:0000c59c       ssl_session_dup            000000000000c85c f   OpensslLib:ssl_sess.obj
 0001:0000ca5c       ssl_generate_session_id    000000000000cd1c f   OpensslLib:ssl_sess.obj
 0001:0000cbd0       ssl_get_new_session        000000000000ce90 f   OpensslLib:ssl_sess.obj
 0001:0000cd08       lookup_sess_in_cache       000000000000cfc8 f   OpensslLib:ssl_sess.obj
 0001:0000ce40       ssl_get_prev_session       000000000000d100 f   OpensslLib:ssl_sess.obj
 0001:0000d174       SSL_CTX_add_session        000000000000d434 f   OpensslLib:ssl_sess.obj
 0001:0000d324       SSL_SESSION_free           000000000000d5e4 f   OpensslLib:ssl_sess.obj
 0001:0000d490       SSL_CTX_flush_sessions     000000000000d750 f   OpensslLib:ssl_sess.obj
 0001:0000d4ec       ssl_clear_bad_session      000000000000d7ac f   OpensslLib:ssl_sess.obj
 0001:0000d688       SSL_use_certificate        000000000000d948 f   OpensslLib:ssl_rsa.obj
 0001:0000d7d0       SSL_use_PrivateKey_file    000000000000da90 f   OpensslLib:ssl_rsa.obj
 0001:0000d894       SSL_CTX_use_certificate    000000000000db54 f   OpensslLib:ssl_rsa.obj
 0001:0000da24       SSL_CTX_use_PrivateKey_file 000000000000dce4 f   OpensslLib:ssl_rsa.obj
 0001:0000dff4       SSL_CTX_use_serverinfo_ex  000000000000e2b4 f   OpensslLib:ssl_rsa.obj
 0001:0000e0f8       SSL_CTX_use_serverinfo_file 000000000000e3b8 f   OpensslLib:ssl_rsa.obj
 0001:0000e9b0       d2i_X509                   000000000000ec70 f   OpensslLib:x_x509.obj
 0001:0000e9bc       X509_free                  000000000000ec7c f   OpensslLib:x_x509.obj
 0001:0000e9e0       d2i_X509_AUX               000000000000eca0 f   OpensslLib:x_x509.obj
 0001:0000ed94       X509_VERIFY_PARAM_new      000000000000f054 f   OpensslLib:x509_vpm.obj
 0001:0000edd0       X509_VERIFY_PARAM_free     000000000000f090 f   OpensslLib:x509_vpm.obj
 0001:0000ee28       X509_VERIFY_PARAM_inherit  000000000000f0e8 f   OpensslLib:x509_vpm.obj
 0001:0000f09c       X509_VERIFY_PARAM_set1_policies 000000000000f35c f   OpensslLib:x509_vpm.obj
 0001:0000f1f4       X509_VERIFY_PARAM_lookup   000000000000f4b4 f   OpensslLib:x509_vpm.obj
 0001:0000f3b0       ERR_put_error              000000000000f670 f   OpensslLib:err.obj
 0001:0000f4b4       ERR_clear_error            000000000000f774 f   OpensslLib:err.obj
 0001:0000f548       ERR_peek_last_error        000000000000f808 f   OpensslLib:err.obj
 0001:0000f83c       ERR_error_string_n         000000000000fafc f   OpensslLib:err.obj
 0001:0000f9f0       ERR_get_state              000000000000fcb0 f   OpensslLib:err.obj
 0001:0000fb4c       ERR_add_error_data         000000000000fe0c f   OpensslLib:err.obj
 0001:0000fc58       ERR_set_mark               000000000000ff18 f   OpensslLib:err.obj
 0001:0000fc88       ERR_pop_to_mark            000000000000ff48 f   OpensslLib:err.obj
 0001:0000fd78       err_clear_last_constant_time 0000000000010038 f   OpensslLib:err.obj
 0001:0000fdc4       ossl_statem_fatal          0000000000010084 f   OpensslLib:statem.obj
 0001:0000fe20       ossl_statem_check_finish_init 00000000000100e0 f   OpensslLib:statem.obj
 0001:0000fe94       ossl_statem_connect        0000000000010154 f   OpensslLib:statem.obj
 0001:0000fe9c       ossl_statem_accept         000000000001015c f   OpensslLib:statem.obj
 0001:000108a0       statem_flush               0000000000010b60 f   OpensslLib:statem.obj
 0001:000108dc       EVP_CIPHER_CTX_reset       0000000000010b9c f   OpensslLib:evp_enc.obj
 0001:00010948       EVP_CipherInit_ex          0000000000010c08 f   OpensslLib:evp_enc.obj
 0001:00010de0       EVP_EncryptFinal_ex        00000000000110a0 f   OpensslLib:evp_enc.obj
 0001:00010eac       EVP_DecryptUpdate          000000000001116c f   OpensslLib:evp_enc.obj
 0001:000110e8       EVP_DecryptFinal_ex        00000000000113a8 f   OpensslLib:evp_enc.obj
 0001:000111f8       EVP_CIPHER_CTX_set_key_length 00000000000114b8 f   OpensslLib:evp_enc.obj
 0001:00011250       EVP_CIPHER_CTX_ctrl        0000000000011510 f   OpensslLib:evp_enc.obj
 0001:00011298       EVP_CIPHER_CTX_copy        0000000000011558 f   OpensslLib:evp_enc.obj
 0001:00011370       EVP_MD_CTX_reset           0000000000011630 f   OpensslLib:digest.obj
 0001:0001140c       EVP_DigestInit_ex          00000000000116cc f   OpensslLib:digest.obj
 0001:000114fc       EVP_DigestFinal_ex         00000000000117bc f   OpensslLib:digest.obj
 0001:00011568       EVP_DigestFinalXOF         0000000000011828 f   OpensslLib:digest.obj
 0001:00011600       EVP_MD_CTX_copy_ex         00000000000118c0 f   OpensslLib:digest.obj
 0001:00011720       EVP_Digest                 00000000000119e0 f   OpensslLib:digest.obj
 0001:000117c4       OPENSSL_sk_dup             0000000000011a84 f   OpensslLib:stack.obj
 0001:00011940       OPENSSL_sk_new_reserve     0000000000011c00 f   OpensslLib:stack.obj
 0001:000119ac       OPENSSL_sk_insert          0000000000011c6c f   OpensslLib:stack.obj
 0001:00011b58       OPENSSL_sk_pop_free        0000000000011e18 f   OpensslLib:stack.obj
 0001:00011bc0       OPENSSL_sk_sort            0000000000011e80 f   OpensslLib:stack.obj
 0001:00011d28       ssl_cert_new               0000000000011fe8 f   OpensslLib:ssl_cert.obj
 0001:00011dcc       ssl_cert_dup               000000000001208c f   OpensslLib:ssl_cert.obj
 0001:00012228       ssl_cert_clear_certs       00000000000124e8 f   OpensslLib:ssl_cert.obj
 0001:00012298       ssl_cert_free              0000000000012558 f   OpensslLib:ssl_cert.obj
 0001:00012344       ssl_cert_set0_chain        0000000000012604 f   OpensslLib:ssl_cert.obj
 0001:00012418       ssl_cert_set1_chain        00000000000126d8 f   OpensslLib:ssl_cert.obj
 0001:00012488       ssl_cert_add0_chain_cert   0000000000012748 f   OpensslLib:ssl_cert.obj
 0001:00012514       ssl_cert_select_current    00000000000127d4 f   OpensslLib:ssl_cert.obj
 0001:000125a8       ssl_cert_set_current       0000000000012868 f   OpensslLib:ssl_cert.obj
 0001:00012628       ssl_verify_cert_chain      00000000000128e8 f   OpensslLib:ssl_cert.obj
 0001:00012a68       SSL_add_file_cert_subjects_to_stack 0000000000012d28 f   OpensslLib:ssl_cert.obj
 0001:00012bac       ssl_build_cert_chain       0000000000012e6c f   OpensslLib:ssl_cert.obj
 0001:000130e0       ssl_security               00000000000133a0 f   OpensslLib:ssl_cert.obj
 0001:0001311c       RECORD_LAYER_clear         00000000000133dc f   OpensslLib:rec_layer_s3.obj
 0001:000131dc       RECORD_LAYER_release       000000000001349c f   OpensslLib:rec_layer_s3.obj
 0001:00013244       RECORD_LAYER_processed_read_pending 0000000000013504 f   OpensslLib:rec_layer_s3.obj
 0001:00013274       ssl3_pending               0000000000013534 f   OpensslLib:rec_layer_s3.obj
 0001:000132b0       ssl3_read_n                0000000000013570 f   OpensslLib:rec_layer_s3.obj
 0001:000135a8       ssl3_write_bytes           0000000000013868 f   OpensslLib:rec_layer_s3.obj
 0001:0001392c       do_ssl3_write              0000000000013bec f   OpensslLib:rec_layer_s3.obj
 0001:000143e4       ssl3_write_pending         00000000000146a4 f   OpensslLib:rec_layer_s3.obj
 0001:00014568       ssl3_read_bytes            0000000000014828 f   OpensslLib:rec_layer_s3.obj
 0001:00014ee8       OPENSSL_LH_new             00000000000151a8 f   OpensslLib:lhash.obj
 0001:00014f90       OPENSSL_LH_free            0000000000015250 f   OpensslLib:lhash.obj
 0001:00014ff4       OPENSSL_LH_insert          00000000000152b4 f   OpensslLib:lhash.obj
 0001:000150a8       OPENSSL_LH_delete          0000000000015368 f   OpensslLib:lhash.obj
 0001:000151ac       OPENSSL_LH_retrieve        000000000001546c f   OpensslLib:lhash.obj
 0001:000153fc       OPENSSL_LH_strhash         00000000000156bc f   OpensslLib:lhash.obj
 0001:0001544c       openssl_lh_strcasehash     000000000001570c f   OpensslLib:lhash.obj
 0001:000154c0       tls1_default_timeout       0000000000015780 f   OpensslLib:t1_lib.obj
 0001:000154c8       tls1_new                   0000000000015788 f   OpensslLib:t1_lib.obj
 0001:00015514       tls1_free                  00000000000157d4 f   OpensslLib:t1_lib.obj
 0001:00015538       tls1_clear                 00000000000157f8 f   OpensslLib:t1_lib.obj
 0001:0001556c       tls1_get_supported_groups  000000000001582c f   OpensslLib:t1_lib.obj
 0001:000155e0       tls_curve_allowed          00000000000158a0 f   OpensslLib:t1_lib.obj
 0001:00015644       tls1_shared_group          0000000000015904 f   OpensslLib:t1_lib.obj
 0001:0001579c       tls1_set_groups            0000000000015a5c f   OpensslLib:t1_lib.obj
 0001:00015948       tls1_set_groups_list       0000000000015c08 f   OpensslLib:t1_lib.obj
 0001:00015b98       tls1_check_group_id        0000000000015e58 f   OpensslLib:t1_lib.obj
 0001:00015d84       tls1_lookup_md             0000000000016044 f   OpensslLib:t1_lib.obj
 0001:00015f78       tls1_set_peer_legacy_sigalg 0000000000016238 f   OpensslLib:t1_lib.obj
 0001:00015fd4       tls12_get_psigalgs         0000000000016294 f   OpensslLib:t1_lib.obj
 0001:000160d0       tls12_check_peer_sigalg    0000000000016390 f   OpensslLib:t1_lib.obj
 0001:000163ac       ssl_set_client_disabled    000000000001666c f   OpensslLib:t1_lib.obj
 0001:00016444       ssl_cipher_disabled        0000000000016704 f   OpensslLib:t1_lib.obj
 0001:0001653c       tls_use_ticket             00000000000167fc f   OpensslLib:t1_lib.obj
 0001:0001656c       tls1_set_server_sigalgs    000000000001682c f   OpensslLib:t1_lib.obj
 0001:00016698       tls_decrypt_ticket         0000000000016958 f   OpensslLib:t1_lib.obj
 0001:00016d44       ssl_set_sig_mask           0000000000017004 f   OpensslLib:t1_lib.obj
 0001:00016e08       tls12_copy_sigalgs         00000000000170c8 f   OpensslLib:t1_lib.obj
 0001:00016fd8       tls1_save_u16              0000000000017298 f   OpensslLib:t1_lib.obj
 0001:000170b4       tls1_save_sigalgs          0000000000017374 f   OpensslLib:t1_lib.obj
 0001:00017110       tls1_process_sigalgs       00000000000173d0 f   OpensslLib:t1_lib.obj
 0001:00017558       tls1_set_sigalgs_list      0000000000017818 f   OpensslLib:t1_lib.obj
 0001:000175cc       tls1_set_raw_sigalgs       000000000001788c f   OpensslLib:t1_lib.obj
 0001:0001768c       tls1_set_sigalgs           000000000001794c f   OpensslLib:t1_lib.obj
 0001:0001792c       tls1_check_chain           0000000000017bec f   OpensslLib:t1_lib.obj
 0001:00017de4       ssl_get_auto_dh            00000000000180a4 f   OpensslLib:t1_lib.obj
 0001:00018028       ssl_security_cert          00000000000182e8 f   OpensslLib:t1_lib.obj
 0001:0001813c       ssl_security_cert_chain    00000000000183fc f   OpensslLib:t1_lib.obj
 0001:000184a8       tls_choose_sigalg          0000000000018768 f   OpensslLib:t1_lib.obj
 0001:00018900       ASYNC_start_job            0000000000018bc0 f   OpensslLib:async.obj
 0001:00018c00       ASYNC_init_thread          0000000000018ec0 f   OpensslLib:async.obj
 0001:00018ce4       ASYNC_get_current_job      0000000000018fa4 f   OpensslLib:async.obj
 0001:00018e38       X509_PUBKEY_get0           00000000000190f8 f   OpensslLib:x_pubkey.obj
 0001:00018f0c       X509_PUBKEY_set0_param     00000000000191cc f   OpensslLib:x_pubkey.obj
 0001:00018f70       COMP_CTX_new               0000000000019230 f   OpensslLib:comp_lib.obj
 0001:00018fd0       OCSP_RESPID_free           0000000000019290 f   OpensslLib:ocsp_asn.obj
 0001:00018ff4       X509_cmp                   00000000000192b4 f   OpensslLib:x509_cmp.obj
 0001:0001908c       X509_NAME_cmp              000000000001934c f   OpensslLib:x509_cmp.obj
 0001:00019134       X509_NAME_hash             00000000000193f4 f   OpensslLib:x509_cmp.obj
 0001:000191ac       X509_check_private_key     000000000001946c f   OpensslLib:x509_cmp.obj
 0001:000192ac       X509_chain_check_suiteb    000000000001956c f   OpensslLib:x509_cmp.obj
 0001:00019438       X509_chain_up_ref          00000000000196f8 f   OpensslLib:x509_cmp.obj
 0001:000194d0       BUF_MEM_new                0000000000019790 f   OpensslLib:buffer.obj
 0001:000194fc       BUF_MEM_free               00000000000197bc f   OpensslLib:buffer.obj
 0001:000195d0       BUF_MEM_grow               0000000000019890 f   OpensslLib:buffer.obj
 0001:000196b8       BUF_MEM_grow_clean         0000000000019978 f   OpensslLib:buffer.obj
 0001:000197ac       X509_get_signature_info    0000000000019a6c f   OpensslLib:x509_set.obj
 0001:0001981c       CRYPTO_strdup              0000000000019adc f   OpensslLib:o_str.obj
 0001:00019884       CRYPTO_strndup             0000000000019b44 f   OpensslLib:o_str.obj
 0001:000198f8       CRYPTO_memdup              0000000000019bb8 f   OpensslLib:o_str.obj
 0001:00019960       OPENSSL_strlcpy            0000000000019c20 f   OpensslLib:o_str.obj
 0001:000199b4       OPENSSL_hexchar2int        0000000000019c74 f   OpensslLib:o_str.obj
 0001:00019a74       OPENSSL_hexstr2buf         0000000000019d34 f   OpensslLib:o_str.obj
 0001:00019b6c       OPENSSL_buf2hexstr         0000000000019e2c f   OpensslLib:o_str.obj
 0001:00019e28       rand_drbg_get_entropy      000000000001a0e8 f   OpensslLib:rand_lib.obj
 0001:00019f8c       rand_drbg_cleanup_entropy  000000000001a24c f   OpensslLib:rand_lib.obj
 0001:00019fc8       rand_drbg_get_nonce        000000000001a288 f   OpensslLib:rand_lib.obj
 0001:0001a08c       rand_drbg_cleanup_nonce    000000000001a34c f   OpensslLib:rand_lib.obj
 0001:0001a128       rand_pool_new              000000000001a3e8 f   OpensslLib:rand_lib.obj
 0001:0001a1fc       rand_pool_free             000000000001a4bc f   OpensslLib:rand_lib.obj
 0001:0001a358       rand_pool_bytes_needed     000000000001a618 f   OpensslLib:rand_lib.obj
 0001:0001a3e0       rand_pool_add              000000000001a6a0 f   OpensslLib:rand_lib.obj
 0001:0001a474       rand_pool_add_begin        000000000001a734 f   OpensslLib:rand_lib.obj
 0001:0001a4cc       rand_pool_add_end          000000000001a78c f   OpensslLib:rand_lib.obj
 0001:0001a510       RAND_get_rand_method       000000000001a7d0 f   OpensslLib:rand_lib.obj
 0001:0001a55c       RAND_priv_bytes            000000000001a81c f   OpensslLib:rand_lib.obj
 0001:0001a5b4       RAND_bytes                 000000000001a874 f   OpensslLib:rand_lib.obj
 0001:0001a600       EVP_CIPHER_asn1_to_param   000000000001a8c0 f   OpensslLib:evp_lib.obj
 0001:0001a694       EVP_CIPHER_get_asn1_iv     000000000001a954 f   OpensslLib:evp_lib.obj
 0001:0001a734       EVP_CIPHER_set_asn1_iv     000000000001a9f4 f   OpensslLib:evp_lib.obj
 0001:0001a7c4       EVP_CIPHER_CTX_iv_length   000000000001aa84 f   OpensslLib:evp_lib.obj
 0001:0001a7fc       EVP_PKEY_copy_parameters   000000000001aabc f   OpensslLib:p_lib.obj
 0001:0001a8e8       EVP_PKEY_cmp               000000000001aba8 f   OpensslLib:p_lib.obj
 0001:0001a948       EVP_PKEY_new               000000000001ac08 f   OpensslLib:p_lib.obj
 0001:0001aa6c       EVP_PKEY_new_raw_private_key 000000000001ad2c f   OpensslLib:p_lib.obj
 0001:0001aafc       EVP_PKEY_assign            000000000001adbc f   OpensslLib:p_lib.obj
 0001:0001ab44       EVP_PKEY_get0_RSA          000000000001ae04 f   OpensslLib:p_lib.obj
 0001:0001ab74       EVP_PKEY_get0_EC_KEY       000000000001ae34 f   OpensslLib:p_lib.obj
 0001:0001aba0       EVP_PKEY_get0_DH           000000000001ae60 f   OpensslLib:p_lib.obj
 0001:0001abd0       EVP_PKEY_free              000000000001ae90 f   OpensslLib:p_lib.obj
 0001:0001ac34       EVP_PKEY_set1_tls_encodedpoint 000000000001aef4 f   OpensslLib:p_lib.obj
 0001:0001ac74       EVP_PKEY_get1_tls_encodedpoint 000000000001af34 f   OpensslLib:p_lib.obj
 0001:0001acac       OPENSSL_showfatal          000000000001af6c f   OpensslLib:cryptlib.obj
 0001:0001aeec       ossl_statem_server_read_transition 000000000001b1ac f   OpensslLib:statem_srvr.obj
 0001:0001b0d4       send_certificate_request   000000000001b394 f   OpensslLib:statem_srvr.obj
 0001:0001b344       ossl_statem_server_write_transition 000000000001b604 f   OpensslLib:statem_srvr.obj
 0001:0001b5f8       ossl_statem_server_pre_work 000000000001b8b8 f   OpensslLib:statem_srvr.obj
 0001:0001b7d0       ossl_statem_server_post_work 000000000001ba90 f   OpensslLib:statem_srvr.obj
 0001:0001bab8       ossl_statem_server_construct_message 000000000001bd78 f   OpensslLib:statem_srvr.obj
 0001:0001bc90       ossl_statem_server_max_message_size 000000000001bf50 f   OpensslLib:statem_srvr.obj
 0001:0001bcec       ossl_statem_server_process_message 000000000001bfac f   OpensslLib:statem_srvr.obj
 0001:0001be40       ossl_statem_server_post_process_message 000000000001c100 f   OpensslLib:statem_srvr.obj
 0001:0001bed4       dtls_construct_hello_verify_request 000000000001c194 f   OpensslLib:statem_srvr.obj
 0001:0001c090       tls_process_client_hello   000000000001c350 f   OpensslLib:statem_srvr.obj
 0001:0001d1d4       tls_handle_alpn            000000000001d494 f   OpensslLib:statem_srvr.obj
 0001:0001d580       tls_post_process_client_hello 000000000001d840 f   OpensslLib:statem_srvr.obj
 0001:0001d768       tls_construct_server_hello 000000000001da28 f   OpensslLib:statem_srvr.obj
 0001:0001d9bc       tls_construct_server_done  000000000001dc7c f   OpensslLib:statem_srvr.obj
 0001:0001d9e8       tls_construct_server_key_exchange 000000000001dca8 f   OpensslLib:statem_srvr.obj
 0001:0001e27c       tls_construct_certificate_request 000000000001e53c f   OpensslLib:statem_srvr.obj
 0001:0001ebcc       tls_process_client_key_exchange 000000000001ee8c f   OpensslLib:statem_srvr.obj
 0001:0001ed04       tls_process_client_certificate 000000000001efc4 f   OpensslLib:statem_srvr.obj
 0001:0001f2dc       tls_construct_server_certificate 000000000001f59c f   OpensslLib:statem_srvr.obj
 0001:0001f958       tls_construct_new_session_ticket 000000000001fc18 f   OpensslLib:statem_srvr.obj
 0001:0001fd14       tls_construct_cert_status_body 000000000001ffd4 f   OpensslLib:statem_srvr.obj
 0001:0001fd88       tls_construct_cert_status  0000000000020048 f   OpensslLib:statem_srvr.obj
 0001:0001fda0       tls_process_next_proto     0000000000020060 f   OpensslLib:statem_srvr.obj
 0001:0001fe84       X509_check_purpose         0000000000020144 f   OpensslLib:v3_purp.obj
 0001:0001ff00       X509_PURPOSE_get_by_id     00000000000201c0 f   OpensslLib:v3_purp.obj
 0001:00020a70       x509_likely_issued         0000000000020d30 f   OpensslLib:v3_purp.obj
 0001:00020af8       X509_check_akid            0000000000020db8 f   OpensslLib:v3_purp.obj
 0001:00020ba8       X509_STORE_load_locations  0000000000020e68 f   OpensslLib:x509_d2.obj
 0001:00020c38       X509_NAME_ENTRY_free       0000000000020ef8 f   OpensslLib:x_name.obj
 0001:00020c5c       X509_NAME_free             0000000000020f1c f   OpensslLib:x_name.obj
 0001:000216a8       X509_NAME_print            0000000000021968 f   OpensslLib:x_name.obj
 0001:0002183c       custom_ext_find            0000000000021afc f   OpensslLib:extensions_cust.obj
 0001:00021884       custom_ext_parse           0000000000021b44 f   OpensslLib:extensions_cust.obj
 0001:00021994       custom_ext_add             0000000000021c54 f   OpensslLib:extensions_cust.obj
 0001:00021c80       custom_exts_copy           0000000000021f40 f   OpensslLib:extensions_cust.obj
 0001:00021d88       custom_exts_free           0000000000022048 f   OpensslLib:extensions_cust.obj
 0001:00022208       OBJ_add_object             00000000000224c8 f   OpensslLib:obj_dat.obj
 0001:0002238c       OBJ_nid2obj                000000000002264c f   OpensslLib:obj_dat.obj
 0001:00022418       OBJ_nid2sn                 00000000000226d8 f   OpensslLib:obj_dat.obj
 0001:000224a8       OBJ_nid2ln                 0000000000022768 f   OpensslLib:obj_dat.obj
 0001:00022574       OBJ_obj2nid                0000000000022834 f   OpensslLib:obj_dat.obj
 0001:00022610       OBJ_txt2obj                00000000000228d0 f   OpensslLib:obj_dat.obj
 0001:00022704       OBJ_obj2txt                00000000000229c4 f   OpensslLib:obj_dat.obj
 0001:00022a28       OBJ_ln2nid                 0000000000022ce8 f   OpensslLib:obj_dat.obj
 0001:00022abc       OBJ_sn2nid                 0000000000022d7c f   OpensslLib:obj_dat.obj
 0001:00022b50       OBJ_bsearch_ex_            0000000000022e10 f   OpensslLib:obj_dat.obj
 0001:00022c28       OBJ_create                 0000000000022ee8 f   OpensslLib:obj_dat.obj
 0001:00022dc4       CRYPTO_new_ex_data         0000000000023084 f   OpensslLib:ex_data.obj
 0001:00022f24       CRYPTO_dup_ex_data         00000000000231e4 f   OpensslLib:ex_data.obj
 0001:00023108       CRYPTO_free_ex_data        00000000000233c8 f   OpensslLib:ex_data.obj
 0001:0002328c       CRYPTO_set_ex_data         000000000002354c f   OpensslLib:ex_data.obj
 0001:00023330       ssl3_setup_read_buffer     00000000000235f0 f   OpensslLib:ssl3_buffer.obj
 0001:000233e8       ssl3_setup_write_buffer    00000000000236a8 f   OpensslLib:ssl3_buffer.obj
 0001:00023528       ssl3_setup_buffers         00000000000237e8 f   OpensslLib:ssl3_buffer.obj
 0001:0002355c       ssl3_release_write_buffer  000000000002381c f   OpensslLib:ssl3_buffer.obj
 0001:00023ed0       EVP_add_cipher             0000000000024190 f   OpensslLib:names.obj
 0001:00023f20       EVP_add_digest             00000000000241e0 f   OpensslLib:names.obj
 0001:00023fb4       EVP_get_cipherbyname       0000000000024274 f   OpensslLib:names.obj
 0001:00023fe8       EVP_get_digestbyname       00000000000242a8 f   OpensslLib:names.obj
 0001:000248e0       X509_EXTENSION_free        0000000000024ba0 f   OpensslLib:x_exten.obj
 0001:00024904       tls13_hkdf_expand          0000000000024bc4 f   OpensslLib:tls13_enc.obj
 0001:00024c50       tls13_generate_secret      0000000000024f10 f   OpensslLib:tls13_enc.obj
 0001:00024f08       tls13_generate_handshake_secret 00000000000251c8 f   OpensslLib:tls13_enc.obj
 0001:00024f48       tls13_generate_master_secret 0000000000025208 f   OpensslLib:tls13_enc.obj
 0001:00024fc8       tls13_final_finish_mac     0000000000025288 f   OpensslLib:tls13_enc.obj
 0001:00025198       tls13_setup_key_block      0000000000025458 f   OpensslLib:tls13_enc.obj
 0001:000254c8       tls13_change_cipher_state  0000000000025788 f   OpensslLib:tls13_enc.obj
 0001:00025c5c       tls13_update_key           0000000000025f1c f   OpensslLib:tls13_enc.obj
 0001:00025dac       tls13_alert_code           000000000002606c f   OpensslLib:tls13_enc.obj
 0001:00025dc0       tls13_export_keying_material 0000000000026080 f   OpensslLib:tls13_enc.obj
 0001:00025fc4       ssl3_do_write              0000000000026284 f   OpensslLib:statem_lib.obj
 0001:000260e4       tls_close_construct_packet 00000000000263a4 f   OpensslLib:statem_lib.obj
 0001:00026164       tls_setup_handshake        0000000000026424 f   OpensslLib:statem_lib.obj
 0001:000264dc       tls_construct_cert_verify  000000000002679c f   OpensslLib:statem_lib.obj
 0001:000268a8       tls_process_cert_verify    0000000000026b68 f   OpensslLib:statem_lib.obj
 0001:00026d60       tls_construct_finished     0000000000027020 f   OpensslLib:statem_lib.obj
 0001:00026f2c       tls_construct_key_update   00000000000271ec f   OpensslLib:statem_lib.obj
 0001:00026f7c       tls_process_key_update     000000000002723c f   OpensslLib:statem_lib.obj
 0001:00027010       ssl3_take_mac              00000000000272d0 f   OpensslLib:statem_lib.obj
 0001:00027080       tls_process_change_cipher_spec 0000000000027340 f   OpensslLib:statem_lib.obj
 0001:000271d4       tls_process_finished       0000000000027494 f   OpensslLib:statem_lib.obj
 0001:00027420       tls_construct_change_cipher_spec 00000000000276e0 f   OpensslLib:statem_lib.obj
 0001:000277a8       ssl3_output_cert_chain     0000000000027a68 f   OpensslLib:statem_lib.obj
 0001:00027834       tls_finish_handshake       0000000000027af4 f   OpensslLib:statem_lib.obj
 0001:00027ac8       tls_get_message_header     0000000000027d88 f   OpensslLib:statem_lib.obj
 0001:00027d28       tls_get_message_body       0000000000027fe8 f   OpensslLib:statem_lib.obj
 0001:00027f5c       ssl_allow_compression      000000000002821c f   OpensslLib:statem_lib.obj
 0001:00028224       ssl_version_supported      00000000000284e4 f   OpensslLib:statem_lib.obj
 0001:00028314       ssl_set_version_bound      00000000000285d4 f   OpensslLib:statem_lib.obj
 0001:000283f0       ssl_choose_server_version  00000000000286b0 f   OpensslLib:statem_lib.obj
 0001:00028674       ssl_choose_client_version  0000000000028934 f   OpensslLib:statem_lib.obj
 0001:00028864       ssl_get_min_max_version    0000000000028b24 f   OpensslLib:statem_lib.obj
 0001:00028970       check_in_list              0000000000028c30 f   OpensslLib:statem_lib.obj
 0001:000289f4       create_synthetic_message_hash 0000000000028cb4 f   OpensslLib:statem_lib.obj
 0001:00028b24       parse_ca_names             0000000000028de4 f   OpensslLib:statem_lib.obj
 0001:00028ce0       get_ca_names               0000000000028fa0 f   OpensslLib:statem_lib.obj
 0001:00028d28       construct_ca_names         0000000000028fe8 f   OpensslLib:statem_lib.obj
 0001:00028e50       construct_key_exchange_tbs 0000000000029110 f   OpensslLib:statem_lib.obj
 0001:00028f10       tls13_save_handshake_digest_for_pha 00000000000291d0 f   OpensslLib:statem_lib.obj
 0001:00028f8c       tls13_restore_handshake_digest_for_pha 000000000002924c f   OpensslLib:statem_lib.obj
 0001:00029048       X509_load_cert_file        0000000000029308 f   OpensslLib:by_file.obj
 0001:0002c2e4       OBJ_NAME_get               000000000002c5a4 f   OpensslLib:o_names.obj
 0001:0002c39c       OBJ_NAME_add               000000000002c65c f   OpensslLib:o_names.obj
 0001:0002c79c       ossl_init_thread_start     000000000002ca5c f   OpensslLib:init.obj
 0001:0002c7e4       OPENSSL_init_crypto        000000000002caa4 f   OpensslLib:init.obj
 0001:0002ca60       bwrite_conv                000000000002cd20 f   OpensslLib:bio_meth.obj
 0001:0002ca9c       bread_conv                 000000000002cd5c f   OpensslLib:bio_meth.obj
 0001:0002cad8       dtls1_clear_received_buffer 000000000002cd98 f   OpensslLib:d1_lib.obj
 0001:0002cb20       dtls1_clear_sent_buffer    000000000002cde0 f   OpensslLib:d1_lib.obj
 0001:0002cb68       dtls1_start_timer          000000000002ce28 f   OpensslLib:d1_lib.obj
 0001:0002cc60       dtls1_stop_timer           000000000002cf20 f   OpensslLib:d1_lib.obj
 0001:0002ccdc       dtls1_query_mtu            000000000002cf9c f   OpensslLib:d1_lib.obj
 0001:0002ce0c       dtls1_min_mtu              000000000002d0cc f   OpensslLib:d1_lib.obj
 0001:0002ce44       DTLS_RECORD_LAYER_clear    000000000002d104 f   OpensslLib:rec_layer_d1.obj
 0001:0002cf38       do_dtls1_write             000000000002d1f8 f   OpensslLib:rec_layer_d1.obj
 0001:0002d31c       dtls1_reset_seq_numbers    000000000002d5dc f   OpensslLib:rec_layer_d1.obj
 0001:0002d3cc       ssl3_num_ciphers           000000000002d68c f   OpensslLib:s3_lib.obj
 0001:0002d3d4       ssl3_get_cipher            000000000002d694 f   OpensslLib:s3_lib.obj
 0001:0002d3f4       ssl3_set_handshake_header  000000000002d6b4 f   OpensslLib:s3_lib.obj
 0001:0002d440       ssl3_handshake_write       000000000002d700 f   OpensslLib:s3_lib.obj
 0001:0002d44c       ssl3_free                  000000000002d70c f   OpensslLib:s3_lib.obj
 0001:0002d5c0       ssl3_clear                 000000000002d880 f   OpensslLib:s3_lib.obj
 0001:0002d714       ssl3_ctrl                  000000000002d9d4 f   OpensslLib:s3_lib.obj
 0001:0002deac       ssl3_callback_ctrl         000000000002e16c f   OpensslLib:s3_lib.obj
 0001:0002dedc       ssl3_ctx_ctrl              000000000002e19c f   OpensslLib:s3_lib.obj
 0001:0002e3fc       ssl3_ctx_callback_ctrl     000000000002e6bc f   OpensslLib:s3_lib.obj
 0001:0002e450       ssl3_get_cipher_by_id      000000000002e710 f   OpensslLib:s3_lib.obj
 0001:0002e4e0       ssl3_get_cipher_by_std_name 000000000002e7a0 f   OpensslLib:s3_lib.obj
 0001:0002e58c       ssl3_get_cipher_by_char    000000000002e84c f   OpensslLib:s3_lib.obj
 0001:0002e5a4       ssl3_put_cipher_by_char    000000000002e864 f   OpensslLib:s3_lib.obj
 0001:0002e5f0       ssl3_choose_cipher         000000000002e8b0 f   OpensslLib:s3_lib.obj
 0001:0002e9e4       ssl3_get_req_cert_type     000000000002eca4 f   OpensslLib:s3_lib.obj
 0001:0002eb38       ssl3_shutdown              000000000002edf8 f   OpensslLib:s3_lib.obj
 0001:0002ec0c       ssl3_write                 000000000002eecc f   OpensslLib:s3_lib.obj
 0001:0002ed68       ssl3_read                  000000000002f028 f   OpensslLib:s3_lib.obj
 0001:0002ed80       ssl3_peek                  000000000002f040 f   OpensslLib:s3_lib.obj
 0001:0002ed9c       ssl3_renegotiate           000000000002f05c f   OpensslLib:s3_lib.obj
 0001:0002edbc       ssl3_renegotiate_check     000000000002f07c f   OpensslLib:s3_lib.obj
 0001:0002ee34       ssl_get_algorithm2         000000000002f0f4 f   OpensslLib:s3_lib.obj
 0001:0002ee8c       ssl_fill_hello_random      000000000002f14c f   OpensslLib:s3_lib.obj
 0001:0002ef2c       ssl_generate_master_secret 000000000002f1ec f   OpensslLib:s3_lib.obj
 0001:0002f164       ssl_generate_pkey          000000000002f424 f   OpensslLib:s3_lib.obj
 0001:0002f258       ssl_generate_pkey_group    000000000002f518 f   OpensslLib:s3_lib.obj
 0001:0002f408       ssl_generate_param_group   000000000002f6c8 f   OpensslLib:s3_lib.obj
 0001:0002f624       ssl_derive                 000000000002f8e4 f   OpensslLib:s3_lib.obj
 0001:0002f864       ssl_dh_to_pkey             000000000002fb24 f   OpensslLib:s3_lib.obj
 0001:0002f8c0       ssl3_send_alert            000000000002fb80 f   OpensslLib:s3_msg.obj
 0001:0002f9c8       ssl3_dispatch_alert        000000000002fc88 f   OpensslLib:s3_msg.obj
 0001:00030208       d2i_X509_CRL               00000000000304c8 f   OpensslLib:x_crl.obj
 0001:00030214       X509_CRL_free              00000000000304d4 f   OpensslLib:x_crl.obj
 0001:000306b8       X509_verify_cert           0000000000030978 f   OpensslLib:x509_vfy.obj
 0001:0003295c       x509_check_cert_time       0000000000032c1c f   OpensslLib:x509_vfy.obj
 0001:00032d04       X509_cmp_time              0000000000032fc4 f   OpensslLib:x509_vfy.obj
 0001:00032e00       X509_get_pubkey_parameters 00000000000330c0 f   OpensslLib:x509_vfy.obj
 0001:00032ef8       X509_STORE_CTX_init        00000000000331b8 f   OpensslLib:x509_vfy.obj
 0001:00033184       X509_STORE_CTX_cleanup     0000000000033444 f   OpensslLib:x509_vfy.obj
 0001:000343c0       EVP_PKEY_asn1_find         0000000000034680 f   OpensslLib:ameth_lib.obj
 0001:00034454       EVP_PKEY_asn1_find_str     0000000000034714 f   OpensslLib:ameth_lib.obj
 0001:00034618       CONF_parse_list            00000000000348d8 f   OpensslLib:conf_mod.obj
 0001:0003473c       i2d_SSL_SESSION            00000000000349fc f   OpensslLib:ssl_asn1.obj
 0001:00034ab4       d2i_SSL_SESSION            0000000000034d74 f   OpensslLib:ssl_asn1.obj
 0001:00034e84       PEM_ASN1_read_bio          0000000000035144 f   OpensslLib:pem_oth.obj
 0001:00034f50       PEM_def_callback           0000000000035210 f   OpensslLib:pem_lib.obj
 0001:00035ee8       PEM_read_bio_ex            00000000000361a8 f   OpensslLib:pem_lib.obj
 0001:0003633c       pem_check_suffix           00000000000365fc f   OpensslLib:pem_lib.obj
 0001:00036454       tls_validate_all_contexts  0000000000036714 f   OpensslLib:extensions.obj
 0001:00036538       extension_is_relevant      00000000000367f8 f   OpensslLib:extensions.obj
 0001:000365d4       tls_collect_extensions     0000000000036894 f   OpensslLib:extensions.obj
 0001:000369a4       tls_parse_extension        0000000000036c64 f   OpensslLib:extensions.obj
 0001:00036a78       tls_parse_all_extensions   0000000000036d38 f   OpensslLib:extensions.obj
 0001:00036b4c       tls_construct_extensions   0000000000036e0c f   OpensslLib:extensions.obj
 0001:00037700       tls_psk_do_binder          00000000000379c0 f   OpensslLib:extensions.obj
 0001:00037cbc       EC_KEY_free                0000000000037f7c f   OpensslLib:ec_key.obj
 0001:00037d68       EC_KEY_copy                0000000000038028 f   OpensslLib:ec_key.obj
 0001:00037f10       EC_KEY_dup                 00000000000381d0 f   OpensslLib:ec_key.obj
 0001:00037f58       ossl_ec_key_gen            0000000000038218 f   OpensslLib:ec_key.obj
 0001:00037f68       ec_key_simple_generate_key 0000000000038228 f   OpensslLib:ec_key.obj
 0001:00038058       ec_key_simple_generate_public_key 0000000000038318 f   OpensslLib:ec_key.obj
 0001:00038084       EC_KEY_check_key           0000000000038344 f   OpensslLib:ec_key.obj
 0001:000380d8       ec_key_simple_check_key    0000000000038398 f   OpensslLib:ec_key.obj
 0001:0003827c       EC_KEY_set_group           000000000003853c f   OpensslLib:ec_key.obj
 0001:000382d4       EC_KEY_oct2key             0000000000038594 f   OpensslLib:ec_key.obj
 0001:00038358       ec_key_simple_priv2oct     0000000000038618 f   OpensslLib:ec_key.obj
 0001:000383e4       ec_key_simple_oct2priv     00000000000386a4 f   OpensslLib:ec_key.obj
 0001:00038464       EC_KEY_priv2buf            0000000000038724 f   OpensslLib:ec_key.obj
 0001:00038554       X509_verify                0000000000038814 f   OpensslLib:x_all.obj
 0001:000385e4       PEM_read_bio_PrivateKey    00000000000388a4 f   OpensslLib:pem_pkey.obj
 0001:000388ac       PEM_read_bio_DHparams      0000000000038b6c f   OpensslLib:pem_pkey.obj
 0001:000389d8       RSA_new_method             0000000000038c98 f   OpensslLib:rsa_lib.obj
 0001:00038b9c       RSA_free                   0000000000038e5c f   OpensslLib:rsa_lib.obj
 0001:00038c9c       RSA_pkey_ctx_ctrl          0000000000038f5c f   OpensslLib:rsa_lib.obj
 0001:00038d78       d2i_PrivateKey             0000000000039038 f   OpensslLib:d2i_pr.obj
 0001:00038ed8       ASN1_INTEGER_free          0000000000039198 f   OpensslLib:tasn_typ.obj
 0001:00038ee0       ASN1_TYPE_free             00000000000391a0 f   OpensslLib:tasn_typ.obj
 0001:00038f04       ASN1_item_dup              00000000000391c4 f   OpensslLib:a_dup.obj
 0001:00038fb4       ASN1_item_d2i              0000000000039274 f   OpensslLib:tasn_dec.obj
 0001:00039004       ASN1_item_ex_d2i           00000000000392c4 f   OpensslLib:tasn_dec.obj
 0001:0003a5ec       X509_ALGOR_free            000000000003a8ac f   OpensslLib:x_algor.obj
 0001:0003a610       X509_ALGOR_set0            000000000003a8d0 f   OpensslLib:x_algor.obj
 0001:0003adc8       DIST_POINT_free            000000000003b088 f   OpensslLib:v3_crld.obj
 0001:0003b18c       DIST_POINT_set_dpname      000000000003b44c f   OpensslLib:v3_crld.obj
 0001:0003b274       ASN1_item_new              000000000003b534 f   OpensslLib:tasn_new.obj
 0001:0003b740       GENERAL_NAME_free          000000000003ba00 f   OpensslLib:v3_genn.obj
 0001:0003b764       GENERAL_NAMES_free         000000000003ba24 f   OpensslLib:v3_genn.obj
 0001:0003be78       NAME_CONSTRAINTS_check     000000000003c138 f   OpensslLib:v3_ncons.obj
 0001:0003c040       NAME_CONSTRAINTS_check_CN  000000000003c300 f   OpensslLib:v3_ncons.obj
 0001:0003c6a0       asn1_item_embed_free       000000000003c960 f   OpensslLib:tasn_fre.obj
 0001:0003c8ec       asn1_template_free         000000000003cbac f   OpensslLib:tasn_fre.obj
 0001:0003c9a8       asn1_primitive_free        000000000003cc68 f   OpensslLib:tasn_fre.obj
 0001:0003cb50       ASN1_item_ex_i2d           000000000003ce10 f   OpensslLib:tasn_enc.obj
 0001:0003d698       X509_check_trust           000000000003d958 f   OpensslLib:x509_trs.obj
 0001:0003d71c       X509_TRUST_get_by_id       000000000003d9dc f   OpensslLib:x509_trs.obj
 0001:0003d8d4       a2d_ASN1_OBJECT            000000000003db94 f   OpensslLib:a_object.obj
 0001:0003dc3c       i2a_ASN1_OBJECT            000000000003defc f   OpensslLib:a_object.obj
 0001:0003dd7c       d2i_ASN1_OBJECT            000000000003e03c f   OpensslLib:a_object.obj
 0001:0003de04       c2i_ASN1_OBJECT            000000000003e0c4 f   OpensslLib:a_object.obj
 0001:0003dfcc       ASN1_OBJECT_free           000000000003e28c f   OpensslLib:a_object.obj
 0001:0003e028       X509V3_add_value           000000000003e2e8 f   OpensslLib:v3_utl.obj
 0001:0003e140       X509V3_conf_free           000000000003e400 f   OpensslLib:v3_utl.obj
 0001:0003e284       i2s_ASN1_INTEGER           000000000003e544 f   OpensslLib:v3_utl.obj
 0001:0003e2e8       s2i_ASN1_INTEGER           000000000003e5a8 f   OpensslLib:v3_utl.obj
 0001:0003e3ec       X509V3_add_value_int       000000000003e6ac f   OpensslLib:v3_utl.obj
 0001:0003e444       X509V3_get_value_bool      000000000003e704 f   OpensslLib:v3_utl.obj
 0001:0003e5d4       X509V3_get_value_int       000000000003e894 f   OpensslLib:v3_utl.obj
 0001:0003e644       X509V3_parse_list          000000000003e904 f   OpensslLib:v3_utl.obj
 0001:0003e8b4       name_cmp                   000000000003eb74 f   OpensslLib:v3_utl.obj
 0001:0003f108       a2i_IPADDRESS_NC           000000000003f3c8 f   OpensslLib:v3_utl.obj
 0001:0003f1d8       a2i_ipadd                  000000000003f498 f   OpensslLib:v3_utl.obj
 0001:0003f46c       X509V3_NAME_from_section   000000000003f72c f   OpensslLib:v3_utl.obj
 0001:0003f5b0       OBJ_dup                    000000000003f870 f   OpensslLib:obj_lib.obj
 0001:0003f930       ossl_statem_client_read_transition 000000000003fbf0 f   OpensslLib:statem_clnt.obj
 0001:0003fdac       ossl_statem_client_write_transition 000000000004006c f   OpensslLib:statem_clnt.obj
 0001:0003ffcc       ossl_statem_client_pre_work 000000000004028c f   OpensslLib:statem_clnt.obj
 0001:00040074       ossl_statem_client_post_work 0000000000040334 f   OpensslLib:statem_clnt.obj
 0001:00040344       ossl_statem_client_construct_message 0000000000040604 f   OpensslLib:statem_clnt.obj
 0001:00040490       ossl_statem_client_max_message_size 0000000000040750 f   OpensslLib:statem_clnt.obj
 0001:00040518       ossl_statem_client_process_message 00000000000407d8 f   OpensslLib:statem_clnt.obj
 0001:0004077c       ossl_statem_client_post_process_message 0000000000040a3c f   OpensslLib:statem_clnt.obj
 0001:000407b4       tls_construct_client_hello 0000000000040a74 f   OpensslLib:statem_clnt.obj
 0001:00040d6c       tls_process_server_hello   000000000004102c f   OpensslLib:statem_clnt.obj
 0001:000415c8       tls_process_server_certificate 0000000000041888 f   OpensslLib:statem_clnt.obj
 0001:00041f50       tls_process_key_exchange   0000000000042210 f   OpensslLib:statem_clnt.obj
 0001:000423e4       tls_process_certificate_request 00000000000426a4 f   OpensslLib:statem_clnt.obj
 0001:000426f0       tls_process_new_session_ticket 00000000000429b0 f   OpensslLib:statem_clnt.obj
 0001:00042b60       tls_process_cert_status_body 0000000000042e20 f   OpensslLib:statem_clnt.obj
 0001:00042c30       tls_process_initial_server_flight 0000000000042ef0 f   OpensslLib:statem_clnt.obj
 0001:0004334c       tls_construct_client_key_exchange 000000000004360c f   OpensslLib:statem_clnt.obj
 0001:000434fc       tls_prepare_client_certificate 00000000000437bc f   OpensslLib:statem_clnt.obj
 0001:00043894       tls_construct_client_certificate 0000000000043b54 f   OpensslLib:statem_clnt.obj
 0001:000439ac       ssl3_check_cert_and_algorithm 0000000000043c6c f   OpensslLib:statem_clnt.obj
 0001:00043af4       tls_construct_next_proto   0000000000043db4 f   OpensslLib:statem_clnt.obj
 0001:00043eec       tls_construct_end_of_early_data 00000000000441ac f   OpensslLib:statem_clnt.obj
 0001:00043f58       WPACKET_allocate_bytes     0000000000044218 f   OpensslLib:packet.obj
 0001:00043f8c       WPACKET_sub_allocate_bytes__ 000000000004424c f   OpensslLib:packet.obj
 0001:00043ffc       WPACKET_reserve_bytes      00000000000442bc f   OpensslLib:packet.obj
 0001:00044118       WPACKET_init_static_len    00000000000443d8 f   OpensslLib:packet.obj
 0001:00044228       WPACKET_finish             00000000000444e8 f   OpensslLib:packet.obj
 0001:00044274       WPACKET_start_sub_packet_len__ 0000000000044534 f   OpensslLib:packet.obj
 0001:0004433c       WPACKET_put_bytes__        00000000000445fc f   OpensslLib:packet.obj
 0001:000443b8       WPACKET_memcpy             0000000000044678 f   OpensslLib:packet.obj
 0001:00044400       WPACKET_sub_memcpy__       00000000000446c0 f   OpensslLib:packet.obj
 0001:00044470       WPACKET_get_total_written  0000000000044730 f   OpensslLib:packet.obj
 0001:000444ac       WPACKET_get_length         000000000004476c f   OpensslLib:packet.obj
 0001:00044500       WPACKET_cleanup            00000000000447c0 f   OpensslLib:packet.obj
 0001:00044620       dtls1_hm_fragment_free     00000000000448e0 f   OpensslLib:statem_dtls.obj
 0001:00044688       dtls1_do_write             0000000000044948 f   OpensslLib:statem_dtls.obj
 0001:00044b58       dtls_get_message           0000000000044e18 f   OpensslLib:statem_dtls.obj
 0001:00045720       dtls_construct_change_cipher_spec 00000000000459e0 f   OpensslLib:statem_dtls.obj
 0001:00045790       dtls1_get_message_header   0000000000045a50 f   OpensslLib:statem_dtls.obj
 0001:00045978       EVP_PKEY_CTX_dup           0000000000045c38 f   OpensslLib:pmeth_lib.obj
 0001:00045a48       EVP_PKEY_CTX_free          0000000000045d08 f   OpensslLib:pmeth_lib.obj
 0001:00045a88       EVP_PKEY_CTX_ctrl          0000000000045d48 f   OpensslLib:pmeth_lib.obj
 0001:00045b48       EVP_PKEY_CTX_str2ctrl      0000000000045e08 f   OpensslLib:pmeth_lib.obj
 0001:00045b88       EVP_PKEY_CTX_hex2ctrl      0000000000045e48 f   OpensslLib:pmeth_lib.obj
 0001:00045be4       EVP_PKEY_CTX_md            0000000000045ea4 f   OpensslLib:pmeth_lib.obj
 0001:00045c50       X509_verify_cert_error_string 0000000000045f10 f   OpensslLib:x509_txt.obj
 0001:0004608c       SSL3_RECORD_clear          000000000004634c f   OpensslLib:ssl3_record.obj
 0001:000460d4       early_data_count_ok        0000000000046394 f   OpensslLib:ssl3_record.obj
 0001:0004618c       ssl3_get_record            000000000004644c f   OpensslLib:ssl3_record.obj
 0001:00046e00       ssl3_do_uncompress         00000000000470c0 f   OpensslLib:ssl3_record.obj
 0001:00046ea0       ssl3_do_compress           0000000000047160 f   OpensslLib:ssl3_record.obj
 0001:00046f18       tls1_enc                   00000000000471d8 f   OpensslLib:ssl3_record.obj
 0001:00047564       tls1_mac                   0000000000047824 f   OpensslLib:ssl3_record.obj
 0001:00047824       tls1_cbc_remove_padding    0000000000047ae4 f   OpensslLib:ssl3_record.obj
 0001:00047964       ssl3_cbc_copy_mac          0000000000047c24 f   OpensslLib:ssl3_record.obj
 0001:00047af4       tls13_enc                  0000000000047db4 f   OpensslLib:ssl3_record_tls13.obj
 0001:00048164       tls1_change_cipher_state   0000000000048424 f   OpensslLib:t1_enc.obj
 0001:0004875c       tls1_setup_key_block       0000000000048a1c f   OpensslLib:t1_enc.obj
 0001:00048988       tls1_final_finish_mac      0000000000048c48 f   OpensslLib:t1_enc.obj
 0001:00048a88       tls1_generate_master_secret 0000000000048d48 f   OpensslLib:t1_enc.obj
 0001:00048c20       tls1_export_keying_material 0000000000048ee0 f   OpensslLib:t1_enc.obj
 0001:00048e60       tls1_alert_code            0000000000049120 f   OpensslLib:t1_enc.obj
 0001:00048fd4       EC_GROUP_new               0000000000049294 f   OpensslLib:ec_lib.obj
 0001:00049094       EC_GROUP_free              0000000000049354 f   OpensslLib:ec_lib.obj
 0001:0004910c       EC_GROUP_clear_free        00000000000493cc f   OpensslLib:ec_lib.obj
 0001:000491cc       EC_GROUP_copy              000000000004948c f   OpensslLib:ec_lib.obj
 0001:000493c4       EC_GROUP_dup               0000000000049684 f   OpensslLib:ec_lib.obj
 0001:000495f8       EC_GROUP_set_generator     00000000000498b8 f   OpensslLib:ec_lib.obj
 0001:00049784       EC_GROUP_set_seed          0000000000049a44 f   OpensslLib:ec_lib.obj
 0001:00049818       EC_GROUP_cmp               0000000000049ad8 f   OpensslLib:ec_lib.obj
 0001:000499d0       EC_POINT_new               0000000000049c90 f   OpensslLib:ec_lib.obj
 0001:00049a50       EC_POINT_free              0000000000049d10 f   OpensslLib:ec_lib.obj
 0001:00049a7c       EC_POINT_clear_free        0000000000049d3c f   OpensslLib:ec_lib.obj
 0001:00049ac4       EC_POINT_copy              0000000000049d84 f   OpensslLib:ec_lib.obj
 0001:00049b20       EC_POINT_set_to_infinity   0000000000049de0 f   OpensslLib:ec_lib.obj
 0001:00049b60       EC_POINT_set_affine_coordinates 0000000000049e20 f   OpensslLib:ec_lib.obj
 0001:00049bfc       EC_POINT_get_affine_coordinates 0000000000049ebc f   OpensslLib:ec_lib.obj
 0001:00049ca8       EC_POINT_add               0000000000049f68 f   OpensslLib:ec_lib.obj
 0001:00049d28       EC_POINT_dbl               0000000000049fe8 f   OpensslLib:ec_lib.obj
 0001:00049d90       EC_POINT_invert            000000000004a050 f   OpensslLib:ec_lib.obj
 0001:00049de4       EC_POINT_is_at_infinity    000000000004a0a4 f   OpensslLib:ec_lib.obj
 0001:00049e38       EC_POINT_is_on_curve       000000000004a0f8 f   OpensslLib:ec_lib.obj
 0001:00049e8c       EC_POINT_cmp               000000000004a14c f   OpensslLib:ec_lib.obj
 0001:00049ef4       EC_POINTs_make_affine      000000000004a1b4 f   OpensslLib:ec_lib.obj
 0001:00049f74       EC_POINT_mul               000000000004a234 f   OpensslLib:ec_lib.obj
 0001:0004a1b4       ec_group_simple_order_bits 000000000004a474 f   OpensslLib:ec_lib.obj
 0001:0004a2c0       HMAC_Init_ex               000000000004a580 f   OpensslLib:hmac.obj
 0001:0004a4e0       HMAC_Final                 000000000004a7a0 f   OpensslLib:hmac.obj
 0001:0004a570       HMAC_CTX_new               000000000004a830 f   OpensslLib:hmac.obj
 0001:0004a5ec       HMAC_CTX_free              000000000004a8ac f   OpensslLib:hmac.obj
 0001:0004a6c8       HMAC_CTX_copy              000000000004a988 f   OpensslLib:hmac.obj
 0001:0004a738       BN_num_bits_word           000000000004a9f8 f   OpensslLib:bn_lib.obj
 0001:0004a810       BN_num_bits                000000000004aad0 f   OpensslLib:bn_lib.obj
 0001:0004a924       BN_clear_free              000000000004abe4 f   OpensslLib:bn_lib.obj
 0001:0004a970       BN_free                    000000000004ac30 f   OpensslLib:bn_lib.obj
 0001:0004a9d0       BN_new                     000000000004ac90 f   OpensslLib:bn_lib.obj
 0001:0004aa0c       bn_expand2                 000000000004accc f   OpensslLib:bn_lib.obj
 0001:0004aac0       BN_dup                     000000000004ad80 f   OpensslLib:bn_lib.obj
 0001:0004ab24       BN_copy                    000000000004ade4 f   OpensslLib:bn_lib.obj
 0001:0004ab9c       BN_set_word                000000000004ae5c f   OpensslLib:bn_lib.obj
 0001:0004abe8       BN_bin2bn                  000000000004aea8 f   OpensslLib:bn_lib.obj
 0001:0004ae10       BN_ucmp                    000000000004b0d0 f   OpensslLib:bn_lib.obj
 0001:0004ae58       BN_cmp                     000000000004b118 f   OpensslLib:bn_lib.obj
 0001:0004aedc       BN_set_bit                 000000000004b19c f   OpensslLib:bn_lib.obj
 0001:0004af6c       BN_is_bit_set              000000000004b22c f   OpensslLib:bn_lib.obj
 0001:0004af9c       BN_consttime_swap          000000000004b25c f   OpensslLib:bn_lib.obj
 0001:0004b040       BN_security_bits           000000000004b300 f   OpensslLib:bn_lib.obj
 0001:0004b0a8       BN_is_word                 000000000004b368 f   OpensslLib:bn_lib.obj
 0001:0004b0d8       bn_correct_top             000000000004b398 f   OpensslLib:bn_lib.obj
 0001:0004b208       RSA_setup_blinding         000000000004b4c8 f   OpensslLib:rsa_crpt.obj
 0001:0004b698       EC_GROUP_new_by_curve_name 000000000004b958 f   OpensslLib:ec_curve.obj
 0001:0004b704       EC_curve_nist2nid          000000000004b9c4 f   OpensslLib:ec_curve.obj
 0001:0004b764       ec_curve_nid_from_params   000000000004ba24 f   OpensslLib:ec_curve.obj
 0001:0004b9f8       DH_new                     000000000004bcb8 f   OpensslLib:dh_lib.obj
 0001:0004bb70       DH_free                    000000000004be30 f   OpensslLib:dh_lib.obj
 0001:0004bc20       ACCESS_DESCRIPTION_free    000000000004bee0 f   OpensslLib:v3_info.obj
 0001:0004bfac       X509_NAME_oneline          000000000004c26c f   OpensslLib:x509_obj.obj
 0001:0004c310       ASN1_INTEGER_cmp           000000000004c5d0 f   OpensslLib:a_int.obj
 0001:0004c590       c2i_ASN1_INTEGER           000000000004c850 f   OpensslLib:a_int.obj
 0001:0004c8e4       ASN1_INTEGER_get           000000000004cba4 f   OpensslLib:a_int.obj
 0001:0004c928       ASN1_ENUMERATED_get        000000000004cbe8 f   OpensslLib:a_int.obj
 0001:0004c97c       c2i_uint64_int             000000000004cc3c f   OpensslLib:a_int.obj
 0001:0004ca2c       OBJ_find_sigid_algs        000000000004ccec f   OpensslLib:obj_xref.obj
 0001:0004cad4       OBJ_find_sigid_by_algs     000000000004cd94 f   OpensslLib:obj_xref.obj
 0001:0004cb7c       ASN1_get_object            000000000004ce3c f   OpensslLib:asn1_lib.obj
 0001:0004cd10       ASN1_put_object            000000000004cfd0 f   OpensslLib:asn1_lib.obj
 0001:0004ce08       ASN1_object_size           000000000004d0c8 f   OpensslLib:asn1_lib.obj
 0001:0004ce5c       ASN1_STRING_copy           000000000004d11c f   OpensslLib:asn1_lib.obj
 0001:0004ceac       ASN1_STRING_dup            000000000004d16c f   OpensslLib:asn1_lib.obj
 0001:0004cefc       ASN1_STRING_set            000000000004d1bc f   OpensslLib:asn1_lib.obj
 0001:0004cff4       ASN1_STRING_set0           000000000004d2b4 f   OpensslLib:asn1_lib.obj
 0001:0004d02c       ASN1_STRING_type_new       000000000004d2ec f   OpensslLib:asn1_lib.obj
 0001:0004d064       ASN1_STRING_free           000000000004d324 f   OpensslLib:asn1_lib.obj
 0001:0004d0a8       ASN1_STRING_clear_free     000000000004d368 f   OpensslLib:asn1_lib.obj
 0001:0004d0e0       ASN1_STRING_cmp            000000000004d3a0 f   OpensslLib:asn1_lib.obj
 0001:0004d270       asn1_time_to_tm            000000000004d530 f   OpensslLib:a_time.obj
 0001:0004d630       asn1_time_from_tm          000000000004d8f0 f   OpensslLib:a_time.obj
 0001:0004d748       ASN1_TIME_adj              000000000004da08 f   OpensslLib:a_time.obj
 0001:0004d79c       ASN1_TIME_diff             000000000004da5c f   OpensslLib:a_time.obj
 0001:0004d890       ASN1_TIME_print            000000000004db50 f   OpensslLib:a_time.obj
 0001:0004e71c       SSL_CONF_cmd               000000000004e9dc f   OpensslLib:ssl_conf.obj
 0001:0004e878       SSL_CONF_CTX_finish        000000000004eb38 f   OpensslLib:ssl_conf.obj
 0001:0004eddc       rand_pool_acquire_entropy  000000000004f09c f   OpensslLib:rand_pool.obj
 0001:0004ee5c       RAND_DRBG_set              000000000004f11c f   OpensslLib:drbg_lib.obj
 0001:0004f030       RAND_DRBG_free             000000000004f2f0 f   OpensslLib:drbg_lib.obj
 0001:0004f0a0       RAND_DRBG_instantiate      000000000004f360 f   OpensslLib:drbg_lib.obj
 0001:0004f2cc       RAND_DRBG_reseed           000000000004f58c f   OpensslLib:drbg_lib.obj
 0001:0004f438       rand_drbg_restart          000000000004f6f8 f   OpensslLib:drbg_lib.obj
 0001:0004f780       RAND_DRBG_generate         000000000004fa40 f   OpensslLib:drbg_lib.obj
 0001:0004f8f4       RAND_DRBG_bytes            000000000004fbb4 f   OpensslLib:drbg_lib.obj
 0001:0004fe00       RAND_DRBG_get0_master      00000000000500c0 f   OpensslLib:drbg_lib.obj
 0001:0004fe34       RAND_DRBG_get0_private     00000000000500f4 f   OpensslLib:drbg_lib.obj
 0001:0004ff68       ASN1_TYPE_set              0000000000050228 f   OpensslLib:a_type.obj
 0001:0004ffcc       ASN1_TYPE_cmp              000000000005028c f   OpensslLib:a_type.obj
 0001:00050040       ASN1_TYPE_unpack_sequence  0000000000050300 f   OpensslLib:a_type.obj
 0001:0005009c       X509_ATTRIBUTE_free        000000000005035c f   OpensslLib:x_attrib.obj
 0001:00050144       CMAC_CTX_new               0000000000050404 f   OpensslLib:cmac.obj
 0001:000501a8       CMAC_CTX_free              0000000000050468 f   OpensslLib:cmac.obj
 0001:00050240       CMAC_CTX_copy              0000000000050500 f   OpensslLib:cmac.obj
 0001:000502dc       CMAC_Init                  000000000005059c f   OpensslLib:cmac.obj
 0001:0005068c       EVP_DigestSignFinal        000000000005094c f   OpensslLib:m_sigver.obj
 0001:0005086c       EVP_DigestSign             0000000000050b2c f   OpensslLib:m_sigver.obj
 0001:000508e4       EVP_DigestVerifyFinal      0000000000050ba4 f   OpensslLib:m_sigver.obj
 0001:00050a14       EVP_DigestVerify           0000000000050cd4 f   OpensslLib:m_sigver.obj
 0001:00050a88       ssl3_cleanup_key_block     0000000000050d48 f   OpensslLib:s3_enc.obj
 0001:00050af4       ssl3_init_finished_mac     0000000000050db4 f   OpensslLib:s3_enc.obj
 0001:00050b70       ssl3_free_digest_list      0000000000050e30 f   OpensslLib:s3_enc.obj
 0001:00050bd8       ssl3_finish_mac            0000000000050e98 f   OpensslLib:s3_enc.obj
 0001:00050c74       ssl3_digest_cached_records 0000000000050f34 f   OpensslLib:s3_enc.obj
 0001:00050d90       X509v3_get_ext_by_NID      0000000000051050 f   OpensslLib:x509_v3.obj
 0001:00050dcc       X509v3_get_ext_by_OBJ      000000000005108c f   OpensslLib:x509_v3.obj
 0001:00051b90       ASN1_STRING_to_UTF8        0000000000051e50 f   OpensslLib:a_strex.obj
 0001:00051c18       BN_bn2hex                  0000000000051ed8 f   OpensslLib:bn_print.obj
 0001:00051cf8       BN_bn2dec                  0000000000051fb8 f   OpensslLib:bn_print.obj
 0001:00051eb8       BN_hex2bn                  0000000000052178 f   OpensslLib:bn_print.obj
 0001:00052074       BN_dec2bn                  0000000000052334 f   OpensslLib:bn_print.obj
 0001:000522e8       BN_mod_word                00000000000525a8 f   OpensslLib:bn_word.obj
 0001:0005238c       BN_div_word                000000000005264c f   OpensslLib:bn_word.obj
 0001:00052478       BN_add_word                0000000000052738 f   OpensslLib:bn_word.obj
 0001:0005254c       BN_sub_word                000000000005280c f   OpensslLib:bn_word.obj
 0001:0005261c       BN_mul_word                00000000000528dc f   OpensslLib:bn_word.obj
 0001:00052728       BN_lshift1                 00000000000529e8 f   OpensslLib:bn_shift.obj
 0001:000527d0       BN_rshift1                 0000000000052a90 f   OpensslLib:bn_shift.obj
 0001:000528a4       BN_lshift                  0000000000052b64 f   OpensslLib:bn_shift.obj
 0001:000528e8       bn_lshift_fixed_top        0000000000052ba8 f   OpensslLib:bn_shift.obj
 0001:00052a20       BN_rshift                  0000000000052ce0 f   OpensslLib:bn_shift.obj
 0001:00052a5c       bn_rshift_fixed_top        0000000000052d1c f   OpensslLib:bn_shift.obj
 0001:00052b64       EVP_PBE_CipherInit         0000000000052e24 f   OpensslLib:evp_pbe.obj
 0001:00052cf0       EVP_PBE_find               0000000000052fb0 f   OpensslLib:evp_pbe.obj
 0001:00052dbc       EVP_PKEY_sign_init         000000000005307c f   OpensslLib:pmeth_fn.obj
 0001:00052e18       EVP_PKEY_sign              00000000000530d8 f   OpensslLib:pmeth_fn.obj
 0001:00052f28       EVP_PKEY_verify_init       00000000000531e8 f   OpensslLib:pmeth_fn.obj
 0001:00052f84       EVP_PKEY_verify            0000000000053244 f   OpensslLib:pmeth_fn.obj
 0001:00052fe0       EVP_PKEY_encrypt_init      00000000000532a0 f   OpensslLib:pmeth_fn.obj
 0001:00053044       EVP_PKEY_encrypt           0000000000053304 f   OpensslLib:pmeth_fn.obj
 0001:00053158       EVP_PKEY_derive_init       0000000000053418 f   OpensslLib:pmeth_fn.obj
 0001:000531bc       EVP_PKEY_derive_set_peer   000000000005347c f   OpensslLib:pmeth_fn.obj
 0001:00053344       EVP_PKEY_derive            0000000000053604 f   OpensslLib:pmeth_fn.obj
 0001:00053440       CRYPTO_xts128_encrypt      0000000000053700 f   OpensslLib:xts128.obj
 0001:000536e0       AES_set_encrypt_key        00000000000539a0 f   OpensslLib:aes_core.obj
 0001:00053cc8       AES_set_decrypt_key        0000000000053f88 f   OpensslLib:aes_core.obj
 0001:00053f04       AES_encrypt                00000000000541c4 f   OpensslLib:aes_core.obj
 0001:00054548       AES_decrypt                0000000000054808 f   OpensslLib:aes_core.obj
 0001:00054ce0       CRYPTO_gcm128_init         0000000000054fa0 f   OpensslLib:gcm128.obj
 0001:00054ebc       CRYPTO_gcm128_setiv        000000000005517c f   OpensslLib:gcm128.obj
 0001:00055080       CRYPTO_gcm128_aad          0000000000055340 f   OpensslLib:gcm128.obj
 0001:000551bc       CRYPTO_gcm128_encrypt      000000000005547c f   OpensslLib:gcm128.obj
 0001:00055304       CRYPTO_gcm128_decrypt      00000000000555c4 f   OpensslLib:gcm128.obj
 0001:0005544c       CRYPTO_gcm128_finish       000000000005570c f   OpensslLib:gcm128.obj
 0001:000555d4       CRYPTO_gcm128_tag          0000000000055894 f   OpensslLib:gcm128.obj
 0001:0005560c       CRYPTO_ccm128_init         00000000000558cc f   OpensslLib:ccm128.obj
 0001:00055674       CRYPTO_ccm128_setiv        0000000000055934 f   OpensslLib:ccm128.obj
 0001:00055708       CRYPTO_ccm128_aad          00000000000559c8 f   OpensslLib:ccm128.obj
 0001:00055884       CRYPTO_ccm128_encrypt      0000000000055b44 f   OpensslLib:ccm128.obj
 0001:00055b38       CRYPTO_ccm128_decrypt      0000000000055df8 f   OpensslLib:ccm128.obj
 0001:00055d34       CRYPTO_ccm128_encrypt_ccm64 0000000000055ff4 f   OpensslLib:ccm128.obj
 0001:00055f7c       CRYPTO_ccm128_decrypt_ccm64 000000000005623c f   OpensslLib:ccm128.obj
 0001:00056174       CRYPTO_ccm128_tag          0000000000056434 f   OpensslLib:ccm128.obj
 0001:000561b0       CRYPTO_cbc128_encrypt      0000000000056470 f   OpensslLib:cbc128.obj
 0001:0005627c       CRYPTO_cbc128_decrypt      000000000005653c f   OpensslLib:cbc128.obj
 0001:0005633c       CRYPTO_ofb128_encrypt      00000000000565fc f   OpensslLib:ofb128.obj
 0001:000563c4       CRYPTO_128_wrap            0000000000056684 f   OpensslLib:wrap128.obj
 0001:00056644       CRYPTO_128_wrap_pad        0000000000056904 f   OpensslLib:wrap128.obj
 0001:00056770       CRYPTO_128_unwrap_pad      0000000000056a30 f   OpensslLib:wrap128.obj
 0001:00056914       AES_cbc_encrypt            0000000000056bd4 f   OpensslLib:aes_cbc.obj
 0001:00056940       CRYPTO_ctr128_encrypt      0000000000056c00 f   OpensslLib:ctr128.obj
 0001:000569f0       CRYPTO_ctr128_encrypt_ctr32 0000000000056cb0 f   OpensslLib:ctr128.obj
 0001:00056be8       CRYPTO_cfb128_encrypt      0000000000056ea8 f   OpensslLib:cfb128.obj
 0001:00056de8       CRYPTO_cfb128_1_encrypt    00000000000570a8 f   OpensslLib:cfb128.obj
 0001:00056edc       CRYPTO_cfb128_8_encrypt    000000000005719c f   OpensslLib:cfb128.obj
 0001:00056f78       SHA224_Init                0000000000057238 f   OpensslLib:sha256.obj
 0001:00056fd8       SHA256_Init                0000000000057298 f   OpensslLib:sha256.obj
 0001:00057038       SHA256_Update              00000000000572f8 f   OpensslLib:sha256.obj
 0001:0005714c       SHA256_Transform           000000000005740c f   OpensslLib:sha256.obj
 0001:00057158       SHA256_Final               0000000000057418 f   OpensslLib:sha256.obj
 0001:00057630       SHA384_Init                00000000000578f0 f   OpensslLib:sha512.obj
 0001:000576c0       SHA512_Init                0000000000057980 f   OpensslLib:sha512.obj
 0001:00057750       SHA512_Final               0000000000057a10 f   OpensslLib:sha512.obj
 0001:00057a90       SHA512_Update              0000000000057d50 f   OpensslLib:sha512.obj
 0001:00057b94       SHA512_Transform           0000000000057e54 f   OpensslLib:sha512.obj
 0001:00058008       SHA1_Update                00000000000582c8 f   OpensslLib:sha1dgst.obj
 0001:0005811c       SHA1_Transform             00000000000583dc f   OpensslLib:sha1dgst.obj
 0001:00058128       SHA1_Final                 00000000000583e8 f   OpensslLib:sha1dgst.obj
 0001:00058274       SHA1_Init                  0000000000058534 f   OpensslLib:sha1dgst.obj
 0001:000588e8       aria_encrypt               0000000000058ba8 f   OpensslLib:aria.obj
 0001:000589dc       aria_set_encrypt_key       0000000000058c9c f   OpensslLib:aria.obj
 0001:00058d08       aria_set_decrypt_key       0000000000058fc8 f   OpensslLib:aria.obj
 0001:00058dbc       MD5_Update                 000000000005907c f   OpensslLib:md5_dgst.obj
 0001:00058ed0       MD5_Transform              0000000000059190 f   OpensslLib:md5_dgst.obj
 0001:00058edc       MD5_Final                  000000000005919c f   OpensslLib:md5_dgst.obj
 0001:00059068       MD5_Init                   0000000000059328 f   OpensslLib:md5_dgst.obj
 0001:000590a4       md5_block_data_order       0000000000059364 f   OpensslLib:md5_dgst.obj
 0001:00059b4c       openssl_add_all_ciphers_int 0000000000059e0c f   OpensslLib:c_allc.obj
 0001:00059fe8       pitem_new                  000000000005a2a8 f   OpensslLib:pqueue.obj
 0001:0005a05c       pqueue_insert              000000000005a31c f   OpensslLib:pqueue.obj
 0001:0005a0dc       pqueue_find                000000000005a39c f   OpensslLib:pqueue.obj
 0001:0005a15c       EVP_PKEY_keygen_init       000000000005a41c f   OpensslLib:pmeth_gn.obj
 0001:0005a1b8       EVP_PKEY_keygen            000000000005a478 f   OpensslLib:pmeth_gn.obj
 0001:0005a274       ASN1_item_verify           000000000005a534 f   OpensslLib:a_verify.obj
 0001:0005a4f4       X509_NAME_get_index_by_NID 000000000005a7b4 f   OpensslLib:x509name.obj
 0001:0005a530       X509_NAME_get_index_by_OBJ 000000000005a7f0 f   OpensslLib:x509name.obj
 0001:0005a5cc       X509_NAME_get_entry        000000000005a88c f   OpensslLib:x509name.obj
 0001:0005a604       X509_NAME_delete_entry     000000000005a8c4 f   OpensslLib:x509name.obj
 0001:0005a714       X509_NAME_add_entry        000000000005a9d4 f   OpensslLib:x509name.obj
 0001:0005a87c       X509_NAME_ENTRY_create_by_OBJ 000000000005ab3c f   OpensslLib:x509name.obj
 0001:0005b5f0       X509_policy_tree_free      000000000005b8b0 f   OpensslLib:pcy_tree.obj
 0001:0005b69c       X509_policy_check          000000000005b95c f   OpensslLib:pcy_tree.obj
 0001:0005e9a8       rsa_pss_params_create      000000000005ec68 f   OpensslLib:rsa_ameth.obj
 0001:0005eec0       rsa_pss_get_param          000000000005f180 f   OpensslLib:rsa_ameth.obj
 0001:00060428       EVP_DecodeUpdate           00000000000606e8 f   OpensslLib:encode.obj
 0001:00060780       EVP_read_pw_string_min     0000000000060a40 f   OpensslLib:evp_key.obj
 0001:00060904       EVP_BytesToKey             0000000000060bc4 f   OpensslLib:evp_key.obj
 0001:00060ac0       tls_construct_ctos_renegotiate 0000000000060d80 f   OpensslLib:extensions_clnt.obj
 0001:00060b80       tls_construct_ctos_server_name 0000000000060e40 f   OpensslLib:extensions_clnt.obj
 0001:00060cb0       tls_construct_ctos_maxfragmentlen 0000000000060f70 f   OpensslLib:extensions_clnt.obj
 0001:00060df0       tls_construct_ctos_ec_pt_formats 00000000000610b0 f   OpensslLib:extensions_clnt.obj
 0001:00060ee8       tls_construct_ctos_supported_groups 00000000000611a8 f   OpensslLib:extensions_clnt.obj
 0001:00061038       tls_construct_ctos_session_ticket 00000000000612f8 f   OpensslLib:extensions_clnt.obj
 0001:00061198       tls_construct_ctos_sig_algs 0000000000061458 f   OpensslLib:extensions_clnt.obj
 0001:000612c0       tls_construct_ctos_status_request 0000000000061580 f   OpensslLib:extensions_clnt.obj
 0001:0006152c       tls_construct_ctos_npn     00000000000617ec f   OpensslLib:extensions_clnt.obj
 0001:000615c4       tls_construct_ctos_alpn    0000000000061884 f   OpensslLib:extensions_clnt.obj
 0001:000616bc       tls_construct_ctos_use_srtp 000000000006197c f   OpensslLib:extensions_clnt.obj
 0001:00061838       tls_construct_ctos_etm     0000000000061af8 f   OpensslLib:extensions_clnt.obj
 0001:000618b0       tls_construct_ctos_ems     0000000000061b70 f   OpensslLib:extensions_clnt.obj
 0001:00061914       tls_construct_ctos_supported_versions 0000000000061bd4 f   OpensslLib:extensions_clnt.obj
 0001:00061a24       tls_construct_ctos_psk_kex_modes 0000000000061ce4 f   OpensslLib:extensions_clnt.obj
 0001:00061ce4       tls_construct_ctos_key_share 0000000000061fa4 f   OpensslLib:extensions_clnt.obj
 0001:00061e44       tls_construct_ctos_cookie  0000000000062104 f   OpensslLib:extensions_clnt.obj
 0001:00061f20       tls_construct_ctos_early_data 00000000000621e0 f   OpensslLib:extensions_clnt.obj
 0001:0006243c       tls_construct_ctos_padding 00000000000626fc f   OpensslLib:extensions_clnt.obj
 0001:00062574       tls_construct_ctos_psk     0000000000062834 f   OpensslLib:extensions_clnt.obj
 0001:00062a3c       tls_construct_ctos_post_handshake_auth 0000000000062cfc f   OpensslLib:extensions_clnt.obj
 0001:00062ad8       tls_parse_stoc_renegotiate 0000000000062d98 f   OpensslLib:extensions_clnt.obj
 0001:00062c28       tls_parse_stoc_maxfragmentlen 0000000000062ee8 f   OpensslLib:extensions_clnt.obj
 0001:00062c94       tls_parse_stoc_server_name 0000000000062f54 f   OpensslLib:extensions_clnt.obj
 0001:00062d20       tls_parse_stoc_ec_pt_formats 0000000000062fe0 f   OpensslLib:extensions_clnt.obj
 0001:00062e24       tls_parse_stoc_session_ticket 00000000000630e4 f   OpensslLib:extensions_clnt.obj
 0001:00062ea8       tls_parse_stoc_status_request 0000000000063168 f   OpensslLib:extensions_clnt.obj
 0001:00062f50       tls_parse_stoc_npn         0000000000063210 f   OpensslLib:extensions_clnt.obj
 0001:000630b8       tls_parse_stoc_alpn        0000000000063378 f   OpensslLib:extensions_clnt.obj
 0001:00063294       tls_parse_stoc_use_srtp    0000000000063554 f   OpensslLib:extensions_clnt.obj
 0001:00063398       tls_parse_stoc_etm         0000000000063658 f   OpensslLib:extensions_clnt.obj
 0001:000633cc       tls_parse_stoc_ems         000000000006368c f   OpensslLib:extensions_clnt.obj
 0001:000633f4       tls_parse_stoc_supported_versions 00000000000636b4 f   OpensslLib:extensions_clnt.obj
 0001:00063470       tls_parse_stoc_key_share   0000000000063730 f   OpensslLib:extensions_clnt.obj
 0001:00063684       tls_parse_stoc_cookie      0000000000063944 f   OpensslLib:extensions_clnt.obj
 0001:00063718       tls_parse_stoc_early_data  00000000000639d8 f   OpensslLib:extensions_clnt.obj
 0001:000637d8       tls_parse_stoc_psk         0000000000063a98 f   OpensslLib:extensions_clnt.obj
 0001:00063980       tls_parse_ctos_renegotiate 0000000000063c40 f   OpensslLib:extensions_srvr.obj
 0001:00063a28       tls_parse_ctos_server_name 0000000000063ce8 f   OpensslLib:extensions_srvr.obj
 0001:00063bc0       tls_parse_ctos_maxfragmentlen 0000000000063e80 f   OpensslLib:extensions_srvr.obj
 0001:00063c3c       tls_parse_ctos_ec_pt_formats 0000000000063efc f   OpensslLib:extensions_srvr.obj
 0001:00063cb8       tls_parse_ctos_session_ticket 0000000000063f78 f   OpensslLib:extensions_srvr.obj
 0001:00063d08       tls_parse_ctos_sig_algs_cert 0000000000063fc8 f   OpensslLib:extensions_srvr.obj
 0001:00063d74       tls_parse_ctos_sig_algs    0000000000064034 f   OpensslLib:extensions_srvr.obj
 0001:00063de0       tls_parse_ctos_status_request 00000000000640a0 f   OpensslLib:extensions_srvr.obj
 0001:00064058       tls_parse_ctos_npn         0000000000064318 f   OpensslLib:extensions_srvr.obj
 0001:00064080       tls_parse_ctos_alpn        0000000000064340 f   OpensslLib:extensions_srvr.obj
 0001:00064184       tls_parse_ctos_use_srtp    0000000000064444 f   OpensslLib:extensions_srvr.obj
 0001:0006432c       tls_parse_ctos_etm         00000000000645ec f   OpensslLib:extensions_srvr.obj
 0001:00064344       tls_parse_ctos_psk_kex_modes 0000000000064604 f   OpensslLib:extensions_srvr.obj
 0001:000643cc       tls_parse_ctos_key_share   000000000006468c f   OpensslLib:extensions_srvr.obj
 0001:000645fc       tls_parse_ctos_cookie      00000000000648bc f   OpensslLib:extensions_srvr.obj
 0001:00064c9c       tls_parse_ctos_supported_groups 0000000000064f5c f   OpensslLib:extensions_srvr.obj
 0001:00064d58       tls_parse_ctos_ems         0000000000065018 f   OpensslLib:extensions_srvr.obj
 0001:00064d90       tls_parse_ctos_early_data  0000000000065050 f   OpensslLib:extensions_srvr.obj
 0001:00064dd0       tls_parse_ctos_psk         0000000000065090 f   OpensslLib:extensions_srvr.obj
 0001:00065398       tls_parse_ctos_post_handshake_auth 0000000000065658 f   OpensslLib:extensions_srvr.obj
 0001:000653d4       tls_construct_stoc_renegotiate 0000000000065694 f   OpensslLib:extensions_srvr.obj
 0001:000654f4       tls_construct_stoc_server_name 00000000000657b4 f   OpensslLib:extensions_srvr.obj
 0001:00065590       tls_construct_stoc_maxfragmentlen 0000000000065850 f   OpensslLib:extensions_srvr.obj
 0001:00065654       tls_construct_stoc_ec_pt_formats 0000000000065914 f   OpensslLib:extensions_srvr.obj
 0001:00065768       tls_construct_stoc_supported_groups 0000000000065a28 f   OpensslLib:extensions_srvr.obj
 0001:00065900       tls_construct_stoc_session_ticket 0000000000065bc0 f   OpensslLib:extensions_srvr.obj
 0001:00065984       tls_construct_stoc_status_request 0000000000065c44 f   OpensslLib:extensions_srvr.obj
 0001:00065a88       tls_construct_stoc_next_proto_neg 0000000000065d48 f   OpensslLib:extensions_srvr.obj
 0001:00065b54       tls_construct_stoc_alpn    0000000000065e14 f   OpensslLib:extensions_srvr.obj
 0001:00065c50       tls_construct_stoc_use_srtp 0000000000065f10 f   OpensslLib:extensions_srvr.obj
 0001:00065d2c       tls_construct_stoc_etm     0000000000065fec f   OpensslLib:extensions_srvr.obj
 0001:00065dd4       tls_construct_stoc_ems     0000000000066094 f   OpensslLib:extensions_srvr.obj
 0001:00065e4c       tls_construct_stoc_supported_versions 000000000006610c f   OpensslLib:extensions_srvr.obj
 0001:00065f0c       tls_construct_stoc_key_share 00000000000661cc f   OpensslLib:extensions_srvr.obj
 0001:00066164       tls_construct_stoc_cookie  0000000000066424 f   OpensslLib:extensions_srvr.obj
 0001:000665e0       tls_construct_stoc_cryptopro_bug 00000000000668a0 f   OpensslLib:extensions_srvr.obj
 0001:0006669c       tls_construct_stoc_early_data 000000000006695c f   OpensslLib:extensions_srvr.obj
 0001:00066778       tls_construct_stoc_psk     0000000000066a38 f   OpensslLib:extensions_srvr.obj
 0001:00066824       BN_CTX_new                 0000000000066ae4 f   OpensslLib:bn_ctx.obj
 0001:00066868       BN_CTX_free                0000000000066b28 f   OpensslLib:bn_ctx.obj
 0001:000668e8       BN_CTX_start               0000000000066ba8 f   OpensslLib:bn_ctx.obj
 0001:00066930       BN_CTX_end                 0000000000066bf0 f   OpensslLib:bn_ctx.obj
 0001:000669a8       BN_CTX_get                 0000000000066c68 f   OpensslLib:bn_ctx.obj
 0001:00066bb8       bn_compute_wNAF            0000000000066e78 f   OpensslLib:bn_intern.obj
 0001:00066d5c       EC_POINT_set_compressed_coordinates 000000000006701c f   OpensslLib:ec_oct.obj
 0001:00066de0       EC_POINT_point2oct         00000000000670a0 f   OpensslLib:ec_oct.obj
 0001:00066e60       EC_POINT_oct2point         0000000000067120 f   OpensslLib:ec_oct.obj
 0001:00066ee8       EC_POINT_point2buf         00000000000671a8 f   OpensslLib:ec_oct.obj
 0001:00066fa4       EC_KEY_new_method          0000000000067264 f   OpensslLib:ec_kmeth.obj
 0001:0006710c       ECDH_compute_key           00000000000673cc f   OpensslLib:ec_kmeth.obj
 0001:000674d0       BN_generate_dsa_nonce      0000000000067790 f   OpensslLib:bn_rand.obj
 0001:000676a0       ASN1_item_d2i_bio          0000000000067960 f   OpensslLib:a_d2i_fp.obj
 0001:00067788       asn1_d2i_read_bio          0000000000067a48 f   OpensslLib:a_d2i_fp.obj
 0001:00067a44       PKCS8_PRIV_KEY_INFO_free   0000000000067d04 f   OpensslLib:p8_pkey.obj
 0001:00067a68       PKCS8_pkey_set0            0000000000067d28 f   OpensslLib:p8_pkey.obj
 0001:00067ad8       EVP_PKCS82PKEY             0000000000067d98 f   OpensslLib:evp_pkey.obj
 0001:00067f38       EC_GROUP_get_ecparameters  00000000000681f8 f   OpensslLib:ec_asn1.obj
 0001:000680d0       EC_GROUP_get_ecpkparameters 0000000000068390 f   OpensslLib:ec_asn1.obj
 0001:000681cc       EC_GROUP_new_from_ecparameters 000000000006848c f   OpensslLib:ec_asn1.obj
 0001:000685c0       EC_GROUP_new_from_ecpkparameters 0000000000068880 f   OpensslLib:ec_asn1.obj
 0001:0006863c       d2i_ECPKParameters         00000000000688fc f   OpensslLib:ec_asn1.obj
 0001:00068718       i2d_ECPKParameters         00000000000689d8 f   OpensslLib:ec_asn1.obj
 0001:000687b4       d2i_ECPrivateKey           0000000000068a74 f   OpensslLib:ec_asn1.obj
 0001:00068998       i2d_ECPrivateKey           0000000000068c58 f   OpensslLib:ec_asn1.obj
 0001:00068bfc       d2i_ECParameters           0000000000068ebc f   OpensslLib:ec_asn1.obj
 0001:00068c88       i2o_ECPublicKey            0000000000068f48 f   OpensslLib:ec_asn1.obj
 0001:00068d90       ECDSA_SIG_new              0000000000069050 f   OpensslLib:ec_asn1.obj
 0001:00068dc4       ECDSA_size                 0000000000069084 f   OpensslLib:ec_asn1.obj
 0001:00068e4c       ASN1_item_digest           000000000006910c f   OpensslLib:a_digest.obj
 0001:00068f58       d2i_DHxparams              0000000000069218 f   OpensslLib:dh_asn1.obj
 0001:00069034       i2d_DHxparams              00000000000692f4 f   OpensslLib:dh_asn1.obj
 0001:000690bc       PKCS8_decrypt              000000000006937c f   OpensslLib:p12_p8d.obj
 0001:00069178       rsa_multip_info_free       0000000000069438 f   OpensslLib:rsa_mp.obj
 0001:000691b4       rsa_multip_info_new        0000000000069474 f   OpensslLib:rsa_mp.obj
 0001:00069274       rsa_multip_calc_product    0000000000069534 f   OpensslLib:rsa_mp.obj
 0001:0006ad50       BN_BLINDING_new            000000000006b010 f   OpensslLib:bn_blind.obj
 0001:0006adf4       BN_BLINDING_free           000000000006b0b4 f   OpensslLib:bn_blind.obj
 0001:0006ae44       BN_BLINDING_update         000000000006b104 f   OpensslLib:bn_blind.obj
 0001:0006af50       BN_BLINDING_convert_ex     000000000006b210 f   OpensslLib:bn_blind.obj
 0001:0006b010       BN_BLINDING_invert_ex      000000000006b2d0 f   OpensslLib:bn_blind.obj
 0001:0006b0f8       BN_BLINDING_create_param   000000000006b3b8 f   OpensslLib:bn_blind.obj
 0001:0006b5a8       i2c_ASN1_BIT_STRING        000000000006b868 f   OpensslLib:a_bitstr.obj
 0001:0006b6c0       c2i_ASN1_BIT_STRING        000000000006b980 f   OpensslLib:a_bitstr.obj
 0001:0006b804       ASN1_BIT_STRING_set_bit    000000000006bac4 f   OpensslLib:a_bitstr.obj
 0001:0006b90c       asn1_do_lock               000000000006bbcc f   OpensslLib:tasn_utl.obj
 0001:0006b9ac       asn1_do_adb                000000000006bc6c f   OpensslLib:tasn_utl.obj
 0001:0006ba60       i2v_GENERAL_NAMES          000000000006bd20 f   OpensslLib:v3_alt.obj
 0001:0006bb10       i2v_GENERAL_NAME           000000000006bdd0 f   OpensslLib:v3_alt.obj
 0001:0006bca0       GENERAL_NAME_print         000000000006bf60 f   OpensslLib:v3_alt.obj
 0001:0006c250       v2i_GENERAL_NAMES          000000000006c510 f   OpensslLib:v3_alt.obj
 0001:0006c31c       a2i_GENERAL_NAME           000000000006c5dc f   OpensslLib:v3_alt.obj
 0001:0006c550       v2i_GENERAL_NAME_ex        000000000006c810 f   OpensslLib:v3_alt.obj
 0001:0006c820       X509V3_get_section         000000000006cae0 f   OpensslLib:v3_conf.obj
 0001:0006c9fc       policy_data_free           000000000006ccbc f   OpensslLib:pcy_data.obj
 0001:0006ca48       policy_data_new            000000000006cd08 f   OpensslLib:pcy_data.obj
 0001:0006cb3c       POLICYINFO_free            000000000006cdfc f   OpensslLib:v3_cpols.obj
 0001:0006cb60       POLICYQUALINFO_free        000000000006ce20 f   OpensslLib:v3_cpols.obj
 0001:0006d804       policy_cache_set_mapping   000000000006dac4 f   OpensslLib:pcy_map.obj
 0001:0006d994       BIO_dump_indent_cb         000000000006dc54 f   OpensslLib:b_dump.obj
 0001:0006db58       X509V3_EXT_get_nid         000000000006de18 f   OpensslLib:v3_lib.obj
 0001:0006dbec       X509V3_EXT_d2i             000000000006deac f   OpensslLib:v3_lib.obj
 0001:0006dc50       X509V3_get_d2i             000000000006df10 f   OpensslLib:v3_lib.obj
 0001:0006dd1c       DH_check_params            000000000006dfdc f   OpensslLib:dh_check.obj
 0001:0006de00       DH_check                   000000000006e0c0 f   OpensslLib:dh_check.obj
 0001:0006dfc4       DH_check_pub_key           000000000006e284 f   OpensslLib:dh_check.obj
 0001:00072ce4       ssl3_cbc_digest_record     0000000000072fa4 f   OpensslLib:s3_cbc.obj
 0001:00073368       bn_mul_mont_fixed_top      0000000000073628 f   OpensslLib:bn_mont.obj
 0001:000735bc       bn_from_mont_fixed_top     000000000007387c f   OpensslLib:bn_mont.obj
 0001:00073640       BN_MONT_CTX_new            0000000000073900 f   OpensslLib:bn_mont.obj
 0001:000736b4       BN_MONT_CTX_free           0000000000073974 f   OpensslLib:bn_mont.obj
 0001:000736f0       BN_MONT_CTX_set            00000000000739b0 f   OpensslLib:bn_mont.obj
 0001:000739b4       BN_MONT_CTX_copy           0000000000073c74 f   OpensslLib:bn_mont.obj
 0001:00073a34       BN_MONT_CTX_set_locked     0000000000073cf4 f   OpensslLib:bn_mont.obj
 0001:00073ab4       BN_add                     0000000000073d74 f   OpensslLib:bn_add.obj
 0001:00073b24       BN_sub                     0000000000073de4 f   OpensslLib:bn_add.obj
 0001:00073b9c       BN_uadd                    0000000000073e5c f   OpensslLib:bn_add.obj
 0001:00073c68       BN_usub                    0000000000073f28 f   OpensslLib:bn_add.obj
 0001:00073d58       EC_ec_pre_comp_free        0000000000074018 f   OpensslLib:ec_mult.obj
 0001:00073dc8       ec_scalar_mul_ladder       0000000000074088 f   OpensslLib:ec_mult.obj
 0001:000743cc       ec_wNAF_mul                000000000007468c f   OpensslLib:ec_mult.obj
 0001:00074e20       BN_div                     00000000000750e0 f   OpensslLib:bn_div.obj
 0001:00074ea8       bn_div_fixed_top           0000000000075168 f   OpensslLib:bn_div.obj
 0001:000752ac       BN_mod_exp                 000000000007556c f   OpensslLib:bn_exp.obj
 0001:0007531c       BN_mod_exp_recp            00000000000755dc f   OpensslLib:bn_exp.obj
 0001:000756f0       BN_mod_exp_mont            00000000000759b0 f   OpensslLib:bn_exp.obj
 0001:00075ed4       BN_mod_exp_mont_consttime  0000000000076194 f   OpensslLib:bn_exp.obj
 0001:000763ac       BN_mod_exp_mont_word       000000000007666c f   OpensslLib:bn_exp.obj
 0001:000767e4       bn_mul_fixed_top           0000000000076aa4 f   OpensslLib:bn_mul.obj
 0001:000768e8       bn_mul_normal              0000000000076ba8 f   OpensslLib:bn_mul.obj
 0001:00076d7c       int_bn_mod_inverse         000000000007703c f   OpensslLib:bn_gcd.obj
 0001:0007742c       BN_mod_inverse             00000000000776ec f   OpensslLib:bn_gcd.obj
 0001:000774cc       BN_gcd                     000000000007778c f   OpensslLib:bn_gcd.obj
 0001:00077790       EC_GROUP_new_curve_GFp     0000000000077a50 f   OpensslLib:ec_cvt.obj
 0001:00077cf0       OPENSSL_gmtime_adj         0000000000077fb0 f   OpensslLib:o_time.obj
 0001:00077dc4       OPENSSL_gmtime_diff        0000000000078084 f   OpensslLib:o_time.obj
 0001:00078b6c       drbg_ctr_init              0000000000078e2c f   OpensslLib:drbg_ctr.obj
 0001:00078d6c       ASN1_item_pack             000000000007902c f   OpensslLib:asn_pack.obj
 0001:00078e48       ASN1_tag2str               0000000000079108 f   OpensslLib:asn1_par.obj
 0001:00078e78       UTF8_getc                  0000000000079138 f   OpensslLib:a_utf8.obj
 0001:00079168       UTF8_putc                  0000000000079428 f   OpensslLib:a_utf8.obj
 0001:00079328       ASN1_mbstring_ncopy        00000000000795e8 f   OpensslLib:a_mbstr.obj
 0001:000798d8       bn_mul_add_words           0000000000079b98 f   OpensslLib:bn_asm.obj
 0001:000799a8       bn_mul_words               0000000000079c68 f   OpensslLib:bn_asm.obj
 0001:00079a68       bn_div_words               0000000000079d28 f   OpensslLib:bn_asm.obj
 0001:00079bcc       bn_add_words               0000000000079e8c f   OpensslLib:bn_asm.obj
 0001:00079c24       bn_sub_words               0000000000079ee4 f   OpensslLib:bn_asm.obj
 0001:00079c84       PKCS5_PBE_keyivgen         0000000000079f44 f   OpensslLib:p5_crpt.obj
 0001:00079fa0       PKCS5_PBKDF2_HMAC          000000000007a260 f   OpensslLib:p5_crpt2.obj
 0001:0007a23c       PKCS5_v2_PBE_keyivgen      000000000007a4fc f   OpensslLib:p5_crpt2.obj
 0001:0007a37c       PKCS5_v2_PBKDF2_keyivgen   000000000007a63c f   OpensslLib:p5_crpt2.obj
 0001:0007a528       PKCS12_PBE_keyivgen        000000000007a7e8 f   OpensslLib:p12_crpt.obj
 0001:0007ae68       ASN1_STRING_set_by_NID     000000000007b128 f   OpensslLib:a_strnid.obj
 0001:0007aef8       ASN1_STRING_TABLE_get      000000000007b1b8 f   OpensslLib:a_strnid.obj
 0001:0007af84       ASN1_STRING_print          000000000007b244 f   OpensslLib:a_print.obj
 0001:0007b098       level_add_node             000000000007b358 f   OpensslLib:pcy_node.obj
 0001:0007b2f8       c448_ed448_sign            000000000007b5b8 f   OpensslLib:eddsa.obj
 0001:0007b660       c448_ed448_verify          000000000007b920 f   OpensslLib:eddsa.obj
 0001:0007b874       ED448_public_from_private  000000000007bb34 f   OpensslLib:eddsa.obj
 0001:0008197c       ED25519_sign               0000000000081c3c f   OpensslLib:curve25519.obj
 0001:00081b18       ED25519_verify             0000000000081dd8 f   OpensslLib:curve25519.obj
 0001:00081d44       X25519_public_from_private 0000000000082004 f   OpensslLib:curve25519.obj
 0001:00081e08       ASN1_buf_print             00000000000820c8 f   OpensslLib:t_pkey.obj
 0001:00081ef0       ASN1_bn_print              00000000000821b0 f   OpensslLib:t_pkey.obj
 0001:00082978       curve448_precomputed_scalarmul 0000000000082c38 f   OpensslLib:curve448.obj
 0001:00082b88       curve448_point_mul_by_ratio_and_encode_like_eddsa 0000000000082e48 f   OpensslLib:curve448.obj
 0001:00082e14       curve448_point_decode_like_eddsa_and_mul_by_ratio 00000000000830d4 f   OpensslLib:curve448.obj
 0001:000830e4       x448_int                   00000000000833a4 f   OpensslLib:curve448.obj
 0001:00083720       curve448_base_double_scalarmul_non_secret 00000000000839e0 f   OpensslLib:curve448.obj
 0001:00083aec       X448_public_from_private   0000000000083dac f   OpensslLib:curve448.obj
 0001:00083c48       ECPKParameters_print       0000000000083f08 f   OpensslLib:eck_prn.obj
 0001:00084570       EC_GROUP_check             0000000000084830 f   OpensslLib:ec_check.obj
 0001:000846a8       RSA_check_key_ex           0000000000084968 f   OpensslLib:rsa_chk.obj
 0001:00084df0       X509_signature_dump        00000000000850b0 f   OpensslLib:t_x509.obj
 0001:00084efc       i2a_ASN1_INTEGER           00000000000851bc f   OpensslLib:f_int.obj
 0001:000851fc       UI_process                 00000000000854bc f   OpensslLib:ui_lib.obj
 0001:000853ac       ec_GFp_simple_set_compressed_coordinates 000000000008566c f   OpensslLib:ecp_oct.obj
 0001:0008573c       ec_GFp_simple_point2oct    00000000000859fc f   OpensslLib:ecp_oct.obj
 0001:000859cc       ec_GFp_simple_oct2point    0000000000085c8c f   OpensslLib:ecp_oct.obj
 0001:00085bc8       ossl_ecdsa_sign            0000000000085e88 f   OpensslLib:ecdsa_ossl.obj
 0001:00085f20       ossl_ecdsa_sign_setup      00000000000861e0 f   OpensslLib:ecdsa_ossl.obj
 0001:00085f3c       ossl_ecdsa_sign_sig        00000000000861fc f   OpensslLib:ecdsa_ossl.obj
 0001:000862dc       ossl_ecdsa_verify          000000000008659c f   OpensslLib:ecdsa_ossl.obj
 0001:00086410       ossl_ecdsa_verify_sig      00000000000866d0 f   OpensslLib:ecdsa_ossl.obj
 0001:00086744       ossl_ecdh_compute_key      0000000000086a04 f   OpensslLib:ecdh_ossl.obj
 0001:0008677c       ecdh_simple_compute_key    0000000000086a3c f   OpensslLib:ecdh_ossl.obj
 0001:000869ac       PKCS12_pbe_crypt           0000000000086c6c f   OpensslLib:p12_decr.obj
 0001:00086b14       RSA_X931_hash_id           0000000000086dd4 f   OpensslLib:rsa_x931.obj
 0001:00086b48       RSA_padding_check_PKCS1_type_1 0000000000086e08 f   OpensslLib:rsa_pk1.obj
 0001:00086c18       RSA_padding_add_PKCS1_type_2 0000000000086ed8 f   OpensslLib:rsa_pk1.obj
 0001:00086cd0       RSA_padding_check_PKCS1_type_2 0000000000086f90 f   OpensslLib:rsa_pk1.obj
 0001:00086fe4       RSA_padding_add_SSLv23     00000000000872a4 f   OpensslLib:rsa_ssl.obj
 0001:000870b0       RSA_padding_check_SSLv23   0000000000087370 f   OpensslLib:rsa_ssl.obj
 0001:000874a0       BN_nnmod                   0000000000087760 f   OpensslLib:bn_mod.obj
 0001:00087504       bn_mod_add_fixed_top       00000000000877c4 f   OpensslLib:bn_mod.obj
 0001:000876a4       bn_mod_sub_fixed_top       0000000000087964 f   OpensslLib:bn_mod.obj
 0001:00087824       BN_mod_sub_quick           0000000000087ae4 f   OpensslLib:bn_mod.obj
 0001:00087864       BN_mod_mul                 0000000000087b24 f   OpensslLib:bn_mod.obj
 0001:0008791c       BN_mod_sqr                 0000000000087bdc f   OpensslLib:bn_mod.obj
 0001:00087974       BN_mod_lshift1_quick       0000000000087c34 f   OpensslLib:bn_mod.obj
 0001:000879bc       BN_mod_lshift_quick        0000000000087c7c f   OpensslLib:bn_mod.obj
 0001:00087a7c       RSA_padding_add_PKCS1_OAEP_mgf1 0000000000087d3c f   OpensslLib:rsa_oaep.obj
 0001:00087d00       RSA_padding_check_PKCS1_OAEP_mgf1 0000000000087fc0 f   OpensslLib:rsa_oaep.obj
 0001:00088224       PKCS1_MGF1                 00000000000884e4 f   OpensslLib:rsa_oaep.obj
 0001:000883b0       ASN1_generate_v3           0000000000088670 f   OpensslLib:asn1_gen.obj
 0001:00089168       POLICY_MAPPING_free        0000000000089428 f   OpensslLib:v3_pmaps.obj
 0001:000895d4       i2v_ASN1_BIT_STRING        0000000000089894 f   OpensslLib:v3_bitst.obj
 0001:00089668       v2i_ASN1_BIT_STRING        0000000000089928 f   OpensslLib:v3_bitst.obj
 0001:00089f90       i2s_ASN1_IA5STRING         000000000008a250 f   OpensslLib:v3_ia5.obj
 0001:0008a000       s2i_ASN1_IA5STRING         000000000008a2c0 f   OpensslLib:v3_ia5.obj
 0001:0008a66c       i2s_ASN1_OCTET_STRING      000000000008a92c f   OpensslLib:v3_skey.obj
 0001:0008a7c8       i2s_ASN1_ENUMERATED_TABLE  000000000008aa88 f   OpensslLib:v3_enum.obj
 0001:0008aa74       SXNET_add_id_INTEGER       000000000008ad34 f   OpensslLib:v3_sxnet.obj
 0001:0008ac3c       SXNET_get_id_INTEGER       000000000008aefc f   OpensslLib:v3_sxnet.obj
 0001:0008b808       BN_GENCB_call              000000000008bac8 f   OpensslLib:bn_prime.obj
 0001:0008b85c       BN_generate_prime_ex       000000000008bb1c f   OpensslLib:bn_prime.obj
 0001:0008bac4       BN_is_prime_fasttest_ex    000000000008bd84 f   OpensslLib:bn_prime.obj
 0001:0008c360       DH_new_by_nid              000000000008c620 f   OpensslLib:dh_rfc7919.obj
 0001:0008c598       RSA_sign_ASN1_OCTET_STRING 000000000008c858 f   OpensslLib:rsa_saos.obj
 0001:0008d14c       RSA_sign                   000000000008d40c f   OpensslLib:rsa_sign.obj
 0001:0008d2b4       int_rsa_verify             000000000008d574 f   OpensslLib:rsa_sign.obj
 0001:0008d658       RSA_verify_PKCS1_PSS_mgf1  000000000008d918 f   OpensslLib:rsa_pss.obj
 0001:0008d92c       RSA_padding_add_PKCS1_PSS_mgf1 000000000008dbec f   OpensslLib:rsa_pss.obj
 0001:0008dc20       sm2_compute_z_digest       000000000008dee0 f   OpensslLib:sm2_sign.obj
 0001:0008e5d8       sm2_sign                   000000000008e898 f   OpensslLib:sm2_sign.obj
 0001:0008e764       sm2_encrypt                000000000008ea24 f   OpensslLib:sm2_crypt.obj
 0001:0008ec18       sm2_decrypt                000000000008eed8 f   OpensslLib:sm2_crypt.obj
 0001:0008f108       SipHash_Init               000000000008f3c8 f   OpensslLib:siphash.obj
 0001:0008f244       SipHash_Update             000000000008f504 f   OpensslLib:siphash.obj
 0001:0008f460       SipHash_Final              000000000008f720 f   OpensslLib:siphash.obj
 0001:0008f6a4       ecdh_KDF_X9_63             000000000008f964 f   OpensslLib:ecdh_kdf.obj
 0001:0008f888       bn_sqr_fixed_top           000000000008fb48 f   OpensslLib:bn_sqr.obj
 0001:0008f9b4       bn_sqr_normal              000000000008fc74 f   OpensslLib:bn_sqr.obj
 0001:0008faec       BN_mod_mul_reciprocal      000000000008fdac f   OpensslLib:bn_recp.obj
 0001:0008fbac       BN_div_recp                000000000008fe6c f   OpensslLib:bn_recp.obj
 0001:00090028       ec_GFp_nist_group_copy     00000000000902e8 f   OpensslLib:ecp_nist.obj
 0001:0009003c       ec_GFp_nist_group_set_curve 00000000000902fc f   OpensslLib:ecp_nist.obj
 0001:00090180       ec_GFp_nist_field_mul      0000000000090440 f   OpensslLib:ecp_nist.obj
 0001:00090254       ec_GFp_nist_field_sqr      0000000000090514 f   OpensslLib:ecp_nist.obj
 0001:00090360       BN_nist_mod_192            0000000000090620 f   OpensslLib:bn_nist.obj
 0001:000905ac       BN_nist_mod_224            000000000009086c f   OpensslLib:bn_nist.obj
 0001:00090900       BN_nist_mod_256            0000000000090bc0 f   OpensslLib:bn_nist.obj
 0001:00090c50       BN_nist_mod_384            0000000000090f10 f   OpensslLib:bn_nist.obj
 0001:00091014       BN_nist_mod_521            00000000000912d4 f   OpensslLib:bn_nist.obj
 0001:000911e8       ec_GFp_mont_group_init     00000000000914a8 f   OpensslLib:ecp_mont.obj
 0001:0009120c       ec_GFp_mont_group_finish   00000000000914cc f   OpensslLib:ecp_mont.obj
 0001:00091244       ec_GFp_mont_group_clear_finish 0000000000091504 f   OpensslLib:ecp_mont.obj
 0001:0009127c       ec_GFp_mont_group_copy     000000000009153c f   OpensslLib:ecp_mont.obj
 0001:00091378       ec_GFp_mont_group_set_curve 0000000000091638 f   OpensslLib:ecp_mont.obj
 0001:0009159c       ec_GFp_mont_field_mul      000000000009185c f   OpensslLib:ecp_mont.obj
 0001:000915f4       ec_GFp_mont_field_sqr      00000000000918b4 f   OpensslLib:ecp_mont.obj
 0001:00091640       ec_GFp_mont_field_inv      0000000000091900 f   OpensslLib:ecp_mont.obj
 0001:00091750       ec_GFp_mont_field_encode   0000000000091a10 f   OpensslLib:ecp_mont.obj
 0001:000917a4       ec_GFp_mont_field_decode   0000000000091a64 f   OpensslLib:ecp_mont.obj
 0001:000917ec       ec_GFp_mont_field_set_to_one 0000000000091aac f   OpensslLib:ecp_mont.obj
 0001:00091830       PKCS12_key_gen_utf8        0000000000091af0 f   OpensslLib:p12_key.obj
 0001:00091940       PKCS12_key_gen_uni         0000000000091c00 f   OpensslLib:p12_key.obj
 0001:00091d88       SM4_set_key                0000000000092048 f   OpensslLib:sm4.obj
 0001:00091f44       SM4_encrypt                0000000000092204 f   OpensslLib:sm4.obj
 0001:000927f4       SM4_decrypt                0000000000092ab4 f   OpensslLib:sm4.obj
 0001:00093c70       SHA3_absorb                0000000000093f30 f   OpensslLib:keccak1600.obj
 0001:00093d38       SHA3_squeeze               0000000000093ff8 f   OpensslLib:keccak1600.obj
 0001:00093e14       sm3_final                  00000000000940d4 f   OpensslLib:sm3.obj
 0001:00094044       sm3_block_data_order       0000000000094304 f   OpensslLib:sm3.obj
 0001:000968bc       curve448_scalar_add        0000000000096b7c f   OpensslLib:scalar.obj
 0001:00096910       curve448_scalar_decode_long 0000000000096bd0 f   OpensslLib:scalar.obj
 0001:00096ad4       curve448_scalar_halve      0000000000096d94 f   OpensslLib:scalar.obj
 0001:00096be8       gf_serialize               0000000000096ea8 f   OpensslLib:f_generic.obj
 0001:00096c78       gf_deserialize             0000000000096f38 f   OpensslLib:f_generic.obj
 0001:00096d44       gf_strong_reduce           0000000000097004 f   OpensslLib:f_generic.obj
 0001:00096dc8       gf_sub                     0000000000097088 f   OpensslLib:f_generic.obj
 0001:00096e18       gf_add                     00000000000970d8 f   OpensslLib:f_generic.obj
 0001:00096e44       gf_eq                      0000000000097104 f   OpensslLib:f_generic.obj
 0001:00096eb4       gf_isr                     0000000000097174 f   OpensslLib:f_generic.obj
 0001:000970d8       gf_mul                     0000000000097398 f   OpensslLib:f_impl.obj
 0001:000972f0       gf_mulw_unsigned           00000000000975b0 f   OpensslLib:f_impl.obj
 0001:00097394       ERR_print_errors_cb        0000000000097654 f   OpensslLib:err_prn.obj
 0001:0009748c       BN_mod_sqrt                000000000009774c f   OpensslLib:bn_sqrt.obj
 0001:00097bb8       BN_kronecker               0000000000097e78 f   OpensslLib:bn_kron.obj
 0001:00097e40       i2a_ASN1_STRING            0000000000098100 f   OpensslLib:f_string.obj
 0001:00097f60       ec_GFp_simple_group_init   0000000000098220 f   OpensslLib:ecp_smpl.obj
 0001:00097fc4       ec_GFp_simple_group_finish 0000000000098284 f   OpensslLib:ecp_smpl.obj
 0001:00097ff0       ec_GFp_simple_group_clear_finish 00000000000982b0 f   OpensslLib:ecp_smpl.obj
 0001:0009801c       ec_GFp_simple_group_copy   00000000000982dc f   OpensslLib:ecp_smpl.obj
 0001:0009807c       ec_GFp_simple_group_set_curve 000000000009833c f   OpensslLib:ecp_smpl.obj
 0001:00098220       ec_GFp_simple_group_get_curve 00000000000984e0 f   OpensslLib:ecp_smpl.obj
 0001:0009832c       ec_GFp_simple_group_get_degree 00000000000985ec f   OpensslLib:ecp_smpl.obj
 0001:00098338       ec_GFp_simple_group_check_discriminant 00000000000985f8 f   OpensslLib:ecp_smpl.obj
 0001:00098540       ec_GFp_simple_point_init   0000000000098800 f   OpensslLib:ecp_smpl.obj
 0001:000985a4       ec_GFp_simple_point_finish 0000000000098864 f   OpensslLib:ecp_smpl.obj
 0001:000985d0       ec_GFp_simple_point_clear_finish 0000000000098890 f   OpensslLib:ecp_smpl.obj
 0001:00098600       ec_GFp_simple_point_copy   00000000000988c0 f   OpensslLib:ecp_smpl.obj
 0001:00098668       ec_GFp_simple_point_set_to_infinity 0000000000098928 f   OpensslLib:ecp_smpl.obj
 0001:0009867c       ec_GFp_simple_set_Jprojective_coordinates_GFp 000000000009893c f   OpensslLib:ecp_smpl.obj
 0001:00098800       ec_GFp_simple_get_Jprojective_coordinates_GFp 0000000000098ac0 f   OpensslLib:ecp_smpl.obj
 0001:00098934       ec_GFp_simple_point_set_affine_coordinates 0000000000098bf4 f   OpensslLib:ecp_smpl.obj
 0001:000989c0       ec_GFp_simple_point_get_affine_coordinates 0000000000098c80 f   OpensslLib:ecp_smpl.obj
 0001:00098c78       ec_GFp_simple_add          0000000000098f38 f   OpensslLib:ecp_smpl.obj
 0001:000991ec       ec_GFp_simple_dbl          00000000000994ac f   OpensslLib:ecp_smpl.obj
 0001:00099620       ec_GFp_simple_invert       00000000000998e0 f   OpensslLib:ecp_smpl.obj
 0001:00099660       ec_GFp_simple_is_at_infinity 0000000000099920 f   OpensslLib:ecp_smpl.obj
 0001:00099670       ec_GFp_simple_is_on_curve  0000000000099930 f   OpensslLib:ecp_smpl.obj
 0001:00099944       ec_GFp_simple_cmp          0000000000099c04 f   OpensslLib:ecp_smpl.obj
 0001:00099bd8       ec_GFp_simple_make_affine  0000000000099e98 f   OpensslLib:ecp_smpl.obj
 0001:00099ce0       ec_GFp_simple_points_make_affine 0000000000099fa0 f   OpensslLib:ecp_smpl.obj
 0001:0009a100       ec_GFp_simple_field_inv    000000000009a3c0 f   OpensslLib:ecp_smpl.obj
 0001:0009a224       ec_GFp_simple_blind_coordinates 000000000009a4e4 f   OpensslLib:ecp_smpl.obj
 0001:0009a38c       ec_GFp_simple_ladder_pre   000000000009a64c f   OpensslLib:ecp_smpl.obj
 0001:0009a630       ec_GFp_simple_ladder_step  000000000009a8f0 f   OpensslLib:ecp_smpl.obj
 0001:0009abbc       ec_GFp_simple_ladder_post  000000000009ae7c f   OpensslLib:ecp_smpl.obj
 0001:0009b0ac       OPENSSL_asc2uni            000000000009b36c f   OpensslLib:p12_utl.obj
 0001:0009b190       OPENSSL_utf82uni           000000000009b450 f   OpensslLib:p12_utl.obj
 0001:0009b32c       SafeUint64Mult             000000000009b5ec f   BaseSafeIntLib:SafeIntLib.obj
 0001:0009b64c       time                       000000000009b90c f   BaseCryptLib:TimerWrapper.obj
 0001:0009b7a8       gmtime                     000000000009ba68 f   BaseCryptLib:TimerWrapper.obj
 0001:0009ba34       free                       000000000009bcf4 f   BaseCryptLib:BaseMemAllocation.obj
 0001:0009bc30       strchr                     000000000009bef0 f   BaseCryptLib:CrtWrapper.obj
 0001:0009bc60       strncasecmp                000000000009bf20 f   BaseCryptLib:CrtWrapper.obj
 0001:0009bd08       BIO_printf                 000000000009bfc8 f   BaseCryptLib:CrtWrapper.obj
 0001:0009bd08       sscanf                     000000000009bfc8 f   BaseCryptLib:CrtWrapper.obj
 0001:0009bd18       strspn                     000000000009bfd8 f   BaseCryptLib:CrtWrapper.obj
 0001:0009bda8       qsort                      000000000009c068 f   BaseCryptLib:CrtWrapper.obj
 0001:0009be7c       BIO_snprintf               000000000009c13c f   BaseCryptLib:CrtWrapper.obj
 0001:0009be84       DivU64x32Remainder         000000000009c144 f   BaseLib:DivU64x32Remainder.obj
 0001:0009bee4       SaveAndDisableInterrupts   000000000009c1a4 f   BaseLib:Cpu.obj
 0001:0009bf08       CompareMem                 000000000009c1c8 f   BaseMemoryLibRepStr:CompareMemWrapper.obj
 0001:0009bfe0       ScanMem8                   000000000009c2a0 f   BaseMemoryLibRepStr:ScanMem8Wrapper.obj
 0001:0009c064       MmioRead32                 000000000009c324 f   BaseIoLibIntrinsicSev:IoLib.obj
 0001:0009c094       GetRandomNumber64          000000000009c354 f   BaseRngLibTimerLib:RngLibTimer.obj
 0001:0009c0f4       InternalAcpiDelay          000000000009c3b4 f   DxeAcpiTimerLib:AcpiTimerLib.obj
 0001:0009c158       memset                     000000000009c418 f   BaseIntrinsicLib:MemoryIntrinsics.obj
 0001:0009c170       strcmp                     000000000009c430 f   BaseIntrinsicLib:MemoryIntrinsics.obj
 0002:00000000       ??_C@_0CB@DMEJJJHA@?6ASSERT_EFI_ERROR?5?$CIStatus?5?$DN?5?$CFr?$CJ@ 000000000009c440     UefiDriverEntryPoint:DriverEntryPoint.obj
 0002:00000028       ??_C@_0CH@BBNBJKHK@?$CB?$CI?$CI?$CIINTN?$CJ?$CIRETURN_STATUS?$CJ?$CIStatus@ 000000000009c468     UefiDriverEntryPoint:DriverEntryPoint.obj
 0002:00000050       ??_C@_0EE@LNNFMJLI@d?3?2edk2?2edk2?2MdePkg?2Library?2Uef@ 000000000009c490     UefiDriverEntryPoint:DriverEntryPoint.obj
 0002:00000094       ??_C@_06CCFDNBHL@TlsDxe@   000000000009c4d4     TlsDxe:AutoGen.obj
 0002:000000a0       ??_C@_0CE@IBFOBMLB@?6ASSERT_RETURN_ERROR?5?$CIStatus?5?$DN?5@ 000000000009c4e0     TlsDxe:AutoGen.obj
 0002:000000d0       ??_C@_0FF@FGPFIKGO@d?3?2edk2?2edk2?2Build?2OvmfX64?2DEBU@ 000000000009c510     TlsDxe:AutoGen.obj
 0002:00000128       ??_C@_0CL@FLBCNADH@d?3?2edk2?2edk2?2NetworkPkg?2TlsDxe?2@ 000000000009c568     TlsDxe:TlsDriver.obj
 0002:00000158       ??_C@_0BF@NDBIKIKC@CR?5has?5Bad?5Signature@ 000000000009c598     TlsDxe:TlsDriver.obj
 0002:00000170       ??_C@_0BM@IFJAIBAA@TlsInstance?5?$CB?$DN?5?$CI?$CIvoid?5?$CK?$CJ?50?$CJ@ 000000000009c5b0     TlsDxe:TlsDriver.obj
 0002:00000190       ??_C@_0CN@BEMNFMBN@d?3?2edk2?2edk2?2NetworkPkg?2TlsDxe?2@ 000000000009c5d0     TlsDxe:TlsProtocol.obj
 0002:000001c0       ??_C@_0EJ@OOCLDONO@?$CI?$CITLS_RECORD_HEADER?5?$CK?$CJRequestBu@ 000000000009c600     TlsDxe:TlsProtocol.obj
 0002:00000210       ??_C@_0DD@DDKMOMOL@d?3?2edk2?2edk2?2NetworkPkg?2TlsDxe?2@ 000000000009c650     TlsDxe:TlsConfigProtocol.obj
 0002:00000248       ??_C@_0DB@PLHCOEEF@TlsEncryptPacket?3?5No?5data?5read?5@ 000000000009c688     TlsDxe:TlsImpl.obj
 0002:00000280       ??_C@_0DB@KHJGFAOE@TlsDecryptPacket?3?5No?5data?5read?5@ 000000000009c6c0     TlsDxe:TlsImpl.obj
 0002:000002b8       ??_C@_0BF@NJNGJMPC@List?5?$CB?$DN?5?$CI?$CIvoid?5?$CK?$CJ?50?$CJ@ 000000000009c6f8     BaseLib:LinkedList.obj
 0002:000002d0       ??_C@_0DB@MIDNNFCL@d?3?2edk2?2edk2?2MdePkg?2Library?2Bas@ 000000000009c710     BaseLib:LinkedList.obj
 0002:00000308       ??_C@_0CC@KDLPLAED@List?9?$DOForwardLink?5?$CB?$DN?5?$CI?$CIvoid?5?$CK?$CJ?5@ 000000000009c748     BaseLib:LinkedList.obj
 0002:00000330       ??_C@_0BP@IJJCCMAK@List?9?$DOBackLink?5?$CB?$DN?5?$CI?$CIvoid?5?$CK?$CJ?50?$CJ@ 000000000009c770     BaseLib:LinkedList.obj
 0002:00000350       ??_C@_0BJ@NJABNCDK@ListHead?5?$CB?$DN?5?$CI?$CIvoid?5?$CK?$CJ?50?$CJ@ 000000000009c790     BaseLib:LinkedList.obj
 0002:00000370       ??_C@_0CG@LGIALJFK@InternalBaseLibIsListValid?5?$CILis@ 000000000009c7b0     BaseLib:LinkedList.obj
 0002:00000398       ??_C@_0BF@NMBJJECB@?$CBIsListEmpty?5?$CIEntry?$CJ@ 000000000009c7d8     BaseLib:LinkedList.obj
 0002:000003b0       ??_C@_0ED@MKGCMJG@?$CILength?5?9?51?$CJ?5?$DM?$DN?5?$CI0xFFFFFFFFFFFF@ 000000000009c7f0     BaseMemoryLibRepStr:CopyMemWrapper.obj
 0002:00000400       ??_C@_0EB@LOHEEPCE@d?3?2edk2?2edk2?2MdePkg?2Library?2Bas@ 000000000009c840     BaseMemoryLibRepStr:CopyMemWrapper.obj
 0002:00000448       ??_C@_0DO@MAOBOFEG@?$CILength?5?9?51?$CJ?5?$DM?$DN?5?$CI0xFFFFFFFFFFFF@ 000000000009c888     BaseMemoryLibRepStr:CopyMemWrapper.obj
 0002:00000488       ??_C@_0BH@LKMBFCBF@Format?5?$CB?$DN?5?$CI?$CIvoid?5?$CK?$CJ?50?$CJ@ 000000000009c8c8     BaseDebugLibSerialPort:DebugLib.obj
 0002:000004a0       ??_C@_0DO@CKBIDOOL@d?3?2edk2?2edk2?2MdePkg?2Library?2Bas@ 000000000009c8e0     BaseDebugLibSerialPort:DebugLib.obj
 0002:000004e0       ??_C@_0BI@NOCKJDBJ@ASSERT?5?$FL?$CFa?$FN?5?$CFa?$CI?$CFd?$CJ?3?5?$CFa?6@ 000000000009c920     BaseDebugLibSerialPort:DebugLib.obj
 0002:000004f8       ??_C@_0BH@IACGKAP@Buffer?5?$CB?$DN?5?$CI?$CIvoid?5?$CK?$CJ?50?$CJ@ 000000000009c938     BaseDebugLibSerialPort:DebugLib.obj
 0002:00000510       ??_C@_0BN@COECPDCC@gImageHandle?5?$CB?$DN?5?$CI?$CIvoid?5?$CK?$CJ?50?$CJ@ 000000000009c950     UefiBootServicesTableLib:UefiBootServicesTableLib.obj
 0002:00000530       ??_C@_0FA@FOIHGFBE@d?3?2edk2?2edk2?2MdePkg?2Library?2Uef@ 000000000009c970     UefiBootServicesTableLib:UefiBootServicesTableLib.obj
 0002:00000580       ??_C@_0BE@DGNHAHIL@gST?5?$CB?$DN?5?$CI?$CIvoid?5?$CK?$CJ?50?$CJ@ 000000000009c9c0     UefiBootServicesTableLib:UefiBootServicesTableLib.obj
 0002:00000598       ??_C@_0BE@BDFJLGLN@gBS?5?$CB?$DN?5?$CI?$CIvoid?5?$CK?$CJ?50?$CJ@ 000000000009c9d8     UefiBootServicesTableLib:UefiBootServicesTableLib.obj
 0002:000005b0       ??_C@_0BI@HAGPDMHJ@AcpiTimerLibConstructor@ 000000000009c9f0     DxeAcpiTimerLib:DxeAcpiTimerLib.obj
 0002:000005c8       ??_C@_0CL@DGCOIACG@?$CFa?3?5Unknown?5Host?5Bridge?5Device?5@ 000000000009ca08     DxeAcpiTimerLib:DxeAcpiTimerLib.obj
 0002:000005f8       ??_C@_0BC@FEDIJHFF@?$CI?$CIBOOLEAN?$CJ?$CI0?$DN?$DN1?$CJ?$CJ@ 000000000009ca38     DxeAcpiTimerLib:DxeAcpiTimerLib.obj
 0002:00000610       ??_C@_0DM@NIEBGAOD@d?3?2edk2?2edk2?2OvmfPkg?2Library?2Ac@ 000000000009ca50     DxeAcpiTimerLib:DxeAcpiTimerLib.obj
 0002:00000650       ??_C@_0EK@GCCICMAJ@d?3?2edk2?2edk2?2MdePkg?2Library?2Uef@ 000000000009ca90     UefiMemoryAllocationLib:MemoryAllocationLib.obj
 0002:000006a0       ??_C@_0BE@OBDFIHND@gRT?5?$CB?$DN?5?$CI?$CIvoid?5?$CK?$CJ?50?$CJ@ 000000000009cae0     UefiRuntimeServicesTableLib:UefiRuntimeServicesTableLib.obj
 0002:000006c0       ??_C@_0FG@JGJCMPKB@d?3?2edk2?2edk2?2MdePkg?2Library?2Uef@ 000000000009cb00     UefiRuntimeServicesTableLib:UefiRuntimeServicesTableLib.obj
 0002:00000720       ??_C@_0FE@ELFDCAAP@d?3?2edk2?2edk2?2MdePkg?2Library?2Uef@ 000000000009cb60     UefiDevicePathLibDevicePathProtocol:UefiDevicePathLib.obj
 0002:00000778       ??_C@_0DC@CNNBPJA@mDevicePathLibDevicePathUtiliti@ 000000000009cbb8     UefiDevicePathLibDevicePathProtocol:UefiDevicePathLib.obj
 0002:000007aa       ??_C@_00CNPNBAHC@@         000000000009cbea     TlsLib:TlsInit.obj
 0002:000007b0       ??_C@_0GC@IDGCEDIP@TlsConn?9?$DOSsl?5?$CB?$DN?5?$CI?$CIvoid?5?$CK?$CJ?50?$CJ?5?$CG?$CG@ 000000000009cbf0     TlsLib:TlsInit.obj
 0002:00000818       ??_C@_0DA@OAAMCILC@d?3?2edk2?2edk2?2CryptoPkg?2Library?2@ 000000000009cc58     TlsLib:TlsInit.obj
 0002:00000848       ??_C@_08GMNMJHID@NULL?9MD5@ 000000000009cc88     TlsLib:TlsConfig.obj
 0002:00000858       ??_C@_08JOFDPCLJ@NULL?9SHA@ 000000000009cc98     TlsLib:TlsConfig.obj
 0002:00000868       ??_C@_07OCFLHCIN@RC4?9MD5@ 000000000009cca8     TlsLib:TlsConfig.obj
 0002:00000870       ??_C@_07BANEBHLH@RC4?9SHA@ 000000000009ccb0     TlsLib:TlsConfig.obj
 0002:00000878       ??_C@_0N@HCCILIJF@DES?9CBC3?9SHA@ 000000000009ccb8     TlsLib:TlsConfig.obj
 0002:00000888       ??_C@_0BF@NJCIKKPF@DHE?9RSA?9DES?9CBC3?9SHA@ 000000000009ccc8     TlsLib:TlsConfig.obj
 0002:000008a0       ??_C@_0L@FJECLCPG@AES128?9SHA@ 000000000009cce0     TlsLib:TlsConfig.obj
 0002:000008b0       ??_C@_0BC@GIOLAJIO@DH?9DSS?9AES128?9SHA@ 000000000009ccf0     TlsLib:TlsConfig.obj
 0002:000008c8       ??_C@_0BC@NKCIFBKC@DH?9RSA?9AES128?9SHA@ 000000000009cd08     TlsLib:TlsConfig.obj
 0002:000008e0       ??_C@_0BD@MNBMGMFC@DHE?9RSA?9AES128?9SHA@ 000000000009cd20     TlsLib:TlsConfig.obj
 0002:000008f8       ??_C@_0L@CIGAOKOL@AES256?9SHA@ 000000000009cd38     TlsLib:TlsConfig.obj
 0002:00000908       ??_C@_0BC@BJMJFBJD@DH?9DSS?9AES256?9SHA@ 000000000009cd48     TlsLib:TlsConfig.obj
 0002:00000920       ??_C@_0BC@KLAKAJLP@DH?9RSA?9AES256?9SHA@ 000000000009cd60     TlsLib:TlsConfig.obj
 0002:00000938       ??_C@_0BD@LMDODEEP@DHE?9RSA?9AES256?9SHA@ 000000000009cd78     TlsLib:TlsConfig.obj
 0002:00000950       ??_C@_0M@OPPJMAFE@NULL?9SHA256@ 000000000009cd90     TlsLib:TlsConfig.obj
 0002:00000960       ??_C@_0O@OPGGFJJ@AES128?9SHA256@ 000000000009cda0     TlsLib:TlsConfig.obj
 0002:00000970       ??_C@_0O@LNAKMDHD@AES256?9SHA256@ 000000000009cdb0     TlsLib:TlsConfig.obj
 0002:00000980       ??_C@_0BF@PMCPDAHP@DH?9DSS?9AES128?9SHA256@ 000000000009cdc0     TlsLib:TlsConfig.obj
 0002:00000998       ??_C@_0BF@LNHHMLBP@DH?9RSA?9AES128?9SHA256@ 000000000009cdd8     TlsLib:TlsConfig.obj
 0002:000009b0       ??_C@_0BG@EDOPAEND@DHE?9RSA?9AES128?9SHA256@ 000000000009cdf0     TlsLib:TlsConfig.obj
 0002:000009c8       ??_C@_0BF@EPNDJGJF@DH?9DSS?9AES256?9SHA256@ 000000000009ce08     TlsLib:TlsConfig.obj
 0002:000009e0       ??_C@_0BF@OILGNPF@DH?9RSA?9AES256?9SHA256@ 000000000009ce20     TlsLib:TlsConfig.obj
 0002:000009f8       ??_C@_0BG@PABDKCDJ@DHE?9RSA?9AES256?9SHA256@ 000000000009ce38     TlsLib:TlsConfig.obj
 0002:00000a10       ??_C@_0BB@CBOPIGCD@TlsSetCipherList@ 000000000009ce50     TlsLib:TlsConfig.obj
 0002:00000a28       ??_C@_0CB@OIOGIHFE@?$CFa?3?$CFa?3?5skipping?5CipherId?$DN0x?$CF04x@ 000000000009ce68     TlsLib:TlsConfig.obj
 0002:00000a50       ??_C@_0CE@OEDNPFCG@?$CFa?3?$CFa?3?5no?5CipherId?5could?5be?5map@ 000000000009ce90     TlsLib:TlsConfig.obj
 0002:00000a78       ??_C@_0DI@NEPBFHAK@CipherStringPosition?5?$DN?$DN?5CipherS@ 000000000009ceb8     TlsLib:TlsConfig.obj
 0002:00000ab0       ??_C@_0DC@CIMJNDFC@d?3?2edk2?2edk2?2CryptoPkg?2Library?2@ 000000000009cef0     TlsLib:TlsConfig.obj
 0002:00000ae8       ??_C@_0BH@LDKGBPBD@?$CFa?3?$CFa?3?5CipherString?$DN?$HL?6@ 000000000009cf28     TlsLib:TlsConfig.obj
 0002:00000b00       ??_C@_05BLNIFNHL@?$CF?4?$CKa?6@ 000000000009cf40     TlsLib:TlsConfig.obj
 0002:00000b08       ??_C@_02KGHIDFGE@?$HN?6@   000000000009cf48     TlsLib:TlsConfig.obj
 0002:00000b10       ??_C@_0BM@MGMPMNDL@VerifyParam?5?$CB?$DN?5?$CI?$CIvoid?5?$CK?$CJ?50?$CJ@ 000000000009cf50     TlsLib:TlsConfig.obj
 0002:00000b30       ??_C@_0BB@INOKDFHO@TlsSetVerifyHost@ 000000000009cf70     TlsLib:TlsConfig.obj
 0002:00000b48       ??_C@_0DA@JOPDGBIL@?$CFa?3?$CFa?3?5parsed?5?$CC?$CFa?$CC?5as?5an?5IPv?$CFc?5@ 000000000009cf88     TlsLib:TlsConfig.obj
 0002:00000b78       ??_C@_0BI@OEPAJMP@TlsConn?5?$CB?$DN?5?$CI?$CIvoid?5?$CK?$CJ?50?$CJ@ 000000000009cfb8     TlsLib:TlsConfig.obj
 0002:00000db8       ??_C@_03DFDFBAEP@SSL@      000000000009d1f8     TlsLib:TlsProcess.obj
 0002:00000dc0       ??_C@_07GEJEGLOC@SYSCALL@  000000000009d200     TlsLib:TlsProcess.obj
 0002:00000dc8       ??_C@_0M@BOOICIBG@ZERO_RETURN@ 000000000009d208     TlsLib:TlsProcess.obj
 0002:00000dd8       ??_C@_0P@PKBNPNBM@TlsDoHandshake@ 000000000009d218     TlsLib:TlsProcess.obj
 0002:00000de8       ??_C@_0DA@GIDGNHJM@?$CFa?5SSL_HANDSHAKE_ERROR?5State?$DN0x@ 000000000009d228     TlsLib:TlsProcess.obj
 0002:00000e18       ??_C@_0BL@GHCEOKHJ@?$CFa?5ERROR?50x?$CFx?$DNL?$CFx?3F?$CFx?3R?$CFx?6@ 000000000009d258     TlsLib:TlsProcess.obj
 0002:00000e38       ??_C@_0DC@FABBJIGJ@d?3?2edk2?2edk2?2MdePkg?2Library?2Dxe@ 000000000009d278     DxePcdLib:DxePcdLib.obj
 0002:00000e70       ??_C@_0BF@OOKDELHM@mPcd?5?$CB?$DN?5?$CI?$CIvoid?5?$CK?$CJ?50?$CJ@ 000000000009d2b0     DxePcdLib:DxePcdLib.obj
 0002:00000e88       ??_C@_0BH@MAAHKCPC@String?5?$CB?$DN?5?$CI?$CIvoid?5?$CK?$CJ?50?$CJ@ 000000000009d2c8     BaseLib:String.obj
 0002:00000ea0       ??_C@_0CN@LHBFELAO@d?3?2edk2?2edk2?2MdePkg?2Library?2Bas@ 000000000009d2e0     BaseLib:String.obj
 0002:00000ed0       ??_C@_0CC@GFNLNIOC@?$CI?$CIUINTN?$CJString?5?$CG?50x00000001?$CJ?5?$DN?$DN@ 000000000009d310     BaseLib:String.obj
 0002:00000ef8       ??_C@_0DI@MDIKFADO@Length?5?$DM?5_gPcd_FixedAtBuild_Pcd@ 000000000009d338     BaseLib:String.obj
 0002:00000f30       ??_C@_0BL@IKFBNFIL@AsciiStrSize?5?$CIFirstString?$CJ@ 000000000009d370     BaseLib:String.obj
 0002:00000f50       ??_C@_0BM@EDNOKLLE@AsciiStrSize?5?$CISecondString?$CJ@ 000000000009d390     BaseLib:String.obj
 0002:00000f70       ??_C@_0DJ@JJHGIFMP@Length?5?$DM?$DN?5_gPcd_FixedAtBuild_Pc@ 000000000009d3b0     BaseLib:String.obj
 0002:00000fb0       ??_C@_0DA@BDDONMJM@d?3?2edk2?2edk2?2MdePkg?2Library?2Bas@ 000000000009d3f0     BaseLib:Unaligned.obj
 0002:00000fe0       ??_C@_0DB@PKFMPMPC@d?3?2edk2?2edk2?2MdePkg?2Library?2Bas@ 000000000009d420     BaseLib:SafeString.obj
 0002:00001018       ??_C@_0BO@ECNIOIHG@?$CIDestination?5?$CB?$DN?5?$CI?$CIvoid?5?$CK?$CJ?50?$CJ?$CJ@ 000000000009d458     BaseLib:SafeString.obj
 0002:00001040       ??_C@_0EA@PDPDJJNN@?$CFa?$CI?$CFd?$CJ?5?$CFa?3?5SAFE_STRING_CONSTRAI@ 000000000009d480     BaseLib:SafeString.obj
 0002:00001080       ??_C@_0BJ@EAEEJIP@?$CISource?5?$CB?$DN?5?$CI?$CIvoid?5?$CK?$CJ?50?$CJ?$CJ@ 000000000009d4c0     BaseLib:SafeString.obj
 0002:000010a0       ??_C@_0BG@EEGIIOKH@?$CIDestMax?5?$DO?5SourceLen?$CJ@ 000000000009d4e0     BaseLib:SafeString.obj
 0002:000010b8       ??_C@_0P@BHOOOJPD@?$CICopyLen?5?$CB?$DN?50?$CJ@ 000000000009d4f8     BaseLib:SafeString.obj
 0002:000010c8       ??_C@_0BG@BPGICNPK@?$CICopyLen?5?$DO?5SourceLen?$CJ@ 000000000009d508     BaseLib:SafeString.obj
 0002:000010e0       ??_C@_0BJ@MBBOBCLN@?$CIString?5?$CB?$DN?5?$CI?$CIvoid?5?$CK?$CJ?50?$CJ?$CJ@ 000000000009d520     BaseLib:SafeString.obj
 0002:00001100       ??_C@_0BH@JPMEDPAI@?$CIData?5?$CB?$DN?5?$CI?$CIvoid?5?$CK?$CJ?50?$CJ?$CJ@ 000000000009d540     BaseLib:SafeString.obj
 0002:00001118       ??_C@_0BJ@CNKJJNE@?$CIBuffer?5?$CB?$DN?5?$CI?$CIvoid?5?$CK?$CJ?50?$CJ?$CJ@ 000000000009d558     BaseLib:SafeString.obj
 0002:00001138       ??_C@_0N@OMPODJLB@AsciiStrCpyS@ 000000000009d578     BaseLib:SafeString.obj
 0002:00001150       ??_C@_0FL@CDANCHFO@InternalSafeStringNoAsciiStrOve@ 000000000009d590     BaseLib:SafeString.obj
 0002:000011b0       ??_C@_0O@DIHNCLLG@AsciiStrnCpyS@ 000000000009d5f0     BaseLib:SafeString.obj
 0002:000011c0       ??_C@_0DN@DLAADCJE@?$CILength?5?$DM?$DN?5?$CI_gPcd_FixedAtBuild_@ 000000000009d600     BaseLib:SafeString.obj
 0002:00001200       ??_C@_0N@MIDJKBI@AsciiStrCatS@ 000000000009d640     BaseLib:SafeString.obj
 0002:00001210       ??_C@_0BI@GIIHIIN@AsciiStrDecimalToUintnS@ 000000000009d650     BaseLib:SafeString.obj
 0002:00001230       ??_C@_0ID@JMCCGBLD@?$CIAsciiStrnLenS?5?$CIString?0?5?$CI_gPcd_@ 000000000009d670     BaseLib:SafeString.obj
 0002:000012b8       ??_C@_0N@KGHEHMDL@Divisor?5?$CB?$DN?50@ 000000000009d6f8     BaseLib:DivU64x32.obj
 0002:000012c8       ??_C@_0DI@DAGDPLPG@?$CILength?5?9?51?$CJ?5?$DM?$DN?5?$CI0xFFFFFFFFFFFF@ 000000000009d708     BaseMemoryLibRepStr:SetMemWrapper.obj
 0002:00001300       ??_C@_0EA@JBMLOGBO@d?3?2edk2?2edk2?2MdePkg?2Library?2Bas@ 000000000009d740     BaseMemoryLibRepStr:SetMemWrapper.obj
 0002:00001340       ??_C@_0EB@KNGCOOD@d?3?2edk2?2edk2?2MdePkg?2Library?2Bas@ 000000000009d780     BaseMemoryLibRepStr:ZeroMemWrapper.obj
 0002:00001388       ??_C@_0DG@EEENIGGL@Length?5?$DM?$DN?5?$CI0xFFFFFFFFFFFFFFFFUL@ 000000000009d7c8     BaseMemoryLibRepStr:ZeroMemWrapper.obj
 0002:000013c0       ??_C@_0DK@HAPDFBOC@d?3?2edk2?2edk2?2MdePkg?2Library?2Bas@ 000000000009d800     BaseIoLibIntrinsicSev:IoLibMsc.obj
 0002:00001400       ??_C@_0BA@HCECIDGN@?$CIPort?5?$CG?53?$CJ?5?$DN?$DN?50@ 000000000009d840     BaseIoLibIntrinsicSev:IoLibMsc.obj
 0002:00001410       ??_C@_0DM@OAJIKNNG@d?3?2edk2?2edk2?2MdePkg?2Library?2Bas@ 000000000009d850     BasePrintLib:PrintLibInternal.obj
 0002:00001450       ??_C@_0EB@HDGIDCIO@?$CIBufferSize?5?$DM?$DN?5?$CI_gPcd_FixedAtBu@ 000000000009d890     BasePrintLib:PrintLibInternal.obj
 0002:00001498       ??_C@_0BJ@PPAKKDJG@?$CIFormat?5?$CB?$DN?5?$CI?$CIvoid?5?$CK?$CJ?50?$CJ?$CJ@ 000000000009d8d8     BasePrintLib:PrintLibInternal.obj
 0002:000014c0       ??_C@_0ED@LPDDCECB@?$CIBufferSize?5?$DM?$DN?5?$CI_gPcd_FixedAtBu@ 000000000009d900     BasePrintLib:PrintLibInternal.obj
 0002:00001510       ??_C@_0IM@BFJJFLGB@?$CIStrnLenS?5?$CI?$CICHAR16?5?$CK?$CJFormat?0?5?$CI_@ 000000000009d950     BasePrintLib:PrintLibInternal.obj
 0002:000015a0       ??_C@_0ID@PLGJGION@?$CIAsciiStrnLenS?5?$CIFormat?0?5?$CI_gPcd_@ 000000000009d9e0     BasePrintLib:PrintLibInternal.obj
 0002:00001628       ??_C@_0O@MLOLIMFM@?$DMnull?5string?$DO@ 000000000009da68     BasePrintLib:PrintLibInternal.obj
 0002:00001638       ??_C@_0M@BJJDNPHK@?$DMnull?5guid?$DO@ 000000000009da78     BasePrintLib:PrintLibInternal.obj
 0002:00001648       ??_C@_0DB@PMLHLBMO@?$CF08x?9?$CF04x?9?$CF04x?9?$CF02x?$CF02x?9?$CF02x?$CF02@ 000000000009da88     BasePrintLib:PrintLibInternal.obj
 0002:00001680       ??_C@_0M@LHGBCIKM@?$DMnull?5time?$DO@ 000000000009dac0     BasePrintLib:PrintLibInternal.obj
 0002:00001690       ??_C@_0BK@FCPKCIDD@?$CF02d?1?$CF02d?1?$CF04d?5?5?$CF02d?3?$CF02d@ 000000000009dad0     BasePrintLib:PrintLibInternal.obj
 0002:000016ac       ??_C@_04JIMNDDED@?$CF08X@  000000000009daec     BasePrintLib:PrintLibInternal.obj
 0002:000016b4       ??_C@_02PCIJFNDE@?$AN?6@   000000000009daf4     BasePrintLib:PrintLibInternal.obj
 0002:000016b8       ??_C@_01LIIJDEN@?$AN@      000000000009daf8     BasePrintLib:PrintLibInternal.obj
 0002:000016c0       mWarningString             000000000009db00     BasePrintLib:PrintLibInternal.obj
 0002:00001760       mErrorString               000000000009dba0     BasePrintLib:PrintLibInternal.obj
 0002:00001a20       mHexStr                    000000000009de60     BasePrintLib:PrintLibInternal.obj
 0002:00001a30       ??_C@_0BO@BAKALPJK@?$CI?$CIAddress?$CJ?5?$CG?5?$HO0xfffffff?$CJ?5?$DN?$DN?50@ 000000000009de70     BasePciExpressLib:PciExpressLib.obj
 0002:00001a50       ??_C@_0DO@IIAFMEOI@d?3?2edk2?2edk2?2MdePkg?2Library?2Bas@ 000000000009de90     BasePciExpressLib:PciExpressLib.obj
 0002:00001a90       ??_C@_0DG@KOAEBPEO@d?3?2edk2?2edk2?2MdePkg?2Library?2Bas@ 000000000009ded0     BasePciCf8Lib:PciCf8Lib.obj
 0002:00001ac8       ??_C@_0CG@EDKLCMBO@?$CI?$CIAddress?$CJ?5?$CG?5?$CI?$HO0xffff0ff?5?$HM?5?$CI3?$CJ?$CJ@ 000000000009df08     BasePciCf8Lib:PciCf8Lib.obj
 0002:00001af0       ??_C@_0CO@LADCLDOA@TLS_AES_256_GCM_SHA384?3TLS_AES_@ 000000000009df30     OpensslLib:ssl_lib.obj
 0002:00001b20       ??_C@_0CA@NLKFJLJB@ALL?3?$CBCOMPLEMENTOFDEFAULT?3?$CBeNULL@ 000000000009df60     OpensslLib:ssl_lib.obj
 0002:00001b40       ??_C@_08CBANLEIB@ssl3?9md5@ 000000000009df80     OpensslLib:ssl_lib.obj
 0002:00001b50       ??_C@_09KCHAKJIH@ssl3?9sha1@ 000000000009df90     OpensslLib:ssl_lib.obj
 0002:00001b60       ??_C@_07LKLNDMIP@TLSv1?43@ 000000000009dfa0     OpensslLib:ssl_lib.obj
 0002:00001b68       ??_C@_07KDKGANMO@TLSv1?42@ 000000000009dfa8     OpensslLib:ssl_lib.obj
 0002:00001b70       ??_C@_07IIILFOAN@TLSv1?41@ 000000000009dfb0     OpensslLib:ssl_lib.obj
 0002:00001b78       ??_C@_05LLIBCOJ@TLSv1@     000000000009dfb8     OpensslLib:ssl_lib.obj
 0002:00001b80       ??_C@_05MOEBAHEJ@SSLv3@    000000000009dfc0     OpensslLib:ssl_lib.obj
 0002:00001b88       ??_C@_06JHFCDNFO@DTLSv1@   000000000009dfc8     OpensslLib:ssl_lib.obj
 0002:00001b90       ??_C@_08KDPDJEAC@DTLSv1?42@ 000000000009dfd0     OpensslLib:ssl_lib.obj
 0002:00001b9c       ??_C@_04NOJCDH@?$CF02x@    000000000009dfdc     OpensslLib:ssl_lib.obj
 0002:00001ba4       ??_C@_03DICHAJGH@RSA@      000000000009dfe4     OpensslLib:ssl_lib.obj
 0002:00001ba8       ??_C@_03GCGHEHKJ@MD5@      000000000009dfe8     OpensslLib:ssl_init.obj
 0002:00001bac       ??_C@_04KPMLCNGO@SHA1@     000000000009dfec     OpensslLib:ssl_init.obj
 0002:00001bb8       ??_C@_08FBKDDLCN@RSA?9SHA1@ 000000000009dff8     OpensslLib:ssl_init.obj
 0002:00001bc8       ??_C@_0L@EMMEGDKK@RSA?9SHA1?92@ 000000000009e008     OpensslLib:ssl_init.obj
 0002:00001bd8       ??_C@_0O@DIEIKEFB@memory?5buffer@ 000000000009e018     OpensslLib:bss_mem.obj
 0002:00001be8       ??_C@_0BF@GBLHBJLI@secure?5memory?5buffer@ 000000000009e028     OpensslLib:bss_mem.obj
 0002:000024a0       ??_C@_01CLKCMJKC@?5@       000000000009e8e0     OpensslLib:bio_lib.obj
 0002:000024a4       ??_C@_03NIFPGLBG@ALL@      000000000009e8e4     OpensslLib:ssl_ciph.obj
 0002:000024a8       ??_C@_0BA@NMKLDIMD@COMPLEMENTOFALL@ 000000000009e8e8     OpensslLib:ssl_ciph.obj
 0002:000024b8       ??_C@_0BE@MOOCAEFB@COMPLEMENTOFDEFAULT@ 000000000009e8f8     OpensslLib:ssl_ciph.obj
 0002:000024cc       ??_C@_04DBKDGHDK@kRSA@     000000000009e90c     OpensslLib:ssl_ciph.obj
 0002:000024d4       ??_C@_04DEMGAGKA@kEDH@     000000000009e914     OpensslLib:ssl_ciph.obj
 0002:000024dc       ??_C@_04DAMOOGOM@kDHE@     000000000009e91c     OpensslLib:ssl_ciph.obj
 0002:000024e4       ??_C@_02EPINMGPM@DH@       000000000009e924     OpensslLib:ssl_ciph.obj
 0002:000024e8       ??_C@_06OCDGGDLK@kEECDH@   000000000009e928     OpensslLib:ssl_ciph.obj
 0002:000024f0       ??_C@_06EMBFCJIK@kECDHE@   000000000009e930     OpensslLib:ssl_ciph.obj
 0002:000024f8       ??_C@_04GPFMMIBJ@ECDH@     000000000009e938     OpensslLib:ssl_ciph.obj
 0002:00002500       ??_C@_04GBEFEHDL@kPSK@     000000000009e940     OpensslLib:ssl_ciph.obj
 0002:00002508       ??_C@_07PKOFGGMA@kRSAPSK@  000000000009e948     OpensslLib:ssl_ciph.obj
 0002:00002510       ??_C@_09HDEDOMJP@kECDHEPSK@ 000000000009e950     OpensslLib:ssl_ciph.obj
 0002:00002520       ??_C@_07GCHKJLKM@kDHEPSK@  000000000009e960     OpensslLib:ssl_ciph.obj
 0002:00002528       ??_C@_04NLAEEJHI@kSRP@     000000000009e968     OpensslLib:ssl_ciph.obj
 0002:00002530       ??_C@_05LFIHGFEO@kGOST@    000000000009e970     OpensslLib:ssl_ciph.obj
 0002:00002538       ??_C@_04HLBDHPJL@aRSA@     000000000009e978     OpensslLib:ssl_ciph.obj
 0002:00002540       ??_C@_04HGJFAHAL@aDSS@     000000000009e980     OpensslLib:ssl_ciph.obj
 0002:00002548       ??_C@_03DFKBHBPH@DSS@      000000000009e988     OpensslLib:ssl_ciph.obj
 0002:0000254c       ??_C@_05LDMJOPLG@aNULL@    000000000009e98c     OpensslLib:ssl_ciph.obj
 0002:00002554       ??_C@_06JMHKPPFB@aECDSA@   000000000009e994     OpensslLib:ssl_ciph.obj
 0002:0000255c       ??_C@_05JNBFMGNN@ECDSA@    000000000009e99c     OpensslLib:ssl_ciph.obj
 0002:00002564       ??_C@_04CLPFFPJK@aPSK@     000000000009e9a4     OpensslLib:ssl_ciph.obj
 0002:00002570       ??_C@_07CANELMDB@aGOST01@  000000000009e9b0     OpensslLib:ssl_ciph.obj
 0002:00002578       ??_C@_07KDLIFMF@aGOST12@   000000000009e9b8     OpensslLib:ssl_ciph.obj
 0002:00002580       ??_C@_05BEBMEGCI@aGOST@    000000000009e9c0     OpensslLib:ssl_ciph.obj
 0002:00002588       ??_C@_04JBLEFBNJ@aSRP@     000000000009e9c8     OpensslLib:ssl_ciph.obj
 0002:00002590       ??_C@_03DNECGIPN@EDH@      000000000009e9d0     OpensslLib:ssl_ciph.obj
 0002:00002594       ??_C@_03DJEKIILB@DHE@      000000000009e9d4     OpensslLib:ssl_ciph.obj
 0002:00002598       ??_C@_05EHCJAFHI@EECDH@    000000000009e9d8     OpensslLib:ssl_ciph.obj
 0002:000025a0       ??_C@_05OJAKEPEI@ECDHE@    000000000009e9e0     OpensslLib:ssl_ciph.obj
 0002:000025a8       ??_C@_04HIBGFPH@NULL@      000000000009e9e8     OpensslLib:ssl_ciph.obj
 0002:000025b0       ??_C@_03LCCAPPKK@ADH@      000000000009e9f0     OpensslLib:ssl_ciph.obj
 0002:000025b4       ??_C@_05NMLIEHGO@AECDH@    000000000009e9f4     OpensslLib:ssl_ciph.obj
 0002:000025bc       ??_C@_03GIMBCJGG@PSK@      000000000009e9fc     OpensslLib:ssl_ciph.obj
 0002:000025c0       ??_C@_03NCIACHCF@SRP@      000000000009ea00     OpensslLib:ssl_ciph.obj
 0002:000025c4       ??_C@_04CMONEEGC@3DES@     000000000009ea04     OpensslLib:ssl_ciph.obj
 0002:000025cc       ??_C@_03HGEJCHKE@RC4@      000000000009ea0c     OpensslLib:ssl_ciph.obj
 0002:000025d0       ??_C@_03CABDIACC@RC2@      000000000009ea10     OpensslLib:ssl_ciph.obj
 0002:000025d4       ??_C@_04OHHLMMNP@IDEA@     000000000009ea14     OpensslLib:ssl_ciph.obj
 0002:000025dc       ??_C@_04IOANANM@SEED@      000000000009ea1c     OpensslLib:ssl_ciph.obj
 0002:000025e4       ??_C@_05CIFIKNKA@eNULL@    000000000009ea24     OpensslLib:ssl_ciph.obj
 0002:000025ec       ??_C@_06CBBMHLD@GOST89@    000000000009ea2c     OpensslLib:ssl_ciph.obj
 0002:000025f4       ??_C@_06NICOGCEJ@AES128@   000000000009ea34     OpensslLib:ssl_ciph.obj
 0002:000025fc       ??_C@_06FBFHPGKM@AES256@   000000000009ea3c     OpensslLib:ssl_ciph.obj
 0002:00002604       ??_C@_03BKNEFOAH@AES@      000000000009ea44     OpensslLib:ssl_ciph.obj
 0002:00002608       ??_C@_06JBABBCNN@AESGCM@   000000000009ea48     OpensslLib:ssl_ciph.obj
 0002:00002610       ??_C@_06BOGDIFIK@AESCCM@   000000000009ea50     OpensslLib:ssl_ciph.obj
 0002:00002618       ??_C@_07BKOMLFEA@AESCCM8@  000000000009ea58     OpensslLib:ssl_ciph.obj
 0002:00002620       ??_C@_0M@ODOKKANE@CAMELLIA128@ 000000000009ea60     OpensslLib:ssl_ciph.obj
 0002:00002630       ??_C@_0M@GKJDDEDB@CAMELLIA256@ 000000000009ea70     OpensslLib:ssl_ciph.obj
 0002:00002640       ??_C@_08LLHPADEA@CAMELLIA@ 000000000009ea80     OpensslLib:ssl_ciph.obj
 0002:00002650       ??_C@_08NMKDCABJ@CHACHA20@ 000000000009ea90     OpensslLib:ssl_ciph.obj
 0002:0000265c       ??_C@_04KLGDHGDJ@ARIA@     000000000009ea9c     OpensslLib:ssl_ciph.obj
 0002:00002668       ??_C@_07LHKMFCHD@ARIAGCM@  000000000009eaa8     OpensslLib:ssl_ciph.obj
 0002:00002670       ??_C@_07POIDCCOH@ARIA128@  000000000009eab0     OpensslLib:ssl_ciph.obj
 0002:00002678       ??_C@_07HHPKLGAC@ARIA256@  000000000009eab8     OpensslLib:ssl_ciph.obj
 0002:00002680       ??_C@_03JAOICCJD@SHA@      000000000009eac0     OpensslLib:ssl_ciph.obj
 0002:00002684       ??_C@_06LGHNNDMJ@GOST94@   000000000009eac4     OpensslLib:ssl_ciph.obj
 0002:00002690       ??_C@_09OKGBFKOB@GOST89MAC@ 000000000009ead0     OpensslLib:ssl_ciph.obj
 0002:0000269c       ??_C@_06HKIKMHH@SHA256@    000000000009eadc     OpensslLib:ssl_ciph.obj
 0002:000026a4       ??_C@_06IFPKDKMD@SHA384@   000000000009eae4     OpensslLib:ssl_ciph.obj
 0002:000026ac       ??_C@_06OODECFPH@GOST12@   000000000009eaec     OpensslLib:ssl_ciph.obj
 0002:000026b8       ??_C@_07JBJAGPEM@TLSv1?40@ 000000000009eaf8     OpensslLib:ssl_ciph.obj
 0002:000026c0       ??_C@_03IBEFMGAI@LOW@      000000000009eb00     OpensslLib:ssl_ciph.obj
 0002:000026c4       ??_C@_06HMBFJLMK@MEDIUM@   000000000009eb04     OpensslLib:ssl_ciph.obj
 0002:000026cc       ??_C@_04PKDHFCJF@HIGH@     000000000009eb0c     OpensslLib:ssl_ciph.obj
 0002:000026d4       ??_C@_04PFFIJCJL@FIPS@     000000000009eb14     OpensslLib:ssl_ciph.obj
 0002:000026e0       ??_C@_0BF@POGOIEBE@EDH?9DSS?9DES?9CBC3?9SHA@ 000000000009eb20     OpensslLib:ssl_ciph.obj
 0002:000026f8       ??_C@_0BF@KCOPIELP@EDH?9RSA?9DES?9CBC3?9SHA@ 000000000009eb38     OpensslLib:ssl_ciph.obj
 0002:00002710       ??_C@_08JCNEGNFC@gost?9mac@ 000000000009eb50     OpensslLib:ssl_ciph.obj
 0002:00002720       ??_C@_0M@KEFEFFFO@gost?9mac?912@ 000000000009eb60     OpensslLib:ssl_ciph.obj
 0002:00002730       ??_C@_08KMPAMBCP@gost2001@ 000000000009eb70     OpensslLib:ssl_ciph.obj
 0002:00002740       ??_C@_0N@MINOOKEF@gost2012_256@ 000000000009eb80     OpensslLib:ssl_ciph.obj
 0002:00002750       ??_C@_0N@DGGMLPCE@gost2012_512@ 000000000009eb90     OpensslLib:ssl_ciph.obj
 0002:00002760       ??_C@_0N@MFFPBCGK@RC4?9HMAC?9MD5@ 000000000009eba0     OpensslLib:ssl_ciph.obj
 0002:00002770       ??_C@_0BG@OKEPPAEE@AES?9128?9CBC?9HMAC?9SHA1@ 000000000009ebb0     OpensslLib:ssl_ciph.obj
 0002:00002788       ??_C@_0BG@NJKHMG@AES?9256?9CBC?9HMAC?9SHA1@ 000000000009ebc8     OpensslLib:ssl_ciph.obj
 0002:000027a0       ??_C@_0BI@JAKBILLC@AES?9128?9CBC?9HMAC?9SHA256@ 000000000009ebe0     OpensslLib:ssl_ciph.obj
 0002:000027b8       ??_C@_0BI@GMBLFPLK@AES?9256?9CBC?9HMAC?9SHA256@ 000000000009ebf8     OpensslLib:ssl_ciph.obj
 0002:000027d0       ??_C@_08NKIPMNFC@STRENGTH@ 000000000009ec10     OpensslLib:ssl_ciph.obj
 0002:000027e0       ??_C@_09KJIOADCI@SECLEVEL?$DN@ 000000000009ec20     OpensslLib:ssl_ciph.obj
 0002:000027f0       ??_C@_0O@KBPCDIMJ@SUITEB128ONLY@ 000000000009ec30     OpensslLib:ssl_ciph.obj
 0002:00002800       ??_C@_0M@IHCKNMIL@SUITEB128C2@ 000000000009ec40     OpensslLib:ssl_ciph.obj
 0002:00002810       ??_C@_09JCJKDIKO@SUITEB128@ 000000000009ec50     OpensslLib:ssl_ciph.obj
 0002:00002820       ??_C@_09GECADPMF@SUITEB192@ 000000000009ec60     OpensslLib:ssl_ciph.obj
 0002:00002830       ??_C@_0BO@MAHEHKAF@ECDHE?9ECDSA?9AES256?9GCM?9SHA384@ 000000000009ec70     OpensslLib:ssl_ciph.obj
 0002:00002850       ??_C@_0DM@CNGFGEEL@ECDHE?9ECDSA?9AES128?9GCM?9SHA256?3E@ 000000000009ec90     OpensslLib:ssl_ciph.obj
 0002:00002890       ??_C@_0BO@MMHACALI@ECDHE?9ECDSA?9AES128?9GCM?9SHA256@ 000000000009ecd0     OpensslLib:ssl_ciph.obj
 0002:000028b0       ??_C@_07MGCPDNLD@DEFAULT@  000000000009ecf0     OpensslLib:ssl_ciph.obj
 0002:000028b8       ??_C@_03OBJFJEBA@any@      000000000009ecf8     OpensslLib:ssl_ciph.obj
 0002:000028bc       ??_C@_04OHJIHAFH@None@     000000000009ecfc     OpensslLib:ssl_ciph.obj
 0002:000041a0       ??_C@_0BA@CMCLEKJO@SERVERINFO?5FOR?5@ 00000000000a05e0     OpensslLib:ssl_rsa.obj
 0002:000041b0       ??_C@_0BC@POOIPKPK@SERVERINFOV2?5FOR?5@ 00000000000a05f0     OpensslLib:ssl_rsa.obj
 0002:000041c8       ??_C@_07CPCPJPKL@version@  00000000000a0608     OpensslLib:x_x509.obj
 0002:000041d0       ??_C@_0N@OMOHFKCJ@serialNumber@ 00000000000a0610     OpensslLib:x_x509.obj
 0002:000041e0       ??_C@_09CMIIOJHF@signature@ 00000000000a0620     OpensslLib:x_x509.obj
 0002:000041ec       ??_C@_06EAINIONG@issuer@   00000000000a062c     OpensslLib:x_x509.obj
 0002:000041f8       ??_C@_08GCHKOCBP@validity@ 00000000000a0638     OpensslLib:x_x509.obj
 0002:00004208       ??_C@_07JNNGEGGO@subject@  00000000000a0648     OpensslLib:x_x509.obj
 0002:00004210       ??_C@_03ICHNJLJF@key@      00000000000a0650     OpensslLib:x_x509.obj
 0002:00004218       ??_C@_09KIIAMAEE@issuerUID@ 00000000000a0658     OpensslLib:x_x509.obj
 0002:00004228       ??_C@_0L@JMFHLKAL@subjectUID@ 00000000000a0668     OpensslLib:x_x509.obj
 0002:00004238       ??_C@_0L@ICCCPLKC@extensions@ 00000000000a0678     OpensslLib:x_x509.obj
 0002:00004248       ??_C@_09LCJGKABB@X509_CINF@ 00000000000a0688     OpensslLib:x_x509.obj
 0002:00004258       ??_C@_09NKDPGBBA@cert_info@ 00000000000a0698     OpensslLib:x_x509.obj
 0002:00004268       ??_C@_07OBHFIHGJ@sig_alg@  00000000000a06a8     OpensslLib:x_x509.obj
 0002:00004270       ??_C@_04NMKEOMFB@X509@     00000000000a06b0     OpensslLib:x_x509.obj
 0002:00004420       X509_it                    00000000000a0860     OpensslLib:x_x509.obj
 0002:000044a0       X509_CINF_it               00000000000a08e0     OpensslLib:x_x509.obj
 0002:000044d0       ??_C@_0M@BFIJENPO@CERTIFICATE@ 00000000000a0910     OpensslLib:pem_x509.obj
 0002:000044e0       ??_C@_07DLHCIBDH@default@  00000000000a0920     OpensslLib:x509_vpm.obj
 0002:000044e8       ??_C@_05EENODLBB@pkcs7@    00000000000a0928     OpensslLib:x509_vpm.obj
 0002:000044f0       ??_C@_0L@GGDBHMO@smime_sign@ 00000000000a0930     OpensslLib:x509_vpm.obj
 0002:00004500       ??_C@_0L@IMDPAGCM@ssl_client@ 00000000000a0940     OpensslLib:x509_vpm.obj
 0002:00004510       ??_C@_0L@MDHNNNKP@ssl_server@ 00000000000a0950     OpensslLib:x509_vpm.obj
 0002:00004728       ??_C@_02JDNIPIGD@NA@       00000000000a0b68     OpensslLib:err.obj
 0002:00004730       ??_C@_0BF@IKLBHEFA@error?3?$CF08lX?3?$CFs?3?$CFs?3?$CFs@ 00000000000a0b70     OpensslLib:err.obj
 0002:00004748       ??_C@_06CBHGEMFM@?$DMNULL?$DO@ 00000000000a0b88     OpensslLib:err.obj
 0002:00004750       ??_C@_07FELGDGBG@?$CIundef?$CJ@ 00000000000a0b90     OpensslLib:c_zlib.obj
 0002:00004758       ??_C@_0BI@GCIOAHAF@SSL?5for?5verify?5callback@ 00000000000a0b98     OpensslLib:ssl_cert.obj
 0002:00004770       ??_C@_02HJPKOJGD@?8?$CJ@   00000000000a0bb0     OpensslLib:ssl_cert.obj
 0002:00004778       ??_C@_0BJ@LMCDNAEM@OPENSSL_DIR_read?$CI?$CGctx?0?5?8@ 00000000000a0bb8     OpensslLib:ssl_cert.obj
 0002:00004798       ??_C@_0O@HFNJECFC@Verify?5error?3@ 00000000000a0bd8     OpensslLib:ssl_cert.obj
 0002:00004810       ??_C@_0BC@PCIPMNJJ@SSL?5alert?5number?5@ 00000000000a0c50     OpensslLib:rec_layer_s3.obj
 0002:00004830       TLSv1_enc_data             00000000000a0c70     OpensslLib:t1_lib.obj
 0002:000048b0       TLSv1_1_enc_data           00000000000a0cf0     OpensslLib:t1_lib.obj
 0002:00004930       TLSv1_3_enc_data           00000000000a0d70     OpensslLib:t1_lib.obj
 0002:000049b0       TLSv1_2_enc_data           00000000000a0df0     OpensslLib:t1_lib.obj
 0002:00004a30       ??_C@_0BA@OOFGCNEE@client?5finished@ 00000000000a0e70     OpensslLib:t1_lib.obj
 0002:00004a40       ??_C@_0BA@MHGDKHGN@server?5finished@ 00000000000a0e80     OpensslLib:t1_lib.obj
 0002:00004a50       ??_C@_0BH@GIADEPJE@ecdsa_secp256r1_sha256@ 00000000000a0e90     OpensslLib:t1_lib.obj
 0002:00004a68       ??_C@_0BH@PBAELIIK@ecdsa_secp384r1_sha384@ 00000000000a0ea8     OpensslLib:t1_lib.obj
 0002:00004a80       ??_C@_0BH@LGGBOAKB@ecdsa_secp521r1_sha512@ 00000000000a0ec0     OpensslLib:t1_lib.obj
 0002:00004a98       ??_C@_07LBIEHNGB@ed25519@  00000000000a0ed8     OpensslLib:t1_lib.obj
 0002:00004aa0       ??_C@_05DBACIPHJ@ed448@    00000000000a0ee0     OpensslLib:t1_lib.obj
 0002:00004aa8       ??_C@_0BE@LNIMFGKM@rsa_pss_rsae_sha256@ 00000000000a0ee8     OpensslLib:t1_lib.obj
 0002:00004ac0       ??_C@_0BE@DPNOMABI@rsa_pss_rsae_sha384@ 00000000000a0f00     OpensslLib:t1_lib.obj
 0002:00004ad8       ??_C@_0BE@EDDOADMN@rsa_pss_rsae_sha512@ 00000000000a0f18     OpensslLib:t1_lib.obj
 0002:00004af0       ??_C@_0BD@KLIPJPCB@rsa_pss_pss_sha256@ 00000000000a0f30     OpensslLib:t1_lib.obj
 0002:00004b08       ??_C@_0BD@CJNNAJJF@rsa_pss_pss_sha384@ 00000000000a0f48     OpensslLib:t1_lib.obj
 0002:00004b20       ??_C@_0BD@FFDNMKEA@rsa_pss_pss_sha512@ 00000000000a0f60     OpensslLib:t1_lib.obj
 0002:00004b38       ??_C@_0BB@BELHGGPO@rsa_pkcs1_sha256@ 00000000000a0f78     OpensslLib:t1_lib.obj
 0002:00004b50       ??_C@_0BB@JGOFPAEK@rsa_pkcs1_sha384@ 00000000000a0f90     OpensslLib:t1_lib.obj
 0002:00004b68       ??_C@_0BB@OKAFDDJP@rsa_pkcs1_sha512@ 00000000000a0fa8     OpensslLib:t1_lib.obj
 0002:00004b80       ??_C@_0BB@CDMOBCPJ@rsa_pkcs1_sha224@ 00000000000a0fc0     OpensslLib:t1_lib.obj
 0002:00004b98       ??_C@_0P@CBACLGOJ@rsa_pkcs1_sha1@ 00000000000a0fd8     OpensslLib:t1_lib.obj
 0002:00004ba8       ??_C@_0BD@NJKDCLI@rsa_pkcs1_md5_sha1@ 00000000000a0fe8     OpensslLib:t1_lib.obj
 0002:00004bc0       ??_C@_07FGNHIEKH@RSA?9PSS@ 00000000000a1000     OpensslLib:t1_lib.obj
 0002:00004bc8       ??_C@_03OKNKLBDP@PSS@      00000000000a1008     OpensslLib:t1_lib.obj
 0002:00004bcc       ??_C@_03ENFFABCE@DSA@      00000000000a100c     OpensslLib:t1_lib.obj
 0002:00005098       X509_PUBKEY_it             00000000000a14d8     OpensslLib:x_pubkey.obj
 0002:000050c8       ??_C@_05CJCEEADM@algor@    00000000000a1508     OpensslLib:x_pubkey.obj
 0002:000050d0       ??_C@_0L@PJCANJEE@public_key@ 00000000000a1510     OpensslLib:x_pubkey.obj
 0002:000050e0       ??_C@_0M@INJPOKDH@X509_PUBKEY@ 00000000000a1520     OpensslLib:x_pubkey.obj
 0002:00005160       ??_C@_0O@DHJLLKEK@hashAlgorithm@ 00000000000a15a0     OpensslLib:ocsp_asn.obj
 0002:00005170       ??_C@_0N@OFBDHEPF@value?4byName@ 00000000000a15b0     OpensslLib:ocsp_asn.obj
 0002:00005180       ??_C@_0M@OFGLOCKB@value?4byKey@ 00000000000a15c0     OpensslLib:ocsp_asn.obj
 0002:00005190       ??_C@_0M@JBDPBGBO@OCSP_RESPID@ 00000000000a15d0     OpensslLib:ocsp_asn.obj
 0002:000051a0       ??_C@_0L@BMOABHOK@nextUpdate@ 00000000000a15e0     OpensslLib:ocsp_asn.obj
 0002:000051ac       ??_C@_06KAALCHHK@crlUrl@   00000000000a15ec     OpensslLib:ocsp_asn.obj
 0002:000051b4       ??_C@_06DLEHNACA@crlNum@   00000000000a15f4     OpensslLib:ocsp_asn.obj
 0002:000051c0       ??_C@_07BDEAJPPO@crlTime@  00000000000a1600     OpensslLib:ocsp_asn.obj
 0002:000051c8       ??_C@_0L@JOKCDHBA@OCSP_CRLID@ 00000000000a1608     OpensslLib:ocsp_asn.obj
 0002:000051d8       ??_C@_07PAIKCKMF@locator@  00000000000a1618     OpensslLib:ocsp_asn.obj
 0002:000051e0       ??_C@_0BA@JLGHGCLL@OCSP_SERVICELOC@ 00000000000a1620     OpensslLib:ocsp_asn.obj
 0002:00005290       OCSP_RESPID_it             00000000000a16d0     OpensslLib:ocsp_asn.obj
 0002:000052c0       OCSP_SERVICELOC_it         00000000000a1700     OpensslLib:ocsp_asn.obj
 0002:00005330       OCSP_CRLID_it              00000000000a1770     OpensslLib:ocsp_asn.obj
 0002:00005360       ??_C@_0BB@JGGOGLEG@0123456789ABCDEF@ 00000000000a17a0     OpensslLib:f_int.obj
 0002:00005378       ??_C@_0P@FCJIDALF@system_default@ 00000000000a17b8     OpensslLib:ssl_mcnf.obj
 0002:00005388       ??_C@_05DFCJAACA@name?$DN@ 00000000000a17c8     OpensslLib:ssl_mcnf.obj
 0002:00005390       ??_C@_06CPDGNFKO@?0?5arg?$DN@ 00000000000a17d0     OpensslLib:ssl_mcnf.obj
 0002:00005398       ??_C@_06FPMKHPFO@?0?5cmd?$DN@ 00000000000a17d8     OpensslLib:ssl_mcnf.obj
 0002:000053a0       ??_C@_08LNPIPPMM@section?$DN@ 00000000000a17e0     OpensslLib:ssl_mcnf.obj
 0002:000053b0       ??_C@_0CD@IHNGKLPO@?$CFs?3?$CFd?3?5OpenSSL?5internal?5error?3?5@ 00000000000a17f0     OpensslLib:cryptlib.obj
 0002:00005410       ??_C@_0L@LCHPILLE@SSL?5client@ 00000000000a1850     OpensslLib:v3_purp.obj
 0002:00005420       ??_C@_09BLMJDCHK@sslclient@ 00000000000a1860     OpensslLib:v3_purp.obj
 0002:00005430       ??_C@_0L@PNDNFADH@SSL?5server@ 00000000000a1870     OpensslLib:v3_purp.obj
 0002:00005440       ??_C@_09FEILOJPJ@sslserver@ 00000000000a1880     OpensslLib:v3_purp.obj
 0002:00005450       ??_C@_0BE@BPEJPGJG@Netscape?5SSL?5server@ 00000000000a1890     OpensslLib:v3_purp.obj
 0002:00005468       ??_C@_0M@GKHHMMAE@nssslserver@ 00000000000a18a8     OpensslLib:v3_purp.obj
 0002:00005478       ??_C@_0P@LNDEBCCO@S?1MIME?5signing@ 00000000000a18b8     OpensslLib:v3_purp.obj
 0002:00005488       ??_C@_09JPGBHOKH@smimesign@ 00000000000a18c8     OpensslLib:v3_purp.obj
 0002:00005498       ??_C@_0BC@DOGNOPGC@S?1MIME?5encryption@ 00000000000a18d8     OpensslLib:v3_purp.obj
 0002:000054b0       ??_C@_0N@BPFJELMP@smimeencrypt@ 00000000000a18f0     OpensslLib:v3_purp.obj
 0002:000054c0       ??_C@_0M@MEKLJHLA@CRL?5signing@ 00000000000a1900     OpensslLib:v3_purp.obj
 0002:000054d0       ??_C@_07IOMCDAPH@crlsign@  00000000000a1910     OpensslLib:v3_purp.obj
 0002:000054d8       ??_C@_0M@NMNFLNDB@Any?5Purpose@ 00000000000a1918     OpensslLib:v3_purp.obj
 0002:000054e8       ??_C@_0M@NEPIMEJA@OCSP?5helper@ 00000000000a1928     OpensslLib:v3_purp.obj
 0002:000054f8       ??_C@_0L@IMHCEJBK@ocsphelper@ 00000000000a1938     OpensslLib:v3_purp.obj
 0002:00005508       ??_C@_0BD@HLGKGIIB@Time?5Stamp?5signing@ 00000000000a1948     OpensslLib:v3_purp.obj
 0002:00005520       ??_C@_0O@MABGKINF@timestampsign@ 00000000000a1960     OpensslLib:v3_purp.obj
 0002:00005560       X509_NAME_it               00000000000a19a0     OpensslLib:x_name.obj
 0002:00005590       ??_C@_06IEOJBDIK@object@   00000000000a19d0     OpensslLib:x_name.obj
 0002:00005598       ??_C@_05MFEJDJP@value@     00000000000a19d8     OpensslLib:x_name.obj
 0002:000055a0       ??_C@_0BA@KEPIIMOE@X509_NAME_ENTRY@ 00000000000a19e0     OpensslLib:x_name.obj
 0002:000055b0       ??_C@_04IEOKPFHO@RDNS@     00000000000a19f0     OpensslLib:x_name.obj
 0002:000055b8       ??_C@_0BC@GJMCELDI@X509_NAME_ENTRIES@ 00000000000a19f8     OpensslLib:x_name.obj
 0002:000055cc       ??_C@_04FABLJDN@Name@      00000000000a1a0c     OpensslLib:x_name.obj
 0002:000055d8       ??_C@_0BD@FDNDONGH@X509_NAME_INTERNAL@ 00000000000a1a18     OpensslLib:x_name.obj
 0002:000055f0       ??_C@_09KGNJKBNF@X509_NAME@ 00000000000a1a30     OpensslLib:x_name.obj
 0002:000055fc       ??_C@_02KEGNLNML@?0?5@     00000000000a1a3c     OpensslLib:x_name.obj
 0002:00005660       X509_NAME_ENTRY_it         00000000000a1aa0     OpensslLib:x_name.obj
 0002:00005748       ??_C@_05DBLJEJPC@UNDEF@    00000000000a1b88     OpensslLib:obj_dat.obj
 0002:00005750       ??_C@_09MLGAJAED@undefined@ 00000000000a1b90     OpensslLib:obj_dat.obj
 0002:0000575c       ??_C@_06GGEMKGKC@rsadsi@   00000000000a1b9c     OpensslLib:obj_dat.obj
 0002:00005768       ??_C@_0BI@MPBNCOIB@RSA?5Data?5Security?0?5Inc?4@ 00000000000a1ba8     OpensslLib:obj_dat.obj
 0002:00005780       ??_C@_04GCKLMHGD@pkcs@     00000000000a1bc0     OpensslLib:obj_dat.obj
 0002:00005788       ??_C@_0BN@EBHJCEC@RSA?5Data?5Security?0?5Inc?4?5PKCS@ 00000000000a1bc8     OpensslLib:obj_dat.obj
 0002:000057a8       ??_C@_03CNCGNBGO@MD2@      00000000000a1be8     OpensslLib:obj_dat.obj
 0002:000057ac       ??_C@_03LFFJDILA@md2@      00000000000a1bec     OpensslLib:obj_dat.obj
 0002:000057b0       ??_C@_03PKBIKOHH@md5@      00000000000a1bf0     OpensslLib:obj_dat.obj
 0002:000057b4       ??_C@_03OODGMOHK@rc4@      00000000000a1bf4     OpensslLib:obj_dat.obj
 0002:000057b8       ??_C@_0O@PCHNMHJE@rsaEncryption@ 00000000000a1bf8     OpensslLib:obj_dat.obj
 0002:000057c8       ??_C@_07JBCLOEPG@RSA?9MD2@ 00000000000a1c08     OpensslLib:obj_dat.obj
 0002:000057d0       ??_C@_0BF@ODJKGOJ@md2WithRSAEncryption@ 00000000000a1c10     OpensslLib:obj_dat.obj
 0002:000057e8       ??_C@_07NOGKHCDB@RSA?9MD5@ 00000000000a1c28     OpensslLib:obj_dat.obj
 0002:000057f0       ??_C@_0BF@EEAHCNKC@md5WithRSAEncryption@ 00000000000a1c30     OpensslLib:obj_dat.obj
 0002:00005808       ??_C@_0M@LMNGCPDB@PBE?9MD2?9DES@ 00000000000a1c48     OpensslLib:obj_dat.obj
 0002:00005818       ??_C@_0BF@EEAPBBEF@pbeWithMD2AndDES?9CBC@ 00000000000a1c58     OpensslLib:obj_dat.obj
 0002:00005830       ??_C@_0M@KBNDBPIJ@PBE?9MD5?9DES@ 00000000000a1c70     OpensslLib:obj_dat.obj
 0002:00005840       ??_C@_0BF@DAJHPIMK@pbeWithMD5AndDES?9CBC@ 00000000000a1c80     OpensslLib:obj_dat.obj
 0002:00005858       ??_C@_04NGGFHBI@X500@      00000000000a1c98     OpensslLib:obj_dat.obj
 0002:00005860       ??_C@_0BL@NJHHPHOL@directory?5services?5?$CIX?4500?$CJ@ 00000000000a1ca0     OpensslLib:obj_dat.obj
 0002:0000587c       ??_C@_02BMJIHHPP@CN@       00000000000a1cbc     OpensslLib:obj_dat.obj
 0002:00005880       ??_C@_0L@OILMNBLH@commonName@ 00000000000a1cc0     OpensslLib:obj_dat.obj
 0002:0000588c       ??_C@_01GFHCPBMG@C@        00000000000a1ccc     OpensslLib:obj_dat.obj
 0002:00005890       ??_C@_0M@NPBHECMC@countryName@ 00000000000a1cd0     OpensslLib:obj_dat.obj
 0002:0000589c       ??_C@_01OCOKONAJ@L@        00000000000a1cdc     OpensslLib:obj_dat.obj
 0002:000058a0       ??_C@_0N@LEDCGGBI@localityName@ 00000000000a1ce0     OpensslLib:obj_dat.obj
 0002:000058b0       ??_C@_02LAJDCOFE@ST@       00000000000a1cf0     OpensslLib:obj_dat.obj
 0002:000058b8       ??_C@_0BE@NKDCJFMD@stateOrProvinceName@ 00000000000a1cf8     OpensslLib:obj_dat.obj
 0002:000058cc       ??_C@_01MJMHLOMK@O@        00000000000a1d0c     OpensslLib:obj_dat.obj
 0002:000058d0       ??_C@_0BB@GBCNPHLL@organizationName@ 00000000000a1d10     OpensslLib:obj_dat.obj
 0002:000058e4       ??_C@_02LMLEEFAB@OU@       00000000000a1d24     OpensslLib:obj_dat.obj
 0002:000058e8       ??_C@_0BH@LAMMAAM@organizationalUnitName@ 00000000000a1d28     OpensslLib:obj_dat.obj
 0002:00005900       ??_C@_03DFNMMEBL@rsa@      00000000000a1d40     OpensslLib:obj_dat.obj
 0002:00005908       ??_C@_0L@BCKMJOMA@pkcs7?9data@ 00000000000a1d48     OpensslLib:obj_dat.obj
 0002:00005918       ??_C@_0BB@PEKKHBEJ@pkcs7?9signedData@ 00000000000a1d58     OpensslLib:obj_dat.obj
 0002:00005930       ??_C@_0BE@FAIIHMP@pkcs7?9envelopedData@ 00000000000a1d70     OpensslLib:obj_dat.obj
 0002:00005948       ??_C@_0BN@LMEEMCPG@pkcs7?9signedAndEnvelopedData@ 00000000000a1d88     OpensslLib:obj_dat.obj
 0002:00005968       ??_C@_0BB@CJNFBHDI@pkcs7?9digestData@ 00000000000a1da8     OpensslLib:obj_dat.obj
 0002:00005980       ??_C@_0BE@CAMKAFJN@pkcs7?9encryptedData@ 00000000000a1dc0     OpensslLib:obj_dat.obj
 0002:00005994       ??_C@_05CALCPOBF@pkcs3@    00000000000a1dd4     OpensslLib:obj_dat.obj
 0002:000059a0       ??_C@_0P@HCMIBBEB@dhKeyAgreement@ 00000000000a1de0     OpensslLib:obj_dat.obj
 0002:000059b0       ??_C@_07IOCLJBKC@DES?9ECB@ 00000000000a1df0     OpensslLib:obj_dat.obj
 0002:000059b8       ??_C@_07LCLHACCC@des?9ecb@ 00000000000a1df8     OpensslLib:obj_dat.obj
 0002:000059c0       ??_C@_07KNILAMJF@DES?9CFB@ 00000000000a1e00     OpensslLib:obj_dat.obj
 0002:000059c8       ??_C@_07JBBHJPBF@des?9cfb@ 00000000000a1e08     OpensslLib:obj_dat.obj
 0002:000059d0       ??_C@_07LDJJJFAI@DES?9CBC@ 00000000000a1e10     OpensslLib:obj_dat.obj
 0002:000059d8       ??_C@_07IPAFAGII@des?9cbc@ 00000000000a1e18     OpensslLib:obj_dat.obj
 0002:000059e0       ??_C@_07MECFBBOA@DES?9EDE@ 00000000000a1e20     OpensslLib:obj_dat.obj
 0002:000059e8       ??_C@_07PILJICGA@des?9ede@ 00000000000a1e28     OpensslLib:obj_dat.obj
 0002:000059f0       ??_C@_08FEKFKCFJ@DES?9EDE3@ 00000000000a1e30     OpensslLib:obj_dat.obj
 0002:00005a00       ??_C@_08LJCBLNOK@des?9ede3@ 00000000000a1e40     OpensslLib:obj_dat.obj
 0002:00005a10       ??_C@_08MJNEIAD@IDEA?9CBC@ 00000000000a1e50     OpensslLib:obj_dat.obj
 0002:00005a20       ??_C@_08LCPAFJCA@idea?9cbc@ 00000000000a1e60     OpensslLib:obj_dat.obj
 0002:00005a30       ??_C@_08BCIPNBJO@IDEA?9CFB@ 00000000000a1e70     OpensslLib:obj_dat.obj
 0002:00005a40       ??_C@_08KMOCMALN@idea?9cfb@ 00000000000a1e80     OpensslLib:obj_dat.obj
 0002:00005a50       ??_C@_08DBCPEMKJ@IDEA?9ECB@ 00000000000a1e90     OpensslLib:obj_dat.obj
 0002:00005a60       ??_C@_08IPECFNIK@idea?9ecb@ 00000000000a1ea0     OpensslLib:obj_dat.obj
 0002:00005a70       ??_C@_07KJDFEEGB@RC2?9CBC@ 00000000000a1eb0     OpensslLib:obj_dat.obj
 0002:00005a78       ??_C@_07JCAFNCNH@rc2?9cbc@ 00000000000a1eb8     OpensslLib:obj_dat.obj
 0002:00005a80       ??_C@_07JEIHEAML@RC2?9ECB@ 00000000000a1ec0     OpensslLib:obj_dat.obj
 0002:00005a88       ??_C@_07KPLHNGHN@rc2?9ecb@ 00000000000a1ec8     OpensslLib:obj_dat.obj
 0002:00005a90       ??_C@_07LHCHNNPM@RC2?9CFB@ 00000000000a1ed0     OpensslLib:obj_dat.obj
 0002:00005a98       ??_C@_07IMBHELEK@rc2?9cfb@ 00000000000a1ed8     OpensslLib:obj_dat.obj
 0002:00005aa0       ??_C@_07PNPBGCEE@RC2?9OFB@ 00000000000a1ee0     OpensslLib:obj_dat.obj
 0002:00005aa8       ??_C@_07MGMBPEPC@rc2?9ofb@ 00000000000a1ee8     OpensslLib:obj_dat.obj
 0002:00005ab0       ??_C@_03JNBDOPOP@sha@      00000000000a1ef0     OpensslLib:obj_dat.obj
 0002:00005ab8       ??_C@_07CMOFBHAL@RSA?9SHA@ 00000000000a1ef8     OpensslLib:obj_dat.obj
 0002:00005ac0       ??_C@_0BF@LIDINENF@shaWithRSAEncryption@ 00000000000a1f00     OpensslLib:obj_dat.obj
 0002:00005ad8       ??_C@_0M@KHNLAHDP@DES?9EDE?9CBC@ 00000000000a1f18     OpensslLib:obj_dat.obj
 0002:00005ae8       ??_C@_0M@EKLHMDEA@des?9ede?9cbc@ 00000000000a1f28     OpensslLib:obj_dat.obj
 0002:00005af8       ??_C@_0N@MLDFENGJ@DES?9EDE3?9CBC@ 00000000000a1f38     OpensslLib:obj_dat.obj
 0002:00005b08       ??_C@_0N@FPCHEGKG@des?9ede3?9cbc@ 00000000000a1f48     OpensslLib:obj_dat.obj
 0002:00005b18       ??_C@_07OHFNLDCN@DES?9OFB@ 00000000000a1f58     OpensslLib:obj_dat.obj
 0002:00005b20       ??_C@_07NLMBCAKN@des?9ofb@ 00000000000a1f60     OpensslLib:obj_dat.obj
 0002:00005b28       ??_C@_08FIFJGOCG@IDEA?9OFB@ 00000000000a1f68     OpensslLib:obj_dat.obj
 0002:00005b38       ??_C@_08OGDEHPAF@idea?9ofb@ 00000000000a1f78     OpensslLib:obj_dat.obj
 0002:00005b44       ??_C@_05NKFNBGJP@pkcs9@    00000000000a1f84     OpensslLib:obj_dat.obj
 0002:00005b50       ??_C@_0N@IHLBAGEP@emailAddress@ 00000000000a1f90     OpensslLib:obj_dat.obj
 0002:00005b60       ??_C@_0BB@CJIILOEM@unstructuredName@ 00000000000a1fa0     OpensslLib:obj_dat.obj
 0002:00005b78       ??_C@_0M@DOEFOEJD@contentType@ 00000000000a1fb8     OpensslLib:obj_dat.obj
 0002:00005b88       ??_C@_0O@JDGJDGC@messageDigest@ 00000000000a1fc8     OpensslLib:obj_dat.obj
 0002:00005b98       ??_C@_0M@IJBJCCMP@signingTime@ 00000000000a1fd8     OpensslLib:obj_dat.obj
 0002:00005ba8       ??_C@_0BB@IPFGMODP@countersignature@ 00000000000a1fe8     OpensslLib:obj_dat.obj
 0002:00005bc0       ??_C@_0BC@OKHONEEM@challengePassword@ 00000000000a2000     OpensslLib:obj_dat.obj
 0002:00005bd8       ??_C@_0BE@MACPCAPF@unstructuredAddress@ 00000000000a2018     OpensslLib:obj_dat.obj
 0002:00005bf0       ??_C@_0BO@LDCCNBPE@extendedCertificateAttributes@ 00000000000a2030     OpensslLib:obj_dat.obj
 0002:00005c10       ??_C@_08BDEPHMAF@Netscape@ 00000000000a2050     OpensslLib:obj_dat.obj
 0002:00005c20       ??_C@_0BO@IAIBEBGO@Netscape?5Communications?5Corp?4@ 00000000000a2060     OpensslLib:obj_dat.obj
 0002:00005c40       ??_C@_09JDCKDNMG@nsCertExt@ 00000000000a2080     OpensslLib:obj_dat.obj
 0002:00005c50       ??_C@_0BP@LHPGKGFM@Netscape?5Certificate?5Extension@ 00000000000a2090     OpensslLib:obj_dat.obj
 0002:00005c70       ??_C@_0L@FIMLGGPA@nsDataType@ 00000000000a20b0     OpensslLib:obj_dat.obj
 0002:00005c80       ??_C@_0BD@JJEILMNP@Netscape?5Data?5Type@ 00000000000a20c0     OpensslLib:obj_dat.obj
 0002:00005c98       ??_C@_0M@LJMJJOKC@DES?9EDE?9CFB@ 00000000000a20d8     OpensslLib:obj_dat.obj
 0002:00005ca8       ??_C@_0M@FEKFFKNN@des?9ede?9cfb@ 00000000000a20e8     OpensslLib:obj_dat.obj
 0002:00005cb8       ??_C@_0N@NFCHNEPE@DES?9EDE3?9CFB@ 00000000000a20f8     OpensslLib:obj_dat.obj
 0002:00005cc8       ??_C@_0N@EBDFNPDL@des?9ede3?9cfb@ 00000000000a2108     OpensslLib:obj_dat.obj
 0002:00005cd8       ??_C@_0M@PDBPCBBK@DES?9EDE?9OFB@ 00000000000a2118     OpensslLib:obj_dat.obj
 0002:00005ce8       ??_C@_0M@BOHDOFGF@des?9ede?9ofb@ 00000000000a2128     OpensslLib:obj_dat.obj
 0002:00005cf8       ??_C@_0N@JPPBGLEM@DES?9EDE3?9OFB@ 00000000000a2138     OpensslLib:obj_dat.obj
 0002:00005d08       ??_C@_0N@LODGAID@des?9ede3?9ofb@ 00000000000a2148     OpensslLib:obj_dat.obj
 0002:00005d18       ??_C@_04PGHFOLLE@sha1@     00000000000a2158     OpensslLib:obj_dat.obj
 0002:00005d20       ??_C@_0BG@DALFFFBE@sha1WithRSAEncryption@ 00000000000a2160     OpensslLib:obj_dat.obj
 0002:00005d38       ??_C@_07JGDBCPKH@DSA?9SHA@ 00000000000a2178     OpensslLib:obj_dat.obj
 0002:00005d40       ??_C@_0L@BEHMICBH@dsaWithSHA@ 00000000000a2180     OpensslLib:obj_dat.obj
 0002:00005d50       ??_C@_07PLHLFGGF@DSA?9old@ 00000000000a2190     OpensslLib:obj_dat.obj
 0002:00005d58       ??_C@_0BC@FFHHBCCH@dsaEncryption?9old@ 00000000000a2198     OpensslLib:obj_dat.obj
 0002:00005d70       ??_C@_0BA@KKPEMNGH@PBE?9SHA1?9RC2?964@ 00000000000a21b0     OpensslLib:obj_dat.obj
 0002:00005d80       ??_C@_0BG@IBNNJING@pbeWithSHA1AndRC2?9CBC@ 00000000000a21c0     OpensslLib:obj_dat.obj
 0002:00005d98       ??_C@_06KBOEGBGA@PBKDF2@   00000000000a21d8     OpensslLib:obj_dat.obj
 0002:00005da0       ??_C@_0N@ONIKBKNK@DSA?9SHA1?9old@ 00000000000a21e0     OpensslLib:obj_dat.obj
 0002:00005db0       ??_C@_0BA@DDLLDHEM@dsaWithSHA1?9old@ 00000000000a21f0     OpensslLib:obj_dat.obj
 0002:00005dc0       ??_C@_0L@IICLKDNB@nsCertType@ 00000000000a2200     OpensslLib:obj_dat.obj
 0002:00005dd0       ??_C@_0BD@NFPBEMEE@Netscape?5Cert?5Type@ 00000000000a2210     OpensslLib:obj_dat.obj
 0002:00005de8       ??_C@_09OCIGDOMM@nsBaseUrl@ 00000000000a2228     OpensslLib:obj_dat.obj
 0002:00005df8       ??_C@_0BC@DIHCABP@Netscape?5Base?5Url@ 00000000000a2238     OpensslLib:obj_dat.obj
 0002:00005e10       ??_C@_0BA@DKPGPAKK@nsRevocationUrl@ 00000000000a2250     OpensslLib:obj_dat.obj
 0002:00005e20       ??_C@_0BI@BCDINENC@Netscape?5Revocation?5Url@ 00000000000a2260     OpensslLib:obj_dat.obj
 0002:00005e38       ??_C@_0BC@IKAPCMGG@nsCaRevocationUrl@ 00000000000a2278     OpensslLib:obj_dat.obj
 0002:00005e50       ??_C@_0BL@EMOMOFDB@Netscape?5CA?5Revocation?5Url@ 00000000000a2290     OpensslLib:obj_dat.obj
 0002:00005e70       ??_C@_0N@JILHKMLM@nsRenewalUrl@ 00000000000a22b0     OpensslLib:obj_dat.obj
 0002:00005e80       ??_C@_0BF@FKENIIHB@Netscape?5Renewal?5Url@ 00000000000a22c0     OpensslLib:obj_dat.obj
 0002:00005e98       ??_C@_0O@DHDIMJD@nsCaPolicyUrl@ 00000000000a22d8     OpensslLib:obj_dat.obj
 0002:00005ea8       ??_C@_0BH@EMEFHLC@Netscape?5CA?5Policy?5Url@ 00000000000a22e8     OpensslLib:obj_dat.obj
 0002:00005ec0       ??_C@_0BA@KNOKNJNE@nsSslServerName@ 00000000000a2300     OpensslLib:obj_dat.obj
 0002:00005ed0       ??_C@_0BJ@GMBLEMAL@Netscape?5SSL?5Server?5Name@ 00000000000a2310     OpensslLib:obj_dat.obj
 0002:00005ef0       ??_C@_09BALDFHMJ@nsComment@ 00000000000a2330     OpensslLib:obj_dat.obj
 0002:00005f00       ??_C@_0BB@DCFBGIOA@Netscape?5Comment@ 00000000000a2340     OpensslLib:obj_dat.obj
 0002:00005f18       ??_C@_0P@OCCBBJKK@nsCertSequence@ 00000000000a2358     OpensslLib:obj_dat.obj
 0002:00005f28       ??_C@_0BO@KKKBMKBD@Netscape?5Certificate?5Sequence@ 00000000000a2368     OpensslLib:obj_dat.obj
 0002:00005f48       ??_C@_08BBKPFFGN@DESX?9CBC@ 00000000000a2388     OpensslLib:obj_dat.obj
 0002:00005f58       ??_C@_08KPMCEEEO@desx?9cbc@ 00000000000a2398     OpensslLib:obj_dat.obj
 0002:00005f64       ??_C@_05NDHEMDL@id?9ce@    00000000000a23a4     OpensslLib:obj_dat.obj
 0002:00005f70       ??_C@_0BF@MOEDIMBI@subjectKeyIdentifier@ 00000000000a23b0     OpensslLib:obj_dat.obj
 0002:00005f88       ??_C@_0BO@ILPNOINJ@X509v3?5Subject?5Key?5Identifier@ 00000000000a23c8     OpensslLib:obj_dat.obj
 0002:00005fa8       ??_C@_08BCICBOHF@keyUsage@ 00000000000a23e8     OpensslLib:obj_dat.obj
 0002:00005fb8       ??_C@_0BB@BPPOKNBO@X509v3?5Key?5Usage@ 00000000000a23f8     OpensslLib:obj_dat.obj
 0002:00005fd0       ??_C@_0BG@JOIAJOMN@privateKeyUsagePeriod@ 00000000000a2410     OpensslLib:obj_dat.obj
 0002:00005fe8       ??_C@_0CA@CLGHAMIP@X509v3?5Private?5Key?5Usage?5Period@ 00000000000a2428     OpensslLib:obj_dat.obj
 0002:00006008       ??_C@_0P@EOFJHHKD@subjectAltName@ 00000000000a2448     OpensslLib:obj_dat.obj
 0002:00006018       ??_C@_0CA@OPCJJLNF@X509v3?5Subject?5Alternative?5Name@ 00000000000a2458     OpensslLib:obj_dat.obj
 0002:00006038       ??_C@_0O@DLIFHFCD@issuerAltName@ 00000000000a2478     OpensslLib:obj_dat.obj
 0002:00006048       ??_C@_0BP@FMJCGPCG@X509v3?5Issuer?5Alternative?5Name@ 00000000000a2488     OpensslLib:obj_dat.obj
 0002:00006068       ??_C@_0BB@IKNGJCLO@basicConstraints@ 00000000000a24a8     OpensslLib:obj_dat.obj
 0002:00006080       ??_C@_0BJ@FBHDAJML@X509v3?5Basic?5Constraints@ 00000000000a24c0     OpensslLib:obj_dat.obj
 0002:000060a0       ??_C@_09JDPHHKMA@crlNumber@ 00000000000a24e0     OpensslLib:obj_dat.obj
 0002:000060b0       ??_C@_0BC@PCPNBDDJ@X509v3?5CRL?5Number@ 00000000000a24f0     OpensslLib:obj_dat.obj
 0002:000060c8       ??_C@_0BE@OLMJNPEP@certificatePolicies@ 00000000000a2508     OpensslLib:obj_dat.obj
 0002:000060e0       ??_C@_0BM@OOFGKLPK@X509v3?5Certificate?5Policies@ 00000000000a2520     OpensslLib:obj_dat.obj
 0002:00006100       ??_C@_0BH@ICHFALGD@authorityKeyIdentifier@ 00000000000a2540     OpensslLib:obj_dat.obj
 0002:00006118       ??_C@_0CA@GODCHEHD@X509v3?5Authority?5Key?5Identifier@ 00000000000a2558     OpensslLib:obj_dat.obj
 0002:00006138       ??_C@_06HALMPEKO@BF?9CBC@  00000000000a2578     OpensslLib:obj_dat.obj
 0002:00006140       ??_C@_06LFFGAFHI@bf?9cbc@  00000000000a2580     OpensslLib:obj_dat.obj
 0002:00006148       ??_C@_06ENAOPAAE@BF?9ECB@  00000000000a2588     OpensslLib:obj_dat.obj
 0002:00006150       ??_C@_06IIOEABNC@bf?9ecb@  00000000000a2590     OpensslLib:obj_dat.obj
 0002:00006158       ??_C@_06GOKOGNDD@BF?9CFB@  00000000000a2598     OpensslLib:obj_dat.obj
 0002:00006160       ??_C@_06KLEEJMOF@bf?9cfb@  00000000000a25a0     OpensslLib:obj_dat.obj
 0002:00006168       ??_C@_06CEHINCIL@BF?9OFB@  00000000000a25a8     OpensslLib:obj_dat.obj
 0002:00006170       ??_C@_06OBJCCDFN@bf?9ofb@  00000000000a25b0     OpensslLib:obj_dat.obj
 0002:00006178       ??_C@_04BCGEDMJI@MDC2@     00000000000a25b8     OpensslLib:obj_dat.obj
 0002:00006180       ??_C@_04ELNKPKEC@mdc2@     00000000000a25c0     OpensslLib:obj_dat.obj
 0002:00006188       ??_C@_08OMAMCKNL@RSA?9MDC2@ 00000000000a25c8     OpensslLib:obj_dat.obj
 0002:00006198       ??_C@_0M@HGGNEPNN@mdc2WithRSA@ 00000000000a25d8     OpensslLib:obj_dat.obj
 0002:000061a4       ??_C@_06KFMILCMH@RC4?940@  00000000000a25e4     OpensslLib:obj_dat.obj
 0002:000061ac       ??_C@_06GNNJIOGN@rc4?940@  00000000000a25ec     OpensslLib:obj_dat.obj
 0002:000061b8       ??_C@_0L@ODHPNGGE@RC2?940?9CBC@ 00000000000a25f8     OpensslLib:obj_dat.obj
 0002:000061c8       ??_C@_0L@CHEFJHBP@rc2?940?9cbc@ 00000000000a2608     OpensslLib:obj_dat.obj
 0002:000061d4       ??_C@_02BLJBNPCD@GN@       00000000000a2614     OpensslLib:obj_dat.obj
 0002:000061d8       ??_C@_09GCBNJLNP@givenName@ 00000000000a2618     OpensslLib:obj_dat.obj
 0002:000061e4       ??_C@_02LONEIP@SN@         00000000000a2624     OpensslLib:obj_dat.obj
 0002:000061e8       ??_C@_07LNKFHLHI@surname@  00000000000a2628     OpensslLib:obj_dat.obj
 0002:000061f0       ??_C@_08PAKNLFON@initials@ 00000000000a2630     OpensslLib:obj_dat.obj
 0002:000061fc       ??_C@_03MEMNCOEB@uid@      00000000000a263c     OpensslLib:obj_dat.obj
 0002:00006200       ??_C@_0BB@HJMGPENC@uniqueIdentifier@ 00000000000a2640     OpensslLib:obj_dat.obj
 0002:00006218       ??_C@_0BG@CCHGOEBE@crlDistributionPoints@ 00000000000a2658     OpensslLib:obj_dat.obj
 0002:00006230       ??_C@_0BP@EGHJGANM@X509v3?5CRL?5Distribution?5Points@ 00000000000a2670     OpensslLib:obj_dat.obj
 0002:00006250       ??_C@_0L@NACEPNFC@RSA?9NP?9MD5@ 00000000000a2690     OpensslLib:obj_dat.obj
 0002:00006260       ??_C@_0L@CNDCBNIN@md5WithRSA@ 00000000000a26a0     OpensslLib:obj_dat.obj
 0002:0000626c       ??_C@_05PHLGJONK@title@    00000000000a26ac     OpensslLib:obj_dat.obj
 0002:00006278       ??_C@_0M@PPJNHBMP@description@ 00000000000a26b8     OpensslLib:obj_dat.obj
 0002:00006288       ??_C@_09OACPMKPP@CAST5?9CBC@ 00000000000a26c8     OpensslLib:obj_dat.obj
 0002:00006298       ??_C@_09BGLDNNDK@cast5?9cbc@ 00000000000a26d8     OpensslLib:obj_dat.obj
 0002:000062a8       ??_C@_09NNJNMOFF@CAST5?9ECB@ 00000000000a26e8     OpensslLib:obj_dat.obj
 0002:000062b8       ??_C@_09CLABNJJA@cast5?9ecb@ 00000000000a26f8     OpensslLib:obj_dat.obj
 0002:000062c8       ??_C@_09PODNFDGC@CAST5?9CFB@ 00000000000a2708     OpensslLib:obj_dat.obj
 0002:000062d8       ??_C@_09IKBEEKH@cast5?9cfb@ 00000000000a2718     OpensslLib:obj_dat.obj
 0002:000062e8       ??_C@_09LEOLOMNK@CAST5?9OFB@ 00000000000a2728     OpensslLib:obj_dat.obj
 0002:000062f8       ??_C@_09ECHHPLBP@cast5?9ofb@ 00000000000a2738     OpensslLib:obj_dat.obj
 0002:00006308       ??_C@_0BG@JCFINJGL@pbeWithMD5AndCast5CBC@ 00000000000a2748     OpensslLib:obj_dat.obj
 0002:00006320       ??_C@_08IOHJAANG@DSA?9SHA1@ 00000000000a2760     OpensslLib:obj_dat.obj
 0002:00006330       ??_C@_0M@EFJKPOPH@dsaWithSHA1@ 00000000000a2770     OpensslLib:obj_dat.obj
 0002:00006340       ??_C@_08EMIDHKIH@MD5?9SHA1@ 00000000000a2780     OpensslLib:obj_dat.obj
 0002:00006350       ??_C@_08GOLKFMKI@md5?9sha1@ 00000000000a2790     OpensslLib:obj_dat.obj
 0002:00006360       ??_C@_0M@KECGAPAA@sha1WithRSA@ 00000000000a27a0     OpensslLib:obj_dat.obj
 0002:00006370       ??_C@_0O@GMANLAEO@dsaEncryption@ 00000000000a27b0     OpensslLib:obj_dat.obj
 0002:00006380       ??_C@_09DJDCAKJG@RIPEMD160@ 00000000000a27c0     OpensslLib:obj_dat.obj
 0002:00006390       ??_C@_09EDIPKBN@ripemd160@ 00000000000a27d0     OpensslLib:obj_dat.obj
 0002:000063a0       ??_C@_0O@JPOIHGOH@RSA?9RIPEMD160@ 00000000000a27e0     OpensslLib:obj_dat.obj
 0002:000063b0       ??_C@_0BB@DCJDAKFH@ripemd160WithRSA@ 00000000000a27f0     OpensslLib:obj_dat.obj
 0002:000063c8       ??_C@_07LEDAHENJ@RC5?9CBC@ 00000000000a2808     OpensslLib:obj_dat.obj
 0002:000063d0       ??_C@_07IPAAOCGP@rc5?9cbc@ 00000000000a2810     OpensslLib:obj_dat.obj
 0002:000063d8       ??_C@_07IJICHAHD@RC5?9ECB@ 00000000000a2818     OpensslLib:obj_dat.obj
 0002:000063e0       ??_C@_07LCLCOGMF@rc5?9ecb@ 00000000000a2820     OpensslLib:obj_dat.obj
 0002:000063e8       ??_C@_07KKCCONEE@RC5?9CFB@ 00000000000a2828     OpensslLib:obj_dat.obj
 0002:000063f0       ??_C@_07JBBCHLPC@rc5?9cfb@ 00000000000a2830     OpensslLib:obj_dat.obj
 0002:000063f8       ??_C@_07OAPEFCPM@RC5?9OFB@ 00000000000a2838     OpensslLib:obj_dat.obj
 0002:00006400       ??_C@_07NLMEMEEK@rc5?9ofb@ 00000000000a2840     OpensslLib:obj_dat.obj
 0002:00006408       ??_C@_04CHLIKDMF@ZLIB@     00000000000a2848     OpensslLib:obj_dat.obj
 0002:00006410       ??_C@_0BB@KGNEOBKL@zlib?5compression@ 00000000000a2850     OpensslLib:obj_dat.obj
 0002:00006428       ??_C@_0BB@DGDLKPHD@extendedKeyUsage@ 00000000000a2868     OpensslLib:obj_dat.obj
 0002:00006440       ??_C@_0BK@KFMGFBEG@X509v3?5Extended?5Key?5Usage@ 00000000000a2880     OpensslLib:obj_dat.obj
 0002:0000645c       ??_C@_04EAPCHJAG@PKIX@     00000000000a289c     OpensslLib:obj_dat.obj
 0002:00006464       ??_C@_05DEJBPLJH@id?9kp@   00000000000a28a4     OpensslLib:obj_dat.obj
 0002:00006470       ??_C@_0L@CINGAJGN@serverAuth@ 00000000000a28b0     OpensslLib:obj_dat.obj
 0002:00006480       ??_C@_0BO@HPFOJNNE@TLS?5Web?5Server?5Authentication@ 00000000000a28c0     OpensslLib:obj_dat.obj
 0002:000064a0       ??_C@_0L@HCMKLLOP@clientAuth@ 00000000000a28e0     OpensslLib:obj_dat.obj
 0002:000064b0       ??_C@_0BO@FEMCBEOF@TLS?5Web?5Client?5Authentication@ 00000000000a28f0     OpensslLib:obj_dat.obj
 0002:000064d0       ??_C@_0M@OJNCNGJ@codeSigning@ 00000000000a2910     OpensslLib:obj_dat.obj
 0002:000064e0       ??_C@_0N@CHJHLHFC@Code?5Signing@ 00000000000a2920     OpensslLib:obj_dat.obj
 0002:000064f0       ??_C@_0BA@NPCFDPCO@emailProtection@ 00000000000a2930     OpensslLib:obj_dat.obj
 0002:00006500       ??_C@_0BC@BLBGFKKG@E?9mail?5Protection@ 00000000000a2940     OpensslLib:obj_dat.obj
 0002:00006518       ??_C@_0N@LONEBHPN@timeStamping@ 00000000000a2958     OpensslLib:obj_dat.obj
 0002:00006528       ??_C@_0O@GMMBLMEE@Time?5Stamping@ 00000000000a2968     OpensslLib:obj_dat.obj
 0002:00006538       ??_C@_09EMNNPEBE@msCodeInd@ 00000000000a2978     OpensslLib:obj_dat.obj
 0002:00006548       ??_C@_0CC@NDDHKAMP@Microsoft?5Individual?5Code?5Signi@ 00000000000a2988     OpensslLib:obj_dat.obj
 0002:00006570       ??_C@_09PDGAMFAO@msCodeCom@ 00000000000a29b0     OpensslLib:obj_dat.obj
 0002:00006580       ??_C@_0CC@GKFNEBFA@Microsoft?5Commercial?5Code?5Signi@ 00000000000a29c0     OpensslLib:obj_dat.obj
 0002:000065a8       ??_C@_09HGCLLDPK@msCTLSign@ 00000000000a29e8     OpensslLib:obj_dat.obj
 0002:000065b8       ??_C@_0BN@GNMCHNOI@Microsoft?5Trust?5List?5Signing@ 00000000000a29f8     OpensslLib:obj_dat.obj
 0002:000065d8       ??_C@_05DDBMPPAI@msSGC@    00000000000a2a18     OpensslLib:obj_dat.obj
 0002:000065e0       ??_C@_0BO@FBDDCLK@Microsoft?5Server?5Gated?5Crypto@ 00000000000a2a20     OpensslLib:obj_dat.obj
 0002:00006600       ??_C@_05NGOIPCN@msEFS@     00000000000a2a40     OpensslLib:obj_dat.obj
 0002:00006608       ??_C@_0CA@IJODBCMB@Microsoft?5Encrypted?5File?5System@ 00000000000a2a48     OpensslLib:obj_dat.obj
 0002:00006628       ??_C@_05LFIIINKG@nsSGC@    00000000000a2a68     OpensslLib:obj_dat.obj
 0002:00006630       ??_C@_0BN@MDNLHLBL@Netscape?5Server?5Gated?5Crypto@ 00000000000a2a70     OpensslLib:obj_dat.obj
 0002:00006650       ??_C@_08ECNAKPJJ@deltaCRL@ 00000000000a2a90     OpensslLib:obj_dat.obj
 0002:00006660       ??_C@_0BL@HLNLPBHP@X509v3?5Delta?5CRL?5Indicator@ 00000000000a2aa0     OpensslLib:obj_dat.obj
 0002:00006680       ??_C@_09MCDAGILE@CRLReason@ 00000000000a2ac0     OpensslLib:obj_dat.obj
 0002:00006690       ??_C@_0BH@GODIEFKG@X509v3?5CRL?5Reason?5Code@ 00000000000a2ad0     OpensslLib:obj_dat.obj
 0002:000066a8       ??_C@_0P@BKEGCOMO@invalidityDate@ 00000000000a2ae8     OpensslLib:obj_dat.obj
 0002:000066b8       ??_C@_0BA@JDBEMONE@Invalidity?5Date@ 00000000000a2af8     OpensslLib:obj_dat.obj
 0002:000066c8       ??_C@_07DKMNOLMH@SXNetID@  00000000000a2b08     OpensslLib:obj_dat.obj
 0002:000066d0       ??_C@_0BD@PNDCMCDK@Strong?5Extranet?5ID@ 00000000000a2b10     OpensslLib:obj_dat.obj
 0002:000066e8       ??_C@_0BB@ILOABLNL@PBE?9SHA1?9RC4?9128@ 00000000000a2b28     OpensslLib:obj_dat.obj
 0002:00006700       ??_C@_0BI@LBIFCLPB@pbeWithSHA1And128BitRC4@ 00000000000a2b40     OpensslLib:obj_dat.obj
 0002:00006718       ??_C@_0BA@ECFMCJKN@PBE?9SHA1?9RC4?940@ 00000000000a2b58     OpensslLib:obj_dat.obj
 0002:00006728       ??_C@_0BH@OCAEJMIL@pbeWithSHA1And40BitRC4@ 00000000000a2b68     OpensslLib:obj_dat.obj
 0002:00006740       ??_C@_0O@EDBOMBNM@PBE?9SHA1?93DES@ 00000000000a2b80     OpensslLib:obj_dat.obj
 0002:00006750       ??_C@_0CB@FCNCEDP@pbeWithSHA1And3?9KeyTripleDES?9CB@ 00000000000a2b90     OpensslLib:obj_dat.obj
 0002:00006778       ??_C@_0O@HOHOOIGM@PBE?9SHA1?92DES@ 00000000000a2bb8     OpensslLib:obj_dat.obj
 0002:00006788       ??_C@_0CB@NCMPKEGH@pbeWithSHA1And2?9KeyTripleDES?9CB@ 00000000000a2bc8     OpensslLib:obj_dat.obj
 0002:000067b0       ??_C@_0BB@FNLJPIMG@PBE?9SHA1?9RC2?9128@ 00000000000a2bf0     OpensslLib:obj_dat.obj
 0002:000067c8       ??_C@_0BM@DOLDINME@pbeWithSHA1And128BitRC2?9CBC@ 00000000000a2c08     OpensslLib:obj_dat.obj
 0002:000067e8       ??_C@_0BA@MNBMNMAN@PBE?9SHA1?9RC2?940@ 00000000000a2c28     OpensslLib:obj_dat.obj
 0002:000067f8       ??_C@_0BL@CKNKIMON@pbeWithSHA1And40BitRC2?9CBC@ 00000000000a2c38     OpensslLib:obj_dat.obj
 0002:00006814       ??_C@_06BFGNOIAI@keyBag@   00000000000a2c54     OpensslLib:obj_dat.obj
 0002:00006820       ??_C@_0BE@ELJKIANF@pkcs8ShroudedKeyBag@ 00000000000a2c60     OpensslLib:obj_dat.obj
 0002:00006838       ??_C@_07FDLMCII@certBag@   00000000000a2c78     OpensslLib:obj_dat.obj
 0002:00006840       ??_C@_06JAFBIMLO@crlBag@   00000000000a2c80     OpensslLib:obj_dat.obj
 0002:00006848       ??_C@_09DELDBPIE@secretBag@ 00000000000a2c88     OpensslLib:obj_dat.obj
 0002:00006858       ??_C@_0BA@KAKLKBBC@safeContentsBag@ 00000000000a2c98     OpensslLib:obj_dat.obj
 0002:00006868       ??_C@_0N@BGFMPLCM@friendlyName@ 00000000000a2ca8     OpensslLib:obj_dat.obj
 0002:00006878       ??_C@_0L@BCMHPPAO@localKeyID@ 00000000000a2cb8     OpensslLib:obj_dat.obj
 0002:00006888       ??_C@_0BA@EMOFOCJL@x509Certificate@ 00000000000a2cc8     OpensslLib:obj_dat.obj
 0002:00006898       ??_C@_0BA@BFAOBDKH@sdsiCertificate@ 00000000000a2cd8     OpensslLib:obj_dat.obj
 0002:000068a8       ??_C@_07KAOEJCFK@x509Crl@  00000000000a2ce8     OpensslLib:obj_dat.obj
 0002:000068b0       ??_C@_05EPMADBBF@PBES2@    00000000000a2cf0     OpensslLib:obj_dat.obj
 0002:000068b8       ??_C@_06DEJMPFNK@PBMAC1@   00000000000a2cf8     OpensslLib:obj_dat.obj
 0002:000068c0       ??_C@_0N@KANOAIP@hmacWithSHA1@ 00000000000a2d00     OpensslLib:obj_dat.obj
 0002:000068d0       ??_C@_09MIPGHKGJ@id?9qt?9cps@ 00000000000a2d10     OpensslLib:obj_dat.obj
 0002:000068e0       ??_C@_0BF@HPKIKKPI@Policy?5Qualifier?5CPS@ 00000000000a2d20     OpensslLib:obj_dat.obj
 0002:000068f8       ??_C@_0O@CJFHFAHE@id?9qt?9unotice@ 00000000000a2d38     OpensslLib:obj_dat.obj
 0002:00006908       ??_C@_0BN@KPMBKEE@Policy?5Qualifier?5User?5Notice@ 00000000000a2d48     OpensslLib:obj_dat.obj
 0002:00006928       ??_C@_0L@OPHBIFFL@RC2?964?9CBC@ 00000000000a2d68     OpensslLib:obj_dat.obj
 0002:00006938       ??_C@_0L@CLELMECA@rc2?964?9cbc@ 00000000000a2d78     OpensslLib:obj_dat.obj
 0002:00006948       ??_C@_0L@LCBJGKJG@SMIME?9CAPS@ 00000000000a2d88     OpensslLib:obj_dat.obj
 0002:00006958       ??_C@_0BE@CEEFMCAI@S?1MIME?5Capabilities@ 00000000000a2d98     OpensslLib:obj_dat.obj
 0002:00006970       ??_C@_0P@OHJEMJLF@PBE?9MD2?9RC2?964@ 00000000000a2db0     OpensslLib:obj_dat.obj
 0002:00006980       ??_C@_0BF@FOKDMACM@pbeWithMD2AndRC2?9CBC@ 00000000000a2dc0     OpensslLib:obj_dat.obj
 0002:00006998       ??_C@_0P@IDPFKEHM@PBE?9MD5?9RC2?964@ 00000000000a2dd8     OpensslLib:obj_dat.obj
 0002:000069a8       ??_C@_0BF@CKDLCJKD@pbeWithMD5AndRC2?9CBC@ 00000000000a2de8     OpensslLib:obj_dat.obj
 0002:000069c0       ??_C@_0N@GOPIPBOD@PBE?9SHA1?9DES@ 00000000000a2e00     OpensslLib:obj_dat.obj
 0002:000069d0       ??_C@_0BG@JLHBEJLP@pbeWithSHA1AndDES?9CBC@ 00000000000a2e10     OpensslLib:obj_dat.obj
 0002:000069e8       ??_C@_08HCCJAOPJ@msExtReq@ 00000000000a2e28     OpensslLib:obj_dat.obj
 0002:000069f8       ??_C@_0BM@MEJAMAEO@Microsoft?5Extension?5Request@ 00000000000a2e38     OpensslLib:obj_dat.obj
 0002:00006a14       ??_C@_06EJACAMDF@extReq@   00000000000a2e54     OpensslLib:obj_dat.obj
 0002:00006a20       ??_C@_0BC@GLHEKHCC@Extension?5Request@ 00000000000a2e60     OpensslLib:obj_dat.obj
 0002:00006a34       ??_C@_04MEMAJGDJ@name@     00000000000a2e74     OpensslLib:obj_dat.obj
 0002:00006a40       ??_C@_0M@DNNLEIMI@dnQualifier@ 00000000000a2e80     OpensslLib:obj_dat.obj
 0002:00006a4c       ??_C@_05BDFHFBBC@id?9pe@   00000000000a2e8c     OpensslLib:obj_dat.obj
 0002:00006a54       ??_C@_05BHKIKJBE@id?9ad@   00000000000a2e94     OpensslLib:obj_dat.obj
 0002:00006a60       ??_C@_0BE@PLCGCINM@authorityInfoAccess@ 00000000000a2ea0     OpensslLib:obj_dat.obj
 0002:00006a78       ??_C@_0BN@EILCOJAN@Authority?5Information?5Access@ 00000000000a2eb8     OpensslLib:obj_dat.obj
 0002:00006a98       ??_C@_04LOJOPNBE@OCSP@     00000000000a2ed8     OpensslLib:obj_dat.obj
 0002:00006aa0       ??_C@_09GFPECPIH@caIssuers@ 00000000000a2ee0     OpensslLib:obj_dat.obj
 0002:00006ab0       ??_C@_0L@CABCENFK@CA?5Issuers@ 00000000000a2ef0     OpensslLib:obj_dat.obj
 0002:00006ac0       ??_C@_0M@HBKJLKNM@OCSPSigning@ 00000000000a2f00     OpensslLib:obj_dat.obj
 0002:00006ad0       ??_C@_0N@CPJNIPDD@OCSP?5Signing@ 00000000000a2f10     OpensslLib:obj_dat.obj
 0002:00006ae0       ??_C@_03CBLMPEHH@ISO@      00000000000a2f20     OpensslLib:obj_dat.obj
 0002:00006ae4       ??_C@_03CMEHDJAL@iso@      00000000000a2f24     OpensslLib:obj_dat.obj
 0002:00006ae8       ??_C@_0M@CMICFDOA@member?9body@ 00000000000a2f28     OpensslLib:obj_dat.obj
 0002:00006af8       ??_C@_0BA@BGDAEHGF@ISO?5Member?5Body@ 00000000000a2f38     OpensslLib:obj_dat.obj
 0002:00006b08       ??_C@_06EKAADAMF@ISO?9US@  00000000000a2f48     OpensslLib:obj_dat.obj
 0002:00006b10       ??_C@_0BD@NMCDOJHL@ISO?5US?5Member?5Body@ 00000000000a2f50     OpensslLib:obj_dat.obj
 0002:00006b24       ??_C@_05OCCOPOJN@X9?957@   00000000000a2f64     OpensslLib:obj_dat.obj
 0002:00006b2c       ??_C@_05PAJLFBHD@X9?457@   00000000000a2f6c     OpensslLib:obj_dat.obj
 0002:00006b34       ??_C@_04CGFPFLFA@X9cm@     00000000000a2f74     OpensslLib:obj_dat.obj
 0002:00006b40       ??_C@_0L@DJCLIPOH@X9?457?5CM?5?$DP@ 00000000000a2f80     OpensslLib:obj_dat.obj
 0002:00006b4c       ??_C@_05BCIEJMJH@pkcs1@    00000000000a2f8c     OpensslLib:obj_dat.obj
 0002:00006b54       ??_C@_05HGOIFJJD@pkcs5@    00000000000a2f94     OpensslLib:obj_dat.obj
 0002:00006b5c       ??_C@_05HHBEAKJJ@SMIME@    00000000000a2f9c     OpensslLib:obj_dat.obj
 0002:00006b64       ??_C@_06DFGHEKNE@S?1MIME@  00000000000a2fa4     OpensslLib:obj_dat.obj
 0002:00006b70       ??_C@_0N@GABIEKIN@id?9smime?9mod@ 00000000000a2fb0     OpensslLib:obj_dat.obj
 0002:00006b80       ??_C@_0M@EBLDBLEO@id?9smime?9ct@ 00000000000a2fc0     OpensslLib:obj_dat.obj
 0002:00006b90       ??_C@_0M@HFICCJDE@id?9smime?9aa@ 00000000000a2fd0     OpensslLib:obj_dat.obj
 0002:00006ba0       ??_C@_0N@DKFBIKP@id?9smime?9alg@ 00000000000a2fe0     OpensslLib:obj_dat.obj
 0002:00006bb0       ??_C@_0M@LHBAJBP@id?9smime?9cd@ 00000000000a2ff0     OpensslLib:obj_dat.obj
 0002:00006bc0       ??_C@_0N@PABBGIHI@id?9smime?9spq@ 00000000000a3000     OpensslLib:obj_dat.obj
 0002:00006bd0       ??_C@_0N@CFBKAPGC@id?9smime?9cti@ 00000000000a3010     OpensslLib:obj_dat.obj
 0002:00006be0       ??_C@_0BB@PJEIFOOP@id?9smime?9mod?9cms@ 00000000000a3020     OpensslLib:obj_dat.obj
 0002:00006bf8       ??_C@_0BB@MKJLIPEJ@id?9smime?9mod?9ess@ 00000000000a3038     OpensslLib:obj_dat.obj
 0002:00006c10       ??_C@_0BB@LBBEMNBN@id?9smime?9mod?9oid@ 00000000000a3050     OpensslLib:obj_dat.obj
 0002:00006c28       ??_C@_0BE@PEENABNJ@id?9smime?9mod?9msg?9v3@ 00000000000a3068     OpensslLib:obj_dat.obj
 0002:00006c40       ??_C@_0BP@HIDGBPHA@id?9smime?9mod?9ets?9eSignature?988@ 00000000000a3080     OpensslLib:obj_dat.obj
 0002:00006c60       ??_C@_0BP@POGMGJII@id?9smime?9mod?9ets?9eSignature?997@ 00000000000a30a0     OpensslLib:obj_dat.obj
 0002:00006c80       ??_C@_0BP@KEHEABPA@id?9smime?9mod?9ets?9eSigPolicy?988@ 00000000000a30c0     OpensslLib:obj_dat.obj
 0002:00006ca0       ??_C@_0BP@CCCOHHAI@id?9smime?9mod?9ets?9eSigPolicy?997@ 00000000000a30e0     OpensslLib:obj_dat.obj
 0002:00006cc0       ??_C@_0BE@GCHIHBHA@id?9smime?9ct?9receipt@ 00000000000a3100     OpensslLib:obj_dat.obj
 0002:00006cd8       ??_C@_0BF@KGEHGOF@id?9smime?9ct?9authData@ 00000000000a3118     OpensslLib:obj_dat.obj
 0002:00006cf0       ??_C@_0BI@DBILCLFJ@id?9smime?9ct?9publishCert@ 00000000000a3130     OpensslLib:obj_dat.obj
 0002:00006d08       ??_C@_0BE@KHNGFDDI@id?9smime?9ct?9TSTInfo@ 00000000000a3148     OpensslLib:obj_dat.obj
 0002:00006d20       ??_C@_0BE@FKPPBHI@id?9smime?9ct?9TDTInfo@ 00000000000a3160     OpensslLib:obj_dat.obj
 0002:00006d38       ??_C@_0BI@BGKPNMK@id?9smime?9ct?9contentInfo@ 00000000000a3178     OpensslLib:obj_dat.obj
 0002:00006d50       ??_C@_0BM@MFKPCEGN@id?9smime?9ct?9DVCSRequestData@ 00000000000a3190     OpensslLib:obj_dat.obj
 0002:00006d70       ??_C@_0BN@POKJLKJJ@id?9smime?9ct?9DVCSResponseData@ 00000000000a31b0     OpensslLib:obj_dat.obj
 0002:00006d90       ??_C@_0BL@LMGNMPFD@id?9smime?9aa?9receiptRequest@ 00000000000a31d0     OpensslLib:obj_dat.obj
 0002:00006db0       ??_C@_0BK@DNJNJILO@id?9smime?9aa?9securityLabel@ 00000000000a31f0     OpensslLib:obj_dat.obj
 0002:00006dd0       ??_C@_0BM@OEKGBMLE@id?9smime?9aa?9mlExpandHistory@ 00000000000a3210     OpensslLib:obj_dat.obj
 0002:00006df0       ??_C@_0BI@EMGPJFHB@id?9smime?9aa?9contentHint@ 00000000000a3230     OpensslLib:obj_dat.obj
 0002:00006e08       ??_C@_0BJ@LJLDKMDH@id?9smime?9aa?9msgSigDigest@ 00000000000a3248     OpensslLib:obj_dat.obj
 0002:00006e28       ??_C@_0BN@GCCNOJCG@id?9smime?9aa?9encapContentType@ 00000000000a3268     OpensslLib:obj_dat.obj
 0002:00006e48       ??_C@_0BO@KMJGIAMK@id?9smime?9aa?9contentIdentifier@ 00000000000a3288     OpensslLib:obj_dat.obj
 0002:00006e68       ??_C@_0BF@CFNHFPDB@id?9smime?9aa?9macValue@ 00000000000a32a8     OpensslLib:obj_dat.obj
 0002:00006e80       ??_C@_0BN@NFAAOKEA@id?9smime?9aa?9equivalentLabels@ 00000000000a32c0     OpensslLib:obj_dat.obj
 0002:00006ea0       ??_C@_0BN@LEFAEFL@id?9smime?9aa?9contentReference@ 00000000000a32e0     OpensslLib:obj_dat.obj
 0002:00006ec0       ??_C@_0BK@LAPEFMP@id?9smime?9aa?9encrypKeyPref@ 00000000000a3300     OpensslLib:obj_dat.obj
 0002:00006ee0       ??_C@_0BP@LHGJLGIB@id?9smime?9aa?9signingCertificate@ 00000000000a3320     OpensslLib:obj_dat.obj
 0002:00006f00       ??_C@_0BO@CEEOANBD@id?9smime?9aa?9smimeEncryptCerts@ 00000000000a3340     OpensslLib:obj_dat.obj
 0002:00006f20       ??_C@_0BL@DHJOIJNE@id?9smime?9aa?9timeStampToken@ 00000000000a3360     OpensslLib:obj_dat.obj
 0002:00006f40       ??_C@_0BM@GKFMJCFL@id?9smime?9aa?9ets?9sigPolicyId@ 00000000000a3380     OpensslLib:obj_dat.obj
 0002:00006f60       ??_C@_0BP@OLIFPEIM@id?9smime?9aa?9ets?9commitmentType@ 00000000000a33a0     OpensslLib:obj_dat.obj
 0002:00006f80       ??_C@_0BP@EODAELPO@id?9smime?9aa?9ets?9signerLocation@ 00000000000a33c0     OpensslLib:obj_dat.obj
 0002:00006fa0       ??_C@_0BL@KDJDAGDC@id?9smime?9aa?9ets?9signerAttr@ 00000000000a33e0     OpensslLib:obj_dat.obj
 0002:00006fc0       ??_C@_0BN@JFIFOPBH@id?9smime?9aa?9ets?9otherSigCert@ 00000000000a3400     OpensslLib:obj_dat.obj
 0002:00006fe0       ??_C@_0CB@GHKINGOH@id?9smime?9aa?9ets?9contentTimestam@ 00000000000a3420     OpensslLib:obj_dat.obj
 0002:00007008       ??_C@_0CA@NKIOCHLG@id?9smime?9aa?9ets?9CertificateRefs@ 00000000000a3448     OpensslLib:obj_dat.obj
 0002:00007028       ??_C@_0BP@BCHJHNFO@id?9smime?9aa?9ets?9RevocationRefs@ 00000000000a3468     OpensslLib:obj_dat.obj
 0002:00007048       ??_C@_0BL@IFKOLDIG@id?9smime?9aa?9ets?9certValues@ 00000000000a3488     OpensslLib:obj_dat.obj
 0002:00007068       ??_C@_0CB@GOCEFPFO@id?9smime?9aa?9ets?9revocationValue@ 00000000000a34a8     OpensslLib:obj_dat.obj
 0002:00007090       ??_C@_0BN@HGLOGOFI@id?9smime?9aa?9ets?9escTimeStamp@ 00000000000a34d0     OpensslLib:obj_dat.obj
 0002:000070b0       ??_C@_0CB@CJNBPJE@id?9smime?9aa?9ets?9certCRLTimestam@ 00000000000a34f0     OpensslLib:obj_dat.obj
 0002:000070d8       ??_C@_0CB@BEMKNJGO@id?9smime?9aa?9ets?9archiveTimeStam@ 00000000000a3518     OpensslLib:obj_dat.obj
 0002:00007100       ??_C@_0BK@HDBIPLFI@id?9smime?9aa?9signatureType@ 00000000000a3540     OpensslLib:obj_dat.obj
 0002:00007120       ??_C@_0BF@KEMAMBKF@id?9smime?9aa?9dvcs?9dvc@ 00000000000a3560     OpensslLib:obj_dat.obj
 0002:00007138       ??_C@_0BK@JNJOCCCB@id?9smime?9alg?9ESDHwith3DES@ 00000000000a3578     OpensslLib:obj_dat.obj
 0002:00007158       ??_C@_0BJ@FIJMOHBJ@id?9smime?9alg?9ESDHwithRC2@ 00000000000a3598     OpensslLib:obj_dat.obj
 0002:00007178       ??_C@_0BG@HHELPNAK@id?9smime?9alg?93DESwrap@ 00000000000a35b8     OpensslLib:obj_dat.obj
 0002:00007190       ??_C@_0BF@JNCPAJCA@id?9smime?9alg?9RC2wrap@ 00000000000a35d0     OpensslLib:obj_dat.obj
 0002:000071a8       ??_C@_0BC@COOODKPD@id?9smime?9alg?9ESDH@ 00000000000a35e8     OpensslLib:obj_dat.obj
 0002:000071c0       ??_C@_0BJ@FOFHEIDB@id?9smime?9alg?9CMS3DESwrap@ 00000000000a3600     OpensslLib:obj_dat.obj
 0002:000071e0       ??_C@_0BI@FIFDKKFJ@id?9smime?9alg?9CMSRC2wrap@ 00000000000a3620     OpensslLib:obj_dat.obj
 0002:000071f8       ??_C@_0BB@BMOBKAGE@id?9smime?9cd?9ldap@ 00000000000a3638     OpensslLib:obj_dat.obj
 0002:00007210       ??_C@_0BJ@IMNKDGEG@id?9smime?9spq?9ets?9sqt?9uri@ 00000000000a3650     OpensslLib:obj_dat.obj
 0002:00007230       ??_C@_0BN@GPAAHNOH@id?9smime?9spq?9ets?9sqt?9unotice@ 00000000000a3670     OpensslLib:obj_dat.obj
 0002:00007250       ??_C@_0BP@BCHFEGHC@id?9smime?9cti?9ets?9proofOfOrigin@ 00000000000a3690     OpensslLib:obj_dat.obj
 0002:00007270       ??_C@_0CA@HNGOKBGC@id?9smime?9cti?9ets?9proofOfReceipt@ 00000000000a36b0     OpensslLib:obj_dat.obj
 0002:00007290       ??_C@_0CB@ICJGPMEP@id?9smime?9cti?9ets?9proofOfDeliver@ 00000000000a36d0     OpensslLib:obj_dat.obj
 0002:000072b8       ??_C@_0BP@ODCAFFCM@id?9smime?9cti?9ets?9proofOfSender@ 00000000000a36f8     OpensslLib:obj_dat.obj
 0002:000072d8       ??_C@_0CB@DDLMHEBC@id?9smime?9cti?9ets?9proofOfApprova@ 00000000000a3718     OpensslLib:obj_dat.obj
 0002:00007300       ??_C@_0CB@MICJDGGH@id?9smime?9cti?9ets?9proofOfCreatio@ 00000000000a3740     OpensslLib:obj_dat.obj
 0002:00007324       ??_C@_03HLHMHGOI@MD4@      00000000000a3764     OpensslLib:obj_dat.obj
 0002:00007328       ??_C@_03ODADJPDG@md4@      00000000000a3768     OpensslLib:obj_dat.obj
 0002:00007330       ??_C@_0M@FNAFBNKE@id?9pkix?9mod@ 00000000000a3770     OpensslLib:obj_dat.obj
 0002:0000733c       ??_C@_05EBEMBIDF@id?9qt@   00000000000a377c     OpensslLib:obj_dat.obj
 0002:00007344       ??_C@_05FDHJOKPN@id?9it@   00000000000a3784     OpensslLib:obj_dat.obj
 0002:00007350       ??_C@_07OMHOPMIM@id?9pkip@ 00000000000a3790     OpensslLib:obj_dat.obj
 0002:00007358       ??_C@_06DOGCNAAM@id?9alg@  00000000000a3798     OpensslLib:obj_dat.obj
 0002:00007360       ??_C@_06PBMFLHLE@id?9cmc@  00000000000a37a0     OpensslLib:obj_dat.obj
 0002:00007368       ??_C@_05OHNJGMJE@id?9on@   00000000000a37a8     OpensslLib:obj_dat.obj
 0002:00007370       ??_C@_06IOIOBGMI@id?9pda@  00000000000a37b0     OpensslLib:obj_dat.obj
 0002:00007378       ??_C@_06GDGEDALH@id?9aca@  00000000000a37b8     OpensslLib:obj_dat.obj
 0002:00007380       ??_C@_06ELIJBHPL@id?9qcs@  00000000000a37c0     OpensslLib:obj_dat.obj
 0002:00007388       ??_C@_06PONIBOCI@id?9cct@  00000000000a37c8     OpensslLib:obj_dat.obj
 0002:00007390       ??_C@_0BF@HGDNDMHO@id?9pkix1?9explicit?988@ 00000000000a37d0     OpensslLib:obj_dat.obj
 0002:000073a8       ??_C@_0BF@KMJGBJHG@id?9pkix1?9implicit?988@ 00000000000a37e8     OpensslLib:obj_dat.obj
 0002:000073c0       ??_C@_0BF@JEALIPIC@id?9pkix1?9explicit?993@ 00000000000a3800     OpensslLib:obj_dat.obj
 0002:000073d8       ??_C@_0BF@EOKAKKIK@id?9pkix1?9implicit?993@ 00000000000a3818     OpensslLib:obj_dat.obj
 0002:000073f0       ??_C@_0M@GHFPFJPB@id?9mod?9crmf@ 00000000000a3830     OpensslLib:obj_dat.obj
 0002:00007400       ??_C@_0L@KPDLDADF@id?9mod?9cmc@ 00000000000a3840     OpensslLib:obj_dat.obj
 0002:00007410       ??_C@_0BG@DCGANCKA@id?9mod?9kea?9profile?988@ 00000000000a3850     OpensslLib:obj_dat.obj
 0002:00007428       ??_C@_0BG@NAFGGBFM@id?9mod?9kea?9profile?993@ 00000000000a3868     OpensslLib:obj_dat.obj
 0002:00007440       ??_C@_0L@MONEHBKH@id?9mod?9cmp@ 00000000000a3880     OpensslLib:obj_dat.obj
 0002:00007450       ??_C@_0BJ@GENFLKHG@id?9mod?9qualified?9cert?988@ 00000000000a3890     OpensslLib:obj_dat.obj
 0002:00007470       ??_C@_0BJ@IGODAJIK@id?9mod?9qualified?9cert?993@ 00000000000a38b0     OpensslLib:obj_dat.obj
 0002:00007490       ??_C@_0BG@EPPFBJNH@id?9mod?9attribute?9cert@ 00000000000a38d0     OpensslLib:obj_dat.obj
 0002:000074a8       ??_C@_0BK@GAJOODEK@id?9mod?9timestamp?9protocol@ 00000000000a38e8     OpensslLib:obj_dat.obj
 0002:000074c8       ??_C@_0M@EACKLPKH@id?9mod?9ocsp@ 00000000000a3908     OpensslLib:obj_dat.obj
 0002:000074d8       ??_C@_0M@GHDGNJKI@id?9mod?9dvcs@ 00000000000a3918     OpensslLib:obj_dat.obj
 0002:000074e8       ??_C@_0P@MMOAAMFD@id?9mod?9cmp2000@ 00000000000a3928     OpensslLib:obj_dat.obj
 0002:000074f8       ??_C@_0O@MPIIPAHM@biometricInfo@ 00000000000a3938     OpensslLib:obj_dat.obj
 0002:00007508       ??_C@_0P@KFKDECPH@Biometric?5Info@ 00000000000a3948     OpensslLib:obj_dat.obj
 0002:00007518       ??_C@_0N@FPMNLLM@qcStatements@ 00000000000a3958     OpensslLib:obj_dat.obj
 0002:00007528       ??_C@_0P@CIOHPJGC@ac?9auditEntity@ 00000000000a3968     OpensslLib:obj_dat.obj
 0002:00007538       ??_C@_0N@FPEEOJCI@ac?9targeting@ 00000000000a3978     OpensslLib:obj_dat.obj
 0002:00007548       ??_C@_0L@DLGBNBJE@aaControls@ 00000000000a3988     OpensslLib:obj_dat.obj
 0002:00007558       ??_C@_0BB@NNCKCHBC@sbgp?9ipAddrBlock@ 00000000000a3998     OpensslLib:obj_dat.obj
 0002:00007570       ??_C@_0BG@OJEHJDKA@sbgp?9autonomousSysNum@ 00000000000a39b0     OpensslLib:obj_dat.obj
 0002:00007588       ??_C@_0BG@JCJJBMAI@sbgp?9routerIdentifier@ 00000000000a39c8     OpensslLib:obj_dat.obj
 0002:000075a0       ??_C@_0L@HLNNPJEH@textNotice@ 00000000000a39e0     OpensslLib:obj_dat.obj
 0002:000075b0       ??_C@_0P@MKBFMAPP@ipsecEndSystem@ 00000000000a39f0     OpensslLib:obj_dat.obj
 0002:000075c0       ??_C@_0BB@JEJDAICO@IPSec?5End?5System@ 00000000000a3a00     OpensslLib:obj_dat.obj
 0002:000075d8       ??_C@_0M@GMMHFFHI@ipsecTunnel@ 00000000000a3a18     OpensslLib:obj_dat.obj
 0002:000075e8       ??_C@_0N@EKDIOGLO@IPSec?5Tunnel@ 00000000000a3a28     OpensslLib:obj_dat.obj
 0002:000075f8       ??_C@_09GOHJKOFF@ipsecUser@ 00000000000a3a38     OpensslLib:obj_dat.obj
 0002:00007608       ??_C@_0L@DECDDCGF@IPSec?5User@ 00000000000a3a48     OpensslLib:obj_dat.obj
 0002:00007614       ??_C@_04JJICJLBL@DVCS@     00000000000a3a54     OpensslLib:obj_dat.obj
 0002:0000761c       ??_C@_04FFLIHJGD@dvcs@     00000000000a3a5c     OpensslLib:obj_dat.obj
 0002:00007628       ??_C@_0BE@GJACIPND@id?9it?9caProtEncCert@ 00000000000a3a68     OpensslLib:obj_dat.obj
 0002:00007640       ??_C@_0BH@POCENFBA@id?9it?9signKeyPairTypes@ 00000000000a3a80     OpensslLib:obj_dat.obj
 0002:00007658       ??_C@_0BG@FKIDIODL@id?9it?9encKeyPairTypes@ 00000000000a3a98     OpensslLib:obj_dat.obj
 0002:00007670       ??_C@_0BH@JFBOPDCH@id?9it?9preferredSymmAlg@ 00000000000a3ab0     OpensslLib:obj_dat.obj
 0002:00007688       ??_C@_0BG@OAKEHPLC@id?9it?9caKeyUpdateInfo@ 00000000000a3ac8     OpensslLib:obj_dat.obj
 0002:000076a0       ??_C@_0BB@NHKBGJFG@id?9it?9currentCRL@ 00000000000a3ae0     OpensslLib:obj_dat.obj
 0002:000076b8       ??_C@_0BG@BPLKDJPD@id?9it?9unsupportedOIDs@ 00000000000a3af8     OpensslLib:obj_dat.obj
 0002:000076d0       ??_C@_0BK@MKGCMKGI@id?9it?9subscriptionRequest@ 00000000000a3b10     OpensslLib:obj_dat.obj
 0002:000076f0       ??_C@_0BL@HBPHBFLO@id?9it?9subscriptionResponse@ 00000000000a3b30     OpensslLib:obj_dat.obj
 0002:00007710       ??_C@_0BG@LGJDGAPG@id?9it?9keyPairParamReq@ 00000000000a3b50     OpensslLib:obj_dat.obj
 0002:00007728       ??_C@_0BG@KPIIFBLH@id?9it?9keyPairParamRep@ 00000000000a3b68     OpensslLib:obj_dat.obj
 0002:00007740       ??_C@_0BE@FOOOCPMH@id?9it?9revPassphrase@ 00000000000a3b80     OpensslLib:obj_dat.obj
 0002:00007758       ??_C@_0BG@MKDHCJKF@id?9it?9implicitConfirm@ 00000000000a3b98     OpensslLib:obj_dat.obj
 0002:00007770       ??_C@_0BG@KCBHNMIK@id?9it?9confirmWaitTime@ 00000000000a3bb0     OpensslLib:obj_dat.obj
 0002:00007788       ??_C@_0BF@CLCJJGFI@id?9it?9origPKIMessage@ 00000000000a3bc8     OpensslLib:obj_dat.obj
 0002:000077a0       ??_C@_0L@FDGKGANK@id?9regCtrl@ 00000000000a3be0     OpensslLib:obj_dat.obj
 0002:000077b0       ??_C@_0L@BGHMJHOP@id?9regInfo@ 00000000000a3bf0     OpensslLib:obj_dat.obj
 0002:000077c0       ??_C@_0BE@JDMKCIPE@id?9regCtrl?9regToken@ 00000000000a3c00     OpensslLib:obj_dat.obj
 0002:000077d8       ??_C@_0BJ@FBKKLLKP@id?9regCtrl?9authenticator@ 00000000000a3c18     OpensslLib:obj_dat.obj
 0002:000077f8       ??_C@_0BO@GJKPPLPL@id?9regCtrl?9pkiPublicationInfo@ 00000000000a3c38     OpensslLib:obj_dat.obj
 0002:00007818       ??_C@_0BN@ONKHMAOP@id?9regCtrl?9pkiArchiveOptions@ 00000000000a3c58     OpensslLib:obj_dat.obj
 0002:00007838       ??_C@_0BF@GFJPNJIG@id?9regCtrl?9oldCertID@ 00000000000a3c78     OpensslLib:obj_dat.obj
 0002:00007850       ??_C@_0BL@GHBPLPHM@id?9regCtrl?9protocolEncrKey@ 00000000000a3c90     OpensslLib:obj_dat.obj
 0002:00007870       ??_C@_0BF@FHFGHAHE@id?9regInfo?9utf8Pairs@ 00000000000a3cb0     OpensslLib:obj_dat.obj
 0002:00007888       ??_C@_0BD@EEAPBNJJ@id?9regInfo?9certReq@ 00000000000a3cc8     OpensslLib:obj_dat.obj
 0002:000078a0       ??_C@_0N@KIJONBNA@id?9alg?9des40@ 00000000000a3ce0     OpensslLib:obj_dat.obj
 0002:000078b0       ??_C@_0BD@LAAJOBHI@id?9alg?9noSignature@ 00000000000a3cf0     OpensslLib:obj_dat.obj
 0002:000078c8       ??_C@_0BI@KIODNBCM@id?9alg?9dh?9sig?9hmac?9sha1@ 00000000000a3d08     OpensslLib:obj_dat.obj
 0002:000078e0       ??_C@_0O@OBGPPBGA@id?9alg?9dh?9pop@ 00000000000a3d20     OpensslLib:obj_dat.obj
 0002:000078f0       ??_C@_0BC@CMNEPEAI@id?9cmc?9statusInfo@ 00000000000a3d30     OpensslLib:obj_dat.obj
 0002:00007908       ??_C@_0BG@PPIINOMK@id?9cmc?9identification@ 00000000000a3d48     OpensslLib:obj_dat.obj
 0002:00007920       ??_C@_0BF@IDAHNDCK@id?9cmc?9identityProof@ 00000000000a3d60     OpensslLib:obj_dat.obj
 0002:00007938       ??_C@_0BC@LLJKCHEN@id?9cmc?9dataReturn@ 00000000000a3d78     OpensslLib:obj_dat.obj
 0002:00007950       ??_C@_0BF@GEJAHBF@id?9cmc?9transactionId@ 00000000000a3d90     OpensslLib:obj_dat.obj
 0002:00007968       ??_C@_0BD@BCMJDDMP@id?9cmc?9senderNonce@ 00000000000a3da8     OpensslLib:obj_dat.obj
 0002:00007980       ??_C@_0BG@JLHHNNCH@id?9cmc?9recipientNonce@ 00000000000a3dc0     OpensslLib:obj_dat.obj
 0002:00007998       ??_C@_0BF@HLOCACJF@id?9cmc?9addExtensions@ 00000000000a3dd8     OpensslLib:obj_dat.obj
 0002:000079b0       ??_C@_0BE@NILMJFN@id?9cmc?9encryptedPOP@ 00000000000a3df0     OpensslLib:obj_dat.obj
 0002:000079c8       ??_C@_0BE@KBIPLENG@id?9cmc?9decryptedPOP@ 00000000000a3e08     OpensslLib:obj_dat.obj
 0002:000079e0       ??_C@_0BF@BMODAINP@id?9cmc?9lraPOPWitness@ 00000000000a3e20     OpensslLib:obj_dat.obj
 0002:000079f8       ??_C@_0P@GMDPJKDO@id?9cmc?9getCert@ 00000000000a3e38     OpensslLib:obj_dat.obj
 0002:00007a08       ??_C@_0O@OIGIOBJ@id?9cmc?9getCRL@ 00000000000a3e48     OpensslLib:obj_dat.obj
 0002:00007a18       ??_C@_0BF@BOEAJJNI@id?9cmc?9revokeRequest@ 00000000000a3e58     OpensslLib:obj_dat.obj
 0002:00007a30       ??_C@_0P@PCIOIKNC@id?9cmc?9regInfo@ 00000000000a3e70     OpensslLib:obj_dat.obj
 0002:00007a40       ??_C@_0BE@CKMFMMDP@id?9cmc?9responseInfo@ 00000000000a3e80     OpensslLib:obj_dat.obj
 0002:00007a58       ??_C@_0BE@JKLJLIIH@id?9cmc?9queryPending@ 00000000000a3e98     OpensslLib:obj_dat.obj
 0002:00007a70       ??_C@_0BF@GGLCNKGO@id?9cmc?9popLinkRandom@ 00000000000a3eb0     OpensslLib:obj_dat.obj
 0002:00007a88       ??_C@_0BG@EEIJMDPB@id?9cmc?9popLinkWitness@ 00000000000a3ec8     OpensslLib:obj_dat.obj
 0002:00007aa0       ??_C@_0BN@MIGHDJON@id?9cmc?9confirmCertAcceptance@ 00000000000a3ee0     OpensslLib:obj_dat.obj
 0002:00007ac0       ??_C@_0BD@IGLADCFL@id?9on?9personalData@ 00000000000a3f00     OpensslLib:obj_dat.obj
 0002:00007ad8       ??_C@_0BD@BADJMIPF@id?9pda?9dateOfBirth@ 00000000000a3f18     OpensslLib:obj_dat.obj
 0002:00007af0       ??_C@_0BE@NIFFDBPJ@id?9pda?9placeOfBirth@ 00000000000a3f30     OpensslLib:obj_dat.obj
 0002:00007b08       ??_C@_0O@JMCFNPFD@id?9pda?9gender@ 00000000000a3f48     OpensslLib:obj_dat.obj
 0002:00007b18       ??_C@_0BM@KMGEGNAB@id?9pda?9countryOfCitizenship@ 00000000000a3f58     OpensslLib:obj_dat.obj
 0002:00007b38       ??_C@_0BK@BJMNIGCJ@id?9pda?9countryOfResidence@ 00000000000a3f78     OpensslLib:obj_dat.obj
 0002:00007b58       ??_C@_0BK@OFEDAOCA@id?9aca?9authenticationInfo@ 00000000000a3f98     OpensslLib:obj_dat.obj
 0002:00007b78       ??_C@_0BG@GFJCFEAI@id?9aca?9accessIdentity@ 00000000000a3fb8     OpensslLib:obj_dat.obj
 0002:00007b90       ??_C@_0BI@IDHFJBKH@id?9aca?9chargingIdentity@ 00000000000a3fd0     OpensslLib:obj_dat.obj
 0002:00007ba8       ??_C@_0N@HOPCGOGP@id?9aca?9group@ 00000000000a3fe8     OpensslLib:obj_dat.obj
 0002:00007bb8       ??_C@_0M@FBOAJIIJ@id?9aca?9role@ 00000000000a3ff8     OpensslLib:obj_dat.obj
 0002:00007bc8       ??_C@_0BH@DJONLBHI@id?9qcs?9pkixQCSyntax?9v1@ 00000000000a4008     OpensslLib:obj_dat.obj
 0002:00007be0       ??_C@_0L@CDHPLMPE@id?9cct?9crs@ 00000000000a4020     OpensslLib:obj_dat.obj
 0002:00007bf0       ??_C@_0P@FNCPPGJO@id?9cct?9PKIData@ 00000000000a4030     OpensslLib:obj_dat.obj
 0002:00007c00       ??_C@_0BD@DDALHPCH@id?9cct?9PKIResponse@ 00000000000a4040     OpensslLib:obj_dat.obj
 0002:00007c18       ??_C@_0BA@PBBONLHE@ad_timestamping@ 00000000000a4058     OpensslLib:obj_dat.obj
 0002:00007c28       ??_C@_0BB@NMPPBOGK@AD?5Time?5Stamping@ 00000000000a4068     OpensslLib:obj_dat.obj
 0002:00007c40       ??_C@_07JCCJJKFE@AD_DVCS@  00000000000a4080     OpensslLib:obj_dat.obj
 0002:00007c48       ??_C@_07JCKMJMPC@ad?5dvcs@ 00000000000a4088     OpensslLib:obj_dat.obj
 0002:00007c50       ??_C@_0BC@KFAFMFFF@basicOCSPResponse@ 00000000000a4090     OpensslLib:obj_dat.obj
 0002:00007c68       ??_C@_0BE@ONEEPEOL@Basic?5OCSP?5Response@ 00000000000a40a8     OpensslLib:obj_dat.obj
 0002:00007c7c       ??_C@_05OJOPLPHH@Nonce@    00000000000a40bc     OpensslLib:obj_dat.obj
 0002:00007c88       ??_C@_0L@NCNDEJFL@OCSP?5Nonce@ 00000000000a40c8     OpensslLib:obj_dat.obj
 0002:00007c94       ??_C@_05NOENOBME@CrlID@    00000000000a40d4     OpensslLib:obj_dat.obj
 0002:00007ca0       ??_C@_0M@LCLKJALE@OCSP?5CRL?5ID@ 00000000000a40e0     OpensslLib:obj_dat.obj
 0002:00007cb0       ??_C@_0BE@FBPDIHIK@acceptableResponses@ 00000000000a40f0     OpensslLib:obj_dat.obj
 0002:00007cc8       ??_C@_0BK@JKKLNLEI@Acceptable?5OCSP?5Responses@ 00000000000a4108     OpensslLib:obj_dat.obj
 0002:00007ce8       ??_C@_07MCKMCKHJ@noCheck@  00000000000a4128     OpensslLib:obj_dat.obj
 0002:00007cf0       ??_C@_0O@HFOALJCG@OCSP?5No?5Check@ 00000000000a4130     OpensslLib:obj_dat.obj
 0002:00007d00       ??_C@_0O@FIEDPKGI@archiveCutoff@ 00000000000a4140     OpensslLib:obj_dat.obj
 0002:00007d10       ??_C@_0BE@JAFPABJB@OCSP?5Archive?5Cutoff@ 00000000000a4150     OpensslLib:obj_dat.obj
 0002:00007d28       ??_C@_0P@LCDAPLHC@serviceLocator@ 00000000000a4168     OpensslLib:obj_dat.obj
 0002:00007d38       ??_C@_0BF@CEIKAD@OCSP?5Service?5Locator@ 00000000000a4178     OpensslLib:obj_dat.obj
 0002:00007d50       ??_C@_0P@EGENIBNC@extendedStatus@ 00000000000a4190     OpensslLib:obj_dat.obj
 0002:00007d60       ??_C@_0BF@MPEDLKDP@Extended?5OCSP?5Status@ 00000000000a41a0     OpensslLib:obj_dat.obj
 0002:00007d78       ??_C@_05HDPIMK@valid@      00000000000a41b8     OpensslLib:obj_dat.obj
 0002:00007d80       ??_C@_04LNEJFJGI@path@     00000000000a41c0     OpensslLib:obj_dat.obj
 0002:00007d88       ??_C@_09LNEPAILM@trustRoot@ 00000000000a41c8     OpensslLib:obj_dat.obj
 0002:00007d98       ??_C@_0L@INBPOG@Trust?5Root@ 00000000000a41d8     OpensslLib:obj_dat.obj
 0002:00007da8       ??_C@_09JPNFBOJG@algorithm@ 00000000000a41e8     OpensslLib:obj_dat.obj
 0002:00007db8       ??_C@_0N@JHANBHGC@rsaSignature@ 00000000000a41f8     OpensslLib:obj_dat.obj
 0002:00007dc8       ??_C@_0P@NMIAKCBG@X500algorithms@ 00000000000a4208     OpensslLib:obj_dat.obj
 0002:00007dd8       ??_C@_0CA@FIOIBJEO@directory?5services?5?9?5algorithms@ 00000000000a4218     OpensslLib:obj_dat.obj
 0002:00007df8       ??_C@_03MNMMELJE@ORG@      00000000000a4238     OpensslLib:obj_dat.obj
 0002:00007dfc       ??_C@_03MADHIGOI@org@      00000000000a423c     OpensslLib:obj_dat.obj
 0002:00007e00       ??_C@_03CFBOKPHF@DOD@      00000000000a4240     OpensslLib:obj_dat.obj
 0002:00007e04       ??_C@_03CIOFGCAJ@dod@      00000000000a4244     OpensslLib:obj_dat.obj
 0002:00007e08       ??_C@_04NMPANDAM@IANA@     00000000000a4248     OpensslLib:obj_dat.obj
 0002:00007e10       ??_C@_04BAMKDBHE@iana@     00000000000a4250     OpensslLib:obj_dat.obj
 0002:00007e18       ??_C@_09ELLNFDPM@directory@ 00000000000a4258     OpensslLib:obj_dat.obj
 0002:00007e28       ??_C@_09EOAFACM@Directory@ 00000000000a4268     OpensslLib:obj_dat.obj
 0002:00007e34       ??_C@_04PFNCJACF@mgmt@     00000000000a4274     OpensslLib:obj_dat.obj
 0002:00007e40       ??_C@_0L@ENAJINDB@Management@ 00000000000a4280     OpensslLib:obj_dat.obj
 0002:00007e50       ??_C@_0N@OJFGCCKJ@experimental@ 00000000000a4290     OpensslLib:obj_dat.obj
 0002:00007e60       ??_C@_0N@FKCIGJFM@Experimental@ 00000000000a42a0     OpensslLib:obj_dat.obj
 0002:00007e70       ??_C@_07NMPLPEPB@private@  00000000000a42b0     OpensslLib:obj_dat.obj
 0002:00007e78       ??_C@_07CFINJGKH@Private@  00000000000a42b8     OpensslLib:obj_dat.obj
 0002:00007e80       ??_C@_08MBFLHJIB@security@ 00000000000a42c0     OpensslLib:obj_dat.obj
 0002:00007e90       ??_C@_08EDKKPLCC@Security@ 00000000000a42d0     OpensslLib:obj_dat.obj
 0002:00007e9c       ??_C@_06DKHMNHOO@snmpv2@   00000000000a42dc     OpensslLib:obj_dat.obj
 0002:00007ea4       ??_C@_06JDJOGLHO@SNMPv2@   00000000000a42e4     OpensslLib:obj_dat.obj
 0002:00007eac       ??_C@_04JEGKNAHI@Mail@     00000000000a42ec     OpensslLib:obj_dat.obj
 0002:00007eb8       ??_C@_0M@DMHOKNAD@enterprises@ 00000000000a42f8     OpensslLib:obj_dat.obj
 0002:00007ec8       ??_C@_0M@CEEPHGPL@Enterprises@ 00000000000a4308     OpensslLib:obj_dat.obj
 0002:00007ed8       ??_C@_08KAGHKPKK@dcobject@ 00000000000a4318     OpensslLib:obj_dat.obj
 0002:00007ee8       ??_C@_08GPNKJGDG@dcObject@ 00000000000a4328     OpensslLib:obj_dat.obj
 0002:00007ef4       ??_C@_02KMHJBPDH@DC@       00000000000a4334     OpensslLib:obj_dat.obj
 0002:00007ef8       ??_C@_0BA@DMAKFKAH@domainComponent@ 00000000000a4338     OpensslLib:obj_dat.obj
 0002:00007f08       ??_C@_06LKIIGAOE@domain@   00000000000a4348     OpensslLib:obj_dat.obj
 0002:00007f10       ??_C@_06HFDFFJHI@Domain@   00000000000a4350     OpensslLib:obj_dat.obj
 0002:00007f18       ??_C@_0BJ@BDDNHDDA@selected?9attribute?9types@ 00000000000a4358     OpensslLib:obj_dat.obj
 0002:00007f38       ??_C@_0BJ@MAOJIBHF@Selected?5Attribute?5Types@ 00000000000a4378     OpensslLib:obj_dat.obj
 0002:00007f58       ??_C@_09ECGCCLFI@clearance@ 00000000000a4398     OpensslLib:obj_dat.obj
 0002:00007f68       ??_C@_07MHHBEDHA@RSA?9MD4@ 00000000000a43a8     OpensslLib:obj_dat.obj
 0002:00007f70       ??_C@_0BF@JDOFKNPK@md4WithRSAEncryption@ 00000000000a43b0     OpensslLib:obj_dat.obj
 0002:00007f88       ??_C@_0M@BKAIKGEL@ac?9proxying@ 00000000000a43c8     OpensslLib:obj_dat.obj
 0002:00007f98       ??_C@_0BC@IEIBIKBA@subjectInfoAccess@ 00000000000a43d8     OpensslLib:obj_dat.obj
 0002:00007fb0       ??_C@_0BL@OMFIOBLF@Subject?5Information?5Access@ 00000000000a43f0     OpensslLib:obj_dat.obj
 0002:00007fd0       ??_C@_0BA@PEFFHNFH@id?9aca?9encAttrs@ 00000000000a4410     OpensslLib:obj_dat.obj
 0002:00007fe0       ??_C@_04IAMNPBLO@role@     00000000000a4420     OpensslLib:obj_dat.obj
 0002:00007fe8       ??_C@_0BC@IJLMCBHD@policyConstraints@ 00000000000a4428     OpensslLib:obj_dat.obj
 0002:00008000       ??_C@_0BK@DNMBLGM@X509v3?5Policy?5Constraints@ 00000000000a4440     OpensslLib:obj_dat.obj
 0002:00008020       ??_C@_0BC@JINDJNPM@targetInformation@ 00000000000a4460     OpensslLib:obj_dat.obj
 0002:00008038       ??_C@_0BE@IECCFFCH@X509v3?5AC?5Targeting@ 00000000000a4478     OpensslLib:obj_dat.obj
 0002:00008050       ??_C@_0L@ECGDAGCK@noRevAvail@ 00000000000a4490     OpensslLib:obj_dat.obj
 0002:00008060       ??_C@_0BP@DEKFNCEH@X509v3?5No?5Revocation?5Available@ 00000000000a44a0     OpensslLib:obj_dat.obj
 0002:00008080       ??_C@_0L@LBMOMFCJ@ansi?9X9?962@ 00000000000a44c0     OpensslLib:obj_dat.obj
 0002:00008090       ??_C@_0L@HAOKGHPF@ANSI?5X9?462@ 00000000000a44d0     OpensslLib:obj_dat.obj
 0002:000080a0       ??_C@_0M@LGLKIODB@prime?9field@ 00000000000a44e0     OpensslLib:obj_dat.obj
 0002:000080b0       ??_C@_0BJ@HECCMKCN@characteristic?9two?9field@ 00000000000a44f0     OpensslLib:obj_dat.obj
 0002:000080d0       ??_C@_0P@NEOBKIMO@id?9ecPublicKey@ 00000000000a4510     OpensslLib:obj_dat.obj
 0002:000080e0       ??_C@_0L@FFFCIFBH@prime192v1@ 00000000000a4520     OpensslLib:obj_dat.obj
 0002:000080f0       ??_C@_0L@HOHPNGNE@prime192v2@ 00000000000a4530     OpensslLib:obj_dat.obj
 0002:00008100       ??_C@_0L@GHGEOHJF@prime192v3@ 00000000000a4540     OpensslLib:obj_dat.obj
 0002:00008110       ??_C@_0L@EOHHGIBJ@prime239v1@ 00000000000a4550     OpensslLib:obj_dat.obj
 0002:00008120       ??_C@_0L@GFFKDLNK@prime239v2@ 00000000000a4560     OpensslLib:obj_dat.obj
 0002:00008130       ??_C@_0L@HMEBAKJL@prime239v3@ 00000000000a4570     OpensslLib:obj_dat.obj
 0002:00008140       ??_C@_0L@JJFEINOP@prime256v1@ 00000000000a4580     OpensslLib:obj_dat.obj
 0002:00008150       ??_C@_0BA@DGJNDOPM@ecdsa?9with?9SHA1@ 00000000000a4590     OpensslLib:obj_dat.obj
 0002:00008160       ??_C@_07BPKAKPJK@CSPName@  00000000000a45a0     OpensslLib:obj_dat.obj
 0002:00008168       ??_C@_0BD@HDEEGCLB@Microsoft?5CSP?5Name@ 00000000000a45a8     OpensslLib:obj_dat.obj
 0002:00008180       ??_C@_0M@BCNEBAOB@AES?9128?9ECB@ 00000000000a45c0     OpensslLib:obj_dat.obj
 0002:00008190       ??_C@_0M@MONPIKGC@aes?9128?9ecb@ 00000000000a45d0     OpensslLib:obj_dat.obj
 0002:000081a0       ??_C@_0M@CPGGBEEL@AES?9128?9CBC@ 00000000000a45e0     OpensslLib:obj_dat.obj
 0002:000081b0       ??_C@_0M@PDGNIOMI@aes?9128?9cbc@ 00000000000a45f0     OpensslLib:obj_dat.obj
 0002:000081c0       ??_C@_0M@HLKCDCGO@AES?9128?9OFB@ 00000000000a4600     OpensslLib:obj_dat.obj
 0002:000081d0       ??_C@_0M@KHKJKION@aes?9128?9ofb@ 00000000000a4610     OpensslLib:obj_dat.obj
 0002:000081e0       ??_C@_0M@DBHEINNG@AES?9128?9CFB@ 00000000000a4620     OpensslLib:obj_dat.obj
 0002:000081f0       ??_C@_0M@ONHPBHFF@aes?9128?9cfb@ 00000000000a4630     OpensslLib:obj_dat.obj
 0002:00008200       ??_C@_0M@LBEIGHHN@AES?9192?9ECB@ 00000000000a4640     OpensslLib:obj_dat.obj
 0002:00008210       ??_C@_0M@GNEDPNPO@aes?9192?9ecb@ 00000000000a4650     OpensslLib:obj_dat.obj
 0002:00008220       ??_C@_0M@IMPKGDNH@AES?9192?9CBC@ 00000000000a4660     OpensslLib:obj_dat.obj
 0002:00008230       ??_C@_0M@FAPBPJFE@aes?9192?9cbc@ 00000000000a4670     OpensslLib:obj_dat.obj
 0002:00008240       ??_C@_0M@NIDOEFPC@AES?9192?9OFB@ 00000000000a4680     OpensslLib:obj_dat.obj
 0002:00008250       ??_C@_0M@EDFNPHB@aes?9192?9ofb@ 00000000000a4690     OpensslLib:obj_dat.obj
 0002:00008260       ??_C@_0M@JCOIPKEK@AES?9192?9CFB@ 00000000000a46a0     OpensslLib:obj_dat.obj
 0002:00008270       ??_C@_0M@EOODGAMJ@aes?9192?9cfb@ 00000000000a46b0     OpensslLib:obj_dat.obj
 0002:00008280       ??_C@_0M@GDPGEIPM@AES?9256?9ECB@ 00000000000a46c0     OpensslLib:obj_dat.obj
 0002:00008290       ??_C@_0M@LPPNNCHP@aes?9256?9ecb@ 00000000000a46d0     OpensslLib:obj_dat.obj
 0002:000082a0       ??_C@_0M@FOEEEMFG@AES?9256?9CBC@ 00000000000a46e0     OpensslLib:obj_dat.obj
 0002:000082b0       ??_C@_0M@ICEPNGNF@aes?9256?9cbc@ 00000000000a46f0     OpensslLib:obj_dat.obj
 0002:000082c0       ??_C@_0M@KIAGKHD@AES?9256?9OFB@ 00000000000a4700     OpensslLib:obj_dat.obj
 0002:000082d0       ??_C@_0M@NGILPAPA@aes?9256?9ofb@ 00000000000a4710     OpensslLib:obj_dat.obj
 0002:000082e0       ??_C@_0M@EAFGNFML@AES?9256?9CFB@ 00000000000a4720     OpensslLib:obj_dat.obj
 0002:000082f0       ??_C@_0M@JMFNEPEI@aes?9256?9cfb@ 00000000000a4730     OpensslLib:obj_dat.obj
 0002:00008300       ??_C@_0BE@FKEPLGJO@holdInstructionCode@ 00000000000a4740     OpensslLib:obj_dat.obj
 0002:00008318       ??_C@_0BG@LHBPDMAN@Hold?5Instruction?5Code@ 00000000000a4758     OpensslLib:obj_dat.obj
 0002:00008330       ??_C@_0BE@KPEIPHPJ@holdInstructionNone@ 00000000000a4770     OpensslLib:obj_dat.obj
 0002:00008348       ??_C@_0BG@ECBIHNGK@Hold?5Instruction?5None@ 00000000000a4788     OpensslLib:obj_dat.obj
 0002:00008360       ??_C@_0BK@ENEKHHMB@holdInstructionCallIssuer@ 00000000000a47a0     OpensslLib:obj_dat.obj
 0002:00008380       ??_C@_0BN@IJKNPIFC@Hold?5Instruction?5Call?5Issuer@ 00000000000a47c0     OpensslLib:obj_dat.obj
 0002:000083a0       ??_C@_0BG@BDAACIJE@holdInstructionReject@ 00000000000a47e0     OpensslLib:obj_dat.obj
 0002:000083b8       ??_C@_0BI@EEABHGCD@Hold?5Instruction?5Reject@ 00000000000a47f8     OpensslLib:obj_dat.obj
 0002:000083d0       ??_C@_04PJOLNDGD@data@     00000000000a4810     OpensslLib:obj_dat.obj
 0002:000083d8       ??_C@_03OHCBHMED@pss@      00000000000a4818     OpensslLib:obj_dat.obj
 0002:000083dc       ??_C@_03BIDCBJP@ucl@       00000000000a481c     OpensslLib:obj_dat.obj
 0002:000083e0       ??_C@_05KIBFDOPF@pilot@    00000000000a4820     OpensslLib:obj_dat.obj
 0002:000083e8       ??_C@_0BD@NEGIHOAI@pilotAttributeType@ 00000000000a4828     OpensslLib:obj_dat.obj
 0002:00008400       ??_C@_0BF@CDEFHHCF@pilotAttributeSyntax@ 00000000000a4840     OpensslLib:obj_dat.obj
 0002:00008418       ??_C@_0BB@MJFNAIDM@pilotObjectClass@ 00000000000a4858     OpensslLib:obj_dat.obj
 0002:00008430       ??_C@_0M@DLMEDAFC@pilotGroups@ 00000000000a4870     OpensslLib:obj_dat.obj
 0002:00008440       ??_C@_0BA@KPIIGILK@iA5StringSyntax@ 00000000000a4880     OpensslLib:obj_dat.obj
 0002:00008450       ??_C@_0BK@LELMGJGD@caseIgnoreIA5StringSyntax@ 00000000000a4890     OpensslLib:obj_dat.obj
 0002:00008470       ??_C@_0M@MCCFCPKP@pilotObject@ 00000000000a48b0     OpensslLib:obj_dat.obj
 0002:00008480       ??_C@_0M@NCGDCEIP@pilotPerson@ 00000000000a48c0     OpensslLib:obj_dat.obj
 0002:00008490       ??_C@_07PMDLEBNF@account@  00000000000a48d0     OpensslLib:obj_dat.obj
 0002:00008498       ??_C@_08JEEDKNPB@document@ 00000000000a48d8     OpensslLib:obj_dat.obj
 0002:000084a4       ??_C@_04EKFCMFOP@room@     00000000000a48e4     OpensslLib:obj_dat.obj
 0002:000084b0       ??_C@_0P@OAPEDDHP@documentSeries@ 00000000000a48f0     OpensslLib:obj_dat.obj
 0002:000084c0       ??_C@_0BA@KIAIOBLD@rFC822localPart@ 00000000000a4900     OpensslLib:obj_dat.obj
 0002:000084d0       ??_C@_09BOCGGGMK@dNSDomain@ 00000000000a4910     OpensslLib:obj_dat.obj
 0002:000084e0       ??_C@_0BE@OPAPHNCO@domainRelatedObject@ 00000000000a4920     OpensslLib:obj_dat.obj
 0002:000084f8       ??_C@_0BA@LKHIAMBK@friendlyCountry@ 00000000000a4938     OpensslLib:obj_dat.obj
 0002:00008508       ??_C@_0BF@CONLNHDI@simpleSecurityObject@ 00000000000a4948     OpensslLib:obj_dat.obj
 0002:00008520       ??_C@_0BC@PLDKCMI@pilotOrganization@ 00000000000a4960     OpensslLib:obj_dat.obj
 0002:00008538       ??_C@_08MPJGPMC@pilotDSA@  00000000000a4978     OpensslLib:obj_dat.obj
 0002:00008548       ??_C@_0BE@DDFOMMI@qualityLabelledData@ 00000000000a4988     OpensslLib:obj_dat.obj
 0002:0000855c       ??_C@_03MJDGODDN@UID@      00000000000a499c     OpensslLib:obj_dat.obj
 0002:00008560       ??_C@_06LPELCIKE@userId@   00000000000a49a0     OpensslLib:obj_dat.obj
 0002:00008568       ??_C@_0BF@HDIIKJDI@textEncodedORAddress@ 00000000000a49a8     OpensslLib:obj_dat.obj
 0002:00008580       ??_C@_04FFKLPPHM@mail@     00000000000a49c0     OpensslLib:obj_dat.obj
 0002:00008588       ??_C@_0O@PDNFEOHL@rfc822Mailbox@ 00000000000a49c8     OpensslLib:obj_dat.obj
 0002:00008598       ??_C@_04NIDJFNBE@info@     00000000000a49d8     OpensslLib:obj_dat.obj
 0002:000085a0       ??_C@_0P@PAMFCEKP@favouriteDrink@ 00000000000a49e0     OpensslLib:obj_dat.obj
 0002:000085b0       ??_C@_0L@DGKNANFO@roomNumber@ 00000000000a49f0     OpensslLib:obj_dat.obj
 0002:000085bc       ??_C@_05DOIFDPKA@photo@    00000000000a49fc     OpensslLib:obj_dat.obj
 0002:000085c8       ??_C@_09CCPGMHEM@userClass@ 00000000000a4a08     OpensslLib:obj_dat.obj
 0002:000085d4       ??_C@_04OODOLJMA@host@     00000000000a4a14     OpensslLib:obj_dat.obj
 0002:000085e0       ??_C@_07JPLKDPHP@manager@  00000000000a4a20     OpensslLib:obj_dat.obj
 0002:000085e8       ??_C@_0BD@MEPJGCEO@documentIdentifier@ 00000000000a4a28     OpensslLib:obj_dat.obj
 0002:00008600       ??_C@_0O@BDIDABAC@documentTitle@ 00000000000a4a40     OpensslLib:obj_dat.obj
 0002:00008610       ??_C@_0BA@GHOLKFM@documentVersion@ 00000000000a4a50     OpensslLib:obj_dat.obj
 0002:00008620       ??_C@_0P@DABDJKFB@documentAuthor@ 00000000000a4a60     OpensslLib:obj_dat.obj
 0002:00008630       ??_C@_0BB@COFKDFJ@documentLocation@ 00000000000a4a70     OpensslLib:obj_dat.obj
 0002:00008648       ??_C@_0BE@CPLAKLNE@homeTelephoneNumber@ 00000000000a4a88     OpensslLib:obj_dat.obj
 0002:00008660       ??_C@_09EMBFDNKC@secretary@ 00000000000a4aa0     OpensslLib:obj_dat.obj
 0002:00008670       ??_C@_0N@CEOKELFP@otherMailbox@ 00000000000a4ab0     OpensslLib:obj_dat.obj
 0002:00008680       ??_C@_0BB@LHLABCIP@lastModifiedTime@ 00000000000a4ac0     OpensslLib:obj_dat.obj
 0002:00008698       ??_C@_0P@ECLEJAJJ@lastModifiedBy@ 00000000000a4ad8     OpensslLib:obj_dat.obj
 0002:000086a8       ??_C@_07IBNMBOJB@aRecord@  00000000000a4ae8     OpensslLib:obj_dat.obj
 0002:000086b0       ??_C@_0BF@MIIMJDJB@pilotAttributeType27@ 00000000000a4af0     OpensslLib:obj_dat.obj
 0002:000086c8       ??_C@_08DFFJPLPD@mXRecord@ 00000000000a4b08     OpensslLib:obj_dat.obj
 0002:000086d8       ??_C@_08FBLONLGA@nSRecord@ 00000000000a4b18     OpensslLib:obj_dat.obj
 0002:000086e8       ??_C@_09OCFHDJJF@sOARecord@ 00000000000a4b28     OpensslLib:obj_dat.obj
 0002:000086f8       ??_C@_0M@GHEAGPOE@cNAMERecord@ 00000000000a4b38     OpensslLib:obj_dat.obj
 0002:00008708       ??_C@_0BB@MEFMIBKO@associatedDomain@ 00000000000a4b48     OpensslLib:obj_dat.obj
 0002:00008720       ??_C@_0P@OJOOFNGB@associatedName@ 00000000000a4b60     OpensslLib:obj_dat.obj
 0002:00008730       ??_C@_0BC@NPJKACJF@homePostalAddress@ 00000000000a4b70     OpensslLib:obj_dat.obj
 0002:00008748       ??_C@_0O@CCHLDBGG@personalTitle@ 00000000000a4b88     OpensslLib:obj_dat.obj
 0002:00008758       ??_C@_0BG@DCPABLLG@mobileTelephoneNumber@ 00000000000a4b98     OpensslLib:obj_dat.obj
 0002:00008770       ??_C@_0BF@JICDDEFM@pagerTelephoneNumber@ 00000000000a4bb0     OpensslLib:obj_dat.obj
 0002:00008788       ??_C@_0BE@MGDAFGCM@friendlyCountryName@ 00000000000a4bc8     OpensslLib:obj_dat.obj
 0002:000087a0       ??_C@_0BF@IANLBJMF@organizationalStatus@ 00000000000a4be0     OpensslLib:obj_dat.obj
 0002:000087b8       ??_C@_0N@DGNBNBGJ@janetMailbox@ 00000000000a4bf8     OpensslLib:obj_dat.obj
 0002:000087c8       ??_C@_0BF@OFOHKDCI@mailPreferenceOption@ 00000000000a4c08     OpensslLib:obj_dat.obj
 0002:000087e0       ??_C@_0N@POAALOHC@buildingName@ 00000000000a4c20     OpensslLib:obj_dat.obj
 0002:000087f0       ??_C@_0L@LMCCHBHL@dSAQuality@ 00000000000a4c30     OpensslLib:obj_dat.obj
 0002:00008800       ??_C@_0BD@EHDOPADK@singleLevelQuality@ 00000000000a4c40     OpensslLib:obj_dat.obj
 0002:00008818       ??_C@_0BG@HMOECBMF@subtreeMinimumQuality@ 00000000000a4c58     OpensslLib:obj_dat.obj
 0002:00008830       ??_C@_0BG@FLFPEGPE@subtreeMaximumQuality@ 00000000000a4c70     OpensslLib:obj_dat.obj
 0002:00008848       ??_C@_0BC@CBOFINFC@personalSignature@ 00000000000a4c88     OpensslLib:obj_dat.obj
 0002:00008860       ??_C@_0M@KIABODOB@dITRedirect@ 00000000000a4ca0     OpensslLib:obj_dat.obj
 0002:0000886c       ??_C@_05KNIAAKIP@audio@    00000000000a4cac     OpensslLib:obj_dat.obj
 0002:00008878       ??_C@_0BC@KCCHJGGO@documentPublisher@ 00000000000a4cb8     OpensslLib:obj_dat.obj
 0002:00008890       ??_C@_0BF@EFCCADKK@x500UniqueIdentifier@ 00000000000a4cd0     OpensslLib:obj_dat.obj
 0002:000088a8       ??_C@_08HLONPBDI@mime?9mhs@ 00000000000a4ce8     OpensslLib:obj_dat.obj
 0002:000088b8       ??_C@_08DNBACEKK@MIME?5MHS@ 00000000000a4cf8     OpensslLib:obj_dat.obj
 0002:000088c8       ??_C@_0BC@NIFMCBEJ@mime?9mhs?9headings@ 00000000000a4d08     OpensslLib:obj_dat.obj
 0002:000088e0       ??_C@_0BA@MOFCNIEE@mime?9mhs?9bodies@ 00000000000a4d20     OpensslLib:obj_dat.obj
 0002:000088f0       ??_C@_0BH@ILCJEHBB@id?9hex?9partial?9message@ 00000000000a4d30     OpensslLib:obj_dat.obj
 0002:00008908       ??_C@_0BJ@KCNAIDP@id?9hex?9multipart?9message@ 00000000000a4d48     OpensslLib:obj_dat.obj
 0002:00008928       ??_C@_0BE@DAEHFOO@generationQualifier@ 00000000000a4d68     OpensslLib:obj_dat.obj
 0002:00008940       ??_C@_09NNMENHIH@pseudonym@ 00000000000a4d80     OpensslLib:obj_dat.obj
 0002:0000894c       ??_C@_06KKEMDFAF@id?9set@  00000000000a4d8c     OpensslLib:obj_dat.obj
 0002:00008958       ??_C@_0BP@KEIHJPNF@Secure?5Electronic?5Transactions@ 00000000000a4d98     OpensslLib:obj_dat.obj
 0002:00008978       ??_C@_09EJPBIJJA@set?9ctype@ 00000000000a4db8     OpensslLib:obj_dat.obj
 0002:00008988       ??_C@_0O@HJGLMADJ@content?5types@ 00000000000a4dc8     OpensslLib:obj_dat.obj
 0002:00008998       ??_C@_0L@PKPEIEIJ@set?9msgExt@ 00000000000a4dd8     OpensslLib:obj_dat.obj
 0002:000089a8       ??_C@_0BD@LEIDLLNO@message?5extensions@ 00000000000a4de8     OpensslLib:obj_dat.obj
 0002:000089c0       ??_C@_08OFDIOKIA@set?9attr@ 00000000000a4e00     OpensslLib:obj_dat.obj
 0002:000089d0       ??_C@_0L@LAAAKICM@set?9policy@ 00000000000a4e10     OpensslLib:obj_dat.obj
 0002:000089e0       ??_C@_0M@KEIBDDC@set?9certExt@ 00000000000a4e20     OpensslLib:obj_dat.obj
 0002:000089f0       ??_C@_0BH@PDPIEGPA@certificate?5extensions@ 00000000000a4e30     OpensslLib:obj_dat.obj
 0002:00008a08       ??_C@_09JHODGPNO@set?9brand@ 00000000000a4e48     OpensslLib:obj_dat.obj
 0002:00008a18       ??_C@_0O@EKAPGBNN@setct?9PANData@ 00000000000a4e58     OpensslLib:obj_dat.obj
 0002:00008a28       ??_C@_0P@LAMDLEMO@setct?9PANToken@ 00000000000a4e68     OpensslLib:obj_dat.obj
 0002:00008a38       ??_C@_0O@PFJCCKAL@setct?9PANOnly@ 00000000000a4e78     OpensslLib:obj_dat.obj
 0002:00008a48       ??_C@_0N@GHLAGDMC@setct?9OIData@ 00000000000a4e88     OpensslLib:obj_dat.obj
 0002:00008a58       ??_C@_08MNJJNIEC@setct?9PI@ 00000000000a4e98     OpensslLib:obj_dat.obj
 0002:00008a68       ??_C@_0N@PGCGIPOF@setct?9PIData@ 00000000000a4ea8     OpensslLib:obj_dat.obj
 0002:00008a78       ??_C@_0BF@BDFGFMFJ@setct?9PIDataUnsigned@ 00000000000a4eb8     OpensslLib:obj_dat.obj
 0002:00008a90       ??_C@_0P@LPBKKIBL@setct?9HODInput@ 00000000000a4ed0     OpensslLib:obj_dat.obj
 0002:00008aa0       ??_C@_0BF@EFHLGKOJ@setct?9AuthResBaggage@ 00000000000a4ee0     OpensslLib:obj_dat.obj
 0002:00008ab8       ??_C@_0BI@DEMAFNK@setct?9AuthRevReqBaggage@ 00000000000a4ef8     OpensslLib:obj_dat.obj
 0002:00008ad0       ??_C@_0BI@CNLKCNFM@setct?9AuthRevResBaggage@ 00000000000a4f10     OpensslLib:obj_dat.obj
 0002:00008ae8       ??_C@_0BC@DDFFKACM@setct?9CapTokenSeq@ 00000000000a4f28     OpensslLib:obj_dat.obj
 0002:00008b00       ??_C@_0BD@GIEGHJGD@setct?9PInitResData@ 00000000000a4f40     OpensslLib:obj_dat.obj
 0002:00008b18       ??_C@_0N@GIGHFPBJ@setct?9PI?9TBS@ 00000000000a4f58     OpensslLib:obj_dat.obj
 0002:00008b28       ??_C@_0P@NGDEPBBH@setct?9PResData@ 00000000000a4f68     OpensslLib:obj_dat.obj
 0002:00008b38       ??_C@_0BB@OFKINDPN@setct?9AuthReqTBS@ 00000000000a4f78     OpensslLib:obj_dat.obj
 0002:00008b50       ??_C@_0BB@JPGIIAJN@setct?9AuthResTBS@ 00000000000a4f90     OpensslLib:obj_dat.obj
 0002:00008b68       ??_C@_0BC@PMEDFACF@setct?9AuthResTBSX@ 00000000000a4fa8     OpensslLib:obj_dat.obj
 0002:00008b80       ??_C@_0BD@CLPECGHJ@setct?9AuthTokenTBS@ 00000000000a4fc0     OpensslLib:obj_dat.obj
 0002:00008b98       ??_C@_0BD@BFGEHNIL@setct?9CapTokenData@ 00000000000a4fd8     OpensslLib:obj_dat.obj
 0002:00008bb0       ??_C@_0BC@DEDCIONA@setct?9CapTokenTBS@ 00000000000a4ff0     OpensslLib:obj_dat.obj
 0002:00008bc8       ??_C@_0BF@LAOAGKEH@setct?9AcqCardCodeMsg@ 00000000000a5008     OpensslLib:obj_dat.obj
 0002:00008be0       ??_C@_0BE@KBFOOHGF@setct?9AuthRevReqTBS@ 00000000000a5020     OpensslLib:obj_dat.obj
 0002:00008bf8       ??_C@_0BF@ODDCPHOK@setct?9AuthRevResData@ 00000000000a5038     OpensslLib:obj_dat.obj
 0002:00008c10       ??_C@_0BE@NLJOLEAF@setct?9AuthRevResTBS@ 00000000000a5050     OpensslLib:obj_dat.obj
 0002:00008c28       ??_C@_0BA@KCAOGCKM@setct?9CapReqTBS@ 00000000000a5068     OpensslLib:obj_dat.obj
 0002:00008c38       ??_C@_0BB@KNKADGPN@setct?9CapReqTBSX@ 00000000000a5078     OpensslLib:obj_dat.obj
 0002:00008c50       ??_C@_0BB@BIJNNHL@setct?9CapResData@ 00000000000a5090     OpensslLib:obj_dat.obj
 0002:00008c68       ??_C@_0BD@OELDKIB@setct?9CapRevReqTBS@ 00000000000a50a8     OpensslLib:obj_dat.obj
 0002:00008c80       ??_C@_0BE@OINDCPNA@setct?9CapRevReqTBSX@ 00000000000a50c0     OpensslLib:obj_dat.obj
 0002:00008c98       ??_C@_0BE@EEPKMEFG@setct?9CapRevResData@ 00000000000a50d8     OpensslLib:obj_dat.obj
 0002:00008cb0       ??_C@_0BB@LDAMDCDI@setct?9CredReqTBS@ 00000000000a50f0     OpensslLib:obj_dat.obj
 0002:00008cc8       ??_C@_0BC@FKNDGDPA@setct?9CredReqTBSX@ 00000000000a5108     OpensslLib:obj_dat.obj
 0002:00008ce0       ??_C@_0BC@PGPKIIHG@setct?9CredResData@ 00000000000a5120     OpensslLib:obj_dat.obj
 0002:00008cf8       ??_C@_0BE@KAOEBGME@setct?9CredRevReqTBS@ 00000000000a5138     OpensslLib:obj_dat.obj
 0002:00008d10       ??_C@_0BF@OOMLDFOD@setct?9CredRevReqTBSX@ 00000000000a5150     OpensslLib:obj_dat.obj
 0002:00008d28       ??_C@_0BF@ECOCNOGF@setct?9CredRevResData@ 00000000000a5168     OpensslLib:obj_dat.obj
 0002:00008d40       ??_C@_0BD@DDNGMNFC@setct?9PCertReqData@ 00000000000a5180     OpensslLib:obj_dat.obj
 0002:00008d58       ??_C@_0BC@CFHCKIIA@setct?9PCertResTBS@ 00000000000a5198     OpensslLib:obj_dat.obj
 0002:00008d70       ??_C@_0BI@MKKDKHGI@setct?9BatchAdminReqData@ 00000000000a51b0     OpensslLib:obj_dat.obj
 0002:00008d88       ??_C@_0BI@IHGLAGGD@setct?9BatchAdminResData@ 00000000000a51c8     OpensslLib:obj_dat.obj
 0002:00008da0       ??_C@_0BG@OMHIHPPP@setct?9CardCInitResTBS@ 00000000000a51e0     OpensslLib:obj_dat.obj
 0002:00008db8       ??_C@_0BG@DIBJJIJB@setct?9MeAqCInitResTBS@ 00000000000a51f8     OpensslLib:obj_dat.obj
 0002:00008dd0       ??_C@_0BE@KOFLJLPI@setct?9RegFormResTBS@ 00000000000a5210     OpensslLib:obj_dat.obj
 0002:00008de8       ??_C@_0BC@FFENCANF@setct?9CertReqData@ 00000000000a5228     OpensslLib:obj_dat.obj
 0002:00008e00       ??_C@_0BB@MCGELGDK@setct?9CertReqTBS@ 00000000000a5240     OpensslLib:obj_dat.obj
 0002:00008e18       ??_C@_0BC@BIIFIBNO@setct?9CertResData@ 00000000000a5258     OpensslLib:obj_dat.obj
 0002:00008e30       ??_C@_0BE@OIDIJLCF@setct?9CertInqReqTBS@ 00000000000a5270     OpensslLib:obj_dat.obj
 0002:00008e48       ??_C@_0P@DLHKHMDJ@setct?9ErrorTBS@ 00000000000a5288     OpensslLib:obj_dat.obj
 0002:00008e58       ??_C@_0BG@JDDNBPAG@setct?9PIDualSignedTBE@ 00000000000a5298     OpensslLib:obj_dat.obj
 0002:00008e70       ??_C@_0BE@IBOAPLDD@setct?9PIUnsignedTBE@ 00000000000a52b0     OpensslLib:obj_dat.obj
 0002:00008e88       ??_C@_0BB@PJDAGGCK@setct?9AuthReqTBE@ 00000000000a52c8     OpensslLib:obj_dat.obj
 0002:00008ea0       ??_C@_0BB@IDPADFEK@setct?9AuthResTBE@ 00000000000a52e0     OpensslLib:obj_dat.obj
 0002:00008eb8       ??_C@_0BC@OEOIIPOH@setct?9AuthResTBEX@ 00000000000a52f8     OpensslLib:obj_dat.obj
 0002:00008ed0       ??_C@_0BD@DHGMJDKO@setct?9AuthTokenTBE@ 00000000000a5310     OpensslLib:obj_dat.obj
 0002:00008ee8       ??_C@_0BC@CIKKDLAH@setct?9CapTokenTBE@ 00000000000a5328     OpensslLib:obj_dat.obj
 0002:00008f00       ??_C@_0BD@OMCOOIME@setct?9CapTokenTBEX@ 00000000000a5340     OpensslLib:obj_dat.obj
 0002:00008f18       ??_C@_0BI@PALCIALL@setct?9AcqCardCodeMsgTBE@ 00000000000a5358     OpensslLib:obj_dat.obj
 0002:00008f30       ??_C@_0BE@LNMGFCLC@setct?9AuthRevReqTBE@ 00000000000a5370     OpensslLib:obj_dat.obj
 0002:00008f48       ??_C@_0BE@MHAGABNC@setct?9AuthRevResTBE@ 00000000000a5388     OpensslLib:obj_dat.obj
 0002:00008f60       ??_C@_0BF@KKFFJIHO@setct?9AuthRevResTBEB@ 00000000000a53a0     OpensslLib:obj_dat.obj
 0002:00008f78       ??_C@_0BA@LOJGNHHL@setct?9CapReqTBE@ 00000000000a53b8     OpensslLib:obj_dat.obj
 0002:00008f88       ??_C@_0BB@LFALOJDP@setct?9CapReqTBEX@ 00000000000a53c8     OpensslLib:obj_dat.obj
 0002:00008fa0       ??_C@_0BA@MEFGIEBL@setct?9CapResTBE@ 00000000000a53e0     OpensslLib:obj_dat.obj
 0002:00008fb0       ??_C@_0BD@BCNDIPFG@setct?9CapRevReqTBE@ 00000000000a53f0     OpensslLib:obj_dat.obj
 0002:00008fc8       ??_C@_0BE@PAHIPABC@setct?9CapRevReqTBEX@ 00000000000a5408     OpensslLib:obj_dat.obj
 0002:00008fe0       ??_C@_0BD@GIBDNMDG@setct?9CapRevResTBE@ 00000000000a5420     OpensslLib:obj_dat.obj
 0002:00008ff8       ??_C@_0BB@KPJEIHOP@setct?9CredReqTBE@ 00000000000a5438     OpensslLib:obj_dat.obj
 0002:00009010       ??_C@_0BC@ECHILMDC@setct?9CredReqTBEX@ 00000000000a5450     OpensslLib:obj_dat.obj
 0002:00009028       ??_C@_0BB@NFFENEIP@setct?9CredResTBE@ 00000000000a5468     OpensslLib:obj_dat.obj
 0002:00009040       ??_C@_0BE@LMHMKDBD@setct?9CredRevReqTBE@ 00000000000a5480     OpensslLib:obj_dat.obj
 0002:00009058       ??_C@_0BF@PGGAOKCB@setct?9CredRevReqTBEX@ 00000000000a5498     OpensslLib:obj_dat.obj
 0002:00009070       ??_C@_0BE@MGLMPAHD@setct?9CredRevResTBE@ 00000000000a54b0     OpensslLib:obj_dat.obj
 0002:00009088       ??_C@_0BH@IPJPBLKL@setct?9BatchAdminReqTBE@ 00000000000a54c8     OpensslLib:obj_dat.obj
 0002:000090a0       ??_C@_0BH@PFFPEIML@setct?9BatchAdminResTBE@ 00000000000a54e0     OpensslLib:obj_dat.obj
 0002:000090b8       ??_C@_0BE@MIADHNEP@setct?9RegFormReqTBE@ 00000000000a54f8     OpensslLib:obj_dat.obj
 0002:000090d0       ??_C@_0BB@NOPMADON@setct?9CertReqTBE@ 00000000000a5510     OpensslLib:obj_dat.obj
 0002:000090e8       ??_C@_0BC@KMAHLFJK@setct?9CertReqTBEX@ 00000000000a5528     OpensslLib:obj_dat.obj
 0002:00009100       ??_C@_0BB@KEDMFAIN@setct?9CertResTBE@ 00000000000a5540     OpensslLib:obj_dat.obj
 0002:00009118       ??_C@_0BJ@KMIJGANO@setct?9CRLNotificationTBS@ 00000000000a5558     OpensslLib:obj_dat.obj
 0002:00009138       ??_C@_0BM@GINBKIMJ@setct?9CRLNotificationResTBS@ 00000000000a5578     OpensslLib:obj_dat.obj
 0002:00009158       ??_C@_0BJ@BPGLEKIJ@setct?9BCIDistributionTBS@ 00000000000a5598     OpensslLib:obj_dat.obj
 0002:00009178       ??_C@_0BA@NKJJMGPC@setext?9genCrypt@ 00000000000a55b8     OpensslLib:obj_dat.obj
 0002:00009188       ??_C@_0BD@IMJHIOH@generic?5cryptogram@ 00000000000a55c8     OpensslLib:obj_dat.obj
 0002:000091a0       ??_C@_0O@IFMPKKOL@setext?9miAuth@ 00000000000a55e0     OpensslLib:obj_dat.obj
 0002:000091b0       ??_C@_0BI@IMGNFPLI@merchant?5initiated?5auth@ 00000000000a55f0     OpensslLib:obj_dat.obj
 0002:000091c8       ??_C@_0BB@IKLFBNP@setext?9pinSecure@ 00000000000a5608     OpensslLib:obj_dat.obj
 0002:000091e0       ??_C@_0O@PNHGIFHA@setext?9pinAny@ 00000000000a5620     OpensslLib:obj_dat.obj
 0002:000091f0       ??_C@_0O@PNAFPHHK@setext?9track2@ 00000000000a5630     OpensslLib:obj_dat.obj
 0002:00009200       ??_C@_09GMOEIEJI@setext?9cv@ 00000000000a5640     OpensslLib:obj_dat.obj
 0002:00009210       ??_C@_0BI@MFPOFNGC@additional?5verification@ 00000000000a5650     OpensslLib:obj_dat.obj
 0002:00009228       ??_C@_0BA@DLJGCPKK@set?9policy?9root@ 00000000000a5668     OpensslLib:obj_dat.obj
 0002:00009238       ??_C@_0BD@MELPLACB@setCext?9hashedRoot@ 00000000000a5678     OpensslLib:obj_dat.obj
 0002:00009250       ??_C@_0BB@LHGCHNFD@setCext?9certType@ 00000000000a5690     OpensslLib:obj_dat.obj
 0002:00009268       ??_C@_0BC@ONMLOIHK@setCext?9merchData@ 00000000000a56a8     OpensslLib:obj_dat.obj
 0002:00009280       ??_C@_0BG@CMNKGOHO@setCext?9cCertRequired@ 00000000000a56c0     OpensslLib:obj_dat.obj
 0002:00009298       ??_C@_0BC@BPADJLFJ@setCext?9tunneling@ 00000000000a56d8     OpensslLib:obj_dat.obj
 0002:000092b0       ??_C@_0P@DFHCPLJG@setCext?9setExt@ 00000000000a56f0     OpensslLib:obj_dat.obj
 0002:000092c0       ??_C@_0BB@HIAOOOIO@setCext?9setQualf@ 00000000000a5700     OpensslLib:obj_dat.obj
 0002:000092d8       ??_C@_0BJ@CNLNHONG@setCext?9PGWYcapabilities@ 00000000000a5718     OpensslLib:obj_dat.obj
 0002:000092f8       ??_C@_0BI@FIIEHNL@setCext?9TokenIdentifier@ 00000000000a5738     OpensslLib:obj_dat.obj
 0002:00009310       ??_C@_0BD@FHFLAKJD@setCext?9Track2Data@ 00000000000a5750     OpensslLib:obj_dat.obj
 0002:00009328       ??_C@_0BC@KMFGLCBL@setCext?9TokenType@ 00000000000a5768     OpensslLib:obj_dat.obj
 0002:00009340       ??_C@_0BL@OLCLGJDA@setCext?9IssuerCapabilities@ 00000000000a5780     OpensslLib:obj_dat.obj
 0002:00009360       ??_C@_0N@DCNKAAPN@setAttr?9Cert@ 00000000000a57a0     OpensslLib:obj_dat.obj
 0002:00009370       ??_C@_0BA@FAIFDKDK@setAttr?9PGWYcap@ 00000000000a57b0     OpensslLib:obj_dat.obj
 0002:00009380       ??_C@_0BN@HEFBDPEB@payment?5gateway?5capabilities@ 00000000000a57c0     OpensslLib:obj_dat.obj
 0002:000093a0       ??_C@_0BC@IKOKMCIL@setAttr?9TokenType@ 00000000000a57e0     OpensslLib:obj_dat.obj
 0002:000093b8       ??_C@_0P@OGFLCCKL@setAttr?9IssCap@ 00000000000a57f8     OpensslLib:obj_dat.obj
 0002:000093c8       ??_C@_0BE@HBDPGKCG@issuer?5capabilities@ 00000000000a5808     OpensslLib:obj_dat.obj
 0002:000093e0       ??_C@_0BB@MADMNAKK@set?9rootKeyThumb@ 00000000000a5820     OpensslLib:obj_dat.obj
 0002:000093f8       ??_C@_0O@NOCONBCM@set?9addPolicy@ 00000000000a5838     OpensslLib:obj_dat.obj
 0002:00009408       ??_C@_0BC@BMANBENP@setAttr?9Token?9EMV@ 00000000000a5848     OpensslLib:obj_dat.obj
 0002:00009420       ??_C@_0BG@ICNBHDJ@setAttr?9Token?9B0Prime@ 00000000000a5860     OpensslLib:obj_dat.obj
 0002:00009438       ??_C@_0BD@CMJDLAHE@setAttr?9IssCap?9CVM@ 00000000000a5878     OpensslLib:obj_dat.obj
 0002:00009450       ??_C@_0BC@FKLLNJMF@setAttr?9IssCap?9T2@ 00000000000a5890     OpensslLib:obj_dat.obj
 0002:00009468       ??_C@_0BD@DMNGIJGO@setAttr?9IssCap?9Sig@ 00000000000a58a8     OpensslLib:obj_dat.obj
 0002:00009480       ??_C@_0BE@FJCINFHM@setAttr?9GenCryptgrm@ 00000000000a58c0     OpensslLib:obj_dat.obj
 0002:00009498       ??_C@_0BE@BANBLNDJ@generate?5cryptogram@ 00000000000a58d8     OpensslLib:obj_dat.obj
 0002:000094b0       ??_C@_0O@GFEDKLID@setAttr?9T2Enc@ 00000000000a58f0     OpensslLib:obj_dat.obj
 0002:000094c0       ??_C@_0BC@MCHFBPJF@encrypted?5track?52@ 00000000000a5900     OpensslLib:obj_dat.obj
 0002:000094d8       ??_C@_0BD@GDDCOMNC@setAttr?9T2cleartxt@ 00000000000a5918     OpensslLib:obj_dat.obj
 0002:000094f0       ??_C@_0BC@EEELFHMJ@cleartext?5track?52@ 00000000000a5930     OpensslLib:obj_dat.obj
 0002:00009508       ??_C@_0BC@KFHJNGAA@setAttr?9TokICCsig@ 00000000000a5948     OpensslLib:obj_dat.obj
 0002:00009520       ??_C@_0BH@FLMFBHA@ICC?5or?5token?5signature@ 00000000000a5960     OpensslLib:obj_dat.obj
 0002:00009538       ??_C@_0BC@HILPEDHB@setAttr?9SecDevSig@ 00000000000a5978     OpensslLib:obj_dat.obj
 0002:00009550       ??_C@_0BI@BMDLNIII@secure?5device?5signature@ 00000000000a5990     OpensslLib:obj_dat.obj
 0002:00009568       ??_C@_0BD@EBDAHFCK@set?9brand?9IATA?9ATA@ 00000000000a59a8     OpensslLib:obj_dat.obj
 0002:00009580       ??_C@_0BB@MJOMIBOM@set?9brand?9Diners@ 00000000000a59c0     OpensslLib:obj_dat.obj
 0002:00009598       ??_C@_0BK@NGHCPIFJ@set?9brand?9AmericanExpress@ 00000000000a59d8     OpensslLib:obj_dat.obj
 0002:000095b8       ??_C@_0O@ODFDKJIN@set?9brand?9JCB@ 00000000000a59f8     OpensslLib:obj_dat.obj
 0002:000095c8       ??_C@_0P@KADKEMKM@set?9brand?9Visa@ 00000000000a5a08     OpensslLib:obj_dat.obj
 0002:000095d8       ??_C@_0BF@EKCBHCKG@set?9brand?9MasterCard@ 00000000000a5a18     OpensslLib:obj_dat.obj
 0002:000095f0       ??_C@_0BA@JHOGHBHC@set?9brand?9Novus@ 00000000000a5a30     OpensslLib:obj_dat.obj
 0002:00009600       ??_C@_08IHLOILPC@DES?9CDMF@ 00000000000a5a40     OpensslLib:obj_dat.obj
 0002:00009610       ??_C@_08PPLOLAOD@des?9cdmf@ 00000000000a5a50     OpensslLib:obj_dat.obj
 0002:00009620       ??_C@_0BF@EIIDBKMM@rsaOAEPEncryptionSET@ 00000000000a5a60     OpensslLib:obj_dat.obj
 0002:00009638       ??_C@_05LJGINOIA@ITU?9T@   00000000000a5a78     OpensslLib:obj_dat.obj
 0002:00009640       ??_C@_05EKLDHPCO@itu?9t@   00000000000a5a80     OpensslLib:obj_dat.obj
 0002:00009648       ??_C@_0BA@NPJCPIN@JOINT?9ISO?9ITU?9T@ 00000000000a5a88     OpensslLib:obj_dat.obj
 0002:00009658       ??_C@_0BA@DDCJMADA@joint?9iso?9itu?9t@ 00000000000a5a98     OpensslLib:obj_dat.obj
 0002:00009668       ??_C@_0BM@PBBEOBAP@international?9organizations@ 00000000000a5aa8     OpensslLib:obj_dat.obj
 0002:00009688       ??_C@_0BM@PGMBEIHL@International?5Organizations@ 00000000000a5ac8     OpensslLib:obj_dat.obj
 0002:000096a8       ??_C@_0BB@MJPMDGHF@msSmartcardLogin@ 00000000000a5ae8     OpensslLib:obj_dat.obj
 0002:000096c0       ??_C@_0BK@BJLJNHIE@Microsoft?5Smartcard?5Login@ 00000000000a5b00     OpensslLib:obj_dat.obj
 0002:000096dc       ??_C@_05LKLAGLGM@msUPN@    00000000000a5b1c     OpensslLib:obj_dat.obj
 0002:000096e8       ??_C@_0BO@NJMDLJHK@Microsoft?5User?5Principal?5Name@ 00000000000a5b28     OpensslLib:obj_dat.obj
 0002:00009708       ??_C@_0N@KJNMAENO@AES?9128?9CFB1@ 00000000000a5b48     OpensslLib:obj_dat.obj
 0002:00009718       ??_C@_0N@NNLBNNNO@aes?9128?9cfb1@ 00000000000a5b58     OpensslLib:obj_dat.obj
 0002:00009728       ??_C@_0N@FAMGEHMG@AES?9192?9CFB1@ 00000000000a5b68     OpensslLib:obj_dat.obj
 0002:00009738       ??_C@_0N@CEKLJOMG@aes?9192?9cfb1@ 00000000000a5b78     OpensslLib:obj_dat.obj
 0002:00009748       ??_C@_0N@MKKLEKFP@AES?9256?9CFB1@ 00000000000a5b88     OpensslLib:obj_dat.obj
 0002:00009758       ??_C@_0N@LOMGJDFP@aes?9256?9cfb1@ 00000000000a5b98     OpensslLib:obj_dat.obj
 0002:00009768       ??_C@_0N@HIBOLPJH@AES?9128?9CFB8@ 00000000000a5ba8     OpensslLib:obj_dat.obj
 0002:00009778       ??_C@_0N@MHDGGJH@aes?9128?9cfb8@ 00000000000a5bb8     OpensslLib:obj_dat.obj
 0002:00009788       ??_C@_0N@IBAEPMIP@AES?9192?9CFB8@ 00000000000a5bc8     OpensslLib:obj_dat.obj
 0002:00009798       ??_C@_0N@PFGJCFIP@aes?9192?9cfb8@ 00000000000a5bd8     OpensslLib:obj_dat.obj
 0002:000097a8       ??_C@_0N@BLGJPBBG@AES?9256?9CFB8@ 00000000000a5be8     OpensslLib:obj_dat.obj
 0002:000097b8       ??_C@_0N@GPAECIBG@aes?9256?9cfb8@ 00000000000a5bf8     OpensslLib:obj_dat.obj
 0002:000097c8       ??_C@_08EGJFOLHF@DES?9CFB1@ 00000000000a5c08     OpensslLib:obj_dat.obj
 0002:000097d8       ??_C@_08KLBBPEMG@des?9cfb1@ 00000000000a5c18     OpensslLib:obj_dat.obj
 0002:000097e8       ??_C@_08JHFHFADM@DES?9CFB8@ 00000000000a5c28     OpensslLib:obj_dat.obj
 0002:000097f8       ??_C@_08HKNDEPIP@des?9cfb8@ 00000000000a5c38     OpensslLib:obj_dat.obj
 0002:00009808       ??_C@_0O@HMFIBGGD@DES?9EDE3?9CFB1@ 00000000000a5c48     OpensslLib:obj_dat.obj
 0002:00009818       ??_C@_0O@HHBHNLEJ@des?9ede3?9cfb1@ 00000000000a5c58     OpensslLib:obj_dat.obj
 0002:00009828       ??_C@_0O@KNJKKNCK@DES?9EDE3?9CFB8@ 00000000000a5c68     OpensslLib:obj_dat.obj
 0002:00009838       ??_C@_0O@KGNFGAAA@des?9ede3?9cfb8@ 00000000000a5c78     OpensslLib:obj_dat.obj
 0002:00009848       ??_C@_06KFAFKEEH@street@   00000000000a5c88     OpensslLib:obj_dat.obj
 0002:00009850       ??_C@_0O@GFJANBCD@streetAddress@ 00000000000a5c90     OpensslLib:obj_dat.obj
 0002:00009860       ??_C@_0L@NCDHJCMF@postalCode@ 00000000000a5ca0     OpensslLib:obj_dat.obj
 0002:0000986c       ??_C@_06CAAPGDCJ@id?9ppl@  00000000000a5cac     OpensslLib:obj_dat.obj
 0002:00009878       ??_C@_0O@LOINHHBF@proxyCertInfo@ 00000000000a5cb8     OpensslLib:obj_dat.obj
 0002:00009888       ??_C@_0BO@CCHFGBDO@Proxy?5Certificate?5Information@ 00000000000a5cc8     OpensslLib:obj_dat.obj
 0002:000098a8       ??_C@_0BD@HNCKDFAM@id?9ppl?9anyLanguage@ 00000000000a5ce8     OpensslLib:obj_dat.obj
 0002:000098c0       ??_C@_0N@BEBFEGLC@Any?5language@ 00000000000a5d00     OpensslLib:obj_dat.obj
 0002:000098d0       ??_C@_0BC@PCEJIIF@id?9ppl?9inheritAll@ 00000000000a5d10     OpensslLib:obj_dat.obj
 0002:000098e8       ??_C@_0M@FFLAPACB@Inherit?5all@ 00000000000a5d28     OpensslLib:obj_dat.obj
 0002:000098f8       ??_C@_0BA@NDBMPGLN@nameConstraints@ 00000000000a5d38     OpensslLib:obj_dat.obj
 0002:00009908       ??_C@_0BI@MLJLAGL@X509v3?5Name?5Constraints@ 00000000000a5d48     OpensslLib:obj_dat.obj
 0002:00009920       ??_C@_0BD@JMNHHICP@id?9ppl?9independent@ 00000000000a5d60     OpensslLib:obj_dat.obj
 0002:00009938       ??_C@_0M@MLMKHJLC@Independent@ 00000000000a5d78     OpensslLib:obj_dat.obj
 0002:00009948       ??_C@_0L@CICIPLII@RSA?9SHA256@ 00000000000a5d88     OpensslLib:obj_dat.obj
 0002:00009958       ??_C@_0BI@OLMNBFHG@sha256WithRSAEncryption@ 00000000000a5d98     OpensslLib:obj_dat.obj
 0002:00009970       ??_C@_0L@KKHKGNDM@RSA?9SHA384@ 00000000000a5db0     OpensslLib:obj_dat.obj
 0002:00009980       ??_C@_0BI@LGPCJGLE@sha384WithRSAEncryption@ 00000000000a5dc0     OpensslLib:obj_dat.obj
 0002:00009998       ??_C@_0L@NGJKKOOJ@RSA?9SHA512@ 00000000000a5dd8     OpensslLib:obj_dat.obj
 0002:000099a8       ??_C@_0BI@CFKPHFJF@sha512WithRSAEncryption@ 00000000000a5de8     OpensslLib:obj_dat.obj
 0002:000099c0       ??_C@_0L@BPFBIPIP@RSA?9SHA224@ 00000000000a5e00     OpensslLib:obj_dat.obj
 0002:000099d0       ??_C@_0BI@HODNLFBE@sha224WithRSAEncryption@ 00000000000a5e10     OpensslLib:obj_dat.obj
 0002:000099e8       ??_C@_06OHILPNJ@sha256@    00000000000a5e28     OpensslLib:obj_dat.obj
 0002:000099f0       ??_C@_06IMCKCJGN@sha384@   00000000000a5e30     OpensslLib:obj_dat.obj
 0002:000099f8       ??_C@_06PJBKPJBG@SHA512@   00000000000a5e38     OpensslLib:obj_dat.obj
 0002:00009a00       ??_C@_06PAMKOKLI@sha512@   00000000000a5e40     OpensslLib:obj_dat.obj
 0002:00009a08       ??_C@_06DANBNIHA@SHA224@   00000000000a5e48     OpensslLib:obj_dat.obj
 0002:00009a10       ??_C@_06DJABMLNO@sha224@   00000000000a5e50     OpensslLib:obj_dat.obj
 0002:00009a18       ??_C@_0BI@NDBFOMIA@identified?9organization@ 00000000000a5e58     OpensslLib:obj_dat.obj
 0002:00009a30       ??_C@_0N@GOPBJFID@certicom?9arc@ 00000000000a5e70     OpensslLib:obj_dat.obj
 0002:00009a40       ??_C@_03EOHJGACH@wap@      00000000000a5e80     OpensslLib:obj_dat.obj
 0002:00009a48       ??_C@_07KJBJKKHG@wap?9wsg@ 00000000000a5e88     OpensslLib:obj_dat.obj
 0002:00009a50       ??_C@_0BM@PPOCDOAJ@id?9characteristic?9two?9basis@ 00000000000a5e90     OpensslLib:obj_dat.obj
 0002:00009a70       ??_C@_07JEMDIFEL@onBasis@  00000000000a5eb0     OpensslLib:obj_dat.obj
 0002:00009a78       ??_C@_07ICPDEPKF@tpBasis@  00000000000a5eb8     OpensslLib:obj_dat.obj
 0002:00009a80       ??_C@_07GLJEBFP@ppBasis@   00000000000a5ec0     OpensslLib:obj_dat.obj
 0002:00009a88       ??_C@_0L@INFLBNIO@c2pnb163v1@ 00000000000a5ec8     OpensslLib:obj_dat.obj
 0002:00009a98       ??_C@_0L@KGHGEOEN@c2pnb163v2@ 00000000000a5ed8     OpensslLib:obj_dat.obj
 0002:00009aa8       ??_C@_0L@LPGNHPAM@c2pnb163v3@ 00000000000a5ee8     OpensslLib:obj_dat.obj
 0002:00009ab8       ??_C@_0L@IHOFMEAM@c2pnb176v1@ 00000000000a5ef8     OpensslLib:obj_dat.obj
 0002:00009ac8       ??_C@_0L@PIOOBDNI@c2tnb191v1@ 00000000000a5f08     OpensslLib:obj_dat.obj
 0002:00009ad8       ??_C@_0L@NDMDEABL@c2tnb191v2@ 00000000000a5f18     OpensslLib:obj_dat.obj
 0002:00009ae8       ??_C@_0L@MKNIHBFK@c2tnb191v3@ 00000000000a5f28     OpensslLib:obj_dat.obj
 0002:00009af8       ??_C@_0L@KLAMDLDB@c2onb191v4@ 00000000000a5f38     OpensslLib:obj_dat.obj
 0002:00009b08       ??_C@_0L@LCBHAKHA@c2onb191v5@ 00000000000a5f48     OpensslLib:obj_dat.obj
 0002:00009b18       ??_C@_0L@FCEMHHLG@c2pnb208w1@ 00000000000a5f58     OpensslLib:obj_dat.obj
 0002:00009b28       ??_C@_0L@PBHOFBDI@c2tnb239v1@ 00000000000a5f68     OpensslLib:obj_dat.obj
 0002:00009b38       ??_C@_0L@NKFDACPL@c2tnb239v2@ 00000000000a5f78     OpensslLib:obj_dat.obj
 0002:00009b48       ??_C@_0L@MDEIDDLK@c2tnb239v3@ 00000000000a5f88     OpensslLib:obj_dat.obj
 0002:00009b58       ??_C@_0L@KCJMHJNB@c2onb239v4@ 00000000000a5f98     OpensslLib:obj_dat.obj
 0002:00009b68       ??_C@_0L@LLIHEIJA@c2onb239v5@ 00000000000a5fa8     OpensslLib:obj_dat.obj
 0002:00009b78       ??_C@_0L@IPNBELMC@c2pnb272w1@ 00000000000a5fb8     OpensslLib:obj_dat.obj
 0002:00009b88       ??_C@_0L@NDMGBLKL@c2pnb304w1@ 00000000000a5fc8     OpensslLib:obj_dat.obj
 0002:00009b98       ??_C@_0L@LFGCHHDN@c2tnb359v1@ 00000000000a5fd8     OpensslLib:obj_dat.obj
 0002:00009ba8       ??_C@_0L@BGFAFBLD@c2pnb368w1@ 00000000000a5fe8     OpensslLib:obj_dat.obj
 0002:00009bb8       ??_C@_0L@OFJKDCBG@c2tnb431r1@ 00000000000a5ff8     OpensslLib:obj_dat.obj
 0002:00009bc8       ??_C@_09DNJONEBC@secp112r1@ 00000000000a6008     OpensslLib:obj_dat.obj
 0002:00009bd8       ??_C@_09BGLDIHNB@secp112r2@ 00000000000a6018     OpensslLib:obj_dat.obj
 0002:00009be8       ??_C@_09BFIDEOKG@secp128r1@ 00000000000a6028     OpensslLib:obj_dat.obj
 0002:00009bf8       ??_C@_09DOKOBNGF@secp128r2@ 00000000000a6038     OpensslLib:obj_dat.obj
 0002:00009c08       ??_C@_09DGEAFIHG@secp160k1@ 00000000000a6048     OpensslLib:obj_dat.obj
 0002:00009c18       ??_C@_09CFLHMAIJ@secp160r1@ 00000000000a6058     OpensslLib:obj_dat.obj
 0002:00009c28       ??_C@_09OJKJDEK@secp160r2@ 00000000000a6068     OpensslLib:obj_dat.obj
 0002:00009c38       ??_C@_09BOBJAHCM@secp192k1@ 00000000000a6078     OpensslLib:obj_dat.obj
 0002:00009c48       ??_C@_09MKDGBLEP@secp224k1@ 00000000000a6088     OpensslLib:obj_dat.obj
 0002:00009c58       ??_C@_09NJMBIDLA@secp224r1@ 00000000000a6098     OpensslLib:obj_dat.obj
 0002:00009c68       ??_C@_09NCBPAPNE@secp256k1@ 00000000000a60a8     OpensslLib:obj_dat.obj
 0002:00009c78       ??_C@_09FICNEILE@secp384r1@ 00000000000a60b8     OpensslLib:obj_dat.obj
 0002:00009c88       ??_C@_09PDBKEDDK@secp521r1@ 00000000000a60c8     OpensslLib:obj_dat.obj
 0002:00009c98       ??_C@_09HBGNJHGE@sect113r1@ 00000000000a60d8     OpensslLib:obj_dat.obj
 0002:00009ca8       ??_C@_09FKEAMEKH@sect113r2@ 00000000000a60e8     OpensslLib:obj_dat.obj
 0002:00009cb8       ??_C@_09KBKEAMIP@sect131r1@ 00000000000a60f8     OpensslLib:obj_dat.obj
 0002:00009cc8       ??_C@_09IKIJFPEM@sect131r2@ 00000000000a6108     OpensslLib:obj_dat.obj
 0002:00009cd8       ??_C@_09NALKNDIL@sect163k1@ 00000000000a6118     OpensslLib:obj_dat.obj
 0002:00009ce8       ??_C@_09MDENELHE@sect163r1@ 00000000000a6128     OpensslLib:obj_dat.obj
 0002:00009cf8       ??_C@_09OIGABILH@sect163r2@ 00000000000a6138     OpensslLib:obj_dat.obj
 0002:00009d08       ??_C@_09EBBNNMKF@sect193r1@ 00000000000a6148     OpensslLib:obj_dat.obj
 0002:00009d18       ??_C@_09GKDAIPGG@sect193r2@ 00000000000a6158     OpensslLib:obj_dat.obj
 0002:00009d28       ??_C@_09JOMOCOFF@sect233k1@ 00000000000a6168     OpensslLib:obj_dat.obj
 0002:00009d38       ??_C@_09INDJLGKK@sect233r1@ 00000000000a6178     OpensslLib:obj_dat.obj
 0002:00009d48       ??_C@_09PBHDMODB@sect239k1@ 00000000000a6188     OpensslLib:obj_dat.obj
 0002:00009d58       ??_C@_09OJBOBPEE@sect283k1@ 00000000000a6198     OpensslLib:obj_dat.obj
 0002:00009d68       ??_C@_09PKOJIHLL@sect283r1@ 00000000000a61a8     OpensslLib:obj_dat.obj
 0002:00009d78       ??_C@_09GAIKFHPM@sect409k1@ 00000000000a61b8     OpensslLib:obj_dat.obj
 0002:00009d88       ??_C@_09HDHNMPAD@sect409r1@ 00000000000a61c8     OpensslLib:obj_dat.obj
 0002:00009d98       ??_C@_09NMECHAKG@sect571k1@ 00000000000a61d8     OpensslLib:obj_dat.obj
 0002:00009da8       ??_C@_09MPLFOIFJ@sect571r1@ 00000000000a61e8     OpensslLib:obj_dat.obj
 0002:00009db8       ??_C@_0BH@PEHFMMHF@wap?9wsg?9idm?9ecid?9wtls1@ 00000000000a61f8     OpensslLib:obj_dat.obj
 0002:00009dd0       ??_C@_0BH@MGEDKOPH@wap?9wsg?9idm?9ecid?9wtls3@ 00000000000a6210     OpensslLib:obj_dat.obj
 0002:00009de8       ??_C@_0BH@IJACDIDA@wap?9wsg?9idm?9ecid?9wtls4@ 00000000000a6228     OpensslLib:obj_dat.obj
 0002:00009e00       ??_C@_0BH@JABJAJHB@wap?9wsg?9idm?9ecid?9wtls5@ 00000000000a6240     OpensslLib:obj_dat.obj
 0002:00009e18       ??_C@_0BH@LLDEFKLC@wap?9wsg?9idm?9ecid?9wtls6@ 00000000000a6258     OpensslLib:obj_dat.obj
 0002:00009e30       ??_C@_0BH@KCCPGLPD@wap?9wsg?9idm?9ecid?9wtls7@ 00000000000a6270     OpensslLib:obj_dat.obj
 0002:00009e48       ??_C@_0BH@CFLHHHDM@wap?9wsg?9idm?9ecid?9wtls8@ 00000000000a6288     OpensslLib:obj_dat.obj
 0002:00009e60       ??_C@_0BH@DMKMEGHN@wap?9wsg?9idm?9ecid?9wtls9@ 00000000000a62a0     OpensslLib:obj_dat.obj
 0002:00009e78       ??_C@_0BI@PPNNMGIM@wap?9wsg?9idm?9ecid?9wtls10@ 00000000000a62b8     OpensslLib:obj_dat.obj
 0002:00009e90       ??_C@_0BI@OGMGPHMN@wap?9wsg?9idm?9ecid?9wtls11@ 00000000000a62d0     OpensslLib:obj_dat.obj
 0002:00009ea8       ??_C@_0BI@MNOLKEAO@wap?9wsg?9idm?9ecid?9wtls12@ 00000000000a62e8     OpensslLib:obj_dat.obj
 0002:00009ec0       ??_C@_09HBBJOJHB@anyPolicy@ 00000000000a6300     OpensslLib:obj_dat.obj
 0002:00009ed0       ??_C@_0BC@CEEMIAHF@X509v3?5Any?5Policy@ 00000000000a6310     OpensslLib:obj_dat.obj
 0002:00009ee8       ??_C@_0P@MEGGINDP@policyMappings@ 00000000000a6328     OpensslLib:obj_dat.obj
 0002:00009ef8       ??_C@_0BH@NJBPACCN@X509v3?5Policy?5Mappings@ 00000000000a6338     OpensslLib:obj_dat.obj
 0002:00009f10       ??_C@_0BB@CFCCDKGF@inhibitAnyPolicy@ 00000000000a6350     OpensslLib:obj_dat.obj
 0002:00009f28       ??_C@_0BK@FPAAFIAO@X509v3?5Inhibit?5Any?5Policy@ 00000000000a6368     OpensslLib:obj_dat.obj
 0002:00009f48       ??_C@_0O@BLJEJBFH@Oakley?9EC2N?93@ 00000000000a6388     OpensslLib:obj_dat.obj
 0002:00009f58       ??_C@_06HLOPKJBB@ipsec3@   00000000000a6398     OpensslLib:obj_dat.obj
 0002:00009f60       ??_C@_0O@FENFAHJA@Oakley?9EC2N?94@ 00000000000a63a0     OpensslLib:obj_dat.obj
 0002:00009f70       ??_C@_06DEKODPNG@ipsec4@   00000000000a63b0     OpensslLib:obj_dat.obj
 0002:00009f78       ??_C@_0BB@HAKAAAMD@CAMELLIA?9128?9CBC@ 00000000000a63b8     OpensslLib:obj_dat.obj
 0002:00009f90       ??_C@_0BB@GDOINOHE@camellia?9128?9cbc@ 00000000000a63d0     OpensslLib:obj_dat.obj
 0002:00009fa8       ??_C@_0BB@NDDMHHFP@CAMELLIA?9192?9CBC@ 00000000000a63e8     OpensslLib:obj_dat.obj
 0002:00009fc0       ??_C@_0BB@MAHEKJOI@camellia?9192?9cbc@ 00000000000a6400     OpensslLib:obj_dat.obj
 0002:00009fd8       ??_C@_0BB@BICFINO@CAMELLIA?9256?9CBC@ 00000000000a6418     OpensslLib:obj_dat.obj
 0002:00009ff0       ??_C@_0BB@BCMKIGGJ@camellia?9256?9cbc@ 00000000000a6430     OpensslLib:obj_dat.obj
 0002:0000a008       ??_C@_0BB@ENBCAEGJ@CAMELLIA?9128?9ECB@ 00000000000a6448     OpensslLib:obj_dat.obj
 0002:0000a020       ??_C@_0BB@FOFKNKNO@camellia?9128?9ecb@ 00000000000a6460     OpensslLib:obj_dat.obj
 0002:0000a038       ??_C@_0BB@OOIOHDPF@CAMELLIA?9192?9ECB@ 00000000000a6478     OpensslLib:obj_dat.obj
 0002:0000a050       ??_C@_0BB@PNMGKNEC@camellia?9192?9ecb@ 00000000000a6490     OpensslLib:obj_dat.obj
 0002:0000a068       ??_C@_0BB@DMDAFMHE@CAMELLIA?9256?9ECB@ 00000000000a64a8     OpensslLib:obj_dat.obj
 0002:0000a080       ??_C@_0BB@CPHIICMD@camellia?9256?9ecb@ 00000000000a64c0     OpensslLib:obj_dat.obj
 0002:0000a098       ??_C@_0BB@GOLCJJFO@CAMELLIA?9128?9CFB@ 00000000000a64d8     OpensslLib:obj_dat.obj
 0002:0000a0b0       ??_C@_0BB@HNPKEHOJ@camellia?9128?9cfb@ 00000000000a64f0     OpensslLib:obj_dat.obj
 0002:0000a0c8       ??_C@_0BB@MNCOOOMC@CAMELLIA?9192?9CFB@ 00000000000a6508     OpensslLib:obj_dat.obj
 0002:0000a0e0       ??_C@_0BB@NOGGDAHF@camellia?9192?9cfb@ 00000000000a6520     OpensslLib:obj_dat.obj
 0002:0000a0f8       ??_C@_0BB@BPJAMBED@CAMELLIA?9256?9CFB@ 00000000000a6538     OpensslLib:obj_dat.obj
 0002:0000a110       ??_C@_0BB@MNIBPPE@camellia?9256?9cfb@ 00000000000a6550     OpensslLib:obj_dat.obj
 0002:0000a128       ??_C@_0BC@EKOAMJNI@CAMELLIA?9128?9CFB1@ 00000000000a6568     OpensslLib:obj_dat.obj
 0002:0000a140       ??_C@_0BC@BPPGKHCJ@camellia?9128?9cfb1@ 00000000000a6580     OpensslLib:obj_dat.obj
 0002:0000a158       ??_C@_0BC@LDPKIKMA@CAMELLIA?9192?9CFB1@ 00000000000a6598     OpensslLib:obj_dat.obj
 0002:0000a170       ??_C@_0BC@OGOMOEDB@camellia?9192?9cfb1@ 00000000000a65b0     OpensslLib:obj_dat.obj
 0002:0000a188       ??_C@_0BC@CJJHIHFJ@CAMELLIA?9256?9CFB1@ 00000000000a65c8     OpensslLib:obj_dat.obj
 0002:0000a1a0       ??_C@_0BC@HMIBOJKI@camellia?9256?9cfb1@ 00000000000a65e0     OpensslLib:obj_dat.obj
 0002:0000a1b8       ??_C@_0BC@JLCCHCJB@CAMELLIA?9128?9CFB8@ 00000000000a65f8     OpensslLib:obj_dat.obj
 0002:0000a1d0       ??_C@_0BC@MODEBMGA@camellia?9128?9cfb8@ 00000000000a6610     OpensslLib:obj_dat.obj
 0002:0000a1e8       ??_C@_0BC@GCDIDBIJ@CAMELLIA?9192?9CFB8@ 00000000000a6628     OpensslLib:obj_dat.obj
 0002:0000a200       ??_C@_0BC@DHCOFPHI@camellia?9192?9cfb8@ 00000000000a6640     OpensslLib:obj_dat.obj
 0002:0000a218       ??_C@_0BC@PIFFDMBA@CAMELLIA?9256?9CFB8@ 00000000000a6658     OpensslLib:obj_dat.obj
 0002:0000a230       ??_C@_0BC@KNEDFCOB@camellia?9256?9cfb8@ 00000000000a6670     OpensslLib:obj_dat.obj
 0002:0000a248       ??_C@_0BB@CEGECGOG@CAMELLIA?9128?9OFB@ 00000000000a6688     OpensslLib:obj_dat.obj
 0002:0000a260       ??_C@_0BB@DHCMPIFB@camellia?9128?9ofb@ 00000000000a66a0     OpensslLib:obj_dat.obj
 0002:0000a278       ??_C@_0BB@IHPIFBHK@CAMELLIA?9192?9OFB@ 00000000000a66b8     OpensslLib:obj_dat.obj
 0002:0000a290       ??_C@_0BB@JELAIPMN@camellia?9192?9ofb@ 00000000000a66d0     OpensslLib:obj_dat.obj
 0002:0000a2a8       ??_C@_0BB@FFEGHOPL@CAMELLIA?9256?9OFB@ 00000000000a66e8     OpensslLib:obj_dat.obj
 0002:0000a2c0       ??_C@_0BB@EGAOKAEM@camellia?9256?9ofb@ 00000000000a6700     OpensslLib:obj_dat.obj
 0002:0000a2d8       ??_C@_0BL@GAJEKNCJ@subjectDirectoryAttributes@ 00000000000a6718     OpensslLib:obj_dat.obj
 0002:0000a2f8       ??_C@_0CE@OGGDDHCK@X509v3?5Subject?5Directory?5Attrib@ 00000000000a6738     OpensslLib:obj_dat.obj
 0002:0000a320       ??_C@_0BJ@OAOPOBMH@issuingDistributionPoint@ 00000000000a6760     OpensslLib:obj_dat.obj
 0002:0000a340       ??_C@_0CC@IAMHILJN@X509v3?5Issuing?5Distribution?5Poi@ 00000000000a6780     OpensslLib:obj_dat.obj
 0002:0000a368       ??_C@_0BC@NAJGKAHO@certificateIssuer@ 00000000000a67a8     OpensslLib:obj_dat.obj
 0002:0000a380       ??_C@_0BK@EMNEMCDI@X509v3?5Certificate?5Issuer@ 00000000000a67c0     OpensslLib:obj_dat.obj
 0002:0000a39c       ??_C@_04HHHKJIKA@KISA@     00000000000a67dc     OpensslLib:obj_dat.obj
 0002:0000a3a4       ??_C@_04LLEAHKNI@kisa@     00000000000a67e4     OpensslLib:obj_dat.obj
 0002:0000a3b0       ??_C@_08JEKGBFGL@SEED?9ECB@ 00000000000a67f0     OpensslLib:obj_dat.obj
 0002:0000a3c0       ??_C@_08CKMLAEEI@seed?9ecb@ 00000000000a6800     OpensslLib:obj_dat.obj
 0002:0000a3d0       ??_C@_08KJBEBBMB@SEED?9CBC@ 00000000000a6810     OpensslLib:obj_dat.obj
 0002:0000a3e0       ??_C@_08BHHJAAOC@seed?9cbc@ 00000000000a6820     OpensslLib:obj_dat.obj
 0002:0000a3f0       ??_C@_08PNNADHOE@SEED?9OFB@ 00000000000a6830     OpensslLib:obj_dat.obj
 0002:0000a400       ??_C@_08EDLNCGMH@seed?9ofb@ 00000000000a6840     OpensslLib:obj_dat.obj
 0002:0000a410       ??_C@_08LHAGIIFM@SEED?9CFB@ 00000000000a6850     OpensslLib:obj_dat.obj
 0002:0000a420       ??_C@_08JGLJJHP@seed?9cfb@ 00000000000a6860     OpensslLib:obj_dat.obj
 0002:0000a430       ??_C@_08CABJBHIC@HMAC?9MD5@ 00000000000a6870     OpensslLib:obj_dat.obj
 0002:0000a440       ??_C@_08LPACCAD@hmac?9md5@ 00000000000a6880     OpensslLib:obj_dat.obj
 0002:0000a450       ??_C@_09DDFKKHO@HMAC?9SHA1@ 00000000000a6890     OpensslLib:obj_dat.obj
 0002:0000a460       ??_C@_09KBOMLGBN@hmac?9sha1@ 00000000000a68a0     OpensslLib:obj_dat.obj
 0002:0000a470       ??_C@_0BE@HCNFOMHA@id?9PasswordBasedMAC@ 00000000000a68b0     OpensslLib:obj_dat.obj
 0002:0000a488       ??_C@_0BD@FANJCJAP@password?5based?5MAC@ 00000000000a68c8     OpensslLib:obj_dat.obj
 0002:0000a4a0       ??_C@_0O@MEHCKGFD@id?9DHBasedMac@ 00000000000a68e0     OpensslLib:obj_dat.obj
 0002:0000a4b0       ??_C@_0BJ@CDGIGDFG@Diffie?9Hellman?5based?5MAC@ 00000000000a68f0     OpensslLib:obj_dat.obj
 0002:0000a4d0       ??_C@_0BD@MGCOMIO@id?9it?9suppLangTags@ 00000000000a6910     OpensslLib:obj_dat.obj
 0002:0000a4e8       ??_C@_0N@CKNFLOGG@caRepository@ 00000000000a6928     OpensslLib:obj_dat.obj
 0002:0000a4f8       ??_C@_0O@LBCGFGCI@CA?5Repository@ 00000000000a6938     OpensslLib:obj_dat.obj
 0002:0000a508       ??_C@_0BL@HEJKLKLL@id?9smime?9ct?9compressedData@ 00000000000a6948     OpensslLib:obj_dat.obj
 0002:0000a528       ??_C@_0BI@FNBGJEPL@id?9ct?9asciiTextWithCRLF@ 00000000000a6968     OpensslLib:obj_dat.obj
 0002:0000a540       ??_C@_0P@MALLFAMO@id?9aes128?9wrap@ 00000000000a6980     OpensslLib:obj_dat.obj
 0002:0000a550       ??_C@_0P@DJKBBDNG@id?9aes192?9wrap@ 00000000000a6990     OpensslLib:obj_dat.obj
 0002:0000a560       ??_C@_0P@KDMMBOEP@id?9aes256?9wrap@ 00000000000a69a0     OpensslLib:obj_dat.obj
 0002:0000a570       ??_C@_0BH@GCJALNKM@ecdsa?9with?9Recommended@ 00000000000a69b0     OpensslLib:obj_dat.obj
 0002:0000a588       ??_C@_0BF@INFCLNHO@ecdsa?9with?9Specified@ 00000000000a69c8     OpensslLib:obj_dat.obj
 0002:0000a5a0       ??_C@_0BC@PHBIOIGA@ecdsa?9with?9SHA224@ 00000000000a69e0     OpensslLib:obj_dat.obj
 0002:0000a5b8       ??_C@_0BC@MAGBJMGH@ecdsa?9with?9SHA256@ 00000000000a69f8     OpensslLib:obj_dat.obj
 0002:0000a5d0       ??_C@_0BC@ECDDAKND@ecdsa?9with?9SHA384@ 00000000000a6a10     OpensslLib:obj_dat.obj
 0002:0000a5e8       ??_C@_0BC@DONDMJAG@ecdsa?9with?9SHA512@ 00000000000a6a28     OpensslLib:obj_dat.obj
 0002:0000a600       ??_C@_0M@KOBPMNIO@hmacWithMD5@ 00000000000a6a40     OpensslLib:obj_dat.obj
 0002:0000a610       ??_C@_0P@JCGBABBG@hmacWithSHA224@ 00000000000a6a50     OpensslLib:obj_dat.obj
 0002:0000a620       ??_C@_0P@KFBIHFBB@hmacWithSHA256@ 00000000000a6a60     OpensslLib:obj_dat.obj
 0002:0000a630       ??_C@_0P@CHEKODKF@hmacWithSHA384@ 00000000000a6a70     OpensslLib:obj_dat.obj
 0002:0000a640       ??_C@_0P@FLKKCAHA@hmacWithSHA512@ 00000000000a6a80     OpensslLib:obj_dat.obj
 0002:0000a650       ??_C@_0BA@GLCLJGGH@dsa_with_SHA224@ 00000000000a6a90     OpensslLib:obj_dat.obj
 0002:0000a660       ??_C@_0BA@FMFCOCGA@dsa_with_SHA256@ 00000000000a6aa0     OpensslLib:obj_dat.obj
 0002:0000a670       ??_C@_09DEGKDAEL@whirlpool@ 00000000000a6ab0     OpensslLib:obj_dat.obj
 0002:0000a680       ??_C@_09PCHJFNLI@cryptopro@ 00000000000a6ac0     OpensslLib:obj_dat.obj
 0002:0000a690       ??_C@_09JGBNPHGI@cryptocom@ 00000000000a6ad0     OpensslLib:obj_dat.obj
 0002:0000a6a0       ??_C@_0CE@FCAOBIOC@id?9GostR3411?994?9with?9GostR3410?9@ 00000000000a6ae0     OpensslLib:obj_dat.obj
 0002:0000a6c8       ??_C@_0CH@MPKKPBGC@GOST?5R?534?411?994?5with?5GOST?5R?534?4@ 00000000000a6b08     OpensslLib:obj_dat.obj
 0002:0000a6f0       ??_C@_0CC@LCAPGDKC@id?9GostR3411?994?9with?9GostR3410?9@ 00000000000a6b30     OpensslLib:obj_dat.obj
 0002:0000a718       ??_C@_0CF@PAGBHGOC@GOST?5R?534?411?994?5with?5GOST?5R?534?4@ 00000000000a6b58     OpensslLib:obj_dat.obj
 0002:0000a740       ??_C@_09MIOJGGFD@md_gost94@ 00000000000a6b80     OpensslLib:obj_dat.obj
 0002:0000a750       ??_C@_0BA@KDEBPBMN@GOST?5R?534?411?994@ 00000000000a6b90     OpensslLib:obj_dat.obj
 0002:0000a760       ??_C@_0BE@EBBOKDGI@id?9HMACGostR3411?994@ 00000000000a6ba0     OpensslLib:obj_dat.obj
 0002:0000a778       ??_C@_0BD@BHKLGKNG@HMAC?5GOST?534?411?994@ 00000000000a6bb8     OpensslLib:obj_dat.obj
 0002:0000a790       ??_C@_0BC@IBNIHBI@GOST?5R?534?410?92001@ 00000000000a6bd0     OpensslLib:obj_dat.obj
 0002:0000a7a4       ??_C@_06BPJPGPFJ@gost94@   00000000000a6be4     OpensslLib:obj_dat.obj
 0002:0000a7b0       ??_C@_0BA@JOCBNIHN@GOST?5R?534?410?994@ 00000000000a6bf0     OpensslLib:obj_dat.obj
 0002:0000a7c0       ??_C@_06KLPDHLCD@gost89@   00000000000a6c00     OpensslLib:obj_dat.obj
 0002:0000a7c8       ??_C@_0O@POKHNLDL@GOST?528147?989@ 00000000000a6c08     OpensslLib:obj_dat.obj
 0002:0000a7d8       ??_C@_0L@INGOKGPP@gost89?9cnt@ 00000000000a6c18     OpensslLib:obj_dat.obj
 0002:0000a7e8       ??_C@_0BC@BPAGAEJB@GOST?528147?989?5MAC@ 00000000000a6c28     OpensslLib:obj_dat.obj
 0002:0000a800       ??_C@_0BB@LJIINAAP@prf?9gostr3411?994@ 00000000000a6c40     OpensslLib:obj_dat.obj
 0002:0000a818       ??_C@_0BE@FFELJBNB@GOST?5R?534?411?994?5PRF@ 00000000000a6c58     OpensslLib:obj_dat.obj
 0002:0000a830       ??_C@_0BE@OBKEJCJB@id?9GostR3410?92001DH@ 00000000000a6c70     OpensslLib:obj_dat.obj
 0002:0000a848       ??_C@_0BF@OKPANPLK@GOST?5R?534?410?92001?5DH@ 00000000000a6c88     OpensslLib:obj_dat.obj
 0002:0000a860       ??_C@_0BC@CEMDDFNK@id?9GostR3410?994DH@ 00000000000a6ca0     OpensslLib:obj_dat.obj
 0002:0000a878       ??_C@_0BD@LGKAOLPL@GOST?5R?534?410?994?5DH@ 00000000000a6cb8     OpensslLib:obj_dat.obj
 0002:0000a890       ??_C@_0CF@MMKONEIK@id?9Gost28147?989?9CryptoPro?9KeyMe@ 00000000000a6cd0     OpensslLib:obj_dat.obj
 0002:0000a8b8       ??_C@_0CA@BLJAEGEG@id?9Gost28147?989?9None?9KeyMeshing@ 00000000000a6cf8     OpensslLib:obj_dat.obj
 0002:0000a8d8       ??_C@_0BN@DPLCCDOE@id?9GostR3411?994?9TestParamSet@ 00000000000a6d18     OpensslLib:obj_dat.obj
 0002:0000a8f8       ??_C@_0CC@DOHJLMBI@id?9GostR3411?994?9CryptoProParamS@ 00000000000a6d38     OpensslLib:obj_dat.obj
 0002:0000a920       ??_C@_0BN@GKJFBLMI@id?9Gost28147?989?9TestParamSet@ 00000000000a6d60     OpensslLib:obj_dat.obj
 0002:0000a940       ??_C@_0CF@PFEMLAKN@id?9Gost28147?989?9CryptoPro?9A?9Par@ 00000000000a6d80     OpensslLib:obj_dat.obj
 0002:0000a968       ??_C@_0CF@GMKONGKM@id?9Gost28147?989?9CryptoPro?9B?9Par@ 00000000000a6da8     OpensslLib:obj_dat.obj
 0002:0000a990       ??_C@_0CF@KNCAAJGM@id?9Gost28147?989?9CryptoPro?9C?9Par@ 00000000000a6dd0     OpensslLib:obj_dat.obj
 0002:0000a9b8       ??_C@_0CF@IEBLBMOP@id?9Gost28147?989?9CryptoPro?9D?9Par@ 00000000000a6df8     OpensslLib:obj_dat.obj
 0002:0000a9e0       ??_C@_0CN@EJBNJDBM@id?9Gost28147?989?9CryptoPro?9Oscar@ 00000000000a6e20     OpensslLib:obj_dat.obj
 0002:0000aa10       ??_C@_0CN@IIJDEMNM@id?9Gost28147?989?9CryptoPro?9Oscar@ 00000000000a6e50     OpensslLib:obj_dat.obj
 0002:0000aa40       ??_C@_0CJ@IIADIAJH@id?9Gost28147?989?9CryptoPro?9RIC?91@ 00000000000a6e80     OpensslLib:obj_dat.obj
 0002:0000aa70       ??_C@_0BN@NAOAJFAF@id?9GostR3410?994?9TestParamSet@ 00000000000a6eb0     OpensslLib:obj_dat.obj
 0002:0000aa90       ??_C@_0CF@MNFOPPCD@id?9GostR3410?994?9CryptoPro?9A?9Par@ 00000000000a6ed0     OpensslLib:obj_dat.obj
 0002:0000aab8       ??_C@_0CF@FELMJJCC@id?9GostR3410?994?9CryptoPro?9B?9Par@ 00000000000a6ef8     OpensslLib:obj_dat.obj
 0002:0000aae0       ??_C@_0CF@JFDCEGOC@id?9GostR3410?994?9CryptoPro?9C?9Par@ 00000000000a6f20     OpensslLib:obj_dat.obj
 0002:0000ab08       ??_C@_0CF@LMAJFDGB@id?9GostR3410?994?9CryptoPro?9D?9Par@ 00000000000a6f48     OpensslLib:obj_dat.obj
 0002:0000ab30       ??_C@_0CI@FLGMGEEM@id?9GostR3410?994?9CryptoPro?9XchA?9@ 00000000000a6f70     OpensslLib:obj_dat.obj
 0002:0000ab58       ??_C@_0CI@MCIOACEN@id?9GostR3410?994?9CryptoPro?9XchB?9@ 00000000000a6f98     OpensslLib:obj_dat.obj
 0002:0000ab80       ??_C@_0CI@DAANNIN@id?9GostR3410?994?9CryptoPro?9XchC?9@ 00000000000a6fc0     OpensslLib:obj_dat.obj
 0002:0000aba8       ??_C@_0BP@GEEJLPDI@id?9GostR3410?92001?9TestParamSet@ 00000000000a6fe8     OpensslLib:obj_dat.obj
 0002:0000abc8       ??_C@_0CH@GDAPDBKP@id?9GostR3410?92001?9CryptoPro?9A?9P@ 00000000000a7008     OpensslLib:obj_dat.obj
 0002:0000abf0       ??_C@_0CH@PKONFHKO@id?9GostR3410?92001?9CryptoPro?9B?9P@ 00000000000a7030     OpensslLib:obj_dat.obj
 0002:0000ac18       ??_C@_0CH@DLGDIIGO@id?9GostR3410?92001?9CryptoPro?9C?9P@ 00000000000a7058     OpensslLib:obj_dat.obj
 0002:0000ac40       ??_C@_0CK@PKFGBNKE@id?9GostR3410?92001?9CryptoPro?9Xch@ 00000000000a7080     OpensslLib:obj_dat.obj
 0002:0000ac70       ??_C@_0CK@GDLEHLKF@id?9GostR3410?92001?9CryptoPro?9Xch@ 00000000000a70b0     OpensslLib:obj_dat.obj
 0002:0000aca0       ??_C@_0BC@CHIDFKJO@id?9GostR3410?994?9a@ 00000000000a70e0     OpensslLib:obj_dat.obj
 0002:0000acb8       ??_C@_0BF@LBGBLILF@id?9GostR3410?994?9aBis@ 00000000000a70f8     OpensslLib:obj_dat.obj
 0002:0000acd0       ??_C@_0BC@MKOAJFN@id?9GostR3410?994?9b@ 00000000000a7110     OpensslLib:obj_dat.obj
 0002:0000ace8       ??_C@_0BF@PGMBMCGF@id?9GostR3410?994?9bBis@ 00000000000a7128     OpensslLib:obj_dat.obj
 0002:0000ad00       ??_C@_0BD@MEAAKKFJ@id?9Gost28147?989?9cc@ 00000000000a7140     OpensslLib:obj_dat.obj
 0002:0000ad18       ??_C@_0CB@KNOPDNHN@GOST?528147?989?5Cryptocom?5ParamSe@ 00000000000a7158     OpensslLib:obj_dat.obj
 0002:0000ad40       ??_C@_08LCDFMIFG@gost94cc@ 00000000000a7180     OpensslLib:obj_dat.obj
 0002:0000ad50       ??_C@_0BI@GJIILMEB@GOST?534?410?994?5Cryptocom@ 00000000000a7190     OpensslLib:obj_dat.obj
 0002:0000ad68       ??_C@_0L@PKDOCLKG@gost2001cc@ 00000000000a71a8     OpensslLib:obj_dat.obj
 0002:0000ad78       ??_C@_0BK@IGCJADLM@GOST?534?410?92001?5Cryptocom@ 00000000000a71b8     OpensslLib:obj_dat.obj
 0002:0000ad98       ??_C@_0CF@FCIKJGLH@id?9GostR3411?994?9with?9GostR3410?9@ 00000000000a71d8     OpensslLib:obj_dat.obj
 0002:0000adc0       ??_C@_0CP@ILDIBBAJ@GOST?5R?534?411?994?5with?5GOST?5R?534?4@ 00000000000a7200     OpensslLib:obj_dat.obj
 0002:0000adf0       ??_C@_0CH@JJNMILDM@id?9GostR3411?994?9with?9GostR3410?9@ 00000000000a7230     OpensslLib:obj_dat.obj
 0002:0000ae18       ??_C@_0DB@BGOOPLFE@GOST?5R?534?411?994?5with?5GOST?5R?534?4@ 00000000000a7258     OpensslLib:obj_dat.obj
 0002:0000ae50       ??_C@_0BO@LBPHKLOM@id?9GostR3410?92001?9ParamSet?9cc@ 00000000000a7290     OpensslLib:obj_dat.obj
 0002:0000ae70       ??_C@_0CJ@NCCJHEBD@GOST?5R?53410?92001?5Parameter?5Set?5@ 00000000000a72b0     OpensslLib:obj_dat.obj
 0002:0000ae9c       ??_C@_04JCCMGALL@HMAC@     00000000000a72dc     OpensslLib:obj_dat.obj
 0002:0000aea4       ??_C@_04FOBGICMD@hmac@     00000000000a72e4     OpensslLib:obj_dat.obj
 0002:0000aeb0       ??_C@_0M@LCODBGNO@LocalKeySet@ 00000000000a72f0     OpensslLib:obj_dat.obj
 0002:0000aec0       ??_C@_0BI@FMFOLFMC@Microsoft?5Local?5Key?5set@ 00000000000a7300     OpensslLib:obj_dat.obj
 0002:0000aed8       ??_C@_0M@PKNKMHEG@freshestCRL@ 00000000000a7318     OpensslLib:obj_dat.obj
 0002:0000aee8       ??_C@_0BE@KEJIKEFG@X509v3?5Freshest?5CRL@ 00000000000a7328     OpensslLib:obj_dat.obj
 0002:0000af00       ??_C@_0BK@BMFCOPIC@id?9on?9permanentIdentifier@ 00000000000a7340     OpensslLib:obj_dat.obj
 0002:0000af20       ??_C@_0BF@DGGAJJCO@Permanent?5Identifier@ 00000000000a7360     OpensslLib:obj_dat.obj
 0002:0000af38       ??_C@_0M@MCCFGANF@searchGuide@ 00000000000a7378     OpensslLib:obj_dat.obj
 0002:0000af48       ??_C@_0BB@GFJJGHBI@businessCategory@ 00000000000a7388     OpensslLib:obj_dat.obj
 0002:0000af60       ??_C@_0O@KABBPKPG@postalAddress@ 00000000000a73a0     OpensslLib:obj_dat.obj
 0002:0000af70       ??_C@_0O@PCCHCGPG@postOfficeBox@ 00000000000a73b0     OpensslLib:obj_dat.obj
 0002:0000af80       ??_C@_0BL@DENBGONK@physicalDeliveryOfficeName@ 00000000000a73c0     OpensslLib:obj_dat.obj
 0002:0000afa0       ??_C@_0BA@NCAGJGBF@telephoneNumber@ 00000000000a73e0     OpensslLib:obj_dat.obj
 0002:0000afb0       ??_C@_0M@MMDMBPMM@telexNumber@ 00000000000a73f0     OpensslLib:obj_dat.obj
 0002:0000afc0       ??_C@_0BK@BBNEJJDC@teletexTerminalIdentifier@ 00000000000a7400     OpensslLib:obj_dat.obj
 0002:0000afe0       ??_C@_0BJ@NDMMBDAB@facsimileTelephoneNumber@ 00000000000a7420     OpensslLib:obj_dat.obj
 0002:0000b000       ??_C@_0M@MOCAHDLJ@x121Address@ 00000000000a7440     OpensslLib:obj_dat.obj
 0002:0000b010       ??_C@_0BI@OAHCBLEE@internationaliSDNNumber@ 00000000000a7450     OpensslLib:obj_dat.obj
 0002:0000b028       ??_C@_0BC@DLLOJDNE@registeredAddress@ 00000000000a7468     OpensslLib:obj_dat.obj
 0002:0000b040       ??_C@_0BF@CMAFNEOO@destinationIndicator@ 00000000000a7480     OpensslLib:obj_dat.obj
 0002:0000b058       ??_C@_0BI@MKMMOKIA@preferredDeliveryMethod@ 00000000000a7498     OpensslLib:obj_dat.obj
 0002:0000b070       ??_C@_0BE@KHACCONJ@presentationAddress@ 00000000000a74b0     OpensslLib:obj_dat.obj
 0002:0000b088       ??_C@_0BM@NHJFOGBI@supportedApplicationContext@ 00000000000a74c8     OpensslLib:obj_dat.obj
 0002:0000b0a4       ??_C@_06HDFDANIG@member@   00000000000a74e4     OpensslLib:obj_dat.obj
 0002:0000b0ac       ??_C@_05HEIBENID@owner@    00000000000a74ec     OpensslLib:obj_dat.obj
 0002:0000b0b8       ??_C@_0N@NAEJMDPF@roleOccupant@ 00000000000a74f8     OpensslLib:obj_dat.obj
 0002:0000b0c8       ??_C@_07JJAENDGN@seeAlso@  00000000000a7508     OpensslLib:obj_dat.obj
 0002:0000b0d0       ??_C@_0N@JHMNNHKM@userPassword@ 00000000000a7510     OpensslLib:obj_dat.obj
 0002:0000b0e0       ??_C@_0BA@FEECIELF@userCertificate@ 00000000000a7520     OpensslLib:obj_dat.obj
 0002:0000b0f0       ??_C@_0O@JJCNKCKK@cACertificate@ 00000000000a7530     OpensslLib:obj_dat.obj
 0002:0000b100       ??_C@_0BI@EODAEBFG@authorityRevocationList@ 00000000000a7540     OpensslLib:obj_dat.obj
 0002:0000b118       ??_C@_0BK@IMFDMOND@certificateRevocationList@ 00000000000a7558     OpensslLib:obj_dat.obj
 0002:0000b138       ??_C@_0BF@GAAPBDAE@crossCertificatePair@ 00000000000a7578     OpensslLib:obj_dat.obj
 0002:0000b150       ??_C@_0BE@NNAGLFEM@enhancedSearchGuide@ 00000000000a7590     OpensslLib:obj_dat.obj
 0002:0000b168       ??_C@_0BE@FKAMNJMM@protocolInformation@ 00000000000a75a8     OpensslLib:obj_dat.obj
 0002:0000b180       ??_C@_0BC@IIJOGNNH@distinguishedName@ 00000000000a75c0     OpensslLib:obj_dat.obj
 0002:0000b198       ??_C@_0N@FIGDLDDJ@uniqueMember@ 00000000000a75d8     OpensslLib:obj_dat.obj
 0002:0000b1a8       ??_C@_0BA@EKKIBBF@houseIdentifier@ 00000000000a75e8     OpensslLib:obj_dat.obj
 0002:0000b1b8       ??_C@_0BE@KGOGIPEN@supportedAlgorithms@ 00000000000a75f8     OpensslLib:obj_dat.obj
 0002:0000b1d0       ??_C@_0BE@MNOFELKF@deltaRevocationList@ 00000000000a7610     OpensslLib:obj_dat.obj
 0002:0000b1e8       ??_C@_07ILKEFPGB@dmdName@  00000000000a7628     OpensslLib:obj_dat.obj
 0002:0000b1f0       ??_C@_0BA@NJOHMDIG@id?9alg?9PWRI?9KEK@ 00000000000a7630     OpensslLib:obj_dat.obj
 0002:0000b200       ??_C@_04OFPMFBKK@CMAC@     00000000000a7640     OpensslLib:obj_dat.obj
 0002:0000b208       ??_C@_04CJMGLDNC@cmac@     00000000000a7648     OpensslLib:obj_dat.obj
 0002:0000b210       ??_C@_0O@LNIKAOOL@id?9aes128?9GCM@ 00000000000a7650     OpensslLib:obj_dat.obj
 0002:0000b220       ??_C@_0M@ODEOFOCG@aes?9128?9gcm@ 00000000000a7660     OpensslLib:obj_dat.obj
 0002:0000b230       ??_C@_0O@DCOIJJLM@id?9aes128?9CCM@ 00000000000a7670     OpensslLib:obj_dat.obj
 0002:0000b240       ??_C@_0M@GMCMMJHB@aes?9128?9ccm@ 00000000000a7680     OpensslLib:obj_dat.obj
 0002:0000b250       ??_C@_0BD@HMJBEGNL@id?9aes128?9wrap?9pad@ 00000000000a7690     OpensslLib:obj_dat.obj
 0002:0000b268       ??_C@_0O@BOBGHJHH@id?9aes192?9GCM@ 00000000000a76a8     OpensslLib:obj_dat.obj
 0002:0000b278       ??_C@_0M@EANCCJLK@aes?9192?9gcm@ 00000000000a76b8     OpensslLib:obj_dat.obj
 0002:0000b288       ??_C@_0O@JBHEOOCA@id?9aes192?9CCM@ 00000000000a76c8     OpensslLib:obj_dat.obj
 0002:0000b298       ??_C@_0M@MPLALOON@aes?9192?9ccm@ 00000000000a76d8     OpensslLib:obj_dat.obj
 0002:0000b2a8       ??_C@_0BD@OPKMLKFB@id?9aes192?9wrap?9pad@ 00000000000a76e8     OpensslLib:obj_dat.obj
 0002:0000b2c0       ??_C@_0O@MMKIFGPG@id?9aes256?9GCM@ 00000000000a7700     OpensslLib:obj_dat.obj
 0002:0000b2d0       ??_C@_0M@JCGMAGDL@aes?9256?9gcm@ 00000000000a7710     OpensslLib:obj_dat.obj
 0002:0000b2e0       ??_C@_0O@EDMKMBKB@id?9aes256?9CCM@ 00000000000a7720     OpensslLib:obj_dat.obj
 0002:0000b2f0       ??_C@_0M@BNAOJBGM@aes?9256?9ccm@ 00000000000a7730     OpensslLib:obj_dat.obj
 0002:0000b300       ??_C@_0BD@OHLFOIJM@id?9aes256?9wrap?9pad@ 00000000000a7740     OpensslLib:obj_dat.obj
 0002:0000b318       ??_C@_0M@GEBEOIJJ@AES?9128?9CTR@ 00000000000a7758     OpensslLib:obj_dat.obj
 0002:0000b328       ??_C@_0M@LIBPHCBK@aes?9128?9ctr@ 00000000000a7768     OpensslLib:obj_dat.obj
 0002:0000b338       ??_C@_0M@MHIIJPAF@AES?9192?9CTR@ 00000000000a7778     OpensslLib:obj_dat.obj
 0002:0000b348       ??_C@_0M@BLIDAFIG@aes?9192?9ctr@ 00000000000a7788     OpensslLib:obj_dat.obj
 0002:0000b358       ??_C@_0M@BFDGLAIE@AES?9256?9CTR@ 00000000000a7798     OpensslLib:obj_dat.obj
 0002:0000b368       ??_C@_0M@MJDNCKAH@aes?9256?9ctr@ 00000000000a77a8     OpensslLib:obj_dat.obj
 0002:0000b378       ??_C@_0BE@JENMCLBD@id?9camellia128?9wrap@ 00000000000a77b8     OpensslLib:obj_dat.obj
 0002:0000b390       ??_C@_0BE@GNMGGIAL@id?9camellia192?9wrap@ 00000000000a77d0     OpensslLib:obj_dat.obj
 0002:0000b3a8       ??_C@_0BE@PHKLGFJC@id?9camellia256?9wrap@ 00000000000a77e8     OpensslLib:obj_dat.obj
 0002:0000b3c0       ??_C@_0BE@FKFLDMON@anyExtendedKeyUsage@ 00000000000a7800     OpensslLib:obj_dat.obj
 0002:0000b3d8       ??_C@_0BH@FHBOBBKO@Any?5Extended?5Key?5Usage@ 00000000000a7818     OpensslLib:obj_dat.obj
 0002:0000b3f0       ??_C@_04CNDHACFO@MGF1@     00000000000a7830     OpensslLib:obj_dat.obj
 0002:0000b3f8       ??_C@_04HEIJMEIE@mgf1@     00000000000a7838     OpensslLib:obj_dat.obj
 0002:0000b400       ??_C@_0L@CPMAKEFG@RSASSA?9PSS@ 00000000000a7840     OpensslLib:obj_dat.obj
 0002:0000b410       ??_C@_09FGGKIFKD@rsassaPss@ 00000000000a7850     OpensslLib:obj_dat.obj
 0002:0000b420       ??_C@_0M@PKBHAJEG@AES?9128?9XTS@ 00000000000a7860     OpensslLib:obj_dat.obj
 0002:0000b430       ??_C@_0M@CGBMJDMF@aes?9128?9xts@ 00000000000a7870     OpensslLib:obj_dat.obj
 0002:0000b440       ??_C@_0M@ILDFFBFL@AES?9256?9XTS@ 00000000000a7880     OpensslLib:obj_dat.obj
 0002:0000b450       ??_C@_0M@FHDOMLNI@aes?9256?9xts@ 00000000000a7890     OpensslLib:obj_dat.obj
 0002:0000b460       ??_C@_0N@EFPJLHOG@rc4?9hmac?9md5@ 00000000000a78a0     OpensslLib:obj_dat.obj
 0002:0000b470       ??_C@_0BG@CLBGODOC@aes?9128?9cbc?9hmac?9sha1@ 00000000000a78b0     OpensslLib:obj_dat.obj
 0002:0000b488       ??_C@_0BG@KLHGFOHC@AES?9192?9CBC?9HMAC?9SHA1@ 00000000000a78c8     OpensslLib:obj_dat.obj
 0002:0000b4a0       ??_C@_0BG@GKCPENNE@aes?9192?9cbc?9hmac?9sha1@ 00000000000a78e0     OpensslLib:obj_dat.obj
 0002:0000b4b8       ??_C@_0BG@MBIALEGA@aes?9256?9cbc?9hmac?9sha1@ 00000000000a78f8     OpensslLib:obj_dat.obj
 0002:0000b4d0       ??_C@_0L@NCPDMLAN@RSAES?9OAEP@ 00000000000a7910     OpensslLib:obj_dat.obj
 0002:0000b4e0       ??_C@_09FHIEKOPH@rsaesOaep@ 00000000000a7920     OpensslLib:obj_dat.obj
 0002:0000b4f0       ??_C@_0P@BHMOKJEG@dhpublicnumber@ 00000000000a7930     OpensslLib:obj_dat.obj
 0002:0000b500       ??_C@_08HOHHODNK@X9?442?5DH@ 00000000000a7940     OpensslLib:obj_dat.obj
 0002:0000b510       ??_C@_0BA@CDGJLDLH@brainpoolP160r1@ 00000000000a7950     OpensslLib:obj_dat.obj
 0002:0000b520       ??_C@_0BA@CHOEMPAF@brainpoolP160t1@ 00000000000a7960     OpensslLib:obj_dat.obj
 0002:0000b530       ??_C@_0BA@LDAOMON@brainpoolP192r1@ 00000000000a7970     OpensslLib:obj_dat.obj
 0002:0000b540       ??_C@_0BA@PLNJAFP@brainpoolP192t1@ 00000000000a7980     OpensslLib:obj_dat.obj
 0002:0000b550       ??_C@_0BA@NPBPPAIO@brainpoolP224r1@ 00000000000a7990     OpensslLib:obj_dat.obj
 0002:0000b560       ??_C@_0BA@NLJCIMDM@brainpoolP224t1@ 00000000000a79a0     OpensslLib:obj_dat.obj
 0002:0000b570       ??_C@_0BA@MHDGOEBF@brainpoolP256r1@ 00000000000a79b0     OpensslLib:obj_dat.obj
 0002:0000b580       ??_C@_0BA@MDLLJIKH@brainpoolP256t1@ 00000000000a79c0     OpensslLib:obj_dat.obj
 0002:0000b590       ??_C@_0BA@JLCBLEHM@brainpoolP320r1@ 00000000000a79d0     OpensslLib:obj_dat.obj
 0002:0000b5a0       ??_C@_0BA@JPKMMIMO@brainpoolP320t1@ 00000000000a79e0     OpensslLib:obj_dat.obj
 0002:0000b5b0       ??_C@_0BA@FOPDDLIK@brainpoolP384r1@ 00000000000a79f0     OpensslLib:obj_dat.obj
 0002:0000b5c0       ??_C@_0BA@FKHOEHDI@brainpoolP384t1@ 00000000000a7a00     OpensslLib:obj_dat.obj
 0002:0000b5d0       ??_C@_0BA@KANBOFDK@brainpoolP512r1@ 00000000000a7a10     OpensslLib:obj_dat.obj
 0002:0000b5e0       ??_C@_0BA@KEFMJJII@brainpoolP512t1@ 00000000000a7a20     OpensslLib:obj_dat.obj
 0002:0000b5f0       ??_C@_0L@CDJFGILH@PSPECIFIED@ 00000000000a7a30     OpensslLib:obj_dat.obj
 0002:0000b600       ??_C@_0L@NKKFNJEH@pSpecified@ 00000000000a7a40     OpensslLib:obj_dat.obj
 0002:0000b610       ??_C@_0CC@GCFJNDOJ@dhSinglePass?9stdDH?9sha1kdf?9sche@ 00000000000a7a50     OpensslLib:obj_dat.obj
 0002:0000b638       ??_C@_0CE@OPNDOJI@dhSinglePass?9stdDH?9sha224kdf?9sc@ 00000000000a7a78     OpensslLib:obj_dat.obj
 0002:0000b660       ??_C@_0CE@JPLFKGFP@dhSinglePass?9stdDH?9sha256kdf?9sc@ 00000000000a7aa0     OpensslLib:obj_dat.obj
 0002:0000b688       ??_C@_0CE@KJKNLJMI@dhSinglePass?9stdDH?9sha384kdf?9sc@ 00000000000a7ac8     OpensslLib:obj_dat.obj
 0002:0000b6b0       ??_C@_0CE@DJMHFNHG@dhSinglePass?9stdDH?9sha512kdf?9sc@ 00000000000a7af0     OpensslLib:obj_dat.obj
 0002:0000b6d8       ??_C@_0CH@DHIHBIGF@dhSinglePass?9cofactorDH?9sha1kdf@ 00000000000a7b18     OpensslLib:obj_dat.obj
 0002:0000b700       ??_C@_0CJ@JFHNKHDJ@dhSinglePass?9cofactorDH?9sha224k@ 00000000000a7b40     OpensslLib:obj_dat.obj
 0002:0000b730       ??_C@_0CJ@EDFDPPO@dhSinglePass?9cofactorDH?9sha256k@ 00000000000a7b70     OpensslLib:obj_dat.obj
 0002:0000b760       ??_C@_0CJ@DCCNCAGJ@dhSinglePass?9cofactorDH?9sha384k@ 00000000000a7ba0     OpensslLib:obj_dat.obj
 0002:0000b790       ??_C@_0CJ@KCEHMENH@dhSinglePass?9cofactorDH?9sha512k@ 00000000000a7bd0     OpensslLib:obj_dat.obj
 0002:0000b7c0       ??_C@_0L@MFGJJBLE@dh?9std?9kdf@ 00000000000a7c00     OpensslLib:obj_dat.obj
 0002:0000b7d0       ??_C@_0BA@LJEJAEDG@dh?9cofactor?9kdf@ 00000000000a7c10     OpensslLib:obj_dat.obj
 0002:0000b7e0       ??_C@_0BI@OMECBAFK@aes?9128?9cbc?9hmac?9sha256@ 00000000000a7c20     OpensslLib:obj_dat.obj
 0002:0000b7f8       ??_C@_0BI@CINDNFBB@AES?9192?9CBC?9HMAC?9SHA256@ 00000000000a7c38     OpensslLib:obj_dat.obj
 0002:0000b810       ??_C@_0BI@FEDAEOPJ@aes?9192?9cbc?9hmac?9sha256@ 00000000000a7c50     OpensslLib:obj_dat.obj
 0002:0000b828       ??_C@_0BI@BAPIMEFC@aes?9256?9cbc?9hmac?9sha256@ 00000000000a7c68     OpensslLib:obj_dat.obj
 0002:0000b840       ??_C@_0BA@EKNBJPMK@ct_precert_scts@ 00000000000a7c80     OpensslLib:obj_dat.obj
 0002:0000b850       ??_C@_0BH@MJHOKGCL@CT?5Precertificate?5SCTs@ 00000000000a7c90     OpensslLib:obj_dat.obj
 0002:0000b868       ??_C@_0BC@DHAKLICB@ct_precert_poison@ 00000000000a7ca8     OpensslLib:obj_dat.obj
 0002:0000b880       ??_C@_0BJ@OJAHFLBJ@CT?5Precertificate?5Poison@ 00000000000a7cc0     OpensslLib:obj_dat.obj
 0002:0000b8a0       ??_C@_0BC@CGBIKIAJ@ct_precert_signer@ 00000000000a7ce0     OpensslLib:obj_dat.obj
 0002:0000b8b8       ??_C@_0BJ@PIBFELDB@CT?5Precertificate?5Signer@ 00000000000a7cf8     OpensslLib:obj_dat.obj
 0002:0000b8d8       ??_C@_0N@GIBNBHKA@ct_cert_scts@ 00000000000a7d18     OpensslLib:obj_dat.obj
 0002:0000b8e8       ??_C@_0BE@OLBHFOCE@CT?5Certificate?5SCTs@ 00000000000a7d28     OpensslLib:obj_dat.obj
 0002:0000b900       ??_C@_0O@CEMHPDIN@jurisdictionL@ 00000000000a7d40     OpensslLib:obj_dat.obj
 0002:0000b910       ??_C@_0BJ@DGGEPBOP@jurisdictionLocalityName@ 00000000000a7d50     OpensslLib:obj_dat.obj
 0002:0000b930       ??_C@_0P@FKIAEEHD@jurisdictionST@ 00000000000a7d70     OpensslLib:obj_dat.obj
 0002:0000b940       ??_C@_0CA@ILILPDLE@jurisdictionStateOrProvinceName@ 00000000000a7d80     OpensslLib:obj_dat.obj
 0002:0000b960       ??_C@_0O@KDFPOPEC@jurisdictionC@ 00000000000a7da0     OpensslLib:obj_dat.obj
 0002:0000b970       ??_C@_0BI@IBHEHEJE@jurisdictionCountryName@ 00000000000a7db0     OpensslLib:obj_dat.obj
 0002:0000b988       ??_C@_0M@HNGJPAIF@AES?9128?9OCB@ 00000000000a7dc8     OpensslLib:obj_dat.obj
 0002:0000b998       ??_C@_0M@KBGCGKAG@aes?9128?9ocb@ 00000000000a7dd8     OpensslLib:obj_dat.obj
 0002:0000b9a8       ??_C@_0M@NOPFIHBJ@AES?9192?9OCB@ 00000000000a7de8     OpensslLib:obj_dat.obj
 0002:0000b9b8       ??_C@_0M@CPOBNJK@aes?9192?9ocb@ 00000000000a7df8     OpensslLib:obj_dat.obj
 0002:0000b9c8       ??_C@_0M@MELKIJI@AES?9256?9OCB@ 00000000000a7e08     OpensslLib:obj_dat.obj
 0002:0000b9d8       ??_C@_0M@NAEADCBL@aes?9256?9ocb@ 00000000000a7e18     OpensslLib:obj_dat.obj
 0002:0000b9e8       ??_C@_0BB@GAIDNACN@CAMELLIA?9128?9GCM@ 00000000000a7e28     OpensslLib:obj_dat.obj
 0002:0000ba00       ??_C@_0BB@HDMLAOJK@camellia?9128?9gcm@ 00000000000a7e40     OpensslLib:obj_dat.obj
 0002:0000ba18       ??_C@_0BB@OPOBEHHK@CAMELLIA?9128?9CCM@ 00000000000a7e58     OpensslLib:obj_dat.obj
 0002:0000ba30       ??_C@_0BB@PMKJJJMN@camellia?9128?9ccm@ 00000000000a7e70     OpensslLib:obj_dat.obj
 0002:0000ba48       ??_C@_0BB@DLNCPMBB@CAMELLIA?9128?9CTR@ 00000000000a7e88     OpensslLib:obj_dat.obj
 0002:0000ba60       ??_C@_0BB@CIJKCCKG@camellia?9128?9ctr@ 00000000000a7ea0     OpensslLib:obj_dat.obj
 0002:0000ba78       ??_C@_0BC@ICKOOLPE@CAMELLIA?9128?9CMAC@ 00000000000a7eb8     OpensslLib:obj_dat.obj
 0002:0000ba90       ??_C@_0BC@ECDMKBKH@camellia?9128?9cmac@ 00000000000a7ed0     OpensslLib:obj_dat.obj
 0002:0000baa8       ??_C@_0BB@MDBPKHLB@CAMELLIA?9192?9GCM@ 00000000000a7ee8     OpensslLib:obj_dat.obj
 0002:0000bac0       ??_C@_0BB@NAFHHJAG@camellia?9192?9gcm@ 00000000000a7f00     OpensslLib:obj_dat.obj
 0002:0000bad8       ??_C@_0BB@EMHNDAOG@CAMELLIA?9192?9CCM@ 00000000000a7f18     OpensslLib:obj_dat.obj
 0002:0000baf0       ??_C@_0BB@FPDFOOFB@camellia?9192?9ccm@ 00000000000a7f30     OpensslLib:obj_dat.obj
 0002:0000bb08       ??_C@_0BB@JIEOILIN@CAMELLIA?9192?9CTR@ 00000000000a7f48     OpensslLib:obj_dat.obj
 0002:0000bb20       ??_C@_0BB@ILAGFFDK@camellia?9192?9ctr@ 00000000000a7f60     OpensslLib:obj_dat.obj
 0002:0000bb38       ??_C@_0BC@HLLEKIOM@CAMELLIA?9192?9CMAC@ 00000000000a7f78     OpensslLib:obj_dat.obj
 0002:0000bb50       ??_C@_0BC@LLCGOCLP@camellia?9192?9cmac@ 00000000000a7f90     OpensslLib:obj_dat.obj
 0002:0000bb68       ??_C@_0BB@BBKBIIDA@CAMELLIA?9256?9GCM@ 00000000000a7fa8     OpensslLib:obj_dat.obj
 0002:0000bb80       ??_C@_0BB@COJFGIH@camellia?9256?9gcm@ 00000000000a7fc0     OpensslLib:obj_dat.obj
 0002:0000bb98       ??_C@_0BB@JOMDBPGH@CAMELLIA?9256?9CCM@ 00000000000a7fd8     OpensslLib:obj_dat.obj
 0002:0000bbb0       ??_C@_0BB@INILMBNA@camellia?9256?9ccm@ 00000000000a7ff0     OpensslLib:obj_dat.obj
 0002:0000bbc8       ??_C@_0BB@EKPAKEAM@CAMELLIA?9256?9CTR@ 00000000000a8008     OpensslLib:obj_dat.obj
 0002:0000bbe0       ??_C@_0BB@FJLIHKLL@camellia?9256?9ctr@ 00000000000a8020     OpensslLib:obj_dat.obj
 0002:0000bbf8       ??_C@_0BC@OBNJKFHF@CAMELLIA?9256?9CMAC@ 00000000000a8038     OpensslLib:obj_dat.obj
 0002:0000bc10       ??_C@_0BC@CBELOPCG@camellia?9256?9cmac@ 00000000000a8050     OpensslLib:obj_dat.obj
 0002:0000bc28       ??_C@_09ILBMCAEF@id?9scrypt@ 00000000000a8068     OpensslLib:obj_dat.obj
 0002:0000bc34       ??_C@_06LLPEBPNI@scrypt@   00000000000a8074     OpensslLib:obj_dat.obj
 0002:0000bc40       ??_C@_07BKIAFLHB@id?9tc26@ 00000000000a8080     OpensslLib:obj_dat.obj
 0002:0000bc48       ??_C@_0O@HGEOMPGF@gost89?9cnt?912@ 00000000000a8088     OpensslLib:obj_dat.obj
 0002:0000bc58       ??_C@_0BD@PKHBIAHP@id?9tc26?9algorithms@ 00000000000a8098     OpensslLib:obj_dat.obj
 0002:0000bc70       ??_C@_0N@HMCOAPHF@id?9tc26?9sign@ 00000000000a80b0     OpensslLib:obj_dat.obj
 0002:0000bc80       ??_C@_0CH@DJAHIKCF@GOST?5R?534?410?92012?5with?5256?5bit?5@ 00000000000a80c0     OpensslLib:obj_dat.obj
 0002:0000bca8       ??_C@_0CH@FHCOJICI@GOST?5R?534?410?92012?5with?5512?5bit?5@ 00000000000a80e8     OpensslLib:obj_dat.obj
 0002:0000bcd0       ??_C@_0P@KKGLKDLG@id?9tc26?9digest@ 00000000000a8110     OpensslLib:obj_dat.obj
 0002:0000bce0       ??_C@_0O@CBIKGGLN@md_gost12_256@ 00000000000a8120     OpensslLib:obj_dat.obj
 0002:0000bcf0       ??_C@_0CE@FGDJHNGL@GOST?5R?534?411?92012?5with?5256?5bit?5@ 00000000000a8130     OpensslLib:obj_dat.obj
 0002:0000bd18       ??_C@_0O@NPDIDDNM@md_gost12_512@ 00000000000a8158     OpensslLib:obj_dat.obj
 0002:0000bd28       ??_C@_0CE@JIJFDDMO@GOST?5R?534?411?92012?5with?5512?5bit?5@ 00000000000a8168     OpensslLib:obj_dat.obj
 0002:0000bd50       ??_C@_0BH@DGELPKNI@id?9tc26?9signwithdigest@ 00000000000a8190     OpensslLib:obj_dat.obj
 0002:0000bd68       ??_C@_0CJ@IEAKGPIK@id?9tc26?9signwithdigest?9gost3410@ 00000000000a81a8     OpensslLib:obj_dat.obj
 0002:0000bd98       ??_C@_0DD@IIJACCAI@GOST?5R?534?410?92012?5with?5GOST?5R?53@ 00000000000a81d8     OpensslLib:obj_dat.obj
 0002:0000bdd0       ??_C@_0CJ@HKLIDKOL@id?9tc26?9signwithdigest?9gost3410@ 00000000000a8210     OpensslLib:obj_dat.obj
 0002:0000be00       ??_C@_0DD@JMPEGFCI@GOST?5R?534?410?92012?5with?5GOST?5R?53@ 00000000000a8240     OpensslLib:obj_dat.obj
 0002:0000be38       ??_C@_0M@ICFDDKIB@id?9tc26?9mac@ 00000000000a8278     OpensslLib:obj_dat.obj
 0002:0000be48       ??_C@_0CA@JKDKOOFJ@id?9tc26?9hmac?9gost?93411?92012?9256@ 00000000000a8288     OpensslLib:obj_dat.obj
 0002:0000be68       ??_C@_0BN@JOOLALJM@HMAC?5GOST?534?411?92012?5256?5bit@ 00000000000a82a8     OpensslLib:obj_dat.obj
 0002:0000be88       ??_C@_0CA@GEIILLDI@id?9tc26?9hmac?9gost?93411?92012?9512@ 00000000000a82c8     OpensslLib:obj_dat.obj
 0002:0000bea8       ??_C@_0BN@PLPAGEIA@HMAC?5GOST?534?411?92012?5512?5bit@ 00000000000a82e8     OpensslLib:obj_dat.obj
 0002:0000bec8       ??_C@_0P@BJHHGDD@id?9tc26?9cipher@ 00000000000a8308     OpensslLib:obj_dat.obj
 0002:0000bed8       ??_C@_0BC@DJLELDPH@id?9tc26?9agreement@ 00000000000a8318     OpensslLib:obj_dat.obj
 0002:0000bef0       ??_C@_0CF@JALEKNFA@id?9tc26?9agreement?9gost?93410?9201@ 00000000000a8330     OpensslLib:obj_dat.obj
 0002:0000bf18       ??_C@_0CF@GOAGPIDB@id?9tc26?9agreement?9gost?93410?9201@ 00000000000a8358     OpensslLib:obj_dat.obj
 0002:0000bf40       ??_C@_0BC@CNAIEHBN@id?9tc26?9constants@ 00000000000a8380     OpensslLib:obj_dat.obj
 0002:0000bf58       ??_C@_0BH@FMPMHLHM@id?9tc26?9sign?9constants@ 00000000000a8398     OpensslLib:obj_dat.obj
 0002:0000bf70       ??_C@_0CF@ONCEGCLN@id?9tc26?9gost?93410?92012?9512?9cons@ 00000000000a83b0     OpensslLib:obj_dat.obj
 0002:0000bf98       ??_C@_0CI@GGHEPEIH@id?9tc26?9gost?93410?92012?9512?9para@ 00000000000a83d8     OpensslLib:obj_dat.obj
 0002:0000bfc0       ??_C@_0DC@INCJCNBI@GOST?5R?534?410?92012?5?$CI512?5bit?$CJ?5tes@ 00000000000a8400     OpensslLib:obj_dat.obj
 0002:0000bff8       ??_C@_0CF@PHGDEBIC@id?9tc26?9gost?93410?92012?9512?9para@ 00000000000a8438     OpensslLib:obj_dat.obj
 0002:0000c020       ??_C@_0CH@KEBIEEKM@GOST?5R?534?410?92012?5?$CI512?5bit?$CJ?5Par@ 00000000000a8460     OpensslLib:obj_dat.obj
 0002:0000c048       ??_C@_0CF@NMEOBCEB@id?9tc26?9gost?93410?92012?9512?9para@ 00000000000a8488     OpensslLib:obj_dat.obj
 0002:0000c070       ??_C@_0CH@IPDFBHGP@GOST?5R?534?410?92012?5?$CI512?5bit?$CJ?5Par@ 00000000000a84b0     OpensslLib:obj_dat.obj
 0002:0000c098       ??_C@_0BJ@GEIKEFNA@id?9tc26?9digest?9constants@ 00000000000a84d8     OpensslLib:obj_dat.obj
 0002:0000c0b8       ??_C@_0BJ@NHFOAFHC@id?9tc26?9cipher?9constants@ 00000000000a84f8     OpensslLib:obj_dat.obj
 0002:0000c0d8       ??_C@_0BN@EAAGDAMM@id?9tc26?9gost?928147?9constants@ 00000000000a8518     OpensslLib:obj_dat.obj
 0002:0000c0f8       ??_C@_0BL@JJBMFHGO@id?9tc26?9gost?928147?9param?9Z@ 00000000000a8538     OpensslLib:obj_dat.obj
 0002:0000c118       ??_C@_0CB@CNOGCECB@GOST?528147?989?5TC26?5parameter?5se@ 00000000000a8558     OpensslLib:obj_dat.obj
 0002:0000c13c       ??_C@_03CMFJPFBF@INN@      00000000000a857c     OpensslLib:obj_dat.obj
 0002:0000c140       ??_C@_04OEHPDPKL@OGRN@     00000000000a8580     OpensslLib:obj_dat.obj
 0002:0000c148       ??_C@_05CNOOKPKJ@SNILS@    00000000000a8588     OpensslLib:obj_dat.obj
 0002:0000c150       ??_C@_0BA@NDMKBCND@subjectSignTool@ 00000000000a8590     OpensslLib:obj_dat.obj
 0002:0000c160       ??_C@_0BI@GJCFDOKO@Signing?5Tool?5of?5Subject@ 00000000000a85a0     OpensslLib:obj_dat.obj
 0002:0000c178       ??_C@_0P@DOAHENPB@issuerSignTool@ 00000000000a85b8     OpensslLib:obj_dat.obj
 0002:0000c188       ??_C@_0BH@GHEABPMA@Signing?5Tool?5of?5Issuer@ 00000000000a85c8     OpensslLib:obj_dat.obj
 0002:0000c1a0       ??_C@_0L@IBPHNLAN@gost89?9cbc@ 00000000000a85e0     OpensslLib:obj_dat.obj
 0002:0000c1b0       ??_C@_0L@LMEFNPKH@gost89?9ecb@ 00000000000a85f0     OpensslLib:obj_dat.obj
 0002:0000c1c0       ??_C@_0L@MKIFCHNP@gost89?9ctr@ 00000000000a8600     OpensslLib:obj_dat.obj
 0002:0000c1d0       ??_C@_0BA@BNIBKCOB@grasshopper?9ecb@ 00000000000a8610     OpensslLib:obj_dat.obj
 0002:0000c1e0       ??_C@_0BA@GLEBFKJJ@grasshopper?9ctr@ 00000000000a8620     OpensslLib:obj_dat.obj
 0002:0000c1f0       ??_C@_0BA@HEPHIAGO@grasshopper?9ofb@ 00000000000a8630     OpensslLib:obj_dat.obj
 0002:0000c200       ??_C@_0BA@CADDKGEL@grasshopper?9cbc@ 00000000000a8640     OpensslLib:obj_dat.obj
 0002:0000c210       ??_C@_0BA@DOCBDPNG@grasshopper?9cfb@ 00000000000a8650     OpensslLib:obj_dat.obj
 0002:0000c220       ??_C@_0BA@MCKKGPCB@grasshopper?9mac@ 00000000000a8660     OpensslLib:obj_dat.obj
 0002:0000c230       ??_C@_0BC@PEKIBJLH@ChaCha20?9Poly1305@ 00000000000a8670     OpensslLib:obj_dat.obj
 0002:0000c248       ??_C@_0BC@KDNKBNLK@chacha20?9poly1305@ 00000000000a8688     OpensslLib:obj_dat.obj
 0002:0000c260       ??_C@_08ILJLPLOJ@ChaCha20@ 00000000000a86a0     OpensslLib:obj_dat.obj
 0002:0000c270       ??_C@_08OMGHMHM@chacha20@  00000000000a86b0     OpensslLib:obj_dat.obj
 0002:0000c280       ??_C@_0L@MLJIFHHA@tlsfeature@ 00000000000a86c0     OpensslLib:obj_dat.obj
 0002:0000c290       ??_C@_0M@FNEPCNIJ@TLS?5Feature@ 00000000000a86d0     OpensslLib:obj_dat.obj
 0002:0000c2a0       ??_C@_08KOCGPNOB@TLS1?9PRF@ 00000000000a86e0     OpensslLib:obj_dat.obj
 0002:0000c2b0       ??_C@_08BHOHOJPE@tls1?9prf@ 00000000000a86f0     OpensslLib:obj_dat.obj
 0002:0000c2c0       ??_C@_08JJANKCK@ipsecIKE@  00000000000a8700     OpensslLib:obj_dat.obj
 0002:0000c2d0       ??_C@_0BM@OPBJFEOG@ipsec?5Internet?5Key?5Exchange@ 00000000000a8710     OpensslLib:obj_dat.obj
 0002:0000c2f0       ??_C@_08PPHHBOBH@capwapAC@ 00000000000a8730     OpensslLib:obj_dat.obj
 0002:0000c300       ??_C@_0BK@IALCAIEG@Ctrl?1provision?5WAP?5Access@ 00000000000a8740     OpensslLib:obj_dat.obj
 0002:0000c320       ??_C@_09FFIMBCDL@capwapWTP@ 00000000000a8760     OpensslLib:obj_dat.obj
 0002:0000c330       ??_C@_0BP@LFGCKHED@Ctrl?1Provision?5WAP?5Termination@ 00000000000a8770     OpensslLib:obj_dat.obj
 0002:0000c350       ??_C@_0BC@DBPEJOAM@secureShellClient@ 00000000000a8790     OpensslLib:obj_dat.obj
 0002:0000c368       ??_C@_0L@CACOODCE@SSH?5Client@ 00000000000a87a8     OpensslLib:obj_dat.obj
 0002:0000c378       ??_C@_0BC@HOLGEFIP@secureShellServer@ 00000000000a87b8     OpensslLib:obj_dat.obj
 0002:0000c390       ??_C@_0L@GPGMDIKH@SSH?5Server@ 00000000000a87d0     OpensslLib:obj_dat.obj
 0002:0000c3a0       ??_C@_0L@MPOEEOHI@sendRouter@ 00000000000a87e0     OpensslLib:obj_dat.obj
 0002:0000c3b0       ??_C@_0M@BCAJACPB@Send?5Router@ 00000000000a87f0     OpensslLib:obj_dat.obj
 0002:0000c3c0       ??_C@_0BC@KKHBJBOB@sendProxiedRouter@ 00000000000a8800     OpensslLib:obj_dat.obj
 0002:0000c3d8       ??_C@_0BE@JHOOFFHO@Send?5Proxied?5Router@ 00000000000a8818     OpensslLib:obj_dat.obj
 0002:0000c3f0       ??_C@_09JAHHKBGP@sendOwner@ 00000000000a8830     OpensslLib:obj_dat.obj
 0002:0000c400       ??_C@_0L@HAEHOBAA@Send?5Owner@ 00000000000a8840     OpensslLib:obj_dat.obj
 0002:0000c410       ??_C@_0BB@LFHBPODH@sendProxiedOwner@ 00000000000a8850     OpensslLib:obj_dat.obj
 0002:0000c428       ??_C@_0BD@PCCALGFC@Send?5Proxied?5Owner@ 00000000000a8868     OpensslLib:obj_dat.obj
 0002:0000c440       ??_C@_09JPKOOJPP@id?9pkinit@ 00000000000a8880     OpensslLib:obj_dat.obj
 0002:0000c450       ??_C@_0BB@EPFMAKG@pkInitClientAuth@ 00000000000a8890     OpensslLib:obj_dat.obj
 0002:0000c468       ??_C@_0BD@EMKKJPI@PKINIT?5Client?5Auth@ 00000000000a88a8     OpensslLib:obj_dat.obj
 0002:0000c480       ??_C@_09BKCKBNGN@pkInitKDC@ 00000000000a88c0     OpensslLib:obj_dat.obj
 0002:0000c490       ??_C@_0BF@JILKFMLF@Signing?5KDC?5Response@ 00000000000a88d0     OpensslLib:obj_dat.obj
 0002:0000c4a8       ??_C@_06LOACBMIP@X25519@   00000000000a88e8     OpensslLib:obj_dat.obj
 0002:0000c4b0       ??_C@_04HKAKBCKJ@X448@     00000000000a88f0     OpensslLib:obj_dat.obj
 0002:0000c4b8       ??_C@_04MMPLAJMJ@HKDF@     00000000000a88f8     OpensslLib:obj_dat.obj
 0002:0000c4c0       ??_C@_04MBOLLB@hkdf@       00000000000a8900     OpensslLib:obj_dat.obj
 0002:0000c4c8       ??_C@_05EJMCGHJ@KxRSA@     00000000000a8908     OpensslLib:obj_dat.obj
 0002:0000c4d0       ??_C@_06NOGFLIHP@kx?9rsa@  00000000000a8910     OpensslLib:obj_dat.obj
 0002:0000c4d8       ??_C@_07JGJKHBHF@KxECDHE@  00000000000a8918     OpensslLib:obj_dat.obj
 0002:0000c4e0       ??_C@_08HKLONAAL@kx?9ecdhe@ 00000000000a8920     OpensslLib:obj_dat.obj
 0002:0000c4ec       ??_C@_05FPBKHKP@KxDHE@     00000000000a892c     OpensslLib:obj_dat.obj
 0002:0000c4f4       ??_C@_06NPAIDJKJ@kx?9dhe@  00000000000a8934     OpensslLib:obj_dat.obj
 0002:0000c500       ??_C@_0M@BEDLOEBI@KxECDHE?9PSK@ 00000000000a8940     OpensslLib:obj_dat.obj
 0002:0000c510       ??_C@_0N@BCMOIGGJ@kx?9ecdhe?9psk@ 00000000000a8950     OpensslLib:obj_dat.obj
 0002:0000c520       ??_C@_09DLNJIEPF@KxDHE?9PSK@ 00000000000a8960     OpensslLib:obj_dat.obj
 0002:0000c530       ??_C@_0L@EHLMOCJB@kx?9dhe?9psk@ 00000000000a8970     OpensslLib:obj_dat.obj
 0002:0000c540       ??_C@_09PMFHIFNE@KxRSA_PSK@ 00000000000a8980     OpensslLib:obj_dat.obj
 0002:0000c550       ??_C@_0L@DCAFABP@kx?9rsa?9psk@ 00000000000a8990     OpensslLib:obj_dat.obj
 0002:0000c55c       ??_C@_05FEHKAGHI@KxPSK@    00000000000a899c     OpensslLib:obj_dat.obj
 0002:0000c564       ??_C@_06IOIDJIHO@kx?9psk@  00000000000a89a4     OpensslLib:obj_dat.obj
 0002:0000c56c       ??_C@_05OODLAIDL@KxSRP@    00000000000a89ac     OpensslLib:obj_dat.obj
 0002:0000c574       ??_C@_06DEMCJGDN@kx?9srp@  00000000000a89b4     OpensslLib:obj_dat.obj
 0002:0000c57c       ??_C@_06FKGHEKCF@KxGOST@   00000000000a89bc     OpensslLib:obj_dat.obj
 0002:0000c588       ??_C@_07CGFKDCCM@kx?9gost@ 00000000000a89c8     OpensslLib:obj_dat.obj
 0002:0000c590       ??_C@_07BONHEHLG@AuthRSA@  00000000000a89d0     OpensslLib:obj_dat.obj
 0002:0000c598       ??_C@_08JIOIJHAA@auth?9rsa@ 00000000000a89d8     OpensslLib:obj_dat.obj
 0002:0000c5a8       ??_C@_09JEFCHIOE@AuthECDSA@ 00000000000a89e8     OpensslLib:obj_dat.obj
 0002:0000c5b8       ??_C@_0L@NNHEHHD@auth?9ecdsa@ 00000000000a89f8     OpensslLib:obj_dat.obj
 0002:0000c5c8       ??_C@_07EODBGHLH@AuthPSK@  00000000000a8a08     OpensslLib:obj_dat.obj
 0002:0000c5d0       ??_C@_08MIAOLHAB@auth?9psk@ 00000000000a8a10     OpensslLib:obj_dat.obj
 0002:0000c5e0       ??_C@_07BDFBDPCG@AuthDSS@  00000000000a8a20     OpensslLib:obj_dat.obj
 0002:0000c5e8       ??_C@_08JFGOOPJA@auth?9dss@ 00000000000a8a28     OpensslLib:obj_dat.obj
 0002:0000c5f8       ??_C@_0L@JLNHNDLF@AuthGOST01@ 00000000000a8a38     OpensslLib:obj_dat.obj
 0002:0000c608       ??_C@_0M@MNGIBGIN@auth?9gost01@ 00000000000a8a48     OpensslLib:obj_dat.obj
 0002:0000c618       ??_C@_0L@LBDIOKEB@AuthGOST12@ 00000000000a8a58     OpensslLib:obj_dat.obj
 0002:0000c628       ??_C@_0M@OHIHCPHJ@auth?9gost12@ 00000000000a8a68     OpensslLib:obj_dat.obj
 0002:0000c638       ??_C@_07PEHAGJPE@AuthSRP@  00000000000a8a78     OpensslLib:obj_dat.obj
 0002:0000c640       ??_C@_08HCEPLJEC@auth?9srp@ 00000000000a8a80     OpensslLib:obj_dat.obj
 0002:0000c650       ??_C@_08PGHDHHPL@AuthNULL@ 00000000000a8a90     OpensslLib:obj_dat.obj
 0002:0000c660       ??_C@_09EBHDHKDA@auth?9null@ 00000000000a8aa0     OpensslLib:obj_dat.obj
 0002:0000c670       ??_C@_0L@JAJLMLPM@BLAKE2b512@ 00000000000a8ab0     OpensslLib:obj_dat.obj
 0002:0000c680       ??_C@_0L@ONGAJOJC@blake2b512@ 00000000000a8ac0     OpensslLib:obj_dat.obj
 0002:0000c690       ??_C@_0L@DDKJCAKP@BLAKE2s256@ 00000000000a8ad0     OpensslLib:obj_dat.obj
 0002:0000c6a0       ??_C@_0L@EOFCHFMB@blake2s256@ 00000000000a8ae0     OpensslLib:obj_dat.obj
 0002:0000c6b0       ??_C@_0BO@OGCFEAKN@id?9smime?9ct?9contentCollection@ 00000000000a8af0     OpensslLib:obj_dat.obj
 0002:0000c6d0       ??_C@_0BO@INCMCPON@id?9smime?9ct?9authEnvelopedData@ 00000000000a8b10     OpensslLib:obj_dat.obj
 0002:0000c6f0       ??_C@_09GGALBJKN@id?9ct?9xml@ 00000000000a8b30     OpensslLib:obj_dat.obj
 0002:0000c700       ??_C@_08PKNBIDPH@Poly1305@ 00000000000a8b40     OpensslLib:obj_dat.obj
 0002:0000c710       ??_C@_08HICAABFE@poly1305@ 00000000000a8b50     OpensslLib:obj_dat.obj
 0002:0000c720       ??_C@_07EEPCGEAM@SipHash@  00000000000a8b60     OpensslLib:obj_dat.obj
 0002:0000c728       ??_C@_07HMEFCJFO@siphash@  00000000000a8b68     OpensslLib:obj_dat.obj
 0002:0000c730       ??_C@_05NANFHGHC@KxANY@    00000000000a8b70     OpensslLib:obj_dat.obj
 0002:0000c738       ??_C@_06KCMOIHE@kx?9any@   00000000000a8b78     OpensslLib:obj_dat.obj
 0002:0000c740       ??_C@_07MKJOBHLN@AuthANY@  00000000000a8b80     OpensslLib:obj_dat.obj
 0002:0000c748       ??_C@_08EMKBMHAL@auth?9any@ 00000000000a8b88     OpensslLib:obj_dat.obj
 0002:0000c758       ??_C@_0N@FEKJCEDM@ARIA?9128?9ECB@ 00000000000a8b98     OpensslLib:obj_dat.obj
 0002:0000c768       ??_C@_0N@DLNMPFEK@aria?9128?9ecb@ 00000000000a8ba8     OpensslLib:obj_dat.obj
 0002:0000c778       ??_C@_0N@GJBLCAJG@ARIA?9128?9CBC@ 00000000000a8bb8     OpensslLib:obj_dat.obj
 0002:0000c788       ??_C@_0N@GGOPBOA@aria?9128?9cbc@ 00000000000a8bc8     OpensslLib:obj_dat.obj
 0002:0000c798       ??_C@_0N@HHAJLJAL@ARIA?9128?9CFB@ 00000000000a8bd8     OpensslLib:obj_dat.obj
 0002:0000c7a8       ??_C@_0N@BIHMGIHN@aria?9128?9cfb@ 00000000000a8be8     OpensslLib:obj_dat.obj
 0002:0000c7b8       ??_C@_0N@DNNPAGLD@ARIA?9128?9OFB@ 00000000000a8bf8     OpensslLib:obj_dat.obj
 0002:0000c7c8       ??_C@_0N@FCKKNHMF@aria?9128?9ofb@ 00000000000a8c08     OpensslLib:obj_dat.obj
 0002:0000c7d8       ??_C@_0N@CCGJNMEE@ARIA?9128?9CTR@ 00000000000a8c18     OpensslLib:obj_dat.obj
 0002:0000c7e8       ??_C@_0N@ENBMANDC@aria?9128?9ctr@ 00000000000a8c28     OpensslLib:obj_dat.obj
 0002:0000c7f8       ??_C@_0N@PHDFFDKA@ARIA?9192?9ECB@ 00000000000a8c38     OpensslLib:obj_dat.obj
 0002:0000c808       ??_C@_0N@JIEAICNG@aria?9192?9ecb@ 00000000000a8c48     OpensslLib:obj_dat.obj
 0002:0000c818       ??_C@_0N@MKIHFHAK@ARIA?9192?9CBC@ 00000000000a8c58     OpensslLib:obj_dat.obj
 0002:0000c828       ??_C@_0N@KFPCIGHM@aria?9192?9cbc@ 00000000000a8c68     OpensslLib:obj_dat.obj
 0002:0000c838       ??_C@_0N@NEJFMOJH@ARIA?9192?9CFB@ 00000000000a8c78     OpensslLib:obj_dat.obj
 0002:0000c848       ??_C@_0N@LLOABPOB@aria?9192?9cfb@ 00000000000a8c88     OpensslLib:obj_dat.obj
 0002:0000c858       ??_C@_0N@JOEDHBCP@ARIA?9192?9OFB@ 00000000000a8c98     OpensslLib:obj_dat.obj
 0002:0000c868       ??_C@_0N@PBDGKAFJ@aria?9192?9ofb@ 00000000000a8ca8     OpensslLib:obj_dat.obj
 0002:0000c878       ??_C@_0N@IBPFKLNI@ARIA?9192?9CTR@ 00000000000a8cb8     OpensslLib:obj_dat.obj
 0002:0000c888       ??_C@_0N@OOIAHKKO@aria?9192?9ctr@ 00000000000a8cc8     OpensslLib:obj_dat.obj
 0002:0000c898       ??_C@_0N@CFILHMCB@ARIA?9256?9ECB@ 00000000000a8cd8     OpensslLib:obj_dat.obj
 0002:0000c8a8       ??_C@_0N@EKPOKNFH@aria?9256?9ecb@ 00000000000a8ce8     OpensslLib:obj_dat.obj
 0002:0000c8b8       ??_C@_0N@BIDJHIIL@ARIA?9256?9CBC@ 00000000000a8cf8     OpensslLib:obj_dat.obj
 0002:0000c8c8       ??_C@_0N@HHEMKJPN@aria?9256?9cbc@ 00000000000a8d08     OpensslLib:obj_dat.obj
 0002:0000c8d8       ??_C@_0N@GCLOBBG@ARIA?9256?9CFB@ 00000000000a8d18     OpensslLib:obj_dat.obj
 0002:0000c8e8       ??_C@_0N@GJFODAGA@aria?9256?9cfb@ 00000000000a8d28     OpensslLib:obj_dat.obj
 0002:0000c8f8       ??_C@_0N@EMPNFOKO@ARIA?9256?9OFB@ 00000000000a8d38     OpensslLib:obj_dat.obj
 0002:0000c908       ??_C@_0N@CDIIIPNI@aria?9256?9ofb@ 00000000000a8d48     OpensslLib:obj_dat.obj
 0002:0000c918       ??_C@_0N@FDELIEFJ@ARIA?9256?9CTR@ 00000000000a8d58     OpensslLib:obj_dat.obj
 0002:0000c928       ??_C@_0N@DMDOFFCP@aria?9256?9ctr@ 00000000000a8d68     OpensslLib:obj_dat.obj
 0002:0000c938       ??_C@_0O@FBPINHID@ARIA?9128?9CFB1@ 00000000000a8d78     OpensslLib:obj_dat.obj
 0002:0000c948       ??_C@_0O@OIPBHGFL@aria?9128?9cfb1@ 00000000000a8d88     OpensslLib:obj_dat.obj
 0002:0000c958       ??_C@_0O@KIOCJEJL@ARIA?9192?9CFB1@ 00000000000a8d98     OpensslLib:obj_dat.obj
 0002:0000c968       ??_C@_0O@BBOLDFED@aria?9192?9cfb1@ 00000000000a8da8     OpensslLib:obj_dat.obj
 0002:0000c978       ??_C@_0O@DCIPJJAC@ARIA?9256?9CFB1@ 00000000000a8db8     OpensslLib:obj_dat.obj
 0002:0000c988       ??_C@_0O@ILIGDINK@aria?9256?9cfb1@ 00000000000a8dc8     OpensslLib:obj_dat.obj
 0002:0000c998       ??_C@_0O@IADKGMMK@ARIA?9128?9CFB8@ 00000000000a8dd8     OpensslLib:obj_dat.obj
 0002:0000c9a8       ??_C@_0O@DJDDMNBC@aria?9128?9cfb8@ 00000000000a8de8     OpensslLib:obj_dat.obj
 0002:0000c9b8       ??_C@_0O@HJCACPNC@ARIA?9192?9CFB8@ 00000000000a8df8     OpensslLib:obj_dat.obj
 0002:0000c9c8       ??_C@_0O@MACJIOAK@aria?9192?9cfb8@ 00000000000a8e08     OpensslLib:obj_dat.obj
 0002:0000c9d8       ??_C@_0O@ODENCCEL@ARIA?9256?9CFB8@ 00000000000a8e18     OpensslLib:obj_dat.obj
 0002:0000c9e8       ??_C@_0O@FKEEIDJD@aria?9256?9cfb8@ 00000000000a8e28     OpensslLib:obj_dat.obj
 0002:0000c9f8       ??_C@_0CB@IFNLAOKJ@id?9smime?9aa?9signingCertificateV@ 00000000000a8e38     OpensslLib:obj_dat.obj
 0002:0000ca20       ??_C@_07IHEPCGKL@ED25519@  00000000000a8e60     OpensslLib:obj_dat.obj
 0002:0000ca28       ??_C@_05PHGPKFEL@ED448@    00000000000a8e68     OpensslLib:obj_dat.obj
 0002:0000ca30       ??_C@_0BH@IMGBFLPH@organizationIdentifier@ 00000000000a8e70     OpensslLib:obj_dat.obj
 0002:0000ca48       ??_C@_02LOEEDGKE@c3@       00000000000a8e88     OpensslLib:obj_dat.obj
 0002:0000ca50       ??_C@_0O@FPCOELAL@countryCode3c@ 00000000000a8e90     OpensslLib:obj_dat.obj
 0002:0000ca60       ??_C@_02LGJMKFPH@n3@       00000000000a8ea0     OpensslLib:obj_dat.obj
 0002:0000ca68       ??_C@_0O@OKIADFEG@countryCode3n@ 00000000000a8ea8     OpensslLib:obj_dat.obj
 0002:0000ca78       ??_C@_07KEJPHHNP@dnsName@  00000000000a8eb8     OpensslLib:obj_dat.obj
 0002:0000ca80       ??_C@_0BB@NCOFGOBL@x509ExtAdmission@ 00000000000a8ec0     OpensslLib:obj_dat.obj
 0002:0000ca98       ??_C@_0DA@NCCMDEGO@Professional?5Information?5or?5bas@ 00000000000a8ed8     OpensslLib:obj_dat.obj
 0002:0000cac8       ??_C@_0L@EEJNOJOJ@SHA512?9224@ 00000000000a8f08     OpensslLib:obj_dat.obj
 0002:0000cad8       ??_C@_0L@PKNOHEN@sha512?9224@ 00000000000a8f18     OpensslLib:obj_dat.obj
 0002:0000cae8       ??_C@_0L@HDOEJNOO@SHA512?9256@ 00000000000a8f28     OpensslLib:obj_dat.obj
 0002:0000caf8       ??_C@_0L@DINEJDEK@sha512?9256@ 00000000000a8f38     OpensslLib:obj_dat.obj
 0002:0000cb08       ??_C@_08DHHFFNOC@SHA3?9224@ 00000000000a8f48     OpensslLib:obj_dat.obj
 0002:0000cb18       ??_C@_08IDEPIEIL@sha3?9224@ 00000000000a8f58     OpensslLib:obj_dat.obj
 0002:0000cb28       ??_C@_08MCJOF@SHA3?9256@   00000000000a8f68     OpensslLib:obj_dat.obj
 0002:0000cb38       ??_C@_08LEDGPAIM@sha3?9256@ 00000000000a8f78     OpensslLib:obj_dat.obj
 0002:0000cb48       ??_C@_08ICFOLPFB@SHA3?9384@ 00000000000a8f88     OpensslLib:obj_dat.obj
 0002:0000cb58       ??_C@_08DGGEGGDI@sha3?9384@ 00000000000a8f98     OpensslLib:obj_dat.obj
 0002:0000cb68       ??_C@_08POLOHMIE@SHA3?9512@ 00000000000a8fa8     OpensslLib:obj_dat.obj
 0002:0000cb78       ??_C@_08EKIEKFON@sha3?9512@ 00000000000a8fb8     OpensslLib:obj_dat.obj
 0002:0000cb88       ??_C@_08MHEGAOCA@SHAKE128@ 00000000000a8fc8     OpensslLib:obj_dat.obj
 0002:0000cb98       ??_C@_08LFBBPNHL@shake128@ 00000000000a8fd8     OpensslLib:obj_dat.obj
 0002:0000cba8       ??_C@_08EODPJKMF@SHAKE256@ 00000000000a8fe8     OpensslLib:obj_dat.obj
 0002:0000cbb8       ??_C@_08DMGIGJJO@shake256@ 00000000000a8ff8     OpensslLib:obj_dat.obj
 0002:0000cbc8       ??_C@_0BE@MGFGMONP@id?9hmacWithSHA3?9224@ 00000000000a9008     OpensslLib:obj_dat.obj
 0002:0000cbe0       ??_C@_0O@ICMEJKOD@hmac?9sha3?9224@ 00000000000a9020     OpensslLib:obj_dat.obj
 0002:0000cbf0       ??_C@_0BE@PBCPLKNI@id?9hmacWithSHA3?9256@ 00000000000a9030     OpensslLib:obj_dat.obj
 0002:0000cc08       ??_C@_0O@LFLNOOOE@hmac?9sha3?9256@ 00000000000a9048     OpensslLib:obj_dat.obj
 0002:0000cc18       ??_C@_0BE@HDHNCMGM@id?9hmacWithSHA3?9384@ 00000000000a9058     OpensslLib:obj_dat.obj
 0002:0000cc30       ??_C@_0O@DHOPHIFA@hmac?9sha3?9384@ 00000000000a9070     OpensslLib:obj_dat.obj
 0002:0000cc40       ??_C@_0BE@PJNOPLJ@id?9hmacWithSHA3?9512@ 00000000000a9080     OpensslLib:obj_dat.obj
 0002:0000cc58       ??_C@_0O@ELAPLLIF@hmac?9sha3?9512@ 00000000000a9098     OpensslLib:obj_dat.obj
 0002:0000cc68       ??_C@_0BD@LAAPDDDN@id?9dsa?9with?9sha384@ 00000000000a90a8     OpensslLib:obj_dat.obj
 0002:0000cc80       ??_C@_0BA@NOAAHENE@dsa_with_SHA384@ 00000000000a90c0     OpensslLib:obj_dat.obj
 0002:0000cc90       ??_C@_0BD@MMOPPAOI@id?9dsa?9with?9sha512@ 00000000000a90d0     OpensslLib:obj_dat.obj
 0002:0000cca8       ??_C@_0BA@KCOALHAB@dsa_with_SHA512@ 00000000000a90e8     OpensslLib:obj_dat.obj
 0002:0000ccb8       ??_C@_0BF@MEJGBMIA@id?9dsa?9with?9sha3?9224@ 00000000000a90f8     OpensslLib:obj_dat.obj
 0002:0000ccd0       ??_C@_0BC@KDJCOOBJ@dsa_with_SHA3?9224@ 00000000000a9110     OpensslLib:obj_dat.obj
 0002:0000cce8       ??_C@_0BF@PDOPGIIH@id?9dsa?9with?9sha3?9256@ 00000000000a9128     OpensslLib:obj_dat.obj
 0002:0000cd00       ??_C@_0BC@JEOLJKBO@dsa_with_SHA3?9256@ 00000000000a9140     OpensslLib:obj_dat.obj
 0002:0000cd18       ??_C@_0BF@HBLNPODD@id?9dsa?9with?9sha3?9384@ 00000000000a9158     OpensslLib:obj_dat.obj
 0002:0000cd30       ??_C@_0BC@BGLJAMKK@dsa_with_SHA3?9384@ 00000000000a9170     OpensslLib:obj_dat.obj
 0002:0000cd48       ??_C@_0BF@NFNDNOG@id?9dsa?9with?9sha3?9512@ 00000000000a9188     OpensslLib:obj_dat.obj
 0002:0000cd60       ??_C@_0BC@GKFJMPHP@dsa_with_SHA3?9512@ 00000000000a91a0     OpensslLib:obj_dat.obj
 0002:0000cd78       ??_C@_0BH@CPKNOLKD@id?9ecdsa?9with?9sha3?9224@ 00000000000a91b8     OpensslLib:obj_dat.obj
 0002:0000cd90       ??_C@_0BE@HAIIGEO@ecdsa_with_SHA3?9224@ 00000000000a91d0     OpensslLib:obj_dat.obj
 0002:0000cda8       ??_C@_0BH@BINEJPKE@id?9ecdsa?9with?9sha3?9256@ 00000000000a91e8     OpensslLib:obj_dat.obj
 0002:0000cdc0       ??_C@_0BE@DAHBPCEJ@ecdsa_with_SHA3?9256@ 00000000000a9200     OpensslLib:obj_dat.obj
 0002:0000cdd8       ??_C@_0BH@JKIGAJBA@id?9ecdsa?9with?9sha3?9384@ 00000000000a9218     OpensslLib:obj_dat.obj
 0002:0000cdf0       ??_C@_0BE@LCCDGEPN@ecdsa_with_SHA3?9384@ 00000000000a9230     OpensslLib:obj_dat.obj
 0002:0000ce08       ??_C@_0BH@OGGGMKMF@id?9ecdsa?9with?9sha3?9512@ 00000000000a9248     OpensslLib:obj_dat.obj
 0002:0000ce20       ??_C@_0BE@MOMDKHCI@ecdsa_with_SHA3?9512@ 00000000000a9260     OpensslLib:obj_dat.obj
 0002:0000ce38       ??_C@_0CD@HOFJHNFO@id?9rsassa?9pkcs1?9v1_5?9with?9sha3?9@ 00000000000a9278     OpensslLib:obj_dat.obj
 0002:0000ce60       ??_C@_0N@FBFOELEH@RSA?9SHA3?9224@ 00000000000a92a0     OpensslLib:obj_dat.obj
 0002:0000ce70       ??_C@_0CD@EJCAAJFJ@id?9rsassa?9pkcs1?9v1_5?9with?9sha3?9@ 00000000000a92b0     OpensslLib:obj_dat.obj
 0002:0000ce98       ??_C@_0N@GGCHDPEA@RSA?9SHA3?9256@ 00000000000a92d8     OpensslLib:obj_dat.obj
 0002:0000cea8       ??_C@_0CD@MLHCJPON@id?9rsassa?9pkcs1?9v1_5?9with?9sha3?9@ 00000000000a92e8     OpensslLib:obj_dat.obj
 0002:0000ced0       ??_C@_0N@OEHFKJPE@RSA?9SHA3?9384@ 00000000000a9310     OpensslLib:obj_dat.obj
 0002:0000cee0       ??_C@_0CD@LHJCFMDI@id?9rsassa?9pkcs1?9v1_5?9with?9sha3?9@ 00000000000a9320     OpensslLib:obj_dat.obj
 0002:0000cf08       ??_C@_0N@JIJFGKCB@RSA?9SHA3?9512@ 00000000000a9348     OpensslLib:obj_dat.obj
 0002:0000cf18       ??_C@_0N@PGFKGHCP@ARIA?9128?9CCM@ 00000000000a9358     OpensslLib:obj_dat.obj
 0002:0000cf28       ??_C@_0N@JJCPLGFJ@aria?9128?9ccm@ 00000000000a9368     OpensslLib:obj_dat.obj
 0002:0000cf38       ??_C@_0N@FFMGBALD@ARIA?9192?9CCM@ 00000000000a9378     OpensslLib:obj_dat.obj
 0002:0000cf48       ??_C@_0N@DKLDMBMF@aria?9192?9ccm@ 00000000000a9388     OpensslLib:obj_dat.obj
 0002:0000cf58       ??_C@_0N@IHHIDPDC@ARIA?9256?9CCM@ 00000000000a9398     OpensslLib:obj_dat.obj
 0002:0000cf68       ??_C@_0N@OIANOOEE@aria?9256?9ccm@ 00000000000a93a8     OpensslLib:obj_dat.obj
 0002:0000cf78       ??_C@_0N@HJDIPAHI@ARIA?9128?9GCM@ 00000000000a93b8     OpensslLib:obj_dat.obj
 0002:0000cf88       ??_C@_0N@BGENCBAO@aria?9128?9gcm@ 00000000000a93c8     OpensslLib:obj_dat.obj
 0002:0000cf98       ??_C@_0N@NKKEIHOE@ARIA?9192?9GCM@ 00000000000a93d8     OpensslLib:obj_dat.obj
 0002:0000cfa8       ??_C@_0N@LFNBFGJC@aria?9192?9gcm@ 00000000000a93e8     OpensslLib:obj_dat.obj
 0002:0000cfb8       ??_C@_0N@IBKKIGF@ARIA?9256?9GCM@ 00000000000a93f8     OpensslLib:obj_dat.obj
 0002:0000cfc8       ??_C@_0N@GHGPHJBD@aria?9256?9gcm@ 00000000000a9408     OpensslLib:obj_dat.obj
 0002:0000cfd8       ??_C@_09EEADMLEK@ffdhe2048@ 00000000000a9418     OpensslLib:obj_dat.obj
 0002:0000cfe8       ??_C@_09IBMKLECJ@ffdhe3072@ 00000000000a9428     OpensslLib:obj_dat.obj
 0002:0000cff8       ??_C@_09FNBIIADH@ffdhe4096@ 00000000000a9438     OpensslLib:obj_dat.obj
 0002:0000d008       ??_C@_09KFIKEFOD@ffdhe6144@ 00000000000a9448     OpensslLib:obj_dat.obj
 0002:0000d018       ??_C@_09EEDIMPFH@ffdhe8192@ 00000000000a9458     OpensslLib:obj_dat.obj
 0002:0000d024       ??_C@_05BDNCIFGE@cmcCA@    00000000000a9464     OpensslLib:obj_dat.obj
 0002:0000d030       ??_C@_0BK@LBDJBFMP@CMC?5Certificate?5Authority@ 00000000000a9470     OpensslLib:obj_dat.obj
 0002:0000d04c       ??_C@_05ODGEMCD@cmcRA@     00000000000a948c     OpensslLib:obj_dat.obj
 0002:0000d058       ??_C@_0BL@NBGEGOFM@CMC?5Registration?5Authority@ 00000000000a9498     OpensslLib:obj_dat.obj
 0002:0000d078       ??_C@_07NOELNIBF@SM4?9ECB@ 00000000000a94b8     OpensslLib:obj_dat.obj
 0002:0000d080       ??_C@_07OFHLEOKD@sm4?9ecb@ 00000000000a94c0     OpensslLib:obj_dat.obj
 0002:0000d088       ??_C@_07ODPJNMLP@SM4?9CBC@ 00000000000a94c8     OpensslLib:obj_dat.obj
 0002:0000d090       ??_C@_07NIMJEKAJ@sm4?9cbc@ 00000000000a94d0     OpensslLib:obj_dat.obj
 0002:0000d098       ??_C@_07LHDNPKJK@SM4?9OFB@ 00000000000a94d8     OpensslLib:obj_dat.obj
 0002:0000d0a0       ??_C@_07IMANGMCM@sm4?9ofb@ 00000000000a94e0     OpensslLib:obj_dat.obj
 0002:0000d0a8       ??_C@_08BDMAKNBD@SM4?9CFB1@ 00000000000a94e8     OpensslLib:obj_dat.obj
 0002:0000d0b8       ??_C@_08DBPJILDM@sm4?9cfb1@ 00000000000a94f8     OpensslLib:obj_dat.obj
 0002:0000d0c8       ??_C@_07PNOLEFCC@SM4?9CFB@ 00000000000a9508     OpensslLib:obj_dat.obj
 0002:0000d0d0       ??_C@_07MGNLNDJE@sm4?9cfb@ 00000000000a9510     OpensslLib:obj_dat.obj
 0002:0000d0d8       ??_C@_08MCACBGFK@SM4?9CFB8@ 00000000000a9518     OpensslLib:obj_dat.obj
 0002:0000d0e8       ??_C@_08OADLDAHF@sm4?9cfb8@ 00000000000a9528     OpensslLib:obj_dat.obj
 0002:0000d0f8       ??_C@_07KIILCAGN@SM4?9CTR@ 00000000000a9538     OpensslLib:obj_dat.obj
 0002:0000d100       ??_C@_07JDLLLGNL@sm4?9ctr@ 00000000000a9540     OpensslLib:obj_dat.obj
 0002:0000d108       ??_C@_06KNMHIDBL@ISO?9CN@  00000000000a9548     OpensslLib:obj_dat.obj
 0002:0000d110       ??_C@_0BD@GLPDOOPB@ISO?5CN?5Member?5Body@ 00000000000a9550     OpensslLib:obj_dat.obj
 0002:0000d124       ??_C@_05BGAJAOLO@oscca@    00000000000a9564     OpensslLib:obj_dat.obj
 0002:0000d130       ??_C@_09GAILPDAI@sm?9scheme@ 00000000000a9570     OpensslLib:obj_dat.obj
 0002:0000d13c       ??_C@_03ILCKPLAM@SM3@      00000000000a957c     OpensslLib:obj_dat.obj
 0002:0000d140       ??_C@_03BDFFBCNC@sm3@      00000000000a9580     OpensslLib:obj_dat.obj
 0002:0000d148       ??_C@_07DHCHMOJE@RSA?9SM3@ 00000000000a9588     OpensslLib:obj_dat.obj
 0002:0000d150       ??_C@_0BF@LJEMNFBJ@sm3WithRSAEncryption@ 00000000000a9590     OpensslLib:obj_dat.obj
 0002:0000d168       ??_C@_0P@BJPJCBFP@RSA?9SHA512?1224@ 00000000000a95a8     OpensslLib:obj_dat.obj
 0002:0000d178       ??_C@_0BM@OAMEHMHD@sha512?9224WithRSAEncryption@ 00000000000a95b8     OpensslLib:obj_dat.obj
 0002:0000d198       ??_C@_0P@COIAFFFI@RSA?9SHA512?1256@ 00000000000a95d8     OpensslLib:obj_dat.obj
 0002:0000d1a8       ??_C@_0BM@HFDENMBB@sha512?9256WithRSAEncryption@ 00000000000a95e8     OpensslLib:obj_dat.obj
 0002:0000d1c8       ??_C@_0CF@ELFGJJJE@id?9tc26?9gost?93410?92012?9256?9cons@ 00000000000a9608     OpensslLib:obj_dat.obj
 0002:0000d1f0       ??_C@_0CF@FBBBLKKL@id?9tc26?9gost?93410?92012?9256?9para@ 00000000000a9630     OpensslLib:obj_dat.obj
 0002:0000d218       ??_C@_0CH@KHJMDINL@GOST?5R?534?410?92012?5?$CI256?5bit?$CJ?5Par@ 00000000000a9658     OpensslLib:obj_dat.obj
 0002:0000d240       ??_C@_0CF@MFFFCDAA@id?9tc26?9gost?93410?92012?9512?9para@ 00000000000a9680     OpensslLib:obj_dat.obj
 0002:0000d268       ??_C@_0CH@JGCOCGCO@GOST?5R?534?410?92012?5?$CI512?5bit?$CJ?5Par@ 00000000000a96a8     OpensslLib:obj_dat.obj
 0002:0000d290       ??_C@_06DCPEEABG@ISO?9UA@  00000000000a96d0     OpensslLib:obj_dat.obj
 0002:0000d298       ??_C@_06LNLILMPE@ua?9pki@  00000000000a96d8     OpensslLib:obj_dat.obj
 0002:0000d2a0       ??_C@_09LIAMILCI@dstu28147@ 00000000000a96e0     OpensslLib:obj_dat.obj
 0002:0000d2b0       ??_C@_0BF@BOFOAMLJ@DSTU?5Gost?528147?92009@ 00000000000a96f0     OpensslLib:obj_dat.obj
 0002:0000d2c8       ??_C@_0O@KAGMLFFF@dstu28147?9ofb@ 00000000000a9708     OpensslLib:obj_dat.obj
 0002:0000d2d8       ??_C@_0BO@NJFBFPDF@DSTU?5Gost?528147?92009?5OFB?5mode@ 00000000000a9718     OpensslLib:obj_dat.obj
 0002:0000d2f8       ??_C@_0O@OKLKAKON@dstu28147?9cfb@ 00000000000a9738     OpensslLib:obj_dat.obj
 0002:0000d308       ??_C@_0BO@DPGFKMCB@DSTU?5Gost?528147?92009?5CFB?5mode@ 00000000000a9748     OpensslLib:obj_dat.obj
 0002:0000d328       ??_C@_0P@LJDDBCOK@dstu28147?9wrap@ 00000000000a9768     OpensslLib:obj_dat.obj
 0002:0000d338       ??_C@_0BO@GCIMDMBJ@DSTU?5Gost?528147?92009?5key?5wrap@ 00000000000a9778     OpensslLib:obj_dat.obj
 0002:0000d358       ??_C@_0BC@NEKEGBFA@hmacWithDstu34311@ 00000000000a9798     OpensslLib:obj_dat.obj
 0002:0000d370       ??_C@_0BI@PPEFMJDF@HMAC?5DSTU?5Gost?534311?995@ 00000000000a97b0     OpensslLib:obj_dat.obj
 0002:0000d388       ??_C@_09EMDIBIGK@dstu34311@ 00000000000a97c8     OpensslLib:obj_dat.obj
 0002:0000d398       ??_C@_0BD@KEGEMFDO@DSTU?5Gost?534311?995@ 00000000000a97d8     OpensslLib:obj_dat.obj
 0002:0000d3b0       ??_C@_0L@HJONHGCF@dstu4145le@ 00000000000a97f0     OpensslLib:obj_dat.obj
 0002:0000d3c0       ??_C@_0BN@DLDIMCIJ@DSTU?54145?92002?5little?5endian@ 00000000000a9800     OpensslLib:obj_dat.obj
 0002:0000d3e0       ??_C@_0L@HDHDFLCP@dstu4145be@ 00000000000a9820     OpensslLib:obj_dat.obj
 0002:0000d3f0       ??_C@_0BK@JAHDELLE@DSTU?54145?92002?5big?5endian@ 00000000000a9830     OpensslLib:obj_dat.obj
 0002:0000d410       ??_C@_08CCOHEDD@uacurve0@  00000000000a9850     OpensslLib:obj_dat.obj
 0002:0000d420       ??_C@_0N@OIEODNOG@DSTU?5curve?50@ 00000000000a9860     OpensslLib:obj_dat.obj
 0002:0000d430       ??_C@_08BLDFEFHC@uacurve1@ 00000000000a9870     OpensslLib:obj_dat.obj
 0002:0000d440       ??_C@_0N@PBFFAMKH@DSTU?5curve?51@ 00000000000a9880     OpensslLib:obj_dat.obj
 0002:0000d450       ??_C@_08DABIBGLB@uacurve2@ 00000000000a9890     OpensslLib:obj_dat.obj
 0002:0000d460       ??_C@_0N@NKHIFPGE@DSTU?5curve?52@ 00000000000a98a0     OpensslLib:obj_dat.obj
 0002:0000d470       ??_C@_08CJADCHPA@uacurve3@ 00000000000a98b0     OpensslLib:obj_dat.obj
 0002:0000d480       ??_C@_0N@MDGDGOCF@DSTU?5curve?53@ 00000000000a98c0     OpensslLib:obj_dat.obj
 0002:0000d490       ??_C@_08GGECLBDH@uacurve4@ 00000000000a98d0     OpensslLib:obj_dat.obj
 0002:0000d4a0       ??_C@_0N@IMCCPIOC@DSTU?5curve?54@ 00000000000a98e0     OpensslLib:obj_dat.obj
 0002:0000d4b0       ??_C@_08HPFJIAHG@uacurve5@ 00000000000a98f0     OpensslLib:obj_dat.obj
 0002:0000d4c0       ??_C@_0N@JFDJMJKD@DSTU?5curve?55@ 00000000000a9900     OpensslLib:obj_dat.obj
 0002:0000d4d0       ??_C@_08FEHENDLF@uacurve6@ 00000000000a9910     OpensslLib:obj_dat.obj
 0002:0000d4e0       ??_C@_0N@LOBEJKGA@DSTU?5curve?56@ 00000000000a9920     OpensslLib:obj_dat.obj
 0002:0000d4f0       ??_C@_08ENGPOCPE@uacurve7@ 00000000000a9930     OpensslLib:obj_dat.obj
 0002:0000d500       ??_C@_0N@KHAPKLCB@DSTU?5curve?57@ 00000000000a9940     OpensslLib:obj_dat.obj
 0002:0000d510       ??_C@_08MKPHPODL@uacurve8@ 00000000000a9950     OpensslLib:obj_dat.obj
 0002:0000d520       ??_C@_0N@CAJHLHOO@DSTU?5curve?58@ 00000000000a9960     OpensslLib:obj_dat.obj
 0002:0000d530       ??_C@_08NDOMMPHK@uacurve9@ 00000000000a9970     OpensslLib:obj_dat.obj
 0002:0000d540       ??_C@_0N@DJIMIGKP@DSTU?5curve?59@ 00000000000a9980     OpensslLib:obj_dat.obj
 0002:0000d550       ??_C@_04PHJBIMMG@ieee@     00000000000a9990     OpensslLib:obj_dat.obj
 0002:0000d558       ??_C@_0L@LDKGPNGG@ieee?9siswg@ 00000000000a9998     OpensslLib:obj_dat.obj
 0002:0000d568       ??_C@_0CH@DHDAMGDO@IEEE?5Security?5in?5Storage?5Workin@ 00000000000a99a8     OpensslLib:obj_dat.obj
 0002:0000d590       ??_C@_03JCDBMKEN@SM2@      00000000000a99d0     OpensslLib:obj_dat.obj
 0002:0000d594       ??_C@_03KEOCDJD@sm2@       00000000000a99d4     OpensslLib:obj_dat.obj
 0002:0000d598       ??_C@_0CE@MLINIGJF@id?9tc26?9cipher?9gostr3412?92015?9m@ 00000000000a99d8     OpensslLib:obj_dat.obj
 0002:0000d5c0       ??_C@_0CN@OJMMMFNF@id?9tc26?9cipher?9gostr3412?92015?9m@ 00000000000a9a00     OpensslLib:obj_dat.obj
 0002:0000d5f0       ??_C@_0DC@HJFGIJEF@id?9tc26?9cipher?9gostr3412?92015?9m@ 00000000000a9a30     OpensslLib:obj_dat.obj
 0002:0000d628       ??_C@_0CJ@OIMAFCDH@id?9tc26?9cipher?9gostr3412?92015?9k@ 00000000000a9a68     OpensslLib:obj_dat.obj
 0002:0000d658       ??_C@_0DC@FCNHEHI@id?9tc26?9cipher?9gostr3412?92015?9k@ 00000000000a9a98     OpensslLib:obj_dat.obj
 0002:0000d690       ??_C@_0DH@OMEPNOK@id?9tc26?9cipher?9gostr3412?92015?9k@ 00000000000a9ad0     OpensslLib:obj_dat.obj
 0002:0000d6c8       ??_C@_0N@NOHKDKEG@id?9tc26?9wrap@ 00000000000a9b08     OpensslLib:obj_dat.obj
 0002:0000d6d8       ??_C@_0CC@ICCBFKEK@id?9tc26?9wrap?9gostr3412?92015?9mag@ 00000000000a9b18     OpensslLib:obj_dat.obj
 0002:0000d700       ??_C@_0CJ@GAGBMOFA@id?9tc26?9wrap?9gostr3412?92015?9mag@ 00000000000a9b40     OpensslLib:obj_dat.obj
 0002:0000d730       ??_C@_0CH@HODOOMNG@id?9tc26?9wrap?9gostr3412?92015?9kuz@ 00000000000a9b70     OpensslLib:obj_dat.obj
 0002:0000d758       ??_C@_0CO@KKJKILDM@id?9tc26?9wrap?9gostr3412?92015?9kuz@ 00000000000a9b98     OpensslLib:obj_dat.obj
 0002:0000d788       ??_C@_0CF@HKDMOJGI@id?9tc26?9gost?93410?92012?9256?9para@ 00000000000a9bc8     OpensslLib:obj_dat.obj
 0002:0000d7b0       ??_C@_0CH@IMLBGLBI@GOST?5R?534?410?92012?5?$CI256?5bit?$CJ?5Par@ 00000000000a9bf0     OpensslLib:obj_dat.obj
 0002:0000d7d8       ??_C@_0CF@GDCHNICJ@id?9tc26?9gost?93410?92012?9256?9para@ 00000000000a9c18     OpensslLib:obj_dat.obj
 0002:0000d800       ??_C@_0CH@JFKKFKFJ@GOST?5R?534?410?92012?5?$CI256?5bit?$CJ?5Par@ 00000000000a9c40     OpensslLib:obj_dat.obj
 0002:0000d828       ??_C@_0CF@CMGGEOOO@id?9tc26?9gost?93410?92012?9256?9para@ 00000000000a9c68     OpensslLib:obj_dat.obj
 0002:0000d850       ??_C@_0CH@NKOLMMJO@GOST?5R?534?410?92012?5?$CI256?5bit?$CJ?5Par@ 00000000000a9c90     OpensslLib:obj_dat.obj
 0002:0000d878       ??_C@_09KIGAEFAO@magma?9ecb@ 00000000000a9cb8     OpensslLib:obj_dat.obj
 0002:0000d888       ??_C@_09NOKALNHG@magma?9ctr@ 00000000000a9cc8     OpensslLib:obj_dat.obj
 0002:0000d898       ??_C@_09MBBGGHIB@magma?9ofb@ 00000000000a9cd8     OpensslLib:obj_dat.obj
 0002:0000d8a8       ??_C@_09JFNCEBKE@magma?9cbc@ 00000000000a9ce8     OpensslLib:obj_dat.obj
 0002:0000d8b8       ??_C@_09ILMANIDJ@magma?9cfb@ 00000000000a9cf8     OpensslLib:obj_dat.obj
 0002:0000d8c8       ??_C@_09HHELIIMO@magma?9mac@ 00000000000a9d08     OpensslLib:obj_dat.obj
 0002:0000d8d8       ??_C@_0BD@EJFCDPF@hmacWithSHA512?9224@ 00000000000a9d18     OpensslLib:obj_dat.obj
 0002:0000d8f0       ??_C@_0BD@DDOMFHPC@hmacWithSHA512?9256@ 00000000000a9d30     OpensslLib:obj_dat.obj
 0002:0001e808       ??_C@_06HOHPNJLC@buffer@   00000000000bac48     OpensslLib:bf_buff.obj
 0002:0001e870       ??_C@_0CF@LKDMNFLO@Load?5certs?5from?5files?5in?5a?5dire@ 00000000000bacb0     OpensslLib:by_dir.obj
 0002:0001e898       ??_C@_01KDCPPGHE@r@        00000000000bacd8     OpensslLib:by_dir.obj
 0002:0001e8a0       ??_C@_0P@NEPFKFLK@?$CFs?$CFc?$CF08lx?4?$CFs?$CFd@ 00000000000bace0     OpensslLib:by_dir.obj
 0002:0001e8b0       X509_EXTENSION_it          00000000000bacf0     OpensslLib:x_exten.obj
 0002:0001e8e0       ??_C@_08CBBMEOFB@critical@ 00000000000bad20     OpensslLib:x_exten.obj
 0002:0001e8f0       ??_C@_0P@OMHBNPIC@X509_EXTENSION@ 00000000000bad30     OpensslLib:x_exten.obj
 0002:0001e900       ??_C@_09KMFOEAAA@Extension@ 00000000000bad40     OpensslLib:x_exten.obj
 0002:0001e910       ??_C@_0BA@JCMMJNEE@X509_EXTENSIONS@ 00000000000bad50     OpensslLib:x_exten.obj
 0002:0001e980       X509_EXTENSIONS_it         00000000000badc0     OpensslLib:x_exten.obj
 0002:0001e9d0       ??_C@_0BM@GEKCFJOF@CLIENT_EARLY_TRAFFIC_SECRET@ 00000000000bae10     OpensslLib:tls13_enc.obj
 0002:0001e9f0       ??_C@_0BG@GMANNGGB@EARLY_EXPORTER_SECRET@ 00000000000bae30     OpensslLib:tls13_enc.obj
 0002:0001ea10       ??_C@_0CA@JNANKIHN@CLIENT_HANDSHAKE_TRAFFIC_SECRET@ 00000000000bae50     OpensslLib:tls13_enc.obj
 0002:0001ea30       ??_C@_0BI@LKBAKDIK@CLIENT_TRAFFIC_SECRET_0@ 00000000000bae70     OpensslLib:tls13_enc.obj
 0002:0001ea50       ??_C@_0CA@GFFPDLLH@SERVER_HANDSHAKE_TRAFFIC_SECRET@ 00000000000bae90     OpensslLib:tls13_enc.obj
 0002:0001ea70       ??_C@_0BI@OICJLECA@SERVER_TRAFFIC_SECRET_0@ 00000000000baeb0     OpensslLib:tls13_enc.obj
 0002:0001ea90       ??_C@_0BA@JAOKEMIF@EXPORTER_SECRET@ 00000000000baed0     OpensslLib:tls13_enc.obj
 0002:0001eb68       hrrrandom                  00000000000bafa8     OpensslLib:statem_lib.obj
 0002:0001eb88       ??_C@_0DF@BIKDGIBC@No?5ciphers?5enabled?5for?5max?5supp@ 00000000000bafc8     OpensslLib:statem_lib.obj
 0002:0001ebc0       ??_C@_0O@KAFPHBCN@CLIENT_RANDOM@ 00000000000bb000     OpensslLib:statem_lib.obj
 0002:0001ee68       ??_C@_0BF@HBBMCMFA@Load?5file?5into?5cache@ 00000000000bb2a8     OpensslLib:by_file.obj
 0002:00020888       tls12downgrade             00000000000bccc8     OpensslLib:s3_lib.obj
 0002:00020890       tls11downgrade             00000000000bccd0     OpensslLib:s3_lib.obj
 0002:00020898       ??_C@_0BH@DAGBJIMH@TLS_AES_128_GCM_SHA256@ 00000000000bccd8     OpensslLib:s3_lib.obj
 0002:000208b0       ??_C@_0BH@DMGFMCHK@TLS_AES_256_GCM_SHA384@ 00000000000bccf0     OpensslLib:s3_lib.obj
 0002:000208c8       ??_C@_0BH@IALIOLEF@TLS_AES_128_CCM_SHA256@ 00000000000bcd08     OpensslLib:s3_lib.obj
 0002:000208e0       ??_C@_0BJ@GAOKODFF@TLS_AES_128_CCM_8_SHA256@ 00000000000bcd20     OpensslLib:s3_lib.obj
 0002:00020900       ??_C@_0BG@ILBJCCPN@TLS_RSA_WITH_NULL_MD5@ 00000000000bcd40     OpensslLib:s3_lib.obj
 0002:00020918       ??_C@_0BG@HJJGEHMH@TLS_RSA_WITH_NULL_SHA@ 00000000000bcd58     OpensslLib:s3_lib.obj
 0002:00020930       ??_C@_0BN@GLNNHFOP@TLS_RSA_WITH_AES_128_CBC_SHA@ 00000000000bcd70     OpensslLib:s3_lib.obj
 0002:00020950       ??_C@_0BD@HPNPDEHO@DHE?9DSS?9AES128?9SHA@ 00000000000bcd90     OpensslLib:s3_lib.obj
 0002:00020968       ??_C@_0CB@IEOMDNPH@TLS_DHE_DSS_WITH_AES_128_CBC_SH@ 00000000000bcda8     OpensslLib:s3_lib.obj
 0002:00020990       ??_C@_0CB@FLMECDJK@TLS_DHE_RSA_WITH_AES_128_CBC_SH@ 00000000000bcdd0     OpensslLib:s3_lib.obj
 0002:000209b8       ??_C@_0P@KPBDEAFC@ADH?9AES128?9SHA@ 00000000000bcdf8     OpensslLib:s3_lib.obj
 0002:000209c8       ??_C@_0CB@CEIGDHEL@TLS_DH_anon_WITH_AES_128_CBC_SH@ 00000000000bce08     OpensslLib:s3_lib.obj
 0002:000209f0       ??_C@_0BN@CLLBICCP@TLS_RSA_WITH_AES_256_CBC_SHA@ 00000000000bce30     OpensslLib:s3_lib.obj
 0002:00020a10       ??_C@_0BD@OPNGMGD@DHE?9DSS?9AES256?9SHA@ 00000000000bce50     OpensslLib:s3_lib.obj
 0002:00020a28       ??_C@_0CB@MEIAMKDH@TLS_DHE_DSS_WITH_AES_256_CBC_SH@ 00000000000bce68     OpensslLib:s3_lib.obj
 0002:00020a50       ??_C@_0CB@BLKINEFK@TLS_DHE_RSA_WITH_AES_256_CBC_SH@ 00000000000bce90     OpensslLib:s3_lib.obj
 0002:00020a78       ??_C@_0P@NODBBIEP@ADH?9AES256?9SHA@ 00000000000bceb8     OpensslLib:s3_lib.obj
 0002:00020a88       ??_C@_0CB@GEOKMAIL@TLS_DH_anon_WITH_AES_256_CBC_SH@ 00000000000bcec8     OpensslLib:s3_lib.obj
 0002:00020ab0       ??_C@_0BJ@MDCKOJCL@TLS_RSA_WITH_NULL_SHA256@ 00000000000bcef0     OpensslLib:s3_lib.obj
 0002:00020ad0       ??_C@_0CA@PJAKDCAI@TLS_RSA_WITH_AES_128_CBC_SHA256@ 00000000000bcf10     OpensslLib:s3_lib.obj
 0002:00020af0       ??_C@_0CA@HHFMPOAB@TLS_RSA_WITH_AES_256_CBC_SHA256@ 00000000000bcf30     OpensslLib:s3_lib.obj
 0002:00020b10       ??_C@_0BG@CLHPPLD@DHE?9DSS?9AES128?9SHA256@ 00000000000bcf50     OpensslLib:s3_lib.obj
 0002:00020b28       ??_C@_0CE@ICEBAFBI@TLS_DHE_DSS_WITH_AES_128_CBC_SH@ 00000000000bcf68     OpensslLib:s3_lib.obj
 0002:00020b50       ??_C@_0CE@CDLKMKJB@TLS_DHE_RSA_WITH_AES_128_CBC_SH@ 00000000000bcf90     OpensslLib:s3_lib.obj
 0002:00020b78       ??_C@_0BG@LBELFJFJ@DHE?9DSS?9AES256?9SHA256@ 00000000000bcfb8     OpensslLib:s3_lib.obj
 0002:00020b90       ??_C@_0CE@MBHMJBB@TLS_DHE_DSS_WITH_AES_256_CBC_SH@ 00000000000bcfd0     OpensslLib:s3_lib.obj
 0002:00020bb8       ??_C@_0CE@KNOMAGJI@TLS_DHE_RSA_WITH_AES_256_CBC_SH@ 00000000000bcff8     OpensslLib:s3_lib.obj
 0002:00020be0       ??_C@_0BC@OKGBHCIO@ADH?9AES128?9SHA256@ 00000000000bd020     OpensslLib:s3_lib.obj
 0002:00020bf8       ??_C@_0CE@BJINGCAA@TLS_DH_anon_WITH_AES_128_CBC_SH@ 00000000000bd038     OpensslLib:s3_lib.obj
 0002:00020c20       ??_C@_0BC@FJJNNEGE@ADH?9AES256?9SHA256@ 00000000000bd060     OpensslLib:s3_lib.obj
 0002:00020c38       ??_C@_0CE@JHNLKOAJ@TLS_DH_anon_WITH_AES_256_CBC_SH@ 00000000000bd078     OpensslLib:s3_lib.obj
 0002:00020c60       ??_C@_0BC@MDCJLCEH@AES128?9GCM?9SHA256@ 00000000000bd0a0     OpensslLib:s3_lib.obj
 0002:00020c78       ??_C@_0CA@GONDPBCG@TLS_RSA_WITH_AES_128_GCM_SHA256@ 00000000000bd0b8     OpensslLib:s3_lib.obj
 0002:00020c98       ??_C@_0BC@MPCNOIPK@AES256?9GCM?9SHA384@ 00000000000bd0d8     OpensslLib:s3_lib.obj
 0002:00020cb0       ??_C@_0CA@GCNHKLJL@TLS_RSA_WITH_AES_256_GCM_SHA384@ 00000000000bd0f0     OpensslLib:s3_lib.obj
 0002:00020cd0       ??_C@_0BK@ONPIDPDM@DHE?9RSA?9AES128?9GCM?9SHA256@ 00000000000bd110     OpensslLib:s3_lib.obj
 0002:00020cf0       ??_C@_0CE@LEGDAJLP@TLS_DHE_RSA_WITH_AES_128_GCM_SH@ 00000000000bd130     OpensslLib:s3_lib.obj
 0002:00020d18       ??_C@_0BK@OBPMGFIB@DHE?9RSA?9AES256?9GCM?9SHA384@ 00000000000bd158     OpensslLib:s3_lib.obj
 0002:00020d38       ??_C@_0CE@LIGHFDAC@TLS_DHE_RSA_WITH_AES_256_GCM_SH@ 00000000000bd178     OpensslLib:s3_lib.obj
 0002:00020d60       ??_C@_0BK@BMPGPCFE@DHE?9DSS?9AES128?9GCM?9SHA256@ 00000000000bd1a0     OpensslLib:s3_lib.obj
 0002:00020d80       ??_C@_0CE@BFJIMGDG@TLS_DHE_DSS_WITH_AES_128_GCM_SH@ 00000000000bd1c0     OpensslLib:s3_lib.obj
 0002:00020da8       ??_C@_0BK@BAPCKIOJ@DHE?9DSS?9AES256?9GCM?9SHA384@ 00000000000bd1e8     OpensslLib:s3_lib.obj
 0002:00020dc8       ??_C@_0CE@BJJMJMIL@TLS_DHE_DSS_WITH_AES_256_GCM_SH@ 00000000000bd208     OpensslLib:s3_lib.obj
 0002:00020df0       ??_C@_0BG@IOOJFCCI@ADH?9AES128?9GCM?9SHA256@ 00000000000bd230     OpensslLib:s3_lib.obj
 0002:00020e08       ??_C@_0CE@IOFEKBCO@TLS_DH_anon_WITH_AES_128_GCM_SH@ 00000000000bd248     OpensslLib:s3_lib.obj
 0002:00020e30       ??_C@_0BG@ICONAIJF@ADH?9AES256?9GCM?9SHA384@ 00000000000bd270     OpensslLib:s3_lib.obj
 0002:00020e48       ??_C@_0CE@ICFAPLJD@TLS_DH_anon_WITH_AES_256_GCM_SH@ 00000000000bd288     OpensslLib:s3_lib.obj
 0002:00020e70       ??_C@_0L@KJLLEFIE@AES128?9CCM@ 00000000000bd2b0     OpensslLib:s3_lib.obj
 0002:00020e80       ??_C@_0BJ@CPMGLEJM@TLS_RSA_WITH_AES_128_CCM@ 00000000000bd2c0     OpensslLib:s3_lib.obj
 0002:00020ea0       ??_C@_0L@NIJJBNJJ@AES256?9CCM@ 00000000000bd2e0     OpensslLib:s3_lib.obj
 0002:00020eb0       ??_C@_0BJ@FOOEOMIB@TLS_RSA_WITH_AES_256_CCM@ 00000000000bd2f0     OpensslLib:s3_lib.obj
 0002:00020ed0       ??_C@_0BD@DNOFJLCA@DHE?9RSA?9AES128?9CCM@ 00000000000bd310     OpensslLib:s3_lib.obj
 0002:00020ee8       ??_C@_0BN@HNMFPPKP@TLS_DHE_RSA_WITH_AES_128_CCM@ 00000000000bd328     OpensslLib:s3_lib.obj
 0002:00020f08       ??_C@_0BD@EMMHMDDN@DHE?9RSA?9AES256?9CCM@ 00000000000bd348     OpensslLib:s3_lib.obj
 0002:00020f20       ??_C@_0BN@MOHKHLC@TLS_DHE_RSA_WITH_AES_256_CCM@ 00000000000bd360     OpensslLib:s3_lib.obj
 0002:00020f40       ??_C@_0M@PNODEAIH@AES128?9CCM8@ 00000000000bd380     OpensslLib:s3_lib.obj
 0002:00020f50       ??_C@_0BL@GBIHEIDD@TLS_RSA_WITH_AES_128_CCM_8@ 00000000000bd390     OpensslLib:s3_lib.obj
 0002:00020f70       ??_C@_0M@JOJEAOAG@AES256?9CCM8@ 00000000000bd3b0     OpensslLib:s3_lib.obj
 0002:00020f80       ??_C@_0BL@PLFLIMML@TLS_RSA_WITH_AES_256_CCM_8@ 00000000000bd3c0     OpensslLib:s3_lib.obj
 0002:00020fa0       ??_C@_0BE@CMMMHJKI@DHE?9RSA?9AES128?9CCM8@ 00000000000bd3e0     OpensslLib:s3_lib.obj
 0002:00020fb8       ??_C@_0BP@HEOCOHBI@TLS_DHE_RSA_WITH_AES_128_CCM_8@ 00000000000bd3f8     OpensslLib:s3_lib.obj
 0002:00020fd8       ??_C@_0BE@EPLLDHCJ@DHE?9RSA?9AES256?9CCM8@ 00000000000bd418     OpensslLib:s3_lib.obj
 0002:00020ff0       ??_C@_0BP@OODOCDOA@TLS_DHE_RSA_WITH_AES_256_CCM_8@ 00000000000bd430     OpensslLib:s3_lib.obj
 0002:00021010       ??_C@_0P@BMMGAJOF@PSK?9AES128?9CCM@ 00000000000bd450     OpensslLib:s3_lib.obj
 0002:00021020       ??_C@_0BJ@LGBHKOJF@TLS_PSK_WITH_AES_128_CCM@ 00000000000bd460     OpensslLib:s3_lib.obj
 0002:00021040       ??_C@_0P@GNOEFBPI@PSK?9AES256?9CCM@ 00000000000bd480     OpensslLib:s3_lib.obj
 0002:00021050       ??_C@_0BJ@MHDFPGII@TLS_PSK_WITH_AES_256_CCM@ 00000000000bd490     OpensslLib:s3_lib.obj
 0002:00021070       ??_C@_0BD@KPDMEMJH@DHE?9PSK?9AES128?9CCM@ 00000000000bd4b0     OpensslLib:s3_lib.obj
 0002:00021088       ??_C@_0BN@OEBEOFKG@TLS_DHE_PSK_WITH_AES_128_CCM@ 00000000000bd4c8     OpensslLib:s3_lib.obj
 0002:000210a8       ??_C@_0BD@NOBOBEIK@DHE?9PSK?9AES256?9CCM@ 00000000000bd4e8     OpensslLib:s3_lib.obj
 0002:000210c0       ??_C@_0BN@JFDGLNLL@TLS_DHE_PSK_WITH_AES_256_CCM@ 00000000000bd500     OpensslLib:s3_lib.obj
 0002:000210e0       ??_C@_0BA@MHODGMAF@PSK?9AES128?9CCM8@ 00000000000bd520     OpensslLib:s3_lib.obj
 0002:000210f0       ??_C@_0BL@ENCHJDNB@TLS_PSK_WITH_AES_128_CCM_8@ 00000000000bd530     OpensslLib:s3_lib.obj
 0002:00021110       ??_C@_0BA@KEJECCIE@PSK?9AES256?9CCM8@ 00000000000bd550     OpensslLib:s3_lib.obj
 0002:00021120       ??_C@_0BL@NHPLFHCJ@TLS_PSK_WITH_AES_256_CCM_8@ 00000000000bd560     OpensslLib:s3_lib.obj
 0002:00021140       ??_C@_0BE@HJFLIGFA@DHE?9PSK?9AES128?9CCM8@ 00000000000bd580     OpensslLib:s3_lib.obj
 0002:00021158       ??_C@_0BP@NGKGHCKJ@TLS_PSK_DHE_WITH_AES_128_CCM_8@ 00000000000bd598     OpensslLib:s3_lib.obj
 0002:00021178       ??_C@_0BE@BKCMMINB@DHE?9PSK?9AES256?9CCM8@ 00000000000bd5b8     OpensslLib:s3_lib.obj
 0002:00021190       ??_C@_0BP@EMHKLGFB@TLS_PSK_DHE_WITH_AES_256_CCM_8@ 00000000000bd5d0     OpensslLib:s3_lib.obj
 0002:000211b0       ??_C@_0BH@BNCNIMGL@ECDHE?9ECDSA?9AES128?9CCM@ 00000000000bd5f0     OpensslLib:s3_lib.obj
 0002:000211c8       ??_C@_0CB@CHIDJEAB@TLS_ECDHE_ECDSA_WITH_AES_128_CC@ 00000000000bd608     OpensslLib:s3_lib.obj
 0002:000211f0       ??_C@_0BH@GMAPNEHG@ECDHE?9ECDSA?9AES256?9CCM@ 00000000000bd630     OpensslLib:s3_lib.obj
 0002:00021208       ??_C@_0CB@FGKBMMBM@TLS_ECDHE_ECDSA_WITH_AES_256_CC@ 00000000000bd648     OpensslLib:s3_lib.obj
 0002:00021230       ??_C@_0BI@MNOCCJKH@ECDHE?9ECDSA?9AES128?9CCM8@ 00000000000bd670     OpensslLib:s3_lib.obj
 0002:00021248       ??_C@_0CD@JOAGJEOJ@TLS_ECDHE_ECDSA_WITH_AES_128_CC@ 00000000000bd688     OpensslLib:s3_lib.obj
 0002:00021270       ??_C@_0BI@KOJFGHCG@ECDHE?9ECDSA?9AES256?9CCM8@ 00000000000bd6b0     OpensslLib:s3_lib.obj
 0002:00021288       ??_C@_0CD@ENKFABB@TLS_ECDHE_ECDSA_WITH_AES_256_CC@ 00000000000bd6c8     OpensslLib:s3_lib.obj
 0002:000212b0       ??_C@_0BF@DLPMKBDM@ECDHE?9ECDSA?9NULL?9SHA@ 00000000000bd6f0     OpensslLib:s3_lib.obj
 0002:000212c8       ??_C@_0BO@KLMGBBBE@TLS_ECDHE_ECDSA_WITH_NULL_SHA@ 00000000000bd708     OpensslLib:s3_lib.obj
 0002:000212e8       ??_C@_0BH@ONNEHLBJ@ECDHE?9ECDSA?9AES128?9SHA@ 00000000000bd728     OpensslLib:s3_lib.obj
 0002:00021300       ??_C@_0CF@JPGPDJAE@TLS_ECDHE_ECDSA_WITH_AES_128_CB@ 00000000000bd740     OpensslLib:s3_lib.obj
 0002:00021328       ??_C@_0BH@JMPGCDAE@ECDHE?9ECDSA?9AES256?9SHA@ 00000000000bd768     OpensslLib:s3_lib.obj
 0002:00021340       ??_C@_0CF@NPADMOME@TLS_ECDHE_ECDSA_WITH_AES_256_CB@ 00000000000bd780     OpensslLib:s3_lib.obj
 0002:00021368       ??_C@_0BD@POEMEBJK@ECDHE?9RSA?9NULL?9SHA@ 00000000000bd7a8     OpensslLib:s3_lib.obj
 0002:00021380       ??_C@_0BM@NPNNKOBB@TLS_ECDHE_RSA_WITH_NULL_SHA@ 00000000000bd7c0     OpensslLib:s3_lib.obj
 0002:000213a0       ??_C@_0BF@LFIDEHLO@ECDHE?9RSA?9AES128?9SHA@ 00000000000bd7e0     OpensslLib:s3_lib.obj
 0002:000213b8       ??_C@_0CD@NFKGCGFL@TLS_ECDHE_RSA_WITH_AES_128_CBC_@ 00000000000bd7f8     OpensslLib:s3_lib.obj
 0002:000213e0       ??_C@_0BF@MEKBBPKD@ECDHE?9RSA?9AES256?9SHA@ 00000000000bd820     OpensslLib:s3_lib.obj
 0002:000213f8       ??_C@_0CD@JFMKNBJL@TLS_ECDHE_RSA_WITH_AES_256_CBC_@ 00000000000bd838     OpensslLib:s3_lib.obj
 0002:00021420       ??_C@_0P@PMJJNNNJ@AECDH?9NULL?9SHA@ 00000000000bd860     OpensslLib:s3_lib.obj
 0002:00021430       ??_C@_0BM@JDJGLMDB@TLS_ECDH_anon_WITH_NULL_SHA@ 00000000000bd870     OpensslLib:s3_lib.obj
 0002:00021450       ??_C@_0BB@JHGOIGMC@AECDH?9AES128?9SHA@ 00000000000bd890     OpensslLib:s3_lib.obj
 0002:00021468       ??_C@_0CD@KKOEDCIK@TLS_ECDH_anon_WITH_AES_128_CBC_@ 00000000000bd8a8     OpensslLib:s3_lib.obj
 0002:00021490       ??_C@_0BB@OGEMNONP@AECDH?9AES256?9SHA@ 00000000000bd8d0     OpensslLib:s3_lib.obj
 0002:000214a8       ??_C@_0CD@OKIIMFEK@TLS_ECDH_anon_WITH_AES_256_CBC_@ 00000000000bd8e8     OpensslLib:s3_lib.obj
 0002:000214d0       ??_C@_0BK@KPBMKIMG@ECDHE?9ECDSA?9AES128?9SHA256@ 00000000000bd910     OpensslLib:s3_lib.obj
 0002:000214f0       ??_C@_0CI@CFBONPBE@TLS_ECDHE_ECDSA_WITH_AES_128_CB@ 00000000000bd930     OpensslLib:s3_lib.obj
 0002:00021518       ??_C@_0BK@JOLCJIJI@ECDHE?9ECDSA?9AES256?9SHA384@ 00000000000bd958     OpensslLib:s3_lib.obj
 0002:00021538       ??_C@_0CI@CJBKIFKJ@TLS_ECDHE_ECDSA_WITH_AES_256_CB@ 00000000000bd978     OpensslLib:s3_lib.obj
 0002:00021560       ??_C@_0BI@PFNHFOND@ECDHE?9RSA?9AES128?9SHA256@ 00000000000bd9a0     OpensslLib:s3_lib.obj
 0002:00021578       ??_C@_0CG@GNBMMCFJ@TLS_ECDHE_RSA_WITH_AES_128_CBC_@ 00000000000bd9b8     OpensslLib:s3_lib.obj
 0002:000215a0       ??_C@_0BI@MEHJGOIN@ECDHE?9RSA?9AES256?9SHA384@ 00000000000bd9e0     OpensslLib:s3_lib.obj
 0002:000215b8       ??_C@_0CG@GBBIJIOE@TLS_ECDHE_RSA_WITH_AES_256_CBC_@ 00000000000bd9f8     OpensslLib:s3_lib.obj
 0002:000215e0       ??_C@_0CI@LCMHBMDK@TLS_ECDHE_ECDSA_WITH_AES_128_GC@ 00000000000bda20     OpensslLib:s3_lib.obj
 0002:00021608       ??_C@_0CI@LOMDEGIH@TLS_ECDHE_ECDSA_WITH_AES_256_GC@ 00000000000bda48     OpensslLib:s3_lib.obj
 0002:00021630       ??_C@_0BM@LJEODOBI@ECDHE?9RSA?9AES128?9GCM?9SHA256@ 00000000000bda70     OpensslLib:s3_lib.obj
 0002:00021650       ??_C@_0CG@PKMFABHH@TLS_ECDHE_RSA_WITH_AES_128_GCM_@ 00000000000bda90     OpensslLib:s3_lib.obj
 0002:00021678       ??_C@_0BM@LFEKGEKF@ECDHE?9RSA?9AES256?9GCM?9SHA384@ 00000000000bdab8     OpensslLib:s3_lib.obj
 0002:00021698       ??_C@_0CG@PGMBFLMK@TLS_ECDHE_RSA_WITH_AES_256_GCM_@ 00000000000bdad8     OpensslLib:s3_lib.obj
 0002:000216c0       ??_C@_0N@HKILAJND@PSK?9NULL?9SHA@ 00000000000bdb00     OpensslLib:s3_lib.obj
 0002:000216d0       ??_C@_0BG@IIPBJGGI@TLS_PSK_WITH_NULL_SHA@ 00000000000bdb10     OpensslLib:s3_lib.obj
 0002:000216e8       ??_C@_0BB@EMNBFIBH@DHE?9PSK?9NULL?9SHA@ 00000000000bdb28     OpensslLib:s3_lib.obj
 0002:00021700       ??_C@_0BK@LEJGBNE@TLS_DHE_PSK_WITH_NULL_SHA@ 00000000000bdb40     OpensslLib:s3_lib.obj
 0002:00021720       ??_C@_0BB@MKDEAGCC@RSA?9PSK?9NULL?9SHA@ 00000000000bdb60     OpensslLib:s3_lib.obj
 0002:00021738       ??_C@_0BK@ILKKADDF@TLS_RSA_PSK_WITH_NULL_SHA@ 00000000000bdb78     OpensslLib:s3_lib.obj
 0002:00021758       ??_C@_0BD@IMKOCFAD@PSK?9AES128?9CBC?9SHA@ 00000000000bdb98     OpensslLib:s3_lib.obj
 0002:00021770       ??_C@_0BN@BGJEMDHN@TLS_PSK_WITH_AES_128_CBC_SHA@ 00000000000bdbb0     OpensslLib:s3_lib.obj
 0002:00021790       ??_C@_0BD@MMMCNCMD@PSK?9AES256?9CBC?9SHA@ 00000000000bdbd0     OpensslLib:s3_lib.obj
 0002:000217a8       ??_C@_0BN@FGPIDELN@TLS_PSK_WITH_AES_256_CBC_SHA@ 00000000000bdbe8     OpensslLib:s3_lib.obj
 0002:000217c8       ??_C@_0BH@IHPCOJDO@DHE?9PSK?9AES128?9CBC?9SHA@ 00000000000bdc08     OpensslLib:s3_lib.obj
 0002:000217e0       ??_C@_0CB@CGINJFAI@TLS_DHE_PSK_WITH_AES_128_CBC_SH@ 00000000000bdc20     OpensslLib:s3_lib.obj
 0002:00021808       ??_C@_0BH@MHJOBOPO@DHE?9PSK?9AES256?9CBC?9SHA@ 00000000000bdc48     OpensslLib:s3_lib.obj
 0002:00021820       ??_C@_0CB@GGOBGCMI@TLS_DHE_PSK_WITH_AES_256_CBC_SH@ 00000000000bdc60     OpensslLib:s3_lib.obj
 0002:00021848       ??_C@_0BH@FAHPNILC@RSA?9PSK?9AES128?9CBC?9SHA@ 00000000000bdc88     OpensslLib:s3_lib.obj
 0002:00021860       ??_C@_0CB@EEELJNMO@TLS_RSA_PSK_WITH_AES_128_CBC_SH@ 00000000000bdca0     OpensslLib:s3_lib.obj
 0002:00021888       ??_C@_0BH@BABDCPHC@RSA?9PSK?9AES256?9CBC?9SHA@ 00000000000bdcc8     OpensslLib:s3_lib.obj
 0002:000218a0       ??_C@_0CB@ECHGKAO@TLS_RSA_PSK_WITH_AES_256_CBC_SH@ 00000000000bdce0     OpensslLib:s3_lib.obj
 0002:000218c8       ??_C@_0BG@LNJMKFNH@PSK?9AES128?9GCM?9SHA256@ 00000000000bdd08     OpensslLib:s3_lib.obj
 0002:000218e0       ??_C@_0CA@CNNLGNMP@TLS_PSK_WITH_AES_128_GCM_SHA256@ 00000000000bdd20     OpensslLib:s3_lib.obj
 0002:00021900       ??_C@_0BG@LBJIPPGK@PSK?9AES256?9GCM?9SHA384@ 00000000000bdd40     OpensslLib:s3_lib.obj
 0002:00021918       ??_C@_0CA@CBNPDHHC@TLS_PSK_WITH_AES_256_GCM_SHA384@ 00000000000bdd58     OpensslLib:s3_lib.obj
 0002:00021938       ??_C@_0BK@JELNFGIC@DHE?9PSK?9AES128?9GCM?9SHA256@ 00000000000bdd78     OpensslLib:s3_lib.obj
 0002:00021958       ??_C@_0CE@PHGLJFFG@TLS_DHE_PSK_WITH_AES_128_GCM_SH@ 00000000000bdd98     OpensslLib:s3_lib.obj
 0002:00021980       ??_C@_0BK@JILJAMDP@DHE?9PSK?9AES256?9GCM?9SHA384@ 00000000000bddc0     OpensslLib:s3_lib.obj
 0002:000219a0       ??_C@_0CE@PLGPMPOL@TLS_DHE_PSK_WITH_AES_256_GCM_SH@ 00000000000bdde0     OpensslLib:s3_lib.obj
 0002:000219c8       ??_C@_0BK@CJMGEMJO@RSA?9PSK?9AES128?9GCM?9SHA256@ 00000000000bde08     OpensslLib:s3_lib.obj
 0002:000219e8       ??_C@_0CE@NIJHJCEL@TLS_RSA_PSK_WITH_AES_128_GCM_SH@ 00000000000bde28     OpensslLib:s3_lib.obj
 0002:00021a10       ??_C@_0BK@CFMCBGCD@RSA?9PSK?9AES256?9GCM?9SHA384@ 00000000000bde50     OpensslLib:s3_lib.obj
 0002:00021a30       ??_C@_0CE@NEJDMIPG@TLS_RSA_PSK_WITH_AES_256_GCM_SH@ 00000000000bde70     OpensslLib:s3_lib.obj
 0002:00021a58       ??_C@_0BG@CKEFGGPJ@PSK?9AES128?9CBC?9SHA256@ 00000000000bde98     OpensslLib:s3_lib.obj
 0002:00021a70       ??_C@_0CA@LKACKOOB@TLS_PSK_WITH_AES_128_CBC_SHA256@ 00000000000bdeb0     OpensslLib:s3_lib.obj
 0002:00021a90       ??_C@_0BG@CGEBDMEE@PSK?9AES256?9CBC?9SHA384@ 00000000000bded0     OpensslLib:s3_lib.obj
 0002:00021aa8       ??_C@_0CA@LGAGPEFM@TLS_PSK_WITH_AES_256_CBC_SHA384@ 00000000000bdee8     OpensslLib:s3_lib.obj
 0002:00021ac8       ??_C@_0BA@NFPJOMNG@PSK?9NULL?9SHA256@ 00000000000bdf08     OpensslLib:s3_lib.obj
 0002:00021ad8       ??_C@_0BJ@FKPLPDCC@TLS_PSK_WITH_NULL_SHA256@ 00000000000bdf18     OpensslLib:s3_lib.obj
 0002:00021af8       ??_C@_0BA@FHKLHKGC@PSK?9NULL?9SHA384@ 00000000000bdf38     OpensslLib:s3_lib.obj
 0002:00021b08       ??_C@_0BJ@NIKJGFJG@TLS_PSK_WITH_NULL_SHA384@ 00000000000bdf48     OpensslLib:s3_lib.obj
 0002:00021b28       ??_C@_0BK@DGEJFKM@DHE?9PSK?9AES128?9CBC?9SHA256@ 00000000000bdf68     OpensslLib:s3_lib.obj
 0002:00021b48       ??_C@_0CE@GALCFGHI@TLS_DHE_PSK_WITH_AES_128_CBC_SH@ 00000000000bdf88     OpensslLib:s3_lib.obj
 0002:00021b70       ??_C@_0BK@PGAMPBB@DHE?9PSK?9AES256?9CBC?9SHA384@ 00000000000bdfb0     OpensslLib:s3_lib.obj
 0002:00021b90       ??_C@_0CE@GMLGAMMF@TLS_DHE_PSK_WITH_AES_256_CBC_SH@ 00000000000bdfd0     OpensslLib:s3_lib.obj
 0002:00021bb8       ??_C@_0BE@GLEBAGID@DHE?9PSK?9NULL?9SHA256@ 00000000000bdff8     OpensslLib:s3_lib.obj
 0002:00021bd0       ??_C@_0BN@IPILIBB@TLS_DHE_PSK_WITH_NULL_SHA256@ 00000000000be010     OpensslLib:s3_lib.obj
 0002:00021bf0       ??_C@_0BE@OJBDJADH@DHE?9PSK?9NULL?9SHA384@ 00000000000be030     OpensslLib:s3_lib.obj
 0002:00021c08       ??_C@_0BN@IKKKCOKF@TLS_DHE_PSK_WITH_NULL_SHA384@ 00000000000be048     OpensslLib:s3_lib.obj
 0002:00021c28       ??_C@_0BK@LOBPIPLA@RSA?9PSK?9AES128?9CBC?9SHA256@ 00000000000be068     OpensslLib:s3_lib.obj
 0002:00021c48       ??_C@_0CE@EPEOFBGF@TLS_RSA_PSK_WITH_AES_128_CBC_SH@ 00000000000be088     OpensslLib:s3_lib.obj
 0002:00021c70       ??_C@_0BK@LCBLNFAN@RSA?9PSK?9AES256?9CBC?9SHA384@ 00000000000be0b0     OpensslLib:s3_lib.obj
 0002:00021c90       ??_C@_0CE@EDEKALNI@TLS_RSA_PSK_WITH_AES_256_CBC_SH@ 00000000000be0d0     OpensslLib:s3_lib.obj
 0002:00021cb8       ??_C@_0BE@LNLJEHFD@RSA?9PSK?9NULL?9SHA256@ 00000000000be0f8     OpensslLib:s3_lib.obj
 0002:00021cd0       ??_C@_0BN@MOBALIOB@TLS_RSA_PSK_WITH_NULL_SHA256@ 00000000000be110     OpensslLib:s3_lib.obj
 0002:00021cf0       ??_C@_0BE@DPOLNBOH@RSA?9PSK?9NULL?9SHA384@ 00000000000be130     OpensslLib:s3_lib.obj
 0002:00021d08       ??_C@_0BN@EMECCOFF@TLS_RSA_PSK_WITH_NULL_SHA384@ 00000000000be148     OpensslLib:s3_lib.obj
 0002:00021d28       ??_C@_0BJ@IHEENBGE@ECDHE?9PSK?9AES128?9CBC?9SHA@ 00000000000be168     OpensslLib:s3_lib.obj
 0002:00021d48       ??_C@_0CD@KIOPJAMJ@TLS_ECDHE_PSK_WITH_AES_128_CBC_@ 00000000000be188     OpensslLib:s3_lib.obj
 0002:00021d70       ??_C@_0BJ@MHCICGKE@ECDHE?9PSK?9AES256?9CBC?9SHA@ 00000000000be1b0     OpensslLib:s3_lib.obj
 0002:00021d90       ??_C@_0CD@OIIDGHAJ@TLS_ECDHE_PSK_WITH_AES_256_CBC_@ 00000000000be1d0     OpensslLib:s3_lib.obj
 0002:00021db8       ??_C@_0BM@FHNCJEII@ECDHE?9PSK?9AES128?9CBC?9SHA256@ 00000000000be1f8     OpensslLib:s3_lib.obj
 0002:00021dd8       ??_C@_0CG@COBEFOLA@TLS_ECDHE_PSK_WITH_AES_128_CBC_@ 00000000000be218     OpensslLib:s3_lib.obj
 0002:00021e00       ??_C@_0BM@FLNGMODF@ECDHE?9PSK?9AES256?9CBC?9SHA384@ 00000000000be240     OpensslLib:s3_lib.obj
 0002:00021e20       ??_C@_0CG@CCBAAEAN@TLS_ECDHE_PSK_WITH_AES_256_CBC_@ 00000000000be260     OpensslLib:s3_lib.obj
 0002:00021e48       ??_C@_0BD@HMLPKMFF@ECDHE?9PSK?9NULL?9SHA@ 00000000000be288     OpensslLib:s3_lib.obj
 0002:00021e60       ??_C@_0BM@COLKHPLO@TLS_ECDHE_PSK_WITH_NULL_SHA@ 00000000000be2a0     OpensslLib:s3_lib.obj
 0002:00021e80       ??_C@_0BG@MCIFDHPL@ECDHE?9PSK?9NULL?9SHA256@ 00000000000be2c0     OpensslLib:s3_lib.obj
 0002:00021e98       ??_C@_0BP@LNENGKLL@TLS_ECDHE_PSK_WITH_NULL_SHA256@ 00000000000be2d8     OpensslLib:s3_lib.obj
 0002:00021eb8       ??_C@_0BG@EANHKBEP@ECDHE?9PSK?9NULL?9SHA384@ 00000000000be2f8     OpensslLib:s3_lib.obj
 0002:00021ed0       ??_C@_0BP@DPBPPMAP@TLS_ECDHE_PSK_WITH_NULL_SHA384@ 00000000000be310     OpensslLib:s3_lib.obj
 0002:00021ef0       ??_C@_0BE@KDHKDGEP@SRP?9AES?9128?9CBC?9SHA@ 00000000000be330     OpensslLib:s3_lib.obj
 0002:00021f08       ??_C@_0CB@DLLLMFNE@TLS_SRP_SHA_WITH_AES_128_CBC_SH@ 00000000000be348     OpensslLib:s3_lib.obj
 0002:00021f30       ??_C@_0BI@MIDNJEDN@SRP?9RSA?9AES?9128?9CBC?9SHA@ 00000000000be370     OpensslLib:s3_lib.obj
 0002:00021f48       ??_C@_0CF@IDLKDHDJ@TLS_SRP_SHA_RSA_WITH_AES_128_CB@ 00000000000be388     OpensslLib:s3_lib.obj
 0002:00021f70       ??_C@_0BI@IHKPJFFG@SRP?9DSS?9AES?9128?9CBC?9SHA@ 00000000000be3b0     OpensslLib:s3_lib.obj
 0002:00021f88       ??_C@_0CF@FMJCCJFE@TLS_SRP_SHA_DSS_WITH_AES_128_CB@ 00000000000be3c8     OpensslLib:s3_lib.obj
 0002:00021fb0       ??_C@_0BE@ODBGMBIP@SRP?9AES?9256?9CBC?9SHA@ 00000000000be3f0     OpensslLib:s3_lib.obj
 0002:00021fc8       ??_C@_0CB@HLNHDCBE@TLS_SRP_SHA_WITH_AES_256_CBC_SH@ 00000000000be408     OpensslLib:s3_lib.obj
 0002:00021ff0       ??_C@_0BI@IIFBGDPN@SRP?9RSA?9AES?9256?9CBC?9SHA@ 00000000000be430     OpensslLib:s3_lib.obj
 0002:00022008       ??_C@_0CF@MDNGMAPJ@TLS_SRP_SHA_RSA_WITH_AES_256_CB@ 00000000000be448     OpensslLib:s3_lib.obj
 0002:00022030       ??_C@_0BI@MHMDGCJG@SRP?9DSS?9AES?9256?9CBC?9SHA@ 00000000000be470     OpensslLib:s3_lib.obj
 0002:00022048       ??_C@_0CF@BMPONOJE@TLS_SRP_SHA_DSS_WITH_AES_256_CB@ 00000000000be488     OpensslLib:s3_lib.obj
 0002:00022070       ??_C@_0BD@NEGKCKMD@ARIA128?9GCM?9SHA256@ 00000000000be4b0     OpensslLib:s3_lib.obj
 0002:00022088       ??_C@_0CB@NDPBLKAE@TLS_RSA_WITH_ARIA_128_GCM_SHA25@ 00000000000be4c8     OpensslLib:s3_lib.obj
 0002:000220b0       ??_C@_0BD@NIGOHAHO@ARIA256?9GCM?9SHA384@ 00000000000be4f0     OpensslLib:s3_lib.obj
 0002:000220c8       ??_C@_0CB@NPPFOALJ@TLS_RSA_WITH_ARIA_256_GCM_SHA38@ 00000000000be508     OpensslLib:s3_lib.obj
 0002:000220f0       ??_C@_0BL@BDJDFDPK@DHE?9RSA?9ARIA128?9GCM?9SHA256@ 00000000000be530     OpensslLib:s3_lib.obj
 0002:00022110       ??_C@_0CF@FKPICBBM@TLS_DHE_RSA_WITH_ARIA_128_GCM_S@ 00000000000be550     OpensslLib:s3_lib.obj
 0002:00022138       ??_C@_0BL@BPJHAJEH@DHE?9RSA?9ARIA256?9GCM?9SHA384@ 00000000000be578     OpensslLib:s3_lib.obj
 0002:00022158       ??_C@_0CF@FGPMHLKB@TLS_DHE_RSA_WITH_ARIA_256_GCM_S@ 00000000000be598     OpensslLib:s3_lib.obj
 0002:00022180       ??_C@_0BL@FAALLEFN@DHE?9DSS?9ARIA128?9GCM?9SHA256@ 00000000000be5c0     OpensslLib:s3_lib.obj
 0002:000221a0       ??_C@_0CF@MODNOBFH@TLS_DHE_DSS_WITH_ARIA_128_GCM_S@ 00000000000be5e0     OpensslLib:s3_lib.obj
 0002:000221c8       ??_C@_0BL@FMAPOOOA@DHE?9DSS?9ARIA256?9GCM?9SHA384@ 00000000000be608     OpensslLib:s3_lib.obj
 0002:000221e8       ??_C@_0CF@MCDJLLOK@TLS_DHE_DSS_WITH_ARIA_256_GCM_S@ 00000000000be628     OpensslLib:s3_lib.obj
 0002:00022210       ??_C@_0BP@PJGHJMNM@ECDHE?9ECDSA?9ARIA128?9GCM?9SHA256@ 00000000000be650     OpensslLib:s3_lib.obj
 0002:00022230       ??_C@_0CJ@MHCMPCKG@TLS_ECDHE_ECDSA_WITH_ARIA_128_G@ 00000000000be670     OpensslLib:s3_lib.obj
 0002:00022260       ??_C@_0BP@PFGDMGGB@ECDHE?9ECDSA?9ARIA256?9GCM?9SHA384@ 00000000000be6a0     OpensslLib:s3_lib.obj
 0002:00022280       ??_C@_0CJ@MLCIKIBL@TLS_ECDHE_ECDSA_WITH_ARIA_256_G@ 00000000000be6c0     OpensslLib:s3_lib.obj
 0002:000222b0       ??_C@_0BJ@NPIANOKE@ECDHE?9ARIA128?9GCM?9SHA256@ 00000000000be6f0     OpensslLib:s3_lib.obj
 0002:000222d0       ??_C@_0CH@MPAJMNJG@TLS_ECDHE_RSA_WITH_ARIA_128_GCM@ 00000000000be710     OpensslLib:s3_lib.obj
 0002:000222f8       ??_C@_0BJ@NDIEIEBJ@ECDHE?9ARIA256?9GCM?9SHA384@ 00000000000be738     OpensslLib:s3_lib.obj
 0002:00022318       ??_C@_0CH@MDANJHCL@TLS_ECDHE_RSA_WITH_ARIA_256_GCM@ 00000000000be758     OpensslLib:s3_lib.obj
 0002:00022340       ??_C@_0BH@CEBLAMJA@PSK?9ARIA128?9GCM?9SHA256@ 00000000000be780     OpensslLib:s3_lib.obj
 0002:00022358       ??_C@_0CB@KGEOIEE@TLS_PSK_WITH_ARIA_128_GCM_SHA25@ 00000000000be798     OpensslLib:s3_lib.obj
 0002:00022380       ??_C@_0BH@CIBPFGCN@PSK?9ARIA256?9GCM?9SHA384@ 00000000000be7c0     OpensslLib:s3_lib.obj
 0002:00022398       ??_C@_0CB@GGALCPJ@TLS_PSK_WITH_ARIA_256_GCM_SHA38@ 00000000000be7d8     OpensslLib:s3_lib.obj
 0002:000223c0       ??_C@_0BL@DPDDIIBI@DHE?9PSK?9ARIA128?9GCM?9SHA256@ 00000000000be800     OpensslLib:s3_lib.obj
 0002:000223e0       ??_C@_0CF@IDGNHDFM@TLS_DHE_PSK_WITH_ARIA_128_GCM_S@ 00000000000be820     OpensslLib:s3_lib.obj
 0002:00022408       ??_C@_0BL@DDDHNCKF@DHE?9PSK?9ARIA256?9GCM?9SHA384@ 00000000000be848     OpensslLib:s3_lib.obj
 0002:00022428       ??_C@_0CF@IPGJCJOB@TLS_DHE_PSK_WITH_ARIA_256_GCM_S@ 00000000000be868     OpensslLib:s3_lib.obj
 0002:00022450       ??_C@_0BL@CLIPKPEN@RSA?9PSK?9ARIA128?9GCM?9SHA256@ 00000000000be890     OpensslLib:s3_lib.obj
 0002:00022470       ??_C@_0CF@OAEEODIC@TLS_RSA_PSK_WITH_ARIA_128_GCM_S@ 00000000000be8b0     OpensslLib:s3_lib.obj
 0002:00022498       ??_C@_0BL@CHILPFPA@RSA?9PSK?9ARIA256?9GCM?9SHA384@ 00000000000be8d8     OpensslLib:s3_lib.obj
 0002:000224b8       ??_C@_0CF@OMEALJDP@TLS_RSA_PSK_WITH_ARIA_256_GCM_S@ 00000000000be8f8     OpensslLib:s3_lib.obj
 0002:000224e0       ??_C@_0CC@JFOIDLPE@TLS_EMPTY_RENEGOTIATION_INFO_SC@ 00000000000be920     OpensslLib:s3_lib.obj
 0002:00022508       ??_C@_0BC@PPIOKOOF@TLS_FALLBACK_SCSV@ 00000000000be948     OpensslLib:s3_lib.obj
 0002:00022520       ??_C@_0P@HBDMPDNI@revocationDate@ 00000000000be960     OpensslLib:x_crl.obj
 0002:00022530       ??_C@_0N@JBPKOADN@X509_REVOKED@ 00000000000be970     OpensslLib:x_crl.obj
 0002:00022540       ??_C@_0L@MPDCJAIM@lastUpdate@ 00000000000be980     OpensslLib:x_crl.obj
 0002:00022550       ??_C@_07MIJFAMBD@revoked@  00000000000be990     OpensslLib:x_crl.obj
 0002:00022558       ??_C@_0O@IMOAEKCP@X509_CRL_INFO@ 00000000000be998     OpensslLib:x_crl.obj
 0002:00022568       ??_C@_03GJBFOAJL@crl@      00000000000be9a8     OpensslLib:x_crl.obj
 0002:00022570       ??_C@_08JGFBPDAP@X509_CRL@ 00000000000be9b0     OpensslLib:x_crl.obj
 0002:00022580       X509_CRL_it                00000000000be9c0     OpensslLib:x_crl.obj
 0002:000225b0       X509_REVOKED_it            00000000000be9f0     OpensslLib:x_crl.obj
 0002:000227a8       X509_CRL_INFO_it           00000000000bebe8     OpensslLib:x_crl.obj
 0002:00022818       ??_C@_08OMICEKMJ@?0?5value?$DN@ 00000000000bec58     OpensslLib:conf_mod.obj
 0002:00022824       ??_C@_01KMDKNFGN@?1@       00000000000bec64     OpensslLib:conf_mod.obj
 0002:00022888       ??_C@_0M@GDPMILAC@ssl_version@ 00000000000becc8     OpensslLib:ssl_asn1.obj
 0002:00022894       ??_C@_06KDGDAFPH@cipher@   00000000000becd4     OpensslLib:ssl_asn1.obj
 0002:000228a0       ??_C@_0L@DLPAOANL@session_id@ 00000000000bece0     OpensslLib:ssl_asn1.obj
 0002:000228b0       ??_C@_0L@KJMILGPM@master_key@ 00000000000becf0     OpensslLib:ssl_asn1.obj
 0002:000228c0       ??_C@_07KGOPCKBC@key_arg@  00000000000bed00     OpensslLib:ssl_asn1.obj
 0002:000228c8       ??_C@_04CLCEDBPF@time@     00000000000bed08     OpensslLib:ssl_asn1.obj
 0002:000228d0       ??_C@_07DDHNKDGP@timeout@  00000000000bed10     OpensslLib:ssl_asn1.obj
 0002:000228d8       ??_C@_04JPOCPNKD@peer@     00000000000bed18     OpensslLib:ssl_asn1.obj
 0002:000228e0       ??_C@_0BD@DGCAODCO@session_id_context@ 00000000000bed20     OpensslLib:ssl_asn1.obj
 0002:000228f8       ??_C@_0O@LOBFLGP@verify_result@ 00000000000bed38     OpensslLib:ssl_asn1.obj
 0002:00022908       ??_C@_0BA@OAPGNJEP@tlsext_hostname@ 00000000000bed48     OpensslLib:ssl_asn1.obj
 0002:00022918       ??_C@_0BC@MEJNKKGP@psk_identity_hint@ 00000000000bed58     OpensslLib:ssl_asn1.obj
 0002:00022930       ??_C@_0N@IKCJDCCH@psk_identity@ 00000000000bed70     OpensslLib:ssl_asn1.obj
 0002:00022940       ??_C@_0BK@LNHEGPBA@tlsext_tick_lifetime_hint@ 00000000000bed80     OpensslLib:ssl_asn1.obj
 0002:00022960       ??_C@_0M@OOIMIADI@tlsext_tick@ 00000000000beda0     OpensslLib:ssl_asn1.obj
 0002:00022970       ??_C@_07CBAGAGHB@comp_id@  00000000000bedb0     OpensslLib:ssl_asn1.obj
 0002:00022978       ??_C@_05GECEPKB@flags@     00000000000bedb8     OpensslLib:ssl_asn1.obj
 0002:00022980       ??_C@_0BE@PALMMIAE@tlsext_tick_age_add@ 00000000000bedc0     OpensslLib:ssl_asn1.obj
 0002:00022998       ??_C@_0P@CLHPDAPE@max_early_data@ 00000000000bedd8     OpensslLib:ssl_asn1.obj
 0002:000229a8       ??_C@_0O@PFGABOEE@alpn_selected@ 00000000000bede8     OpensslLib:ssl_asn1.obj
 0002:000229b8       ??_C@_0BN@MJMHEEPO@tlsext_max_fragment_len_mode@ 00000000000bedf8     OpensslLib:ssl_asn1.obj
 0002:000229d8       ??_C@_0P@CEIJHKFJ@ticket_appdata@ 00000000000bee18     OpensslLib:ssl_asn1.obj
 0002:000229e8       ??_C@_0BB@PEHAMCMM@SSL_SESSION_ASN1@ 00000000000bee28     OpensslLib:ssl_asn1.obj
 0002:00022d10       ??_C@_0BH@FDMMOMD@Enter?5PEM?5pass?5phrase?3@ 00000000000bf150     OpensslLib:pem_lib.obj
 0002:00022d28       ??_C@_01EEMJAFIK@?6@       00000000000bf168     OpensslLib:pem_lib.obj
 0002:00022d30       ??_C@_0BA@MHDCIJI@ANY?5PRIVATE?5KEY@ 00000000000bf170     OpensslLib:pem_lib.obj
 0002:00022d40       ??_C@_0BG@OLFPLKDJ@ENCRYPTED?5PRIVATE?5KEY@ 00000000000bf180     OpensslLib:pem_lib.obj
 0002:00022d58       ??_C@_0M@GKANOOJ@PRIVATE?5KEY@ 00000000000bf198     OpensslLib:pem_lib.obj
 0002:00022d68       ??_C@_0L@MBJDOOAB@PARAMETERS@ 00000000000bf1a8     OpensslLib:pem_lib.obj
 0002:00022d78       ??_C@_0BE@FBOHFABJ@X9?442?5DH?5PARAMETERS@ 00000000000bf1b8     OpensslLib:pem_lib.obj
 0002:00022d90       ??_C@_0O@NMAFMHPO@DH?5PARAMETERS@ 00000000000bf1d0     OpensslLib:pem_lib.obj
 0002:00022da0       ??_C@_0BB@PKKMAABO@X509?5CERTIFICATE@ 00000000000bf1e0     OpensslLib:pem_lib.obj
 0002:00022db8       ??_C@_0BI@BBDALNCF@NEW?5CERTIFICATE?5REQUEST@ 00000000000bf1f8     OpensslLib:pem_lib.obj
 0002:00022dd0       ??_C@_0BE@PGIFFILK@CERTIFICATE?5REQUEST@ 00000000000bf210     OpensslLib:pem_lib.obj
 0002:00022de8       ??_C@_0BE@LHICLJDN@TRUSTED?5CERTIFICATE@ 00000000000bf228     OpensslLib:pem_lib.obj
 0002:00022dfc       ??_C@_05BKMMPIPN@PKCS7@    00000000000bf23c     OpensslLib:pem_lib.obj
 0002:00022e08       ??_C@_0BE@COMAFCKH@PKCS?5?$CD7?5SIGNED?5DATA@ 00000000000bf248     OpensslLib:pem_lib.obj
 0002:00022e20       ??_C@_0M@NNIFEEDF@Expecting?3?5@ 00000000000bf260     OpensslLib:pem_lib.obj
 0002:00022e2c       ??_C@_02OJDBNLEE@?5?7@     00000000000bf26c     OpensslLib:pem_lib.obj
 0002:00022e30       ??_C@_04HHCDBDLF@?5?7?$AN?6@ 00000000000bf270     OpensslLib:pem_lib.obj
 0002:00022e38       ??_C@_03MEPGMKBP@?5?7?$AN@ 00000000000bf278     OpensslLib:pem_lib.obj
 0002:00022e3c       ??_C@_03EIGJNPPM@?5?7?0@   00000000000bf27c     OpensslLib:pem_lib.obj
 0002:00023470       ??_C@_0N@JAGKAFD@FILE?5pointer@ 00000000000bf8b0     OpensslLib:bss_file.obj
 0002:000234e0       ??_C@_08ONNDIEBB@X509?5CRL@ 00000000000bf920     OpensslLib:pem_all.obj
 0002:000234f0       RSAPublicKey_it            00000000000bf930     OpensslLib:rsa_asn1.obj
 0002:00023520       RSAPrivateKey_it           00000000000bf960     OpensslLib:rsa_asn1.obj
 0002:00023550       ??_C@_01LPLHEDKD@d@        00000000000bf990     OpensslLib:rsa_asn1.obj
 0002:00023554       ??_C@_01PFHFFBPC@t@        00000000000bf994     OpensslLib:rsa_asn1.obj
 0002:00023558       ??_C@_0P@LIGOHEON@RSA_PRIME_INFO@ 00000000000bf998     OpensslLib:rsa_asn1.obj
 0002:00023568       ??_C@_01EFFIKLCJ@n@        00000000000bf9a8     OpensslLib:rsa_asn1.obj
 0002:0002356c       ??_C@_01KGKMHCOC@e@        00000000000bf9ac     OpensslLib:rsa_asn1.obj
 0002:00023570       ??_C@_01JBBJJEPG@p@        00000000000bf9b0     OpensslLib:rsa_asn1.obj
 0002:00023574       ??_C@_01IIACKFLH@q@        00000000000bf9b4     OpensslLib:rsa_asn1.obj
 0002:00023578       ??_C@_04OIPJJFD@dmp1@      00000000000bf9b8     OpensslLib:rsa_asn1.obj
 0002:00023580       ??_C@_04PENPDGE@dmq1@      00000000000bf9c0     OpensslLib:rsa_asn1.obj
 0002:00023588       ??_C@_04BBEMPLKC@iqmp@     00000000000bf9c8     OpensslLib:rsa_asn1.obj
 0002:00023590       ??_C@_0M@JLELLENH@prime_infos@ 00000000000bf9d0     OpensslLib:rsa_asn1.obj
 0002:000235a0       ??_C@_0O@PHAOOKLC@RSAPrivateKey@ 00000000000bf9e0     OpensslLib:rsa_asn1.obj
 0002:000235b0       ??_C@_0N@BFBLLDFG@RSAPublicKey@ 00000000000bf9f0     OpensslLib:rsa_asn1.obj
 0002:000235c0       ??_C@_0BB@KKPGFJED@maskGenAlgorithm@ 00000000000bfa00     OpensslLib:rsa_asn1.obj
 0002:000235d8       ??_C@_0L@PKGNFOCE@saltLength@ 00000000000bfa18     OpensslLib:rsa_asn1.obj
 0002:000235e8       ??_C@_0N@KGDDKMLA@trailerField@ 00000000000bfa28     OpensslLib:rsa_asn1.obj
 0002:000235f8       ??_C@_0P@PJJHDFJB@RSA_PSS_PARAMS@ 00000000000bfa38     OpensslLib:rsa_asn1.obj
 0002:000237e8       RSA_PRIME_INFO_it          00000000000bfc28     OpensslLib:rsa_asn1.obj
 0002:000238c0       RSA_PSS_PARAMS_it          00000000000bfd00     OpensslLib:rsa_asn1.obj
 0002:00023950       ASN1_BIT_STRING_it         00000000000bfd90     OpensslLib:tasn_typ.obj
 0002:00023980       ASN1_INTEGER_it            00000000000bfdc0     OpensslLib:tasn_typ.obj
 0002:000239b0       ASN1_NULL_it               00000000000bfdf0     OpensslLib:tasn_typ.obj
 0002:000239e0       ASN1_ENUMERATED_it         00000000000bfe20     OpensslLib:tasn_typ.obj
 0002:00023a10       ASN1_OBJECT_it             00000000000bfe50     OpensslLib:tasn_typ.obj
 0002:00023a40       ASN1_OCTET_STRING_it       00000000000bfe80     OpensslLib:tasn_typ.obj
 0002:00023a70       ASN1_GENERALIZEDTIME_it    00000000000bfeb0     OpensslLib:tasn_typ.obj
 0002:00023aa0       ASN1_IA5STRING_it          00000000000bfee0     OpensslLib:tasn_typ.obj
 0002:00023ad0       ASN1_ANY_it                00000000000bff10     OpensslLib:tasn_typ.obj
 0002:00023b00       ASN1_PRINTABLE_it          00000000000bff40     OpensslLib:tasn_typ.obj
 0002:00023b30       ASN1_BOOLEAN_it            00000000000bff70     OpensslLib:tasn_typ.obj
 0002:00023b60       ??_C@_0BC@PEBEKNCO@ASN1_OCTET_STRING@ 00000000000bffa0     OpensslLib:tasn_typ.obj
 0002:00023b78       ??_C@_0N@KIGEHGKE@ASN1_INTEGER@ 00000000000bffb8     OpensslLib:tasn_typ.obj
 0002:00023b88       ??_C@_0BA@CLGIIAJD@ASN1_ENUMERATED@ 00000000000bffc8     OpensslLib:tasn_typ.obj
 0002:00023b98       ??_C@_0BA@LJHGDIKH@ASN1_BIT_STRING@ 00000000000bffd8     OpensslLib:tasn_typ.obj
 0002:00023ba8       ??_C@_0BA@LEPDCAOC@ASN1_UTF8STRING@ 00000000000bffe8     OpensslLib:tasn_typ.obj
 0002:00023bb8       ??_C@_0BF@CPDMNKCA@ASN1_PRINTABLESTRING@ 00000000000bfff8     OpensslLib:tasn_typ.obj
 0002:00023bd0       ??_C@_0P@KBFNFBLB@ASN1_IA5STRING@ 00000000000c0010     OpensslLib:tasn_typ.obj
 0002:00023be0       ??_C@_0BF@MPJFOIHC@ASN1_GENERALIZEDTIME@ 00000000000c0020     OpensslLib:tasn_typ.obj
 0002:00023bf8       ??_C@_09NHFFCPKK@ASN1_NULL@ 00000000000c0038     OpensslLib:tasn_typ.obj
 0002:00023c08       ??_C@_0M@BJNOJGBL@ASN1_OBJECT@ 00000000000c0048     OpensslLib:tasn_typ.obj
 0002:00023c18       ??_C@_08FIDCPDIJ@ASN1_ANY@ 00000000000c0058     OpensslLib:tasn_typ.obj
 0002:00023c28       ??_C@_0O@NJFCFMGE@ASN1_SEQUENCE@ 00000000000c0068     OpensslLib:tasn_typ.obj
 0002:00023c38       ??_C@_0P@NDKOCAEJ@ASN1_PRINTABLE@ 00000000000c0078     OpensslLib:tasn_typ.obj
 0002:00023c48       ??_C@_0M@FANFDIEE@DISPLAYTEXT@ 00000000000c0088     OpensslLib:tasn_typ.obj
 0002:00023c58       ??_C@_0BA@CBHCBCAE@DIRECTORYSTRING@ 00000000000c0098     OpensslLib:tasn_typ.obj
 0002:00023c68       ??_C@_0N@HMAPMMGF@ASN1_BOOLEAN@ 00000000000c00a8     OpensslLib:tasn_typ.obj
 0002:00023c78       ??_C@_0O@JKANHMPI@ASN1_FBOOLEAN@ 00000000000c00b8     OpensslLib:tasn_typ.obj
 0002:00023c88       ??_C@_0BC@COPGMDLD@ASN1_SEQUENCE_ANY@ 00000000000c00c8     OpensslLib:tasn_typ.obj
 0002:00023ca0       ??_C@_0N@KHICOJGI@ASN1_SET_ANY@ 00000000000c00e0     OpensslLib:tasn_typ.obj
 0002:00023cb0       ASN1_SEQUENCE_ANY_it       00000000000c00f0     OpensslLib:tasn_typ.obj
 0002:00023d00       ASN1_UTF8STRING_it         00000000000c0140     OpensslLib:tasn_typ.obj
 0002:00023d30       ASN1_FBOOLEAN_it           00000000000c0170     OpensslLib:tasn_typ.obj
 0002:00023d60       ASN1_SET_ANY_it            00000000000c01a0     OpensslLib:tasn_typ.obj
 0002:00023db0       ASN1_PRINTABLESTRING_it    00000000000c01f0     OpensslLib:tasn_typ.obj
 0002:00023de0       DIRECTORYSTRING_it         00000000000c0220     OpensslLib:tasn_typ.obj
 0002:00023e10       ASN1_SEQUENCE_it           00000000000c0250     OpensslLib:tasn_typ.obj
 0002:00023e40       DISPLAYTEXT_it             00000000000c0280     OpensslLib:tasn_typ.obj
 0002:00023e70       ??_C@_07NHKPEHKF@?0?5Type?$DN@ 00000000000c02b0     OpensslLib:tasn_dec.obj
 0002:00023e78       ??_C@_06GPKHKFJE@Field?$DN@ 00000000000c02b8     OpensslLib:tasn_dec.obj
 0002:00023e80       ??_C@_05GCCLHHOK@Type?$DN@ 00000000000c02c0     OpensslLib:tasn_dec.obj
 0002:00023f10       X509_ALGOR_it              00000000000c0350     OpensslLib:x_algor.obj
 0002:00023f40       ??_C@_09DAGAJHIH@parameter@ 00000000000c0380     OpensslLib:x_algor.obj
 0002:00023f50       ??_C@_0L@BFHONDPK@X509_ALGOR@ 00000000000c0390     OpensslLib:x_algor.obj
 0002:00023fa0       ??_C@_08BMACPLOA@fullname@ 00000000000c03e0     OpensslLib:v3_crld.obj
 0002:00023fb0       ??_C@_0N@LGEOMMHB@relativename@ 00000000000c03f0     OpensslLib:v3_crld.obj
 0002:00023fc0       ??_C@_06CGLFEPBO@Unused@   00000000000c0400     OpensslLib:v3_crld.obj
 0002:00023fc8       ??_C@_06OJAIHGIC@unused@   00000000000c0408     OpensslLib:v3_crld.obj
 0002:00023fd0       ??_C@_0P@JENDIECI@Key?5Compromise@ 00000000000c0410     OpensslLib:v3_crld.obj
 0002:00023fe0       ??_C@_0O@MCEAAJLH@keyCompromise@ 00000000000c0420     OpensslLib:v3_crld.obj
 0002:00023ff0       ??_C@_0O@OOGICOKH@CA?5Compromise@ 00000000000c0430     OpensslLib:v3_crld.obj
 0002:00024000       ??_C@_0N@NONEFGOE@CACompromise@ 00000000000c0440     OpensslLib:v3_crld.obj
 0002:00024010       ??_C@_0BE@EECEIFAP@Affiliation?5Changed@ 00000000000c0450     OpensslLib:v3_crld.obj
 0002:00024028       ??_C@_0BD@BNOFAJLL@affiliationChanged@ 00000000000c0468     OpensslLib:v3_crld.obj
 0002:00024040       ??_C@_0L@FBLGFHIM@Superseded@ 00000000000c0480     OpensslLib:v3_crld.obj
 0002:00024050       ??_C@_0L@NHCKNIFL@superseded@ 00000000000c0490     OpensslLib:v3_crld.obj
 0002:00024060       ??_C@_0BH@OLCOAMGF@Cessation?5Of?5Operation@ 00000000000c04a0     OpensslLib:v3_crld.obj
 0002:00024078       ??_C@_0BF@IGJCOPF@cessationOfOperation@ 00000000000c04b8     OpensslLib:v3_crld.obj
 0002:00024090       ??_C@_0BB@IPDHDNJD@Certificate?5Hold@ 00000000000c04d0     OpensslLib:v3_crld.obj
 0002:000240a8       ??_C@_0BA@FBHLCNLK@certificateHold@ 00000000000c04e8     OpensslLib:v3_crld.obj
 0002:000240b8       ??_C@_0BE@FJCCMGMM@Privilege?5Withdrawn@ 00000000000c04f8     OpensslLib:v3_crld.obj
 0002:000240d0       ??_C@_0BD@PBLGJKCE@privilegeWithdrawn@ 00000000000c0510     OpensslLib:v3_crld.obj
 0002:000240e8       ??_C@_0O@PAGOKAK@AA?5Compromise@ 00000000000c0528     OpensslLib:v3_crld.obj
 0002:000240f8       ??_C@_0N@LOIIODKP@AACompromise@ 00000000000c0538     OpensslLib:v3_crld.obj
 0002:00024108       ??_C@_08DGFAABGD@?$DMEMPTY?$DO?6@ 00000000000c0548     OpensslLib:v3_crld.obj
 0002:00024118       ??_C@_07PFOCLIJD@reasons@  00000000000c0558     OpensslLib:v3_crld.obj
 0002:00024120       ??_C@_09GJHADLCP@CRLissuer@ 00000000000c0560     OpensslLib:v3_crld.obj
 0002:00024130       ??_C@_0O@HJHJCLAE@name?4fullname@ 00000000000c0570     OpensslLib:v3_crld.obj
 0002:00024140       ??_C@_0BC@JDMJBKME@name?4relativename@ 00000000000c0580     OpensslLib:v3_crld.obj
 0002:00024158       ??_C@_0BA@MLHIPLLG@DIST_POINT_NAME@ 00000000000c0598     OpensslLib:v3_crld.obj
 0002:00024168       ??_C@_09FBDFGJDL@distpoint@ 00000000000c05a8     OpensslLib:v3_crld.obj
 0002:00024178       ??_C@_0L@ELIKPJIH@DIST_POINT@ 00000000000c05b8     OpensslLib:v3_crld.obj
 0002:00024188       ??_C@_0BG@CHNNADAE@CRLDistributionPoints@ 00000000000c05c8     OpensslLib:v3_crld.obj
 0002:000241a0       ??_C@_0BA@BBHAIMOE@CRL_DIST_POINTS@ 00000000000c05e0     OpensslLib:v3_crld.obj
 0002:000241b0       ??_C@_08CENLBPEH@onlyuser@ 00000000000c05f0     OpensslLib:v3_crld.obj
 0002:000241bc       ??_C@_06PMNIEKCA@onlyCA@   00000000000c05fc     OpensslLib:v3_crld.obj
 0002:000241c8       ??_C@_0BA@FNMBIJDN@onlysomereasons@ 00000000000c0608     OpensslLib:v3_crld.obj
 0002:000241d8       ??_C@_0M@BECDICJC@indirectCRL@ 00000000000c0618     OpensslLib:v3_crld.obj
 0002:000241e8       ??_C@_08DBIINPPL@onlyattr@ 00000000000c0628     OpensslLib:v3_crld.obj
 0002:000241f8       ??_C@_0BD@ENBCPHJ@ISSUING_DIST_POINT@ 00000000000c0638     OpensslLib:v3_crld.obj
 0002:0002420c       ??_C@_06PPFMJOEO@onlyAA@   00000000000c064c     OpensslLib:v3_crld.obj
 0002:00024218       ??_C@_07BDICHDDB@?0value?3@ 00000000000c0658     OpensslLib:v3_crld.obj
 0002:00024220       ??_C@_06FONLLLNC@?0name?3@ 00000000000c0660     OpensslLib:v3_crld.obj
 0002:00024228       ??_C@_08PCLJGJAL@section?3@ 00000000000c0668     OpensslLib:v3_crld.obj
 0002:00024234       ??_C@_03HIJPJGOM@?$CF?$CKs@ 00000000000c0674     OpensslLib:v3_crld.obj
 0002:00024320       DIST_POINT_it              00000000000c0760     OpensslLib:v3_crld.obj
 0002:00024350       v3_crld                    00000000000c0790     OpensslLib:v3_crld.obj
 0002:000243b8       DIST_POINT_NAME_it         00000000000c07f8     OpensslLib:v3_crld.obj
 0002:000244e0       ISSUING_DIST_POINT_it      00000000000c0920     OpensslLib:v3_crld.obj
 0002:00024510       v3_freshest_crl            00000000000c0950     OpensslLib:v3_crld.obj
 0002:000245c0       v3_idp                     00000000000c0a00     OpensslLib:v3_crld.obj
 0002:00024690       CRL_DIST_POINTS_it         00000000000c0ad0     OpensslLib:v3_crld.obj
 0002:000246e8       ??_C@_05BMJJJIHB@trust@    00000000000c0b28     OpensslLib:x_x509a.obj
 0002:000246f0       ??_C@_06JPOFNODM@reject@   00000000000c0b30     OpensslLib:x_x509a.obj
 0002:000246f8       ??_C@_05NKHOCLEE@alias@    00000000000c0b38     OpensslLib:x_x509a.obj
 0002:00024700       ??_C@_05CNHMOIOC@keyid@    00000000000c0b40     OpensslLib:x_x509a.obj
 0002:00024708       ??_C@_05BGEKGIIP@other@    00000000000c0b48     OpensslLib:x_x509a.obj
 0002:00024710       ??_C@_0O@LJIIOIG@X509_CERT_AUX@ 00000000000c0b50     OpensslLib:x_x509a.obj
 0002:000247c0       X509_CERT_AUX_it           00000000000c0c00     OpensslLib:x_x509a.obj
 0002:000247f0       ??_C@_06KCELPKEE@serial@   00000000000c0c30     OpensslLib:v3_akeya.obj
 0002:000247f8       ??_C@_0BA@OPHCNPAP@AUTHORITY_KEYID@ 00000000000c0c38     OpensslLib:v3_akeya.obj
 0002:00024808       AUTHORITY_KEYID_it         00000000000c0c48     OpensslLib:v3_akeya.obj
 0002:000248a0       GENERAL_NAME_it            00000000000c0ce0     OpensslLib:v3_genn.obj
 0002:000248d0       ??_C@_07EEDOJOAA@type_id@  00000000000c0d10     OpensslLib:v3_genn.obj
 0002:000248d8       ??_C@_09MAFAINAH@OTHERNAME@ 00000000000c0d18     OpensslLib:v3_genn.obj
 0002:000248e8       ??_C@_0N@KBFEHHDO@nameAssigner@ 00000000000c0d28     OpensslLib:v3_genn.obj
 0002:000248f8       ??_C@_09EHIHAIPF@partyName@ 00000000000c0d38     OpensslLib:v3_genn.obj
 0002:00024908       ??_C@_0N@GEILLNKP@EDIPARTYNAME@ 00000000000c0d48     OpensslLib:v3_genn.obj
 0002:00024918       ??_C@_0M@FGIBMCEL@d?4otherName@ 00000000000c0d58     OpensslLib:v3_genn.obj
 0002:00024928       ??_C@_0N@MMCCMIPN@d?4rfc822Name@ 00000000000c0d68     OpensslLib:v3_genn.obj
 0002:00024938       ??_C@_09HIBJABFB@d?4dNSName@ 00000000000c0d78     OpensslLib:v3_genn.obj
 0002:00024948       ??_C@_0O@NKHOODFK@d?4x400Address@ 00000000000c0d88     OpensslLib:v3_genn.obj
 0002:00024958       ??_C@_0BA@JLDFBFLN@d?4directoryName@ 00000000000c0d98     OpensslLib:v3_genn.obj
 0002:00024968       ??_C@_0P@OBCPPLOL@d?4ediPartyName@ 00000000000c0da8     OpensslLib:v3_genn.obj
 0002:00024978       ??_C@_0BM@CMCMADCA@d?4uniformResourceIdentifier@ 00000000000c0db8     OpensslLib:v3_genn.obj
 0002:00024998       ??_C@_0M@PANAALJB@d?4iPAddress@ 00000000000c0dd8     OpensslLib:v3_genn.obj
 0002:000249a8       ??_C@_0P@KIENIEMD@d?4registeredID@ 00000000000c0de8     OpensslLib:v3_genn.obj
 0002:000249b8       ??_C@_0N@JCNPGCGM@GENERAL_NAME@ 00000000000c0df8     OpensslLib:v3_genn.obj
 0002:000249c8       ??_C@_0N@CJKIBDLK@GeneralNames@ 00000000000c0e08     OpensslLib:v3_genn.obj
 0002:000249d8       ??_C@_0O@NFAAPMIG@GENERAL_NAMES@ 00000000000c0e18     OpensslLib:v3_genn.obj
 0002:000249e8       OTHERNAME_it               00000000000c0e28     OpensslLib:v3_genn.obj
 0002:00024ac0       GENERAL_NAMES_it           00000000000c0f00     OpensslLib:v3_genn.obj
 0002:00024af0       EDIPARTYNAME_it            00000000000c0f30     OpensslLib:v3_genn.obj
 0002:00024c40       X509_VAL_it                00000000000c1080     OpensslLib:x_val.obj
 0002:00024c70       ??_C@_09MJPOMOII@notBefore@ 00000000000c10b0     OpensslLib:x_val.obj
 0002:00024c80       ??_C@_08PJIFIJBI@notAfter@ 00000000000c10c0     OpensslLib:x_val.obj
 0002:00024c90       ??_C@_08OPPGEJIL@X509_VAL@ 00000000000c10d0     OpensslLib:x_val.obj
 0002:00024ce0       ??_C@_04BHIIPFEC@base@     00000000000c1120     OpensslLib:v3_ncons.obj
 0002:00024ce8       ??_C@_07CCOEHHFD@minimum@  00000000000c1128     OpensslLib:v3_ncons.obj
 0002:00024cf0       ??_C@_07MEIENILC@maximum@  00000000000c1130     OpensslLib:v3_ncons.obj
 0002:00024cf8       ??_C@_0BA@ECMIFHDE@GENERAL_SUBTREE@ 00000000000c1138     OpensslLib:v3_ncons.obj
 0002:00024d08       ??_C@_0BC@FACFJLFB@permittedSubtrees@ 00000000000c1148     OpensslLib:v3_ncons.obj
 0002:00024d20       ??_C@_0BB@HLFEMJKE@excludedSubtrees@ 00000000000c1160     OpensslLib:v3_ncons.obj
 0002:00024d38       ??_C@_0BB@MLLJAFMN@NAME_CONSTRAINTS@ 00000000000c1178     OpensslLib:v3_ncons.obj
 0002:00024d50       ??_C@_09HAKFOFAM@permitted@ 00000000000c1190     OpensslLib:v3_ncons.obj
 0002:00024d60       ??_C@_08HPCEJEEF@excluded@ 00000000000c11a0     OpensslLib:v3_ncons.obj
 0002:00024d70       ??_C@_09DPPIOGNM@Permitted@ 00000000000c11b0     OpensslLib:v3_ncons.obj
 0002:00024d80       ??_C@_08PNNFBGOG@Excluded@ 00000000000c11c0     OpensslLib:v3_ncons.obj
 0002:00024d90       ??_C@_07GOIIHCND@?$CF?$CKs?$CFs?3?6@ 00000000000c11d0     OpensslLib:v3_ncons.obj
 0002:00024d98       ??_C@_03HBLCMHJN@IP?3@     00000000000c11d8     OpensslLib:v3_ncons.obj
 0002:00024d9c       ??_C@_01JLIPDDHJ@?3@       00000000000c11dc     OpensslLib:v3_ncons.obj
 0002:00024de0       v3_name_constraints        00000000000c1220     OpensslLib:v3_ncons.obj
 0002:00024e48       NAME_CONSTRAINTS_it        00000000000c1288     OpensslLib:v3_ncons.obj
 0002:00024ee0       GENERAL_SUBTREE_it         00000000000c1320     OpensslLib:v3_ncons.obj
 0002:00024f10       ??_C@_0L@JNOGJJCA@compatible@ 00000000000c1350     OpensslLib:x509_trs.obj
 0002:00024f20       ??_C@_0L@HNMCLCCI@SSL?5Client@ 00000000000c1360     OpensslLib:x509_trs.obj
 0002:00024f30       ??_C@_0L@DCIAGJKL@SSL?5Server@ 00000000000c1370     OpensslLib:x509_trs.obj
 0002:00024f40       ??_C@_0N@OEEPKGPL@S?1MIME?5email@ 00000000000c1380     OpensslLib:x509_trs.obj
 0002:00024f50       ??_C@_0O@EEPBMPKP@Object?5Signer@ 00000000000c1390     OpensslLib:x509_trs.obj
 0002:00024f60       ??_C@_0P@JHCOMJOI@OCSP?5responder@ 00000000000c13a0     OpensslLib:x509_trs.obj
 0002:00024f70       ??_C@_0N@CAJJAOJD@OCSP?5request@ 00000000000c13b0     OpensslLib:x509_trs.obj
 0002:00024f80       ??_C@_0L@CFEJKCOD@TSA?5server@ 00000000000c13c0     OpensslLib:x509_trs.obj
 0002:00024f90       ??_C@_09OJNEAJGG@?$DMINVALID?$DO@ 00000000000c13d0     OpensslLib:a_object.obj
 0002:00024f9c       ??_C@_04HCDDPBNL@TRUE@     00000000000c13dc     OpensslLib:v3_utl.obj
 0002:00024fa4       ??_C@_05MAJJAKPI@FALSE@    00000000000c13e4     OpensslLib:v3_utl.obj
 0002:00024fac       ??_C@_03EPGOEBGO@?90x@     00000000000c13ec     OpensslLib:v3_utl.obj
 0002:00024fb0       ??_C@_02MDDDDAID@0x@       00000000000c13f0     OpensslLib:v3_utl.obj
 0002:00024fb4       ??_C@_04LOAJBDKD@true@     00000000000c13f4     OpensslLib:v3_utl.obj
 0002:00024fbc       ??_C@_01NFFPALBN@Y@        00000000000c13fc     OpensslLib:v3_utl.obj
 0002:00024fc0       ??_C@_01EANLCPLP@y@        00000000000c1400     OpensslLib:v3_utl.obj
 0002:00024fc4       ??_C@_03IPHJCBHH@YES@      00000000000c1404     OpensslLib:v3_utl.obj
 0002:00024fc8       ??_C@_03ICICOMAL@yes@      00000000000c1408     OpensslLib:v3_utl.obj
 0002:00024fcc       ??_C@_05LAPONLG@false@     00000000000c140c     OpensslLib:v3_utl.obj
 0002:00024fd4       ??_C@_01NANMIPIL@N@        00000000000c1414     OpensslLib:v3_utl.obj
 0002:00024fd8       ??_C@_02NFLNFON@NO@        00000000000c1418     OpensslLib:v3_utl.obj
 0002:00024fdc       ??_C@_02KAJCLHKP@no@       00000000000c141c     OpensslLib:v3_utl.obj
 0002:00024fe0       ??_C@_04DLDJKMIA@xn?9?9@   00000000000c1420     OpensslLib:v3_utl.obj
 0002:00024fe8       ??_C@_0M@PCENNPGA@?$CFd?4?$CFd?4?$CFd?4?$CFd@ 00000000000c1428     OpensslLib:v3_utl.obj
 0002:00025008       ??_C@_0DP@NMJFIJMM@d?3?2edk2?2edk2?2CryptoPkg?2Library?2@ 00000000000c1448     OpensslLib:packet.obj
 0002:00025048       ??_C@_0DA@NANHDCLH@Assertion?5failed?3?5pkt?9?$DOsubs?5?$CB?$DN?5@ 00000000000c1488     OpensslLib:packet.obj
 0002:00025078       ??_C@_0CJ@HHBHGLHH@Assertion?5failed?3?5buf?5?$CB?$DN?5NULL?5?$CG@ 00000000000c14b8     OpensslLib:packet.obj
 0002:000250a8       ??_C@_0BO@MMCAKCAD@Assertion?5failed?3?5buf?5?$CB?$DN?5NULL@ 00000000000c14e8     OpensslLib:packet.obj
 0002:000250c8       ??_C@_0CE@EINCHMLC@Assertion?5failed?3?5pkt?9?$DOsubs?5?$CB?$DN?5@ 00000000000c1508     OpensslLib:packet.obj
 0002:000250f0       ??_C@_0CP@FHEBLAPG@Assertion?5failed?3?5size?5?$DM?$DN?5sizeo@ 00000000000c1530     OpensslLib:packet.obj
 0002:00025120       ??_C@_0CC@GNPBDMD@Assertion?5failed?3?5written?5?$CB?$DN?5NU@ 00000000000c1560     OpensslLib:packet.obj
 0002:00025148       ??_C@_0DD@KKKLCONA@Assertion?5failed?3?5pkt?9?$DOsubs?5?$CB?$DN?5@ 00000000000c1588     OpensslLib:packet.obj
 0002:00025190       ??_C@_06IJPNAHC@digest@    00000000000c15d0     OpensslLib:pmeth_lib.obj
 0002:00025198       ??_C@_02MFDMBIJM@ok@       00000000000c15d8     OpensslLib:x509_txt.obj
 0002:000251a0       ??_C@_0CL@ICDMHEOH@unspecified?5certificate?5verific@ 00000000000c15e0     OpensslLib:x509_txt.obj
 0002:000251d0       ??_C@_0CB@KFJODNFN@unable?5to?5get?5issuer?5certificat@ 00000000000c1610     OpensslLib:x509_txt.obj
 0002:000251f8       ??_C@_0BO@CIOBDJGN@unable?5to?5get?5certificate?5CRL@ 00000000000c1638     OpensslLib:x509_txt.obj
 0002:00025218       ??_C@_0CK@LBDBBNHI@unable?5to?5decrypt?5certificate?8s@ 00000000000c1658     OpensslLib:x509_txt.obj
 0002:00025248       ??_C@_0CC@KFEPDDPF@unable?5to?5decrypt?5CRL?8s?5signatu@ 00000000000c1688     OpensslLib:x509_txt.obj
 0002:00025270       ??_C@_0CD@KOEKDJOF@unable?5to?5decode?5issuer?5public?5@ 00000000000c16b0     OpensslLib:x509_txt.obj
 0002:00025298       ??_C@_0BO@FPBBKLNG@certificate?5signature?5failure@ 00000000000c16d8     OpensslLib:x509_txt.obj
 0002:000252b8       ??_C@_0BG@PKEGLGEB@CRL?5signature?5failure@ 00000000000c16f8     OpensslLib:x509_txt.obj
 0002:000252d0       ??_C@_0BN@JFLHFAGA@certificate?5is?5not?5yet?5valid@ 00000000000c1710     OpensslLib:x509_txt.obj
 0002:000252f0       ??_C@_0BI@HHICNLNC@certificate?5has?5expired@ 00000000000c1730     OpensslLib:x509_txt.obj
 0002:00025308       ??_C@_0BF@MIBPKMEH@CRL?5is?5not?5yet?5valid@ 00000000000c1748     OpensslLib:x509_txt.obj
 0002:00025320       ??_C@_0BA@JMGDIGAP@CRL?5has?5expired@ 00000000000c1760     OpensslLib:x509_txt.obj
 0002:00025330       ??_C@_0CO@BGGBNHHG@format?5error?5in?5certificate?8s?5n@ 00000000000c1770     OpensslLib:x509_txt.obj
 0002:00025360       ??_C@_0CN@NPHCNDGF@format?5error?5in?5certificate?8s?5n@ 00000000000c17a0     OpensslLib:x509_txt.obj
 0002:00025390       ??_C@_0CH@OEGANADM@format?5error?5in?5CRL?8s?5lastUpdat@ 00000000000c17d0     OpensslLib:x509_txt.obj
 0002:000253b8       ??_C@_0CH@DKJJKKIC@format?5error?5in?5CRL?8s?5nextUpdat@ 00000000000c17f8     OpensslLib:x509_txt.obj
 0002:000253e0       ??_C@_0O@BNNCBLEN@out?5of?5memory@ 00000000000c1820     OpensslLib:x509_txt.obj
 0002:000253f0       ??_C@_0BI@PBDHIKFI@self?5signed?5certificate@ 00000000000c1830     OpensslLib:x509_txt.obj
 0002:00025408       ??_C@_0CN@GCPAFAGL@self?5signed?5certificate?5in?5cert@ 00000000000c1848     OpensslLib:x509_txt.obj
 0002:00025438       ??_C@_0CH@NBHLNPJC@unable?5to?5get?5local?5issuer?5cert@ 00000000000c1878     OpensslLib:x509_txt.obj
 0002:00025460       ??_C@_0CH@PCOLJJF@unable?5to?5verify?5the?5first?5cert@ 00000000000c18a0     OpensslLib:x509_txt.obj
 0002:00025488       ??_C@_0BL@JGHJBAMD@certificate?5chain?5too?5long@ 00000000000c18c8     OpensslLib:x509_txt.obj
 0002:000254a8       ??_C@_0BE@PBLGGMOB@certificate?5revoked@ 00000000000c18e8     OpensslLib:x509_txt.obj
 0002:000254c0       ??_C@_0BH@EKEBOKH@invalid?5CA?5certificate@ 00000000000c1900     OpensslLib:x509_txt.obj
 0002:000254d8       ??_C@_0CA@LLGONKGK@path?5length?5constraint?5exceeded@ 00000000000c1918     OpensslLib:x509_txt.obj
 0002:000254f8       ??_C@_0CA@LPAJAMFA@unsupported?5certificate?5purpose@ 00000000000c1938     OpensslLib:x509_txt.obj
 0002:00025518       ??_C@_0BI@GDICGBPK@certificate?5not?5trusted@ 00000000000c1958     OpensslLib:x509_txt.obj
 0002:00025530       ??_C@_0BF@OJPAOPB@certificate?5rejected@ 00000000000c1970     OpensslLib:x509_txt.obj
 0002:00025548       ??_C@_0BI@OHGOAFON@subject?5issuer?5mismatch@ 00000000000c1988     OpensslLib:x509_txt.obj
 0002:00025560       ??_C@_0CO@HGJKNPBG@authority?5and?5subject?5key?5ident@ 00000000000c19a0     OpensslLib:x509_txt.obj
 0002:00025590       ??_C@_0CM@GGIKLLEP@authority?5and?5issuer?5serial?5num@ 00000000000c19d0     OpensslLib:x509_txt.obj
 0002:000255c0       ??_C@_0CP@EEPOGHPG@key?5usage?5does?5not?5include?5cert@ 00000000000c1a00     OpensslLib:x509_txt.obj
 0002:000255f0       ??_C@_0CF@OOPBMEA@unable?5to?5get?5CRL?5issuer?5certif@ 00000000000c1a30     OpensslLib:x509_txt.obj
 0002:00025618       ??_C@_0BN@DHGAFJG@unhandled?5critical?5extension@ 00000000000c1a58     OpensslLib:x509_txt.obj
 0002:00025638       ??_C@_0CH@JKPBLJBP@key?5usage?5does?5not?5include?5CRL?5@ 00000000000c1a78     OpensslLib:x509_txt.obj
 0002:00025660       ??_C@_0CB@OODOOIP@unhandled?5critical?5CRL?5extensio@ 00000000000c1aa0     OpensslLib:x509_txt.obj
 0002:00025688       ??_C@_0CN@GNFODAID@invalid?5non?9CA?5certificate?5?$CIhas@ 00000000000c1ac8     OpensslLib:x509_txt.obj
 0002:000256b8       ??_C@_0CG@BIOFEFIK@proxy?5path?5length?5constraint?5ex@ 00000000000c1af8     OpensslLib:x509_txt.obj
 0002:000256e0       ??_C@_0CN@HJJGOKEM@key?5usage?5does?5not?5include?5digi@ 00000000000c1b20     OpensslLib:x509_txt.obj
 0002:00025710       ??_C@_0EA@EILBDOFP@proxy?5certificates?5not?5allowed?0@ 00000000000c1b50     OpensslLib:x509_txt.obj
 0002:00025750       ??_C@_0CO@BIBMOLPK@invalid?5or?5inconsistent?5certifi@ 00000000000c1b90     OpensslLib:x509_txt.obj
 0002:00025780       ??_C@_0DF@JOCKIEDN@invalid?5or?5inconsistent?5certifi@ 00000000000c1bc0     OpensslLib:x509_txt.obj
 0002:000257b8       ??_C@_0BD@KPLGPDJA@no?5explicit?5policy@ 00000000000c1bf8     OpensslLib:x509_txt.obj
 0002:000257d0       ??_C@_0BE@FHFDNMCN@Different?5CRL?5scope@ 00000000000c1c10     OpensslLib:x509_txt.obj
 0002:000257e8       ??_C@_0BO@CHPDNLHA@Unsupported?5extension?5feature@ 00000000000c1c28     OpensslLib:x509_txt.obj
 0002:00025808       ??_C@_0DD@IBFFGHC@RFC?53779?5resource?5not?5subset?5of@ 00000000000c1c48     OpensslLib:x509_txt.obj
 0002:00025840       ??_C@_0BM@OAJDKGDI@permitted?5subtree?5violation@ 00000000000c1c80     OpensslLib:x509_txt.obj
 0002:00025860       ??_C@_0BL@OHBCHEHN@excluded?5subtree?5violation@ 00000000000c1ca0     OpensslLib:x509_txt.obj
 0002:00025880       ??_C@_0DD@KOHKHENH@name?5constraints?5minimum?5and?5ma@ 00000000000c1cc0     OpensslLib:x509_txt.obj
 0002:000258b8       ??_C@_0CB@HLIFGCCB@application?5verification?5failur@ 00000000000c1cf8     OpensslLib:x509_txt.obj
 0002:000258e0       ??_C@_0CB@NJIFBAAK@unsupported?5name?5constraint?5typ@ 00000000000c1d20     OpensslLib:x509_txt.obj
 0002:00025908       ??_C@_0CO@MKOFKAHI@unsupported?5or?5invalid?5name?5con@ 00000000000c1d48     OpensslLib:x509_txt.obj
 0002:00025938       ??_C@_0CD@FOPJHCDH@unsupported?5or?5invalid?5name?5syn@ 00000000000c1d78     OpensslLib:x509_txt.obj
 0002:00025960       ??_C@_0BK@IBKFOKDF@CRL?5path?5validation?5error@ 00000000000c1da0     OpensslLib:x509_txt.obj
 0002:00025980       ??_C@_09OLGELLAO@Path?5Loop@ 00000000000c1dc0     OpensslLib:x509_txt.obj
 0002:00025990       ??_C@_0CF@FOANFLBA@Suite?5B?3?5certificate?5version?5in@ 00000000000c1dd0     OpensslLib:x509_txt.obj
 0002:000259b8       ??_C@_0CG@BICIPKHE@Suite?5B?3?5invalid?5public?5key?5alg@ 00000000000c1df8     OpensslLib:x509_txt.obj
 0002:000259e0       ??_C@_0BL@FMOLHBNA@Suite?5B?3?5invalid?5ECC?5curve@ 00000000000c1e20     OpensslLib:x509_txt.obj
 0002:00025a00       ??_C@_0CF@HDBBCDPB@Suite?5B?3?5invalid?5signature?5algo@ 00000000000c1e40     OpensslLib:x509_txt.obj
 0002:00025a28       ??_C@_0CI@KACFGKAG@Suite?5B?3?5curve?5not?5allowed?5for?5@ 00000000000c1e68     OpensslLib:x509_txt.obj
 0002:00025a50       ??_C@_0CG@KNKODCDA@Suite?5B?3?5cannot?5sign?5P?9384?5with@ 00000000000c1e90     OpensslLib:x509_txt.obj
 0002:00025a78       ??_C@_0BC@BKAJEJKO@Hostname?5mismatch@ 00000000000c1eb8     OpensslLib:x509_txt.obj
 0002:00025a90       ??_C@_0BH@EANENMMC@Email?5address?5mismatch@ 00000000000c1ed0     OpensslLib:x509_txt.obj
 0002:00025aa8       ??_C@_0BE@CAFPLHHN@IP?5address?5mismatch@ 00000000000c1ee8     OpensslLib:x509_txt.obj
 0002:00025ac0       ??_C@_0BO@OPFDPPAC@No?5matching?5DANE?5TLSA?5records@ 00000000000c1f00     OpensslLib:x509_txt.obj
 0002:00025ae0       ??_C@_0BM@CJPGEEIN@EE?5certificate?5key?5too?5weak@ 00000000000c1f20     OpensslLib:x509_txt.obj
 0002:00025b00       ??_C@_0BM@ENALCBIG@CA?5certificate?5key?5too?5weak@ 00000000000c1f40     OpensslLib:x509_txt.obj
 0002:00025b20       ??_C@_0CH@LKAOFJGJ@CA?5signature?5digest?5algorithm?5t@ 00000000000c1f60     OpensslLib:x509_txt.obj
 0002:00025b48       ??_C@_0CJ@LGEOKENH@Invalid?5certificate?5verificatio@ 00000000000c1f88     OpensslLib:x509_txt.obj
 0002:00025b78       ??_C@_0CA@IHGNDGJI@Issuer?5certificate?5lookup?5error@ 00000000000c1fb8     OpensslLib:x509_txt.obj
 0002:00025b98       ??_C@_0DL@IEHGPPOE@Certificate?5Transparency?5requir@ 00000000000c1fd8     OpensslLib:x509_txt.obj
 0002:00025bd8       ??_C@_0BN@MGIIDFLE@proxy?5subject?5name?5violation@ 00000000000c2018     OpensslLib:x509_txt.obj
 0002:00025bf8       ??_C@_0BJ@GCKALNFK@OCSP?5verification?5needed@ 00000000000c2038     OpensslLib:x509_txt.obj
 0002:00025c18       ??_C@_0BJ@MKJKHEMF@OCSP?5verification?5failed@ 00000000000c2058     OpensslLib:x509_txt.obj
 0002:00025c38       ??_C@_0BC@JFODIBJK@OCSP?5unknown?5cert@ 00000000000c2078     OpensslLib:x509_txt.obj
 0002:00025c50       ??_C@_0DD@FBNJLBKB@Certificate?5public?5key?5has?5expl@ 00000000000c2090     OpensslLib:x509_txt.obj
 0002:00025c88       ??_C@_0CH@MPONIKPM@unknown?5certificate?5verificatio@ 00000000000c20c8     OpensslLib:x509_txt.obj
 0002:00025cb0       ??_C@_04IBPFIGHK@GET?5@    00000000000c20f0     OpensslLib:ssl3_record.obj
 0002:00025cb8       ??_C@_05LPJJJLLB@POST?5@   00000000000c20f8     OpensslLib:ssl3_record.obj
 0002:00025cc0       ??_C@_05PMJKDPIC@HEAD?5@   00000000000c2100     OpensslLib:ssl3_record.obj
 0002:00025cc8       ??_C@_04DCMJKHH@PUT?5@     00000000000c2108     OpensslLib:ssl3_record.obj
 0002:00025cd0       ??_C@_05JBJDNNIC@CONNE@    00000000000c2110     OpensslLib:ssl3_record.obj
 0002:00025de0       ??_C@_0O@EOHBJBLD@key?5expansion@ 00000000000c2220     OpensslLib:t1_enc.obj
 0002:00025df0       ??_C@_0BH@PGDOJNIM@extended?5master?5secret@ 00000000000c2230     OpensslLib:t1_enc.obj
 0002:00025e08       ??_C@_0O@FEJGMKDJ@master?5secret@ 00000000000c2248     OpensslLib:t1_enc.obj
 0002:00025e38       ??_C@_0CL@JMAEHKDJ@SECG?1WTLS?5curve?5over?5a?5112?5bit?5@ 00000000000c2278     OpensslLib:ec_curve.obj
 0002:00025e68       ??_C@_0CG@IMPBFOOG@SECG?5curve?5over?5a?5112?5bit?5prime@ 00000000000c22a8     OpensslLib:ec_curve.obj
 0002:00025e90       ??_C@_0CG@DNCCBNMA@SECG?5curve?5over?5a?5128?5bit?5prime@ 00000000000c22d0     OpensslLib:ec_curve.obj
 0002:00025eb8       ??_C@_0CG@MDBLLOCO@SECG?5curve?5over?5a?5160?5bit?5prime@ 00000000000c22f8     OpensslLib:ec_curve.obj
 0002:00025ee0       ??_C@_0CL@NDOOJKPB@SECG?1WTLS?5curve?5over?5a?5160?5bit?5@ 00000000000c2320     OpensslLib:ec_curve.obj
 0002:00025f10       ??_C@_0CG@IFFAEDGD@SECG?5curve?5over?5a?5192?5bit?5prime@ 00000000000c2350     OpensslLib:ec_curve.obj
 0002:00025f38       ??_C@_0CG@IOHCCJAA@SECG?5curve?5over?5a?5224?5bit?5prime@ 00000000000c2378     OpensslLib:ec_curve.obj
 0002:00025f60       ??_C@_0CL@NHPHHEEB@NIST?1SECG?5curve?5over?5a?5224?5bit?5@ 00000000000c23a0     OpensslLib:ec_curve.obj
 0002:00025f90       ??_C@_0CG@MBJIMJMI@SECG?5curve?5over?5a?5256?5bit?5prime@ 00000000000c23d0     OpensslLib:ec_curve.obj
 0002:00025fb8       ??_C@_0CL@MPIFFEHD@NIST?1SECG?5curve?5over?5a?5384?5bit?5@ 00000000000c23f8     OpensslLib:ec_curve.obj
 0002:00025fe8       ??_C@_0CL@NCEJLDDF@NIST?1SECG?5curve?5over?5a?5521?5bit?5@ 00000000000c2428     OpensslLib:ec_curve.obj
 0002:00026018       ??_C@_0DB@HJIMEGJL@NIST?1X9?462?1SECG?5curve?5over?5a?519@ 00000000000c2458     OpensslLib:ec_curve.obj
 0002:00026050       ??_C@_0CH@BHJCBJE@X9?462?5curve?5over?5a?5192?5bit?5prim@ 00000000000c2490     OpensslLib:ec_curve.obj
 0002:00026078       ??_C@_0CH@COBCAEEE@X9?462?5curve?5over?5a?5239?5bit?5prim@ 00000000000c24b8     OpensslLib:ec_curve.obj
 0002:000260a0       ??_C@_0CM@IACJENLF@X9?462?1SECG?5curve?5over?5a?5256?5bit@ 00000000000c24e0     OpensslLib:ec_curve.obj
 0002:000260d0       ??_C@_0CG@NOPNGNKB@WTLS?5curve?5over?5a?5112?5bit?5prime@ 00000000000c2510     OpensslLib:ec_curve.obj
 0002:000260f8       ??_C@_0CG@JBBHINGJ@WTLS?5curve?5over?5a?5160?5bit?5prime@ 00000000000c2538     OpensslLib:ec_curve.obj
 0002:00026120       ??_C@_0CG@NMHOBKEH@WTLS?5curve?5over?5a?5224?5bit?5prime@ 00000000000c2560     OpensslLib:ec_curve.obj
 0002:00026148       ??_C@_0CK@DKPAAAHG@RFC?55639?5curve?5over?5a?5160?5bit?5p@ 00000000000c2588     OpensslLib:ec_curve.obj
 0002:00026178       ??_C@_0CK@HMLLPNDL@RFC?55639?5curve?5over?5a?5192?5bit?5p@ 00000000000c25b8     OpensslLib:ec_curve.obj
 0002:000261a8       ??_C@_0CK@HHJJJHFI@RFC?55639?5curve?5over?5a?5224?5bit?5p@ 00000000000c25e8     OpensslLib:ec_curve.obj
 0002:000261d8       ??_C@_0CK@DIHDHHJA@RFC?55639?5curve?5over?5a?5256?5bit?5p@ 00000000000c2618     OpensslLib:ec_curve.obj
 0002:00026208       ??_C@_0CK@BJFGHLBI@RFC?55639?5curve?5over?5a?5320?5bit?5p@ 00000000000c2648     OpensslLib:ec_curve.obj
 0002:00026238       ??_C@_0CK@GPOLLHGK@RFC?55639?5curve?5over?5a?5384?5bit?5p@ 00000000000c2678     OpensslLib:ec_curve.obj
 0002:00026268       ??_C@_0CK@DLPHALOH@RFC?55639?5curve?5over?5a?5512?5bit?5p@ 00000000000c26a8     OpensslLib:ec_curve.obj
 0002:00026298       ??_C@_0CF@CCLOOCBH@SM2?5curve?5over?5a?5256?5bit?5prime?5@ 00000000000c26d8     OpensslLib:ec_curve.obj
 0002:000262c0       ??_C@_05KJOGHNFI@B?9163@   00000000000c2700     OpensslLib:ec_curve.obj
 0002:000262c8       ??_C@_05LNJIBAFN@B?9233@   00000000000c2708     OpensslLib:ec_curve.obj
 0002:000262d0       ??_C@_05LBMNPPLM@B?9283@   00000000000c2710     OpensslLib:ec_curve.obj
 0002:000262d8       ??_C@_05GAFKBJFC@B?9409@   00000000000c2718     OpensslLib:ec_curve.obj
 0002:000262e0       ??_C@_05BFHAOCLK@B?9571@   00000000000c2720     OpensslLib:ec_curve.obj
 0002:000262e8       ??_C@_05IOOJCMJA@K?9163@   00000000000c2728     OpensslLib:ec_curve.obj
 0002:000262f0       ??_C@_05JKJHEBJF@K?9233@   00000000000c2730     OpensslLib:ec_curve.obj
 0002:000262f8       ??_C@_05JGMCKOHE@K?9283@   00000000000c2738     OpensslLib:ec_curve.obj
 0002:00026300       ??_C@_05EHFFEIJK@K?9409@   00000000000c2740     OpensslLib:ec_curve.obj
 0002:00026308       ??_C@_05DCHPLDHC@K?9571@   00000000000c2748     OpensslLib:ec_curve.obj
 0002:00026310       ??_C@_05PFLPKILE@P?9192@   00000000000c2750     OpensslLib:ec_curve.obj
 0002:00026318       ??_C@_05LNAFEPDN@P?9224@   00000000000c2758     OpensslLib:ec_curve.obj
 0002:00026320       ??_C@_05IKHMDLDK@P?9256@   00000000000c2760     OpensslLib:ec_curve.obj
 0002:00026328       ??_C@_05ICOKNIO@P?9384@    00000000000c2768     OpensslLib:ec_curve.obj
 0002:00026330       ??_C@_05FNKFIDMB@P?9521@   00000000000c2770     OpensslLib:ec_curve.obj
 0002:000290b0       ACCESS_DESCRIPTION_it      00000000000c54f0     OpensslLib:v3_info.obj
 0002:000290e0       ??_C@_06GABBCIBA@method@   00000000000c5520     OpensslLib:v3_info.obj
 0002:000290e8       ??_C@_08CBBFJFMD@location@ 00000000000c5528     OpensslLib:v3_info.obj
 0002:000290f8       ??_C@_0BD@IKHCEBLA@ACCESS_DESCRIPTION@ 00000000000c5538     OpensslLib:v3_info.obj
 0002:00029110       ??_C@_0BG@PFEKCAHJ@AUTHORITY_INFO_ACCESS@ 00000000000c5550     OpensslLib:v3_info.obj
 0002:00029128       ??_C@_07FCJAGJJB@?$CFs?5?9?5?$CFs@ 00000000000c5568     OpensslLib:v3_info.obj
 0002:00029130       ??_C@_06KFEJCPI@value?$DN@ 00000000000c5570     OpensslLib:v3_info.obj
 0002:00029138       AUTHORITY_INFO_ACCESS_it   00000000000c5578     OpensslLib:v3_info.obj
 0002:000291b0       v3_sinfo                   00000000000c55f0     OpensslLib:v3_info.obj
 0002:00029220       v3_info                    00000000000c5660     OpensslLib:v3_info.obj
 0002:000292a8       ??_C@_0N@MJCHLFGM@NO?5X509_NAME@ 00000000000c56e8     OpensslLib:x509_obj.obj
 0002:00029660       ASN1_TIME_it               00000000000c5aa0     OpensslLib:a_time.obj
 0002:00029690       ??_C@_09DHMKJJNA@ASN1_TIME@ 00000000000c5ad0     OpensslLib:a_time.obj
 0002:000296a0       ??_C@_0BK@EMDNDBLP@?$CF04d?$CF02d?$CF02d?$CF02d?$CF02d?$CF02dZ@ 00000000000c5ae0     OpensslLib:a_time.obj
 0002:000296c0       ??_C@_0BK@PMAAGDOP@?$CF02d?$CF02d?$CF02d?$CF02d?$CF02d?$CF02dZ@ 00000000000c5b00     OpensslLib:a_time.obj
 0002:000296dc       ??_C@_04FIEKMBKB@?5GMT@    00000000000c5b1c     OpensslLib:a_time.obj
 0002:000296e8       ??_C@_0BP@OGIOIJMK@?$CFs?5?$CF2d?5?$CF02d?3?$CF02d?3?$CF02d?$CF?4?$CKs?5?$CFd?$CFs@ 00000000000c5b28     OpensslLib:a_time.obj
 0002:00029708       ??_C@_0BL@NKCHLFNC@?$CFs?5?$CF2d?5?$CF02d?3?$CF02d?3?$CF02d?5?$CFd?$CFs@ 00000000000c5b48     OpensslLib:a_time.obj
 0002:00029728       ??_C@_0P@FGACABCD@Bad?5time?5value@ 00000000000c5b68     OpensslLib:a_time.obj
 0002:00029830       ??_C@_0L@BNIDLBEL@?$CLautomatic@ 00000000000c5c70     OpensslLib:ssl_conf.obj
 0002:00029840       ??_C@_09DADDGAEC@automatic@ 00000000000c5c80     OpensslLib:ssl_conf.obj
 0002:0002984c       ??_C@_04HAPDLBFF@auto@     00000000000c5c8c     OpensslLib:ssl_conf.obj
 0002:00029854       ??_C@_05NHFKDGAI@SSLv2@    00000000000c5c94     OpensslLib:ssl_conf.obj
 0002:00029860       ??_C@_0O@PGDEOOBD@SessionTicket@ 00000000000c5ca0     OpensslLib:ssl_conf.obj
 0002:00029870       ??_C@_0P@IEKKKMCP@EmptyFragments@ 00000000000c5cb0     OpensslLib:ssl_conf.obj
 0002:00029880       ??_C@_04OIFKEPF@Bugs@      00000000000c5cc0     OpensslLib:ssl_conf.obj
 0002:00029888       ??_C@_0M@COKFBABJ@Compression@ 00000000000c5cc8     OpensslLib:ssl_conf.obj
 0002:00029898       ??_C@_0BB@MGHJKEHO@ServerPreference@ 00000000000c5cd8     OpensslLib:ssl_conf.obj
 0002:000298b0       ??_C@_0BM@FKDDFINF@NoResumptionOnRenegotiation@ 00000000000c5cf0     OpensslLib:ssl_conf.obj
 0002:000298d0       ??_C@_08IEICGGIK@DHSingle@ 00000000000c5d10     OpensslLib:ssl_conf.obj
 0002:000298e0       ??_C@_0L@NLJOMKMG@ECDHSingle@ 00000000000c5d20     OpensslLib:ssl_conf.obj
 0002:000298f0       ??_C@_0BK@KBKMKCAN@UnsafeLegacyRenegotiation@ 00000000000c5d30     OpensslLib:ssl_conf.obj
 0002:00029910       ??_C@_0P@EKICIAGD@EncryptThenMac@ 00000000000c5d50     OpensslLib:ssl_conf.obj
 0002:00029920       ??_C@_0BA@IJKDPOPJ@NoRenegotiation@ 00000000000c5d60     OpensslLib:ssl_conf.obj
 0002:00029930       ??_C@_0O@ILLANBH@AllowNoDHEKEX@ 00000000000c5d70     OpensslLib:ssl_conf.obj
 0002:00029940       ??_C@_0BB@LNINPAGI@PrioritizeChaCha@ 00000000000c5d80     OpensslLib:ssl_conf.obj
 0002:00029958       ??_C@_0BA@PKDLDFHP@MiddleboxCompat@ 00000000000c5d98     OpensslLib:ssl_conf.obj
 0002:00029968       ??_C@_0L@PNMCDIBN@AntiReplay@ 00000000000c5da8     OpensslLib:ssl_conf.obj
 0002:00029974       ??_C@_04FOCDNCKH@Peer@     00000000000c5db4     OpensslLib:ssl_conf.obj
 0002:00029980       ??_C@_07LEAAGLHO@Request@  00000000000c5dc0     OpensslLib:ssl_conf.obj
 0002:00029988       ??_C@_07KMMNJNOB@Require@  00000000000c5dc8     OpensslLib:ssl_conf.obj
 0002:00029990       ??_C@_04GKJMKNNB@Once@     00000000000c5dd0     OpensslLib:ssl_conf.obj
 0002:00029998       ??_C@_0BF@KODEFJI@RequestPostHandshake@ 00000000000c5dd8     OpensslLib:ssl_conf.obj
 0002:000299b0       ??_C@_0BF@MMAKPIPP@RequirePostHandshake@ 00000000000c5df0     OpensslLib:ssl_conf.obj
 0002:000299c8       ??_C@_07KNMENGCI@no_ssl3@  00000000000c5e08     OpensslLib:ssl_conf.obj
 0002:000299d0       ??_C@_07DCNCMLDO@no_tls1@  00000000000c5e10     OpensslLib:ssl_conf.obj
 0002:000299d8       ??_C@_09OMMOFMKI@no_tls1_1@ 00000000000c5e18     OpensslLib:ssl_conf.obj
 0002:000299e8       ??_C@_09MHODAPGL@no_tls1_2@ 00000000000c5e28     OpensslLib:ssl_conf.obj
 0002:000299f8       ??_C@_09NOPIDOCK@no_tls1_3@ 00000000000c5e38     OpensslLib:ssl_conf.obj
 0002:00029a04       ??_C@_04MPEEILPB@bugs@     00000000000c5e44     OpensslLib:ssl_conf.obj
 0002:00029a10       ??_C@_07NHNNPHM@no_comp@   00000000000c5e50     OpensslLib:ssl_conf.obj
 0002:00029a18       ??_C@_04OLDKMDKP@comp@     00000000000c5e58     OpensslLib:ssl_conf.obj
 0002:00029a20       ??_C@_0M@GFJDILHJ@ecdh_single@ 00000000000c5e60     OpensslLib:ssl_conf.obj
 0002:00029a30       ??_C@_09NMKBGOFJ@no_ticket@ 00000000000c5e70     OpensslLib:ssl_conf.obj
 0002:00029a40       ??_C@_0L@KKCHEECL@serverpref@ 00000000000c5e80     OpensslLib:ssl_conf.obj
 0002:00029a50       ??_C@_0BF@HAMGDCBC@legacy_renegotiation@ 00000000000c5e90     OpensslLib:ssl_conf.obj
 0002:00029a68       ??_C@_0BG@GIDFLGOF@legacy_server_connect@ 00000000000c5ea8     OpensslLib:ssl_conf.obj
 0002:00029a80       ??_C@_0BB@CGKCNIGM@no_renegotiation@ 00000000000c5ec0     OpensslLib:ssl_conf.obj
 0002:00029a98       ??_C@_0BH@IOGIPIAJ@no_resumption_on_reneg@ 00000000000c5ed8     OpensslLib:ssl_conf.obj
 0002:00029ab0       ??_C@_0BJ@CMKHGIEM@no_legacy_server_connect@ 00000000000c5ef0     OpensslLib:ssl_conf.obj
 0002:00029ad0       ??_C@_0BB@MMCACIFK@allow_no_dhe_kex@ 00000000000c5f10     OpensslLib:ssl_conf.obj
 0002:00029ae8       ??_C@_0BC@PLJGHPA@prioritize_chacha@ 00000000000c5f28     OpensslLib:ssl_conf.obj
 0002:00029afc       ??_C@_06OLFOGHEN@strict@   00000000000c5f3c     OpensslLib:ssl_conf.obj
 0002:00029b08       ??_C@_0N@FBDJLMPH@no_middlebox@ 00000000000c5f48     OpensslLib:ssl_conf.obj
 0002:00029b18       ??_C@_0M@KKBPMDIJ@anti_replay@ 00000000000c5f58     OpensslLib:ssl_conf.obj
 0002:00029b28       ??_C@_0P@FNOHICAM@no_anti_replay@ 00000000000c5f68     OpensslLib:ssl_conf.obj
 0002:00029b38       ??_C@_0BE@BLMPOMHO@SignatureAlgorithms@ 00000000000c5f78     OpensslLib:ssl_conf.obj
 0002:00029b50       ??_C@_07CPPFGBOH@sigalgs@  00000000000c5f90     OpensslLib:ssl_conf.obj
 0002:00029b58       ??_C@_0BK@PFLLPPDA@ClientSignatureAlgorithms@ 00000000000c5f98     OpensslLib:ssl_conf.obj
 0002:00029b78       ??_C@_0P@BBDFBCC@client_sigalgs@ 00000000000c5fb8     OpensslLib:ssl_conf.obj
 0002:00029b88       ??_C@_06MLNHLMAG@Curves@   00000000000c5fc8     OpensslLib:ssl_conf.obj
 0002:00029b90       ??_C@_06EGKIFJK@curves@    00000000000c5fd0     OpensslLib:ssl_conf.obj
 0002:00029b98       ??_C@_06LCLFDFOL@Groups@   00000000000c5fd8     OpensslLib:ssl_conf.obj
 0002:00029ba0       ??_C@_06HNAIAMHH@groups@   00000000000c5fe0     OpensslLib:ssl_conf.obj
 0002:00029ba8       ??_C@_0P@MCMJEMBC@ECDHParameters@ 00000000000c5fe8     OpensslLib:ssl_conf.obj
 0002:00029bb8       ??_C@_0M@FBFAECBG@named_curve@ 00000000000c5ff8     OpensslLib:ssl_conf.obj
 0002:00029bc8       ??_C@_0N@KOODPKGB@CipherString@ 00000000000c6008     OpensslLib:ssl_conf.obj
 0002:00029bd8       ??_C@_0N@DNLKABDN@Ciphersuites@ 00000000000c6018     OpensslLib:ssl_conf.obj
 0002:00029be8       ??_C@_0N@IOMEEKMI@ciphersuites@ 00000000000c6028     OpensslLib:ssl_conf.obj
 0002:00029bf8       ??_C@_08NAKOFPNG@Protocol@ 00000000000c6038     OpensslLib:ssl_conf.obj
 0002:00029c08       ??_C@_0M@HAJKHHH@MinProtocol@ 00000000000c6048     OpensslLib:ssl_conf.obj
 0002:00029c18       ??_C@_0N@NLLADBL@min_protocol@ 00000000000c6058     OpensslLib:ssl_conf.obj
 0002:00029c28       ??_C@_0M@JHHKLHJN@MaxProtocol@ 00000000000c6068     OpensslLib:ssl_conf.obj
 0002:00029c38       ??_C@_0N@ENPEHLGN@max_protocol@ 00000000000c6078     OpensslLib:ssl_conf.obj
 0002:00029c48       ??_C@_07KHIHFBFN@Options@  00000000000c6088     OpensslLib:ssl_conf.obj
 0002:00029c50       ??_C@_0L@HCHFGEOG@VerifyMode@ 00000000000c6090     OpensslLib:ssl_conf.obj
 0002:00029c60       ??_C@_0M@KDOEPPNO@Certificate@ 00000000000c60a0     OpensslLib:ssl_conf.obj
 0002:00029c6c       ??_C@_04PHJBACIC@cert@     00000000000c60ac     OpensslLib:ssl_conf.obj
 0002:00029c78       ??_C@_0L@JENBINIJ@PrivateKey@ 00000000000c60b8     OpensslLib:ssl_conf.obj
 0002:00029c88       ??_C@_0P@BDBIGKFA@ServerInfoFile@ 00000000000c60c8     OpensslLib:ssl_conf.obj
 0002:00029c98       ??_C@_0M@NGPGAJHG@ChainCAPath@ 00000000000c60d8     OpensslLib:ssl_conf.obj
 0002:00029ca8       ??_C@_0M@PAGPNIK@chainCApath@ 00000000000c60e8     OpensslLib:ssl_conf.obj
 0002:00029cb8       ??_C@_0M@FLHJMPDO@ChainCAFile@ 00000000000c60f8     OpensslLib:ssl_conf.obj
 0002:00029cc8       ??_C@_0M@ICIJDLMC@chainCAfile@ 00000000000c6108     OpensslLib:ssl_conf.obj
 0002:00029cd8       ??_C@_0N@KHNDEHH@VerifyCAPath@ 00000000000c6118     OpensslLib:ssl_conf.obj
 0002:00029ce8       ??_C@_0N@HIMCFAIG@verifyCApath@ 00000000000c6128     OpensslLib:ssl_conf.obj
 0002:00029cf8       ??_C@_0N@IHPCPCDP@VerifyCAFile@ 00000000000c6138     OpensslLib:ssl_conf.obj
 0002:00029d08       ??_C@_0N@PFENJGMO@verifyCAfile@ 00000000000c6148     OpensslLib:ssl_conf.obj
 0002:00029d18       ??_C@_0O@GEKAHCMK@RequestCAFile@ 00000000000c6158     OpensslLib:ssl_conf.obj
 0002:00029d28       ??_C@_0O@KJMEAKBC@requestCAFile@ 00000000000c6168     OpensslLib:ssl_conf.obj
 0002:00029d38       ??_C@_0N@EEFMJKP@ClientCAFile@ 00000000000c6178     OpensslLib:ssl_conf.obj
 0002:00029d48       ??_C@_0O@OJCPLEIC@RequestCAPath@ 00000000000c6188     OpensslLib:ssl_conf.obj
 0002:00029d58       ??_C@_0N@IJMKAPOH@ClientCAPath@ 00000000000c6198     OpensslLib:ssl_conf.obj
 0002:00029d68       ??_C@_0N@NOMKBOKL@DHParameters@ 00000000000c61a8     OpensslLib:ssl_conf.obj
 0002:00029d78       ??_C@_07IBCFADID@dhparam@  00000000000c61b8     OpensslLib:ssl_conf.obj
 0002:00029d80       ??_C@_0O@DNMFDCNL@RecordPadding@ 00000000000c61c0     OpensslLib:ssl_conf.obj
 0002:00029d90       ??_C@_0P@OEEDBLNE@record_padding@ 00000000000c61d0     OpensslLib:ssl_conf.obj
 0002:00029da0       ??_C@_0L@FJNIHGPP@NumTickets@ 00000000000c61e0     OpensslLib:ssl_conf.obj
 0002:00029db0       ??_C@_0M@EOGKDJCM@num_tickets@ 00000000000c61f0     OpensslLib:ssl_conf.obj
 0002:00029dbc       ??_C@_04LDFABOD@cmd?$DN@   00000000000c61fc     OpensslLib:ssl_conf.obj
 0002:0002a7e0       ??_C@_08IPPANOEC@ssl_conf@ 00000000000c6c20     OpensslLib:conf_ssl.obj
 0002:0002a7f0       ??_C@_0GE@BFJKPFGM@?$FLOPENSSL_RAND_POOL?$FN?5NULL?5RandBu@ 00000000000c6c30     OpensslLib:rand_pool.obj
 0002:0002a858       ??_C@_0BL@BANKOLJL@RandBuffer?5?$CB?$DN?5?$CI?$CIvoid?5?$CK?$CJ?50?$CJ@ 00000000000c6c98     OpensslLib:rand_pool.obj
 0002:0002a878       ??_C@_0DG@GIPNDECO@d?3?2edk2?2edk2?2CryptoPkg?2Library?2@ 00000000000c6cb8     OpensslLib:rand_pool.obj
 0002:0002a8d0       ??_C@_03KCHOJKKI@set@      00000000000c6d10     OpensslLib:x_attrib.obj
 0002:0002a8d8       ??_C@_0P@IBKNNFL@X509_ATTRIBUTE@ 00000000000c6d18     OpensslLib:x_attrib.obj
 0002:0002a930       X509_ATTRIBUTE_it          00000000000c6d70     OpensslLib:x_attrib.obj
 0002:0002a980       ??_C@_0P@BLMEJDMO@policyLanguage@ 00000000000c6dc0     OpensslLib:v3_pcia.obj
 0002:0002a990       ??_C@_06NJNJNICG@policy@   00000000000c6dd0     OpensslLib:v3_pcia.obj
 0002:0002a998       ??_C@_0N@CLKEFBDI@PROXY_POLICY@ 00000000000c6dd8     OpensslLib:v3_pcia.obj
 0002:0002a9a8       ??_C@_0BH@JBGKCLHC@pcPathLengthConstraint@ 00000000000c6de8     OpensslLib:v3_pcia.obj
 0002:0002a9c0       ??_C@_0M@KKFBCGOG@proxyPolicy@ 00000000000c6e00     OpensslLib:v3_pcia.obj
 0002:0002a9d0       ??_C@_0BK@PILNOGHK@PROXY_CERT_INFO_EXTENSION@ 00000000000c6e10     OpensslLib:v3_pcia.obj
 0002:0002aa30       PROXY_CERT_INFO_EXTENSION_it 00000000000c6e70     OpensslLib:v3_pcia.obj
 0002:0002aaa0       PROXY_POLICY_it            00000000000c6ee0     OpensslLib:v3_pcia.obj
 0002:0002aad0       ??_C@_02DGMJAJHC@ca@       00000000000c6f10     OpensslLib:v3_bcons.obj
 0002:0002aad8       ??_C@_07OGCPICFF@pathlen@  00000000000c6f18     OpensslLib:v3_bcons.obj
 0002:0002aae0       ??_C@_0BC@PKPCGCD@BASIC_CONSTRAINTS@ 00000000000c6f20     OpensslLib:v3_bcons.obj
 0002:0002aaf4       ??_C@_02JLAAGLDA@CA@       00000000000c6f34     OpensslLib:v3_bcons.obj
 0002:0002ab40       v3_bcons                   00000000000c6f80     OpensslLib:v3_bcons.obj
 0002:0002aba8       BASIC_CONSTRAINTS_it       00000000000c6fe8     OpensslLib:v3_bcons.obj
 0002:0002abd8       ??_C@_01KICIPPFI@?2@       00000000000c7018     OpensslLib:a_strex.obj
 0002:0002abdc       ??_C@_02HDBGODGB@?2?2@     00000000000c701c     OpensslLib:a_strex.obj
 0002:0002abe0       ??_C@_01IPJKGB@?$CD@       00000000000c7020     OpensslLib:a_strex.obj
 0002:0002abe4       ??_C@_01BJJEKLCA@?$CC@     00000000000c7024     OpensslLib:a_strex.obj
 0002:0002abe8       ??_C@_03NPBFACHO@?5?$CL?5@ 00000000000c7028     OpensslLib:a_strex.obj
 0002:0002abec       ??_C@_01IHBHIGKO@?0@       00000000000c702c     OpensslLib:a_strex.obj
 0002:0002abf0       ??_C@_01MIFGBAGJ@?$CL@     00000000000c7030     OpensslLib:a_strex.obj
 0002:0002abf4       ??_C@_02LNAEAIDO@?$DL?5@   00000000000c7034     OpensslLib:a_strex.obj
 0002:0002abf8       ??_C@_03MHLONNLM@?5?$DN?5@ 00000000000c7038     OpensslLib:a_strex.obj
 0002:0002abfc       ??_C@_01NEMOKFLO@?$DN@     00000000000c703c     OpensslLib:a_strex.obj
 0002:0002ad20       ??_C@_01GBGANLPD@0@        00000000000c7160     OpensslLib:bn_print.obj
 0002:0002ad24       ??_C@_04FCIJFPNK@?$CFllu@  00000000000c7164     OpensslLib:bn_print.obj
 0002:0002ad30       ??_C@_07ICEKBAEF@?$CF019llu@ 00000000000c7170     OpensslLib:bn_print.obj
 0002:0002ad38       ??_C@_01JOAMLHOP@?9@       00000000000c7178     OpensslLib:bn_print.obj
 0002:0002ad54       ??_C@_05DLJFLBDA@TYPE?$DN@ 00000000000c7194     OpensslLib:evp_pbe.obj
 0002:0002b000       ??_C@_06BCAIGOJD@?1certs@  00000000000c7440     OpensslLib:x509_def.obj
 0002:0002d880       ??_C@_03MEGLGNML@SM4@      00000000000c9cc0     OpensslLib:c_allc.obj
 0002:0002d884       ??_C@_03FMBEIEBF@sm4@      00000000000c9cc4     OpensslLib:c_allc.obj
 0002:0002d888       ??_C@_0M@DJNCOMHD@aes128?9wrap@ 00000000000c9cc8     OpensslLib:c_allc.obj
 0002:0002d894       ??_C@_06NBPOHBOH@aes128@   00000000000c9cd4     OpensslLib:c_allc.obj
 0002:0002d8a0       ??_C@_0M@MAMIKPGL@aes192?9wrap@ 00000000000c9ce0     OpensslLib:c_allc.obj
 0002:0002d8ac       ??_C@_06COJEGFCC@AES192@   00000000000c9cec     OpensslLib:c_allc.obj
 0002:0002d8b4       ??_C@_06CHEEHGIM@aes192@   00000000000c9cf4     OpensslLib:c_allc.obj
 0002:0002d8c0       ??_C@_0M@FKKFKCPC@aes256?9wrap@ 00000000000c9d00     OpensslLib:c_allc.obj
 0002:0002d8cc       ??_C@_06FIIHOFAC@aes256@   00000000000c9d0c     OpensslLib:c_allc.obj
 0002:0002d8d8       ??_C@_07OCFFDBP@aria128@   00000000000c9d18     OpensslLib:c_allc.obj
 0002:0002d8e0       ??_C@_07IDJCFIM@ARIA192@   00000000000c9d20     OpensslLib:c_allc.obj
 0002:0002d8e8       ??_C@_07PIJPFEHE@aria192@  00000000000c9d28     OpensslLib:c_allc.obj
 0002:0002d8f0       ??_C@_07IHFMMHPK@aria256@  00000000000c9d30     OpensslLib:c_allc.obj
 0002:0002d900       cmac_asn1_meth             00000000000c9d40     OpensslLib:cm_ameth.obj
 0002:0002da18       ??_C@_0BE@GBIGMENL@OpenSSL?5CMAC?5method@ 00000000000c9e58     OpensslLib:cm_ameth.obj
 0002:0002da30       ed448_asn1_meth            00000000000c9e70     OpensslLib:ecx_meth.obj
 0002:0002db50       ed25519_asn1_meth          00000000000c9f90     OpensslLib:ecx_meth.obj
 0002:0002dc70       ecx25519_asn1_meth         00000000000ca0b0     OpensslLib:ecx_meth.obj
 0002:0002dd90       ecx448_asn1_meth           00000000000ca1d0     OpensslLib:ecx_meth.obj
 0002:0002deb0       ecx448_pkey_meth           00000000000ca2f0     OpensslLib:ecx_meth.obj
 0002:0002dfb0       ed448_pkey_meth            00000000000ca3f0     OpensslLib:ecx_meth.obj
 0002:0002e0b0       ecx25519_pkey_meth         00000000000ca4f0     OpensslLib:ecx_meth.obj
 0002:0002e1b0       ed25519_pkey_meth          00000000000ca5f0     OpensslLib:ecx_meth.obj
 0002:0002e2b0       ??_C@_0BK@JGHKCBDG@?$CF?$CKs?$DMINVALID?5PRIVATE?5KEY?$DO?6@ 00000000000ca6f0     OpensslLib:ecx_meth.obj
 0002:0002e2d0       ??_C@_0BE@BHOIIFAI@?$CF?$CKs?$CFs?5Private?9Key?3?6@ 00000000000ca710     OpensslLib:ecx_meth.obj
 0002:0002e2e8       ??_C@_09CDOGNPAC@?$CF?$CKspriv?3?6@ 00000000000ca728     OpensslLib:ecx_meth.obj
 0002:0002e2f8       ??_C@_0BJ@NBDPFAFL@?$CF?$CKs?$DMINVALID?5PUBLIC?5KEY?$DO?6@ 00000000000ca738     OpensslLib:ecx_meth.obj
 0002:0002e318       ??_C@_0BD@HFJAOMDB@?$CF?$CKs?$CFs?5Public?9Key?3?6@ 00000000000ca758     OpensslLib:ecx_meth.obj
 0002:0002e330       ??_C@_08BMIKENKP@?$CF?$CKspub?3?6@ 00000000000ca770     OpensslLib:ecx_meth.obj
 0002:0002e340       ??_C@_0BJ@OPPGOKJE@OpenSSL?5X25519?5algorithm@ 00000000000ca780     OpensslLib:ecx_meth.obj
 0002:0002e360       ??_C@_0BH@LCCDECOI@OpenSSL?5X448?5algorithm@ 00000000000ca7a0     OpensslLib:ecx_meth.obj
 0002:0002e378       ??_C@_0BK@EOFFJDOF@OpenSSL?5ED25519?5algorithm@ 00000000000ca7b8     OpensslLib:ecx_meth.obj
 0002:0002e398       ??_C@_0BI@FPELGGCO@OpenSSL?5ED448?5algorithm@ 00000000000ca7d8     OpensslLib:ecx_meth.obj
 0002:0002e3b0       sm2_asn1_meth              00000000000ca7f0     OpensslLib:ec_ameth.obj
 0002:0002e4d0       eckey_asn1_meth            00000000000ca910     OpensslLib:ec_ameth.obj
 0002:0002e5e8       ??_C@_0M@CJKOCIEC@Private?9Key@ 00000000000caa28     OpensslLib:ec_ameth.obj
 0002:0002e5f8       ??_C@_0L@FMJMEKAC@Public?9Key@ 00000000000caa38     OpensslLib:ec_ameth.obj
 0002:0002e608       ??_C@_0BB@DMDKLH@ECDSA?9Parameters@ 00000000000caa48     OpensslLib:ec_ameth.obj
 0002:0002e620       ??_C@_0O@OPPPNLCD@?$CFs?3?5?$CI?$CFd?5bit?$CJ?6@ 00000000000caa60     OpensslLib:ec_ameth.obj
 0002:0002e630       ??_C@_02KNLLHFAA@EC@       00000000000caa70     OpensslLib:ec_ameth.obj
 0002:0002e638       ??_C@_0BF@DKDIFOGG@OpenSSL?5EC?5algorithm@ 00000000000caa78     OpensslLib:ec_ameth.obj
 0002:0002e650       siphash_asn1_meth          00000000000caa90     OpensslLib:siphash_ameth.obj
 0002:0002e768       ??_C@_07IBBIJFNK@SIPHASH@  00000000000caba8     OpensslLib:siphash_ameth.obj
 0002:0002e770       ??_C@_0BH@FCFCAEA@OpenSSL?5SIPHASH?5method@ 00000000000cabb0     OpensslLib:siphash_ameth.obj
 0002:0002e790       hmac_asn1_meth             00000000000cabd0     OpensslLib:hm_ameth.obj
 0002:0002e8a8       ??_C@_0BE@BABEGANF@OpenSSL?5HMAC?5method@ 00000000000cace8     OpensslLib:hm_ameth.obj
 0002:0002e8c0       rsa_pss_asn1_meth          00000000000cad00     OpensslLib:rsa_ameth.obj
 0002:0002e9e0       rsa_asn1_meths             00000000000cae20     OpensslLib:rsa_ameth.obj
 0002:0002ec10       ??_C@_0BP@CGCIOPAF@No?5PSS?5parameter?5restrictions?6@ 00000000000cb050     OpensslLib:rsa_ameth.obj
 0002:0002ec30       ??_C@_0BM@OMMNCLDM@PSS?5parameter?5restrictions?3@ 00000000000cb070     OpensslLib:rsa_ameth.obj
 0002:0002ec50       ??_C@_0BK@KFGFELEH@?$CIINVALID?5PSS?5PARAMETERS?$CJ?6@ 00000000000cb090     OpensslLib:rsa_ameth.obj
 0002:0002ec70       ??_C@_0BB@PMMDHLKH@Hash?5Algorithm?3?5@ 00000000000cb0b0     OpensslLib:rsa_ameth.obj
 0002:0002ec88       ??_C@_0P@ODEAMLKF@sha1?5?$CIdefault?$CJ@ 00000000000cb0c8     OpensslLib:rsa_ameth.obj
 0002:0002ec98       ??_C@_0BB@HEAMLCPA@Mask?5Algorithm?3?5@ 00000000000cb0d8     OpensslLib:rsa_ameth.obj
 0002:0002ecac       ??_C@_06BIDGLIKJ@?5with?5@ 00000000000cb0ec     OpensslLib:rsa_ameth.obj
 0002:0002ecb8       ??_C@_07DNODLGKM@INVALID@  00000000000cb0f8     OpensslLib:rsa_ameth.obj
 0002:0002ecc0       ??_C@_0BJ@NNFOENLD@mgf1?5with?5sha1?5?$CIdefault?$CJ@ 00000000000cb100     OpensslLib:rsa_ameth.obj
 0002:0002ece0       ??_C@_07NLJCBFAF@Minimum@  00000000000cb120     OpensslLib:rsa_ameth.obj
 0002:0002ece8       ??_C@_0BD@DPAJFAGN@?$CFs?5Salt?5Length?3?50x@ 00000000000cb128     OpensslLib:rsa_ameth.obj
 0002:0002ed00       ??_C@_0N@CGLOPGL@14?5?$CIdefault?$CJ@ 00000000000cb140     OpensslLib:rsa_ameth.obj
 0002:0002ed10       ??_C@_0BC@EDKEKAHK@Trailer?5Field?3?50x@ 00000000000cb150     OpensslLib:rsa_ameth.obj
 0002:0002ed28       ??_C@_0N@FFIHJHFK@BC?5?$CIdefault?$CJ@ 00000000000cb168     OpensslLib:rsa_ameth.obj
 0002:0002ed38       ??_C@_03IKGEINEE@?$CFs?5@  00000000000cb178     OpensslLib:rsa_ameth.obj
 0002:0002ed40       ??_C@_0CC@BJIIEMBB@Private?9Key?3?5?$CI?$CFd?5bit?0?5?$CFd?5primes@ 00000000000cb180     OpensslLib:rsa_ameth.obj
 0002:0002ed68       ??_C@_08OKDKAJKD@modulus?3@ 00000000000cb1a8     OpensslLib:rsa_ameth.obj
 0002:0002ed78       ??_C@_0BA@FAAMOFHC@publicExponent?3@ 00000000000cb1b8     OpensslLib:rsa_ameth.obj
 0002:0002ed88       ??_C@_0BG@HAJOCCOP@Public?9Key?3?5?$CI?$CFd?5bit?$CJ?6@ 00000000000cb1c8     OpensslLib:rsa_ameth.obj
 0002:0002eda0       ??_C@_08GIMLILAA@Modulus?3@ 00000000000cb1e0     OpensslLib:rsa_ameth.obj
 0002:0002edb0       ??_C@_09DALHJPOO@Exponent?3@ 00000000000cb1f0     OpensslLib:rsa_ameth.obj
 0002:0002edc0       ??_C@_0BB@NFOLHHHJ@privateExponent?3@ 00000000000cb200     OpensslLib:rsa_ameth.obj
 0002:0002edd8       ??_C@_07PNLMLIF@prime1?3@  00000000000cb218     OpensslLib:rsa_ameth.obj
 0002:0002ede0       ??_C@_07NJNHFNM@prime2?3@  00000000000cb220     OpensslLib:rsa_ameth.obj
 0002:0002ede8       ??_C@_0L@OIOCMGKP@exponent1?3@ 00000000000cb228     OpensslLib:rsa_ameth.obj
 0002:0002edf8       ??_C@_0L@OKKEHIPG@exponent2?3@ 00000000000cb238     OpensslLib:rsa_ameth.obj
 0002:0002ee08       ??_C@_0N@GNAMJPHF@coefficient?3@ 00000000000cb248     OpensslLib:rsa_ameth.obj
 0002:0002ee18       ??_C@_08BCNLBGP@prime?$CFd?3@ 00000000000cb258     OpensslLib:rsa_ameth.obj
 0002:0002ee28       ??_C@_0M@NKHBEBLE@exponent?$CFd?3@ 00000000000cb268     OpensslLib:rsa_ameth.obj
 0002:0002ee38       ??_C@_0P@FAPFJECG@coefficient?$CFd?3@ 00000000000cb278     OpensslLib:rsa_ameth.obj
 0002:0002ee48       ??_C@_0BD@MHOEKPBI@OpenSSL?5RSA?5method@ 00000000000cb288     OpensslLib:rsa_ameth.obj
 0002:0002ee60       ??_C@_0BH@JANGLOLP@OpenSSL?5RSA?9PSS?5method@ 00000000000cb2a0     OpensslLib:rsa_ameth.obj
 0002:0002ee80       dh_asn1_meth               00000000000cb2c0     OpensslLib:dh_ameth.obj
 0002:0002efa0       dhx_asn1_meth              00000000000cb3e0     OpensslLib:dh_ameth.obj
 0002:0002f0b8       ??_C@_0P@ELBFBOG@DH?5Private?9Key@ 00000000000cb4f8     OpensslLib:dh_ameth.obj
 0002:0002f0c8       ??_C@_0O@EBAKGDPN@DH?5Public?9Key@ 00000000000cb508     OpensslLib:dh_ameth.obj
 0002:0002f0d8       ??_C@_0O@OMPEPKAJ@DH?5Parameters@ 00000000000cb518     OpensslLib:dh_ameth.obj
 0002:0002f0e8       ??_C@_0N@MPONDEBM@private?9key?3@ 00000000000cb528     OpensslLib:dh_ameth.obj
 0002:0002f0f8       ??_C@_0M@BCALNHOD@public?9key?3@ 00000000000cb538     OpensslLib:dh_ameth.obj
 0002:0002f104       ??_C@_06POMKLBDA@prime?3@  00000000000cb544     OpensslLib:dh_ameth.obj
 0002:0002f110       ??_C@_0L@HDGHCIJF@generator?3@ 00000000000cb550     OpensslLib:dh_ameth.obj
 0002:0002f120       ??_C@_0BA@PFGIPGBD@subgroup?5order?3@ 00000000000cb560     OpensslLib:dh_ameth.obj
 0002:0002f130       ??_C@_0BB@HEOELHJJ@subgroup?5factor?3@ 00000000000cb570     OpensslLib:dh_ameth.obj
 0002:0002f144       ??_C@_05PENGGDLK@seed?3@   00000000000cb584     OpensslLib:dh_ameth.obj
 0002:0002f14c       ??_C@_06LEJCPMLM@?$CF02x?$CFs@ 00000000000cb58c     OpensslLib:dh_ameth.obj
 0002:0002f158       ??_C@_08ILALFGPI@counter?3@ 00000000000cb598     OpensslLib:dh_ameth.obj
 0002:0002f168       ??_C@_0CF@KKPEILHE@recommended?9private?9length?3?5?$CFd?5@ 00000000000cb5a8     OpensslLib:dh_ameth.obj
 0002:0002f190       ??_C@_0BJ@OPGBMMOB@OpenSSL?5PKCS?$CD3?5DH?5method@ 00000000000cb5d0     OpensslLib:dh_ameth.obj
 0002:0002f1b0       ??_C@_0BI@JOIJFJMC@OpenSSL?5X9?442?5DH?5method@ 00000000000cb5f0     OpensslLib:dh_ameth.obj
 0002:0002f1c8       INT32_it                   00000000000cb608     OpensslLib:x_int64.obj
 0002:0002f1f8       ZINT32_it                  00000000000cb638     OpensslLib:x_int64.obj
 0002:0002f228       UINT32_it                  00000000000cb668     OpensslLib:x_int64.obj
 0002:0002f258       ZINT64_it                  00000000000cb698     OpensslLib:x_int64.obj
 0002:0002f288       ZUINT64_it                 00000000000cb6c8     OpensslLib:x_int64.obj
 0002:0002f2b8       ZUINT32_it                 00000000000cb6f8     OpensslLib:x_int64.obj
 0002:0002f2e8       ??_C@_04NBFGDEIH@?$CFjd?6@ 00000000000cb728     OpensslLib:x_int64.obj
 0002:0002f2f0       ??_C@_04MMLCPNMA@?$CFju?6@ 00000000000cb730     OpensslLib:x_int64.obj
 0002:0002f2f8       ??_C@_03PMGGPEJJ@?$CFd?6@  00000000000cb738     OpensslLib:x_int64.obj
 0002:0002f2fc       ??_C@_03OBICDNNO@?$CFu?6@  00000000000cb73c     OpensslLib:x_int64.obj
 0002:0002f300       ??_C@_05OJLHEJN@INT32@     00000000000cb740     OpensslLib:x_int64.obj
 0002:0002f308       ??_C@_06FDNIMMFA@UINT32@   00000000000cb748     OpensslLib:x_int64.obj
 0002:0002f310       ??_C@_06KFJALMLJ@ZINT32@   00000000000cb750     OpensslLib:x_int64.obj
 0002:0002f318       ??_C@_07GPHACDEJ@ZUINT32@  00000000000cb758     OpensslLib:x_int64.obj
 0002:0002f320       ??_C@_06PFABNJNE@ZINT64@   00000000000cb760     OpensslLib:x_int64.obj
 0002:0002f328       ??_C@_07DPOBEGCE@ZUINT64@  00000000000cb768     OpensslLib:x_int64.obj
 0002:0002f430       ??_C@_0BG@NHEBIAGP@OpenSSL?5EC_KEY?5method@ 00000000000cb870     OpensslLib:ec_kmeth.obj
 0002:0002f4c8       ??_C@_07PLCMOKAM@pkeyalg@  00000000000cb908     OpensslLib:p8_pkey.obj
 0002:0002f4d0       ??_C@_04JMMJFDFL@pkey@     00000000000cb910     OpensslLib:p8_pkey.obj
 0002:0002f4d8       ??_C@_0L@HNMJPKNA@attributes@ 00000000000cb918     OpensslLib:p8_pkey.obj
 0002:0002f4e8       ??_C@_0BE@LDIFBBLG@PKCS8_PRIV_KEY_INFO@ 00000000000cb928     OpensslLib:p8_pkey.obj
 0002:0002f500       PKCS8_PRIV_KEY_INFO_it     00000000000cb940     OpensslLib:p8_pkey.obj
 0002:0002f5d8       ??_C@_08DFMPDBMK@X509_SIG@ 00000000000cba18     OpensslLib:x_sig.obj
 0002:0002f5e8       X509_SIG_it                00000000000cba28     OpensslLib:x_sig.obj
 0002:0002f660       ??_C@_02ICGBAFJO@k1@       00000000000cbaa0     OpensslLib:ec_asn1.obj
 0002:0002f664       ??_C@_02KJEMFGFN@k2@       00000000000cbaa4     OpensslLib:ec_asn1.obj
 0002:0002f668       ??_C@_02LAFHGHBM@k3@       00000000000cbaa8     OpensslLib:ec_asn1.obj
 0002:0002f670       ??_C@_0BC@NPDMPFCL@X9_62_PENTANOMIAL@ 00000000000cbab0     OpensslLib:ec_asn1.obj
 0002:0002f688       ??_C@_07PBHIMFBE@p?4other@ 00000000000cbac8     OpensslLib:ec_asn1.obj
 0002:0002f690       ??_C@_09KOBBOOPN@p?4onBasis@ 00000000000cbad0     OpensslLib:ec_asn1.obj
 0002:0002f6a0       ??_C@_09LICBCEBD@p?4tpBasis@ 00000000000cbae0     OpensslLib:ec_asn1.obj
 0002:0002f6b0       ??_C@_09DMGLCKOJ@p?4ppBasis@ 00000000000cbaf0     OpensslLib:ec_asn1.obj
 0002:0002f6bc       ??_C@_01GOHFPIOK@m@        00000000000cbafc     OpensslLib:ec_asn1.obj
 0002:0002f6c0       ??_C@_04GPMDFGEJ@type@     00000000000cbb00     OpensslLib:ec_asn1.obj
 0002:0002f6c8       ??_C@_0BJ@CCODLOLO@X9_62_CHARACTERISTIC_TWO@ 00000000000cbb08     OpensslLib:ec_asn1.obj
 0002:0002f6e8       ??_C@_07DPJEDCLB@p?4prime@ 00000000000cbb28     OpensslLib:ec_asn1.obj
 0002:0002f6f0       ??_C@_0L@NLMAKEBL@p?4char_two@ 00000000000cbb30     OpensslLib:ec_asn1.obj
 0002:0002f700       ??_C@_09OAOLGAOM@fieldType@ 00000000000cbb40     OpensslLib:ec_asn1.obj
 0002:0002f710       ??_C@_0O@PGPIAKKH@X9_62_FIELDID@ 00000000000cbb50     OpensslLib:ec_asn1.obj
 0002:0002f720       ??_C@_01MCMALHOG@a@        00000000000cbb60     OpensslLib:ec_asn1.obj
 0002:0002f724       ??_C@_01OJONOECF@b@        00000000000cbb64     OpensslLib:ec_asn1.obj
 0002:0002f728       ??_C@_04MENKDCKE@seed@     00000000000cbb68     OpensslLib:ec_asn1.obj
 0002:0002f730       ??_C@_0M@BHDPNPCK@X9_62_CURVE@ 00000000000cbb70     OpensslLib:ec_asn1.obj
 0002:0002f740       ??_C@_07MJJGNICD@fieldID@  00000000000cbb80     OpensslLib:ec_asn1.obj
 0002:0002f748       ??_C@_05HIKPKPAA@curve@    00000000000cbb88     OpensslLib:ec_asn1.obj
 0002:0002f750       ??_C@_05NDNMCCJH@order@    00000000000cbb90     OpensslLib:ec_asn1.obj
 0002:0002f758       ??_C@_08DKFAOMDI@cofactor@ 00000000000cbb98     OpensslLib:ec_asn1.obj
 0002:0002f768       ??_C@_0N@ECDPFONH@ECPARAMETERS@ 00000000000cbba8     OpensslLib:ec_asn1.obj
 0002:0002f778       ??_C@_0BC@JEJHGDNN@value?4named_curve@ 00000000000cbbb8     OpensslLib:ec_asn1.obj
 0002:0002f790       ??_C@_0BB@KOECJJJ@value?4parameters@ 00000000000cbbd0     OpensslLib:ec_asn1.obj
 0002:0002f7a8       ??_C@_0BD@HOIIAPI@value?4implicitlyCA@ 00000000000cbbe8     OpensslLib:ec_asn1.obj
 0002:0002f7c0       ??_C@_0P@PBBIGPFJ@ECPKPARAMETERS@ 00000000000cbc00     OpensslLib:ec_asn1.obj
 0002:0002f7d0       ??_C@_0L@BCENACFO@privateKey@ 00000000000cbc10     OpensslLib:ec_asn1.obj
 0002:0002f7e0       ??_C@_0L@HHPOFMCB@parameters@ 00000000000cbc20     OpensslLib:ec_asn1.obj
 0002:0002f7f0       ??_C@_09IDENFCJL@publicKey@ 00000000000cbc30     OpensslLib:ec_asn1.obj
 0002:0002f800       ??_C@_0O@DFJMHGOP@EC_PRIVATEKEY@ 00000000000cbc40     OpensslLib:ec_asn1.obj
 0002:0002f810       ??_C@_01LKDEMHDF@s@        00000000000cbc50     OpensslLib:ec_asn1.obj
 0002:0002f818       ??_C@_09FLJPBFIA@ECDSA_SIG@ 00000000000cbc58     OpensslLib:ec_asn1.obj
 0002:0002f828       ECPARAMETERS_it            00000000000cbc68     OpensslLib:ec_asn1.obj
 0002:0002fbd0       ECPKPARAMETERS_it          00000000000cc010     OpensslLib:ec_asn1.obj
 0002:0002fe60       ??_C@_07JIJPKMF@d?4other@  00000000000cc2a0     OpensslLib:pk7_asn1.obj
 0002:0002fe68       ??_C@_02EBCANADN@md@       00000000000cc2a8     OpensslLib:pk7_asn1.obj
 0002:0002fe6c       ??_C@_01JEJKBAGA@g@        00000000000cc2ac     OpensslLib:dh_asn1.obj
 0002:0002fe70       ??_C@_06IJDLPEM@length@    00000000000cc2b0     OpensslLib:dh_asn1.obj
 0002:0002fe78       ??_C@_08LKFDNFJ@DHparams@  00000000000cc2b8     OpensslLib:dh_asn1.obj
 0002:0002fe88       ??_C@_07HDOCMLOI@counter@  00000000000cc2c8     OpensslLib:dh_asn1.obj
 0002:0002fe90       ??_C@_0O@KANPBCM@int_dhvparams@ 00000000000cc2d0     OpensslLib:dh_asn1.obj
 0002:0002fea0       ??_C@_01CBDEGOCN@j@        00000000000cc2e0     OpensslLib:dh_asn1.obj
 0002:0002fea8       ??_C@_07JLLHOFNK@vparams@  00000000000cc2e8     OpensslLib:dh_asn1.obj
 0002:0002feb0       ??_C@_0O@HMLHGNDO@int_dhx942_dh@ 00000000000cc2f0     OpensslLib:dh_asn1.obj
 0002:0002ff90       DHparams_it                00000000000cc3d0     OpensslLib:dh_asn1.obj
 0002:000300b8       ??_C@_0BD@LDHEJACI@OpenSSL?5PKCS?$CD1?5RSA@ 00000000000cc4f8     OpensslLib:rsa_ossl.obj
 0002:000300d0       BIGNUM_it                  00000000000cc510     OpensslLib:x_bignum.obj
 0002:00030100       CBIGNUM_it                 00000000000cc540     OpensslLib:x_bignum.obj
 0002:00030130       ??_C@_06CHOIGJDB@BIGNUM@   00000000000cc570     OpensslLib:x_bignum.obj
 0002:00030138       ??_C@_07HILEKMCI@CBIGNUM@  00000000000cc578     OpensslLib:x_bignum.obj
 0002:00030140       ??_C@_0O@NHCJKCDC@?$DMunsupported?$DO@ 00000000000cc580     OpensslLib:v3_alt.obj
 0002:00030150       ??_C@_09PAKBLAPA@othername@ 00000000000cc590     OpensslLib:v3_alt.obj
 0002:00030160       ??_C@_08EBDOEGJI@X400Name@ 00000000000cc5a0     OpensslLib:v3_alt.obj
 0002:00030170       ??_C@_0N@EEELPIKD@EdiPartyName@ 00000000000cc5b0     OpensslLib:v3_alt.obj
 0002:00030180       ??_C@_05HKHCDHCL@email@    00000000000cc5c0     OpensslLib:v3_alt.obj
 0002:00030188       ??_C@_03CBFPEBNE@DNS@      00000000000cc5c8     OpensslLib:v3_alt.obj
 0002:0003018c       ??_C@_03GMOLNBOB@URI@      00000000000cc5cc     OpensslLib:v3_alt.obj
 0002:00030190       ??_C@_07FDBCPIKC@DirName@  00000000000cc5d0     OpensslLib:v3_alt.obj
 0002:00030198       ??_C@_09DPMBDOD@?$DMinvalid?$DO@ 00000000000cc5d8     OpensslLib:v3_alt.obj
 0002:000301a8       ??_C@_0L@NGHMMCPJ@IP?5Address@ 00000000000cc5e8     OpensslLib:v3_alt.obj
 0002:000301b8       ??_C@_0O@KAIENCPE@Registered?5ID@ 00000000000cc5f8     OpensslLib:v3_alt.obj
 0002:000301c8       ??_C@_04COAGEIMF@copy@     00000000000cc608     OpensslLib:v3_alt.obj
 0002:000301d0       ??_C@_04HDMMNHEL@move@     00000000000cc610     OpensslLib:v3_alt.obj
 0002:000301d8       ??_C@_03FEOBNLIE@RID@      00000000000cc618     OpensslLib:v3_alt.obj
 0002:000301dc       ??_C@_02MFEOMNPG@IP@       00000000000cc61c     OpensslLib:v3_alt.obj
 0002:000301e0       ??_C@_07KKGEJKPE@dirName@  00000000000cc620     OpensslLib:v3_alt.obj
 0002:000301e8       ??_C@_09DBGAJPPE@otherName@ 00000000000cc628     OpensslLib:v3_alt.obj
 0002:00030200       v3_alt                     00000000000cc640     OpensslLib:v3_alt.obj
 0002:00030338       ??_C@_0BG@HGJBEKFE@requireExplicitPolicy@ 00000000000cc778     OpensslLib:v3_pcons.obj
 0002:00030350       ??_C@_0BF@MOMLJGAL@inhibitPolicyMapping@ 00000000000cc790     OpensslLib:v3_pcons.obj
 0002:00030368       ??_C@_0BD@MMPNIEIJ@POLICY_CONSTRAINTS@ 00000000000cc7a8     OpensslLib:v3_pcons.obj
 0002:00030380       ??_C@_0BI@HNCHDEDI@Require?5Explicit?5Policy@ 00000000000cc7c0     OpensslLib:v3_pcons.obj
 0002:00030398       ??_C@_0BH@HMKHOMED@Inhibit?5Policy?5Mapping@ 00000000000cc7d8     OpensslLib:v3_pcons.obj
 0002:000303b0       v3_policy_constraints      00000000000cc7f0     OpensslLib:v3_pcons.obj
 0002:00030418       POLICY_CONSTRAINTS_it      00000000000cc858     OpensslLib:v3_pcons.obj
 0002:00030490       ??_C@_0BE@GJBJOOCP@CERTIFICATEPOLICIES@ 00000000000cc8d0     OpensslLib:v3_cpols.obj
 0002:000304a8       ??_C@_08NEBFOBH@policyid@  00000000000cc8e8     OpensslLib:v3_cpols.obj
 0002:000304b8       ??_C@_0L@HMNGMMJI@qualifiers@ 00000000000cc8f8     OpensslLib:v3_cpols.obj
 0002:000304c8       ??_C@_0L@POLPGHJK@POLICYINFO@ 00000000000cc908     OpensslLib:v3_cpols.obj
 0002:000304d8       ??_C@_08EECALGEF@d?4cpsuri@ 00000000000cc918     OpensslLib:v3_cpols.obj
 0002:000304e8       ??_C@_0N@JPAHANFF@d?4usernotice@ 00000000000cc928     OpensslLib:v3_cpols.obj
 0002:000304f8       ??_C@_07LEEILOKB@pqualid@  00000000000cc938     OpensslLib:v3_cpols.obj
 0002:00030500       ??_C@_0P@POBJIHLD@POLICYQUALINFO@ 00000000000cc940     OpensslLib:v3_cpols.obj
 0002:00030510       ??_C@_09FIKFDFH@noticeref@ 00000000000cc950     OpensslLib:v3_cpols.obj
 0002:00030520       ??_C@_07MHGINJOA@exptext@  00000000000cc960     OpensslLib:v3_cpols.obj
 0002:00030528       ??_C@_0L@HCNDPADF@USERNOTICE@ 00000000000cc968     OpensslLib:v3_cpols.obj
 0002:00030538       ??_C@_0N@HEIPMDAG@organization@ 00000000000cc978     OpensslLib:v3_cpols.obj
 0002:00030548       ??_C@_09CFGHNILC@noticenos@ 00000000000cc988     OpensslLib:v3_cpols.obj
 0002:00030558       ??_C@_09DFHLGOKA@NOTICEREF@ 00000000000cc998     OpensslLib:v3_cpols.obj
 0002:00030564       ??_C@_06MIFIGELF@ia5org@   00000000000cc9a4     OpensslLib:v3_cpols.obj
 0002:00030570       ??_C@_0BB@FIJMMMGE@policyIdentifier@ 00000000000cc9b0     OpensslLib:v3_cpols.obj
 0002:00030584       ??_C@_03KKDAPHBH@CPS@      00000000000cc9c4     OpensslLib:v3_cpols.obj
 0002:00030588       ??_C@_0L@LADHLIJ@userNotice@ 00000000000cc9c8     OpensslLib:v3_cpols.obj
 0002:00030594       ??_C@_04OOMJJNCF@UTF8@     00000000000cc9d4     OpensslLib:v3_cpols.obj
 0002:000305a0       ??_C@_0L@PJIJIHJD@UTF8String@ 00000000000cc9e0     OpensslLib:v3_cpols.obj
 0002:000305ac       ??_C@_03CNFPPDJC@BMP@      00000000000cc9ec     OpensslLib:v3_cpols.obj
 0002:000305b0       ??_C@_09BIBABMFN@BMPSTRING@ 00000000000cc9f0     OpensslLib:v3_cpols.obj
 0002:000305c0       ??_C@_07MCGNPFEO@VISIBLE@  00000000000cca00     OpensslLib:v3_cpols.obj
 0002:000305c8       ??_C@_0O@KDAJCBO@VISIBLESTRING@ 00000000000cca08     OpensslLib:v3_cpols.obj
 0002:000305d8       ??_C@_0N@EALKMFB@explicitText@ 00000000000cca18     OpensslLib:v3_cpols.obj
 0002:000305e8       ??_C@_0O@OKDALMJE@noticeNumbers@ 00000000000cca28     OpensslLib:v3_cpols.obj
 0002:000305f8       ??_C@_0M@ICGFCJNO@?$CF?$CKsCPS?3?5?$CFs?6@ 00000000000cca38     OpensslLib:v3_cpols.obj
 0002:00030608       ??_C@_0BF@OCNFPJOG@?$CF?$CKsOrganization?3?5?$CFs?6@ 00000000000cca48     OpensslLib:v3_cpols.obj
 0002:00030620       ??_C@_0O@EFHNHHDA@?$CF?$CKsNumber?$CFs?3?5@ 00000000000cca60     OpensslLib:v3_cpols.obj
 0002:00030630       ??_C@_06OJHGLDPL@?$CInull?$CJ@ 00000000000cca70     OpensslLib:v3_cpols.obj
 0002:00030638       ??_C@_0BG@IHHCDAMH@?$CF?$CKsExplicit?5Text?3?5?$CFs?6@ 00000000000cca78     OpensslLib:v3_cpols.obj
 0002:00030650       NOTICEREF_it               00000000000cca90     OpensslLib:v3_cpols.obj
 0002:00030700       USERNOTICE_it              00000000000ccb40     OpensslLib:v3_cpols.obj
 0002:00030830       POLICYQUALINFO_it          00000000000ccc70     OpensslLib:v3_cpols.obj
 0002:000308a0       POLICYINFO_it              00000000000ccce0     OpensslLib:v3_cpols.obj
 0002:000308d0       v3_cpols                   00000000000ccd10     OpensslLib:v3_cpols.obj
 0002:00030938       CERTIFICATEPOLICIES_it     00000000000ccd78     OpensslLib:v3_cpols.obj
 0002:00030968       ??_C@_0L@LIHNHIHF@?$CF?$CKs?$CF04x?5?9?5@ 00000000000ccda8     OpensslLib:b_dump.obj
 0002:00030974       ??_C@_03NDEAONJP@?5?5?5@   00000000000ccdb4     OpensslLib:b_dump.obj
 0002:00030978       ??_C@_02KNHHEEKP@?5?5@     00000000000ccdb8     OpensslLib:b_dump.obj
 0002:00030980       dhx_pkey_meth              00000000000ccdc0     OpensslLib:dh_pmeth.obj
 0002:00030a80       dh_pkey_meth               00000000000ccec0     OpensslLib:dh_pmeth.obj
 0002:00030b80       ??_C@_0BG@LEMCDPBI@dh_paramgen_prime_len@ 00000000000ccfc0     OpensslLib:dh_pmeth.obj
 0002:00030b98       ??_C@_0L@CMAICHCO@dh_rfc5114@ 00000000000ccfd8     OpensslLib:dh_pmeth.obj
 0002:00030ba8       ??_C@_08DJOKJGHP@dh_param@ 00000000000ccfe8     OpensslLib:dh_pmeth.obj
 0002:00030bb8       ??_C@_0BG@POLEFOHA@dh_paramgen_generator@ 00000000000ccff8     OpensslLib:dh_pmeth.obj
 0002:00030bd0       ??_C@_0BJ@HCAFJLBI@dh_paramgen_subprime_len@ 00000000000cd010     OpensslLib:dh_pmeth.obj
 0002:00030bf0       ??_C@_0BB@DCMALDKK@dh_paramgen_type@ 00000000000cd030     OpensslLib:dh_pmeth.obj
 0002:00030c04       ??_C@_06GADFDCHC@dh_pad@   00000000000cd044     OpensslLib:dh_pmeth.obj
 0002:00030c10       cmac_pkey_meth             00000000000cd050     OpensslLib:cm_pmeth.obj
 0002:00030d10       ??_C@_06BHJHKMJC@hexkey@   00000000000cd150     OpensslLib:cm_pmeth.obj
 0002:00030d20       rsa_pkey_meth              00000000000cd160     OpensslLib:rsa_pmeth.obj
 0002:00030e20       rsa_pss_pkey_meth          00000000000cd260     OpensslLib:rsa_pmeth.obj
 0002:00030f20       ??_C@_0BB@BILFEOKG@rsa_padding_mode@ 00000000000cd360     OpensslLib:rsa_pmeth.obj
 0002:00030f34       ??_C@_06PDLHKEJK@sslv23@   00000000000cd374     OpensslLib:rsa_pmeth.obj
 0002:00030f3c       ??_C@_04CGFJFPFD@none@     00000000000cd37c     OpensslLib:rsa_pmeth.obj
 0002:00030f44       ??_C@_04EIGNDHKO@oeap@     00000000000cd384     OpensslLib:rsa_pmeth.obj
 0002:00030f4c       ??_C@_04MAAGAICF@oaep@     00000000000cd38c     OpensslLib:rsa_pmeth.obj
 0002:00030f54       ??_C@_04JNCMEILM@x931@     00000000000cd394     OpensslLib:rsa_pmeth.obj
 0002:00030f60       ??_C@_0BA@CIHMEEHB@rsa_pss_saltlen@ 00000000000cd3a0     OpensslLib:rsa_pmeth.obj
 0002:00030f70       ??_C@_03LJAEFNNE@max@      00000000000cd3b0     OpensslLib:rsa_pmeth.obj
 0002:00030f78       ??_C@_0BA@GFPKPLAF@rsa_keygen_bits@ 00000000000cd3b8     OpensslLib:rsa_pmeth.obj
 0002:00030f88       ??_C@_0BC@DMECNPFD@rsa_keygen_pubexp@ 00000000000cd3c8     OpensslLib:rsa_pmeth.obj
 0002:00030fa0       ??_C@_0BC@KMPAJFPF@rsa_keygen_primes@ 00000000000cd3e0     OpensslLib:rsa_pmeth.obj
 0002:00030fb8       ??_C@_0M@CNLGKALE@rsa_mgf1_md@ 00000000000cd3f8     OpensslLib:rsa_pmeth.obj
 0002:00030fc8       ??_C@_0BH@OIJPKNFL@rsa_pss_keygen_mgf1_md@ 00000000000cd408     OpensslLib:rsa_pmeth.obj
 0002:00030fe0       ??_C@_0BC@BFLLMFID@rsa_pss_keygen_md@ 00000000000cd420     OpensslLib:rsa_pmeth.obj
 0002:00030ff8       ??_C@_0BH@MFJEKBFK@rsa_pss_keygen_saltlen@ 00000000000cd438     OpensslLib:rsa_pmeth.obj
 0002:00031010       ??_C@_0M@OPEEJBKE@rsa_oaep_md@ 00000000000cd450     OpensslLib:rsa_pmeth.obj
 0002:00031020       ??_C@_0P@NCFNIFLM@rsa_oaep_label@ 00000000000cd460     OpensslLib:rsa_pmeth.obj
 0002:00031030       tls1_prf_pkey_meth         00000000000cd470     OpensslLib:tls1_prf.obj
 0002:00031130       ??_C@_06PNMBKEGN@secret@   00000000000cd570     OpensslLib:tls1_prf.obj
 0002:00031138       ??_C@_09CIFGBJCP@hexsecret@ 00000000000cd578     OpensslLib:tls1_prf.obj
 0002:00031148       ??_C@_07FKCLENDA@hexseed@  00000000000cd588     OpensslLib:tls1_prf.obj
 0002:00031150       hkdf_pkey_meth             00000000000cd590     OpensslLib:hkdf.obj
 0002:00031250       ??_C@_04GMGOKAFF@mode@     00000000000cd690     OpensslLib:hkdf.obj
 0002:00031258       ??_C@_0BD@PBGBEBFD@EXTRACT_AND_EXPAND@ 00000000000cd698     OpensslLib:hkdf.obj
 0002:00031270       ??_C@_0N@OIPAJIAH@EXTRACT_ONLY@ 00000000000cd6b0     OpensslLib:hkdf.obj
 0002:00031280       ??_C@_0M@FMHABNKF@EXPAND_ONLY@ 00000000000cd6c0     OpensslLib:hkdf.obj
 0002:0003128c       ??_C@_04OKLIMCN@salt@      00000000000cd6cc     OpensslLib:hkdf.obj
 0002:00031298       ??_C@_07JAFKPDLJ@hexsalt@  00000000000cd6d8     OpensslLib:hkdf.obj
 0002:000312a0       ??_C@_07EGMICCIA@hexinfo@  00000000000cd6e0     OpensslLib:hkdf.obj
 0002:000312b0       sm2_pkey_meth              00000000000cd6f0     OpensslLib:sm2_pmeth.obj
 0002:000313b0       ??_C@_0BC@BLCJLNNM@ec_paramgen_curve@ 00000000000cd7f0     OpensslLib:sm2_pmeth.obj
 0002:000313c8       ??_C@_0N@CHHABLAI@ec_param_enc@ 00000000000cd808     OpensslLib:sm2_pmeth.obj
 0002:000313d8       ??_C@_08FCANLLBJ@explicit@ 00000000000cd818     OpensslLib:sm2_pmeth.obj
 0002:000313f0       siphash_pkey_meth          00000000000cd830     OpensslLib:siphash_pmeth.obj
 0002:000314f0       ??_C@_0L@NANBDDC@digestsize@ 00000000000cd930     OpensslLib:siphash_pmeth.obj
 0002:00031500       ec_pkey_meth               00000000000cd940     OpensslLib:ec_pmeth.obj
 0002:00031600       ??_C@_0M@JAAKIKPH@ecdh_kdf_md@ 00000000000cda40     OpensslLib:ec_pmeth.obj
 0002:00031610       ??_C@_0BD@CPNABICB@ecdh_cofactor_mode@ 00000000000cda50     OpensslLib:ec_pmeth.obj
 0002:00031630       hmac_pkey_meth             00000000000cda70     OpensslLib:hm_pmeth.obj
 0002:00031730       ??_C@_0BC@MGHKLCAP@OpenSSL?5DH?5Method@ 00000000000cdb70     OpensslLib:dh_key.obj
 0002:00031768       ??_C@_02PLJDPFIO@00@       00000000000cdba8     OpensslLib:asn1_par.obj
 0002:0003176c       ??_C@_03NCODFONH@EOC@      00000000000cdbac     OpensslLib:asn1_par.obj
 0002:00031770       ??_C@_07JDEDMABE@BOOLEAN@  00000000000cdbb0     OpensslLib:asn1_par.obj
 0002:00031778       ??_C@_07EHCIHKNF@INTEGER@  00000000000cdbb8     OpensslLib:asn1_par.obj
 0002:00031780       ??_C@_0L@EKOKPLKE@BIT?5STRING@ 00000000000cdbc0     OpensslLib:asn1_par.obj
 0002:00031790       ??_C@_0N@KPGGMDFC@OCTET?5STRING@ 00000000000cdbd0     OpensslLib:asn1_par.obj
 0002:000317a0       ??_C@_06IAMCMNFI@OBJECT@   00000000000cdbe0     OpensslLib:asn1_par.obj
 0002:000317a8       ??_C@_0BC@HDOCNDIH@OBJECT?5DESCRIPTOR@ 00000000000cdbe8     OpensslLib:asn1_par.obj
 0002:000317c0       ??_C@_08JHLDEHEK@EXTERNAL@ 00000000000cdc00     OpensslLib:asn1_par.obj
 0002:000317cc       ??_C@_04PKFANLLI@REAL@     00000000000cdc0c     OpensslLib:asn1_par.obj
 0002:000317d8       ??_C@_0L@KNIEMAKM@ENUMERATED@ 00000000000cdc18     OpensslLib:asn1_par.obj
 0002:000317e8       ??_C@_09EKNCOIGI@?$DMASN1?511?$DO@ 00000000000cdc28     OpensslLib:asn1_par.obj
 0002:000317f8       ??_C@_0L@DCBPGANN@UTF8STRING@ 00000000000cdc38     OpensslLib:asn1_par.obj
 0002:00031808       ??_C@_09EJFGDMAG@?$DMASN1?513?$DO@ 00000000000cdc48     OpensslLib:asn1_par.obj
 0002:00031818       ??_C@_09EMBJCKID@?$DMASN1?514?$DO@ 00000000000cdc58     OpensslLib:asn1_par.obj
 0002:00031828       ??_C@_09ENNLEALE@?$DMASN1?515?$DO@ 00000000000cdc68     OpensslLib:asn1_par.obj
 0002:00031838       ??_C@_08POLPFBMC@SEQUENCE@ 00000000000cdc78     OpensslLib:asn1_par.obj
 0002:00031844       ??_C@_03KPIFFHNE@SET@      00000000000cdc84     OpensslLib:asn1_par.obj
 0002:00031848       ??_C@_0O@DFADMOGA@NUMERICSTRING@ 00000000000cdc88     OpensslLib:asn1_par.obj
 0002:00031858       ??_C@_0BA@FKHILLED@PRINTABLESTRING@ 00000000000cdc98     OpensslLib:asn1_par.obj
 0002:00031868       ??_C@_09FMBHBANP@T61STRING@ 00000000000cdca8     OpensslLib:asn1_par.obj
 0002:00031878       ??_C@_0P@LNAMNBEL@VIDEOTEXSTRING@ 00000000000cdcb8     OpensslLib:asn1_par.obj
 0002:00031888       ??_C@_09JOMPLKGB@IA5STRING@ 00000000000cdcc8     OpensslLib:asn1_par.obj
 0002:00031898       ??_C@_07HIOLDDN@UTCTIME@   00000000000cdcd8     OpensslLib:asn1_par.obj
 0002:000318a0       ??_C@_0BA@LKNBIJBB@GENERALIZEDTIME@ 00000000000cdce0     OpensslLib:asn1_par.obj
 0002:000318b0       ??_C@_0O@MABADFB@GRAPHICSTRING@ 00000000000cdcf0     OpensslLib:asn1_par.obj
 0002:000318c0       ??_C@_0O@DKDEPFLO@GENERALSTRING@ 00000000000cdd00     OpensslLib:asn1_par.obj
 0002:000318d0       ??_C@_0BA@EJHHDALK@UNIVERSALSTRING@ 00000000000cdd10     OpensslLib:asn1_par.obj
 0002:000318e0       ??_C@_09FGHEBGDO@?$DMASN1?529?$DO@ 00000000000cdd20     OpensslLib:asn1_par.obj
 0002:000318f0       ??_C@_09GPGAJHPD@?$CIunknown?$CJ@ 00000000000cdd30     OpensslLib:asn1_par.obj
 0002:000319f8       ??_C@_08JJBFGKFE@minsize?$DN@ 00000000000cde38     OpensslLib:a_mbstr.obj
 0002:00031a08       ??_C@_08EOPONIBF@maxsize?$DN@ 00000000000cde48     OpensslLib:a_mbstr.obj
 0002:00032098       ??_C@_08KLAPILAK@SigEd448@ 00000000000ce4d8     OpensslLib:eddsa.obj
 0002:00039d70       ??_C@_05NJJIPCOC@?$CFs?50?6@ 00000000000d61b0     OpensslLib:t_pkey.obj
 0002:00039d78       ??_C@_0BE@KHLFKPFC@?$CFs?5?$CFs?$CFlu?5?$CI?$CFs0x?$CFlx?$CJ?6@ 00000000000d61b8     OpensslLib:t_pkey.obj
 0002:00039d90       ??_C@_0M@IBLDKCHK@?5?$CINegative?$CJ@ 00000000000d61d0     OpensslLib:t_pkey.obj
 0002:00039d9c       ??_C@_05JMJKDBEJ@?$CFs?$CFs?6@ 00000000000d61dc     OpensslLib:t_pkey.obj
 0002:00039e30       curve448_point_identity    00000000000d6270     OpensslLib:curve448.obj
 0002:00039f70       ??_C@_0BI@DFFFIKFB@Generator?5?$CIcompressed?$CJ?3@ 00000000000d63b0     OpensslLib:eck_prn.obj
 0002:00039f88       ??_C@_0BK@DOCPEENO@Generator?5?$CIuncompressed?$CJ?3@ 00000000000d63c8     OpensslLib:eck_prn.obj
 0002:00039fa8       ??_C@_0BE@FPCNHCIJ@Generator?5?$CIhybrid?$CJ?3@ 00000000000d63e8     OpensslLib:eck_prn.obj
 0002:00039fc0       ??_C@_0N@JOFLCJFF@ASN1?5OID?3?5?$CFs@ 00000000000d6400     OpensslLib:eck_prn.obj
 0002:00039fd0       ??_C@_0BA@LNIECBHN@NIST?5CURVE?3?5?$CFs?6@ 00000000000d6410     OpensslLib:eck_prn.obj
 0002:00039fe0       ??_C@_0BA@KNKNOIFH@Field?5Type?3?5?$CFs?6@ 00000000000d6420     OpensslLib:eck_prn.obj
 0002:00039ff0       ??_C@_0BA@ENMKKION@Basis?5Type?3?5?$CFs?6@ 00000000000d6430     OpensslLib:eck_prn.obj
 0002:0003a000       ??_C@_0M@JDIPGLHE@Polynomial?3@ 00000000000d6440     OpensslLib:eck_prn.obj
 0002:0003a00c       ??_C@_06DBHHIIKM@Prime?3@  00000000000d644c     OpensslLib:eck_prn.obj
 0002:0003a014       ??_C@_05GMFDOKMO@A?3?5?5?5@ 00000000000d6454     OpensslLib:eck_prn.obj
 0002:0003a01c       ??_C@_05OKMHJIGA@B?3?5?5?5@ 00000000000d645c     OpensslLib:eck_prn.obj
 0002:0003a028       ??_C@_07KOGOKIFH@Order?3?5@ 00000000000d6468     OpensslLib:eck_prn.obj
 0002:0003a030       ??_C@_0L@IEMHODML@Cofactor?3?5@ 00000000000d6470     OpensslLib:eck_prn.obj
 0002:0003a03c       ??_C@_05PDHKGGIM@Seed?3@   00000000000d647c     OpensslLib:eck_prn.obj
 0002:0003a044       ??_C@_02DKCKIIND@?$CFs@    00000000000d6484     OpensslLib:eck_prn.obj
 0002:0003a048       ??_C@_02JPPHBJLD@?2?6@     00000000000d6488     OpensslLib:f_int.obj
 0002:0003a050       ??_C@_0L@IBMJIFJJ@processing@ 00000000000d6490     OpensslLib:ui_lib.obj
 0002:0003a060       ??_C@_0BA@GOAFKHOA@opening?5session@ 00000000000d64a0     OpensslLib:ui_lib.obj
 0002:0003a070       ??_C@_0BA@LLBHCIJA@writing?5strings@ 00000000000d64b0     OpensslLib:ui_lib.obj
 0002:0003a080       ??_C@_08FLELJCH@flushing@  00000000000d64c0     OpensslLib:ui_lib.obj
 0002:0003a090       ??_C@_0BA@JJHDNNDP@reading?5strings@ 00000000000d64d0     OpensslLib:ui_lib.obj
 0002:0003a0a0       ??_C@_0BA@OJKMFOLM@closing?5session@ 00000000000d64e0     OpensslLib:ui_lib.obj
 0002:0003a0b0       ??_C@_06JBLBDDPN@while?5@  00000000000d64f0     OpensslLib:ui_lib.obj
 0002:0003a0b8       ??_C@_04JBGFELJA@tag?$DN@  00000000000d64f8     OpensslLib:asn1_gen.obj
 0002:0003a0c0       ??_C@_05CCNLIHFO@ASCII@    00000000000d6500     OpensslLib:asn1_gen.obj
 0002:0003a0c8       ??_C@_03IECIMIEG@HEX@      00000000000d6508     OpensslLib:asn1_gen.obj
 0002:0003a0d0       ??_C@_07HMNLDFAL@BITLIST@  00000000000d6510     OpensslLib:asn1_gen.obj
 0002:0003a0d8       ??_C@_05NALEHOPE@Char?$DN@ 00000000000d6518     OpensslLib:asn1_gen.obj
 0002:0003a0e0       ??_C@_04PPJDIBFE@BOOL@     00000000000d6520     OpensslLib:asn1_gen.obj
 0002:0003a0e8       ??_C@_03JMHEAPMO@INT@      00000000000d6528     OpensslLib:asn1_gen.obj
 0002:0003a0ec       ??_C@_04PNKFCNMG@ENUM@     00000000000d652c     OpensslLib:asn1_gen.obj
 0002:0003a0f4       ??_C@_03PGJCFEMG@OID@      00000000000d6534     OpensslLib:asn1_gen.obj
 0002:0003a0f8       ??_C@_03JCIJEFNJ@UTC@      00000000000d6538     OpensslLib:asn1_gen.obj
 0002:0003a100       ??_C@_07EECHABMP@GENTIME@  00000000000d6540     OpensslLib:asn1_gen.obj
 0002:0003a108       ??_C@_03LBMHMDEB@OCT@      00000000000d6548     OpensslLib:asn1_gen.obj
 0002:0003a110       ??_C@_0M@JIDALIGG@OCTETSTRING@ 00000000000d6550     OpensslLib:asn1_gen.obj
 0002:0003a11c       ??_C@_06GOEDGPII@BITSTR@   00000000000d655c     OpensslLib:asn1_gen.obj
 0002:0003a128       ??_C@_09MBLGEDKL@BITSTRING@ 00000000000d6568     OpensslLib:asn1_gen.obj
 0002:0003a134       ??_C@_04CBEPCLMK@UNIV@     00000000000d6574     OpensslLib:asn1_gen.obj
 0002:0003a13c       ??_C@_03OLMOBCBF@IA5@      00000000000d657c     OpensslLib:asn1_gen.obj
 0002:0003a140       ??_C@_09OMDMMLJJ@PRINTABLE@ 00000000000d6580     OpensslLib:asn1_gen.obj
 0002:0003a14c       ??_C@_03HMGPCGIG@T61@      00000000000d658c     OpensslLib:asn1_gen.obj
 0002:0003a150       ??_C@_0O@GENPGMAM@TELETEXSTRING@ 00000000000d6590     OpensslLib:asn1_gen.obj
 0002:0003a160       ??_C@_0O@OIKLOOAP@GeneralString@ 00000000000d65a0     OpensslLib:asn1_gen.obj
 0002:0003a170       ??_C@_06GBOJAPHH@GENSTR@   00000000000d65b0     OpensslLib:asn1_gen.obj
 0002:0003a178       ??_C@_07DBOJJFHC@NUMERIC@  00000000000d65b8     OpensslLib:asn1_gen.obj
 0002:0003a180       ??_C@_03NCPCKDJB@SEQ@      00000000000d65c0     OpensslLib:asn1_gen.obj
 0002:0003a184       ??_C@_03KKGFKKLA@EXP@      00000000000d65c4     OpensslLib:asn1_gen.obj
 0002:0003a188       ??_C@_08CNKBIFDO@EXPLICIT@ 00000000000d65c8     OpensslLib:asn1_gen.obj
 0002:0003a194       ??_C@_03PKFOHEJD@IMP@      00000000000d65d4     OpensslLib:asn1_gen.obj
 0002:0003a198       ??_C@_08PPMOEJGF@IMPLICIT@ 00000000000d65d8     OpensslLib:asn1_gen.obj
 0002:0003a1a8       ??_C@_07KIEILLID@OCTWRAP@  00000000000d65e8     OpensslLib:asn1_gen.obj
 0002:0003a1b0       ??_C@_07LAEBDLGO@SEQWRAP@  00000000000d65f0     OpensslLib:asn1_gen.obj
 0002:0003a1b8       ??_C@_07OAIMKKNN@SETWRAP@  00000000000d65f8     OpensslLib:asn1_gen.obj
 0002:0003a1c0       ??_C@_07JHDNPBBM@BITWRAP@  00000000000d6600     OpensslLib:asn1_gen.obj
 0002:0003a1c8       ??_C@_04HPGCGPG@FORM@      00000000000d6608     OpensslLib:asn1_gen.obj
 0002:0003a1d0       ??_C@_06DPGELLJH@FORMAT@   00000000000d6610     OpensslLib:asn1_gen.obj
 0002:0003a1d8       ??_C@_07IOGEOOAA@string?$DN@ 00000000000d6618     OpensslLib:asn1_gen.obj
 0002:0003a1e0       ??_C@_03DNALGGBA@DIR@      00000000000d6620     OpensslLib:asn1_gen.obj
 0002:0003a500       v3_policy_mappings         00000000000d6940     OpensslLib:v3_pmaps.obj
 0002:0003a568       ??_C@_0BD@JILOPHFL@issuerDomainPolicy@ 00000000000d69a8     OpensslLib:v3_pmaps.obj
 0002:0003a580       ??_C@_0BE@FFIKMOKF@subjectDomainPolicy@ 00000000000d69c0     OpensslLib:v3_pmaps.obj
 0002:0003a598       ??_C@_0P@NLHMKCKF@POLICY_MAPPING@ 00000000000d69d8     OpensslLib:v3_pmaps.obj
 0002:0003a5a8       ??_C@_0BA@DHPBCFFC@POLICY_MAPPINGS@ 00000000000d69e8     OpensslLib:v3_pmaps.obj
 0002:0003a600       POLICY_MAPPINGS_it         00000000000d6a40     OpensslLib:v3_pmaps.obj
 0002:0003a630       POLICY_MAPPING_it          00000000000d6a70     OpensslLib:v3_pmaps.obj
 0002:0003a680       v3_ocsp_accresp            00000000000d6ac0     OpensslLib:v3_extku.obj
 0002:0003a6f0       v3_ext_ku                  00000000000d6b30     OpensslLib:v3_extku.obj
 0002:0003a758       ??_C@_0BD@CKAGEBEF@EXTENDED_KEY_USAGE@ 00000000000d6b98     OpensslLib:v3_extku.obj
 0002:0003a790       EXTENDED_KEY_USAGE_it      00000000000d6bd0     OpensslLib:v3_extku.obj
 0002:0003a7c0       v3_key_usage               00000000000d6c00     OpensslLib:v3_bitst.obj
 0002:0003a830       v3_nscert                  00000000000d6c70     OpensslLib:v3_bitst.obj
 0002:0003a898       ??_C@_06DGDLPBAN@client@   00000000000d6cd8     OpensslLib:v3_bitst.obj
 0002:0003a8a0       ??_C@_06HJHJCKIO@server@   00000000000d6ce0     OpensslLib:v3_bitst.obj
 0002:0003a8a8       ??_C@_0P@DDHLFHHK@Object?5Signing@ 00000000000d6ce8     OpensslLib:v3_bitst.obj
 0002:0003a8b8       ??_C@_07GIOKFKGL@objsign@  00000000000d6cf8     OpensslLib:v3_bitst.obj
 0002:0003a8c0       ??_C@_08FINKBBAF@reserved@ 00000000000d6d00     OpensslLib:v3_bitst.obj
 0002:0003a8cc       ??_C@_06FMDLPOFJ@SSL?5CA@  00000000000d6d0c     OpensslLib:v3_bitst.obj
 0002:0003a8d4       ??_C@_05JHLHLOEK@sslCA@    00000000000d6d14     OpensslLib:v3_bitst.obj
 0002:0003a8e0       ??_C@_09GIEMCMEO@S?1MIME?5CA@ 00000000000d6d20     OpensslLib:v3_bitst.obj
 0002:0003a8f0       ??_C@_07FFHDGPMJ@emailCA@  00000000000d6d30     OpensslLib:v3_bitst.obj
 0002:0003a8f8       ??_C@_0BC@FAMHGMHB@Object?5Signing?5CA@ 00000000000d6d38     OpensslLib:v3_bitst.obj
 0002:0003a90c       ??_C@_05JLEIJNEE@objCA@    00000000000d6d4c     OpensslLib:v3_bitst.obj
 0002:0003a918       ??_C@_0BC@DPKEIPIO@Digital?5Signature@ 00000000000d6d58     OpensslLib:v3_bitst.obj
 0002:0003a930       ??_C@_0BB@MFKHIIOM@digitalSignature@ 00000000000d6d70     OpensslLib:v3_bitst.obj
 0002:0003a948       ??_C@_0BA@DJCGBBAI@Non?5Repudiation@ 00000000000d6d88     OpensslLib:v3_bitst.obj
 0002:0003a958       ??_C@_0P@GPCNPOGO@nonRepudiation@ 00000000000d6d98     OpensslLib:v3_bitst.obj
 0002:0003a968       ??_C@_0BB@KNACIBEN@Key?5Encipherment@ 00000000000d6da8     OpensslLib:v3_bitst.obj
 0002:0003a980       ??_C@_0BA@MINCLOJG@keyEncipherment@ 00000000000d6dc0     OpensslLib:v3_bitst.obj
 0002:0003a990       ??_C@_0BC@GNPIAJLP@Data?5Encipherment@ 00000000000d6dd0     OpensslLib:v3_bitst.obj
 0002:0003a9a8       ??_C@_0BB@LBKKKIGO@dataEncipherment@ 00000000000d6de8     OpensslLib:v3_bitst.obj
 0002:0003a9c0       ??_C@_0O@EOJOBCHL@Key?5Agreement@ 00000000000d6e00     OpensslLib:v3_bitst.obj
 0002:0003a9d0       ??_C@_0N@GONHKOEO@keyAgreement@ 00000000000d6e10     OpensslLib:v3_bitst.obj
 0002:0003a9e0       ??_C@_0BB@ELNGMDLH@Certificate?5Sign@ 00000000000d6e20     OpensslLib:v3_bitst.obj
 0002:0003a9f8       ??_C@_0M@ONBOOMGI@keyCertSign@ 00000000000d6e38     OpensslLib:v3_bitst.obj
 0002:0003aa08       ??_C@_08OCJGKMAN@CRL?5Sign@ 00000000000d6e48     OpensslLib:v3_bitst.obj
 0002:0003aa18       ??_C@_07IHBCCDFJ@cRLSign@  00000000000d6e58     OpensslLib:v3_bitst.obj
 0002:0003aa20       ??_C@_0O@CANGKMJD@Encipher?5Only@ 00000000000d6e60     OpensslLib:v3_bitst.obj
 0002:0003aa30       ??_C@_0N@BEFDLIKF@encipherOnly@ 00000000000d6e70     OpensslLib:v3_bitst.obj
 0002:0003aa40       ??_C@_0O@FKBAPCEG@Decipher?5Only@ 00000000000d6e80     OpensslLib:v3_bitst.obj
 0002:0003aa50       ??_C@_0N@LIFHMFCO@decipherOnly@ 00000000000d6e90     OpensslLib:v3_bitst.obj
 0002:0003aa60       v3_ocsp_crlid              00000000000d6ea0     OpensslLib:v3_ocsp.obj
 0002:0003aad0       v3_crl_hold                00000000000d6f10     OpensslLib:v3_ocsp.obj
 0002:0003ab40       v3_ocsp_nocheck            00000000000d6f80     OpensslLib:v3_ocsp.obj
 0002:0003abb0       v3_ocsp_acutoff            00000000000d6ff0     OpensslLib:v3_ocsp.obj
 0002:0003ac20       v3_ocsp_nonce              00000000000d7060     OpensslLib:v3_ocsp.obj
 0002:0003ac90       v3_crl_invdate             00000000000d70d0     OpensslLib:v3_ocsp.obj
 0002:0003ad00       v3_ocsp_serviceloc         00000000000d7140     OpensslLib:v3_ocsp.obj
 0002:0003ad68       ??_C@_0M@KIKBFHBJ@?$CF?$CKscrlUrl?3?5@ 00000000000d71a8     OpensslLib:v3_ocsp.obj
 0002:0003ad78       ??_C@_0M@MLCMBODE@?$CF?$CKscrlNum?3?5@ 00000000000d71b8     OpensslLib:v3_ocsp.obj
 0002:0003ad88       ??_C@_0N@IBJOMEDL@?$CF?$CKscrlTime?3?5@ 00000000000d71c8     OpensslLib:v3_ocsp.obj
 0002:0003ad98       ??_C@_0M@IHOINNJF@?$CF?$CKsIssuer?3?5@ 00000000000d71d8     OpensslLib:v3_ocsp.obj
 0002:0003ada4       ??_C@_04NFEJKGEM@?6?$CF?$CKs@ 00000000000d71e4     OpensslLib:v3_ocsp.obj
 0002:0003adac       ??_C@_03NLJIHOMM@?5?9?5@   00000000000d71ec     OpensslLib:v3_ocsp.obj
 0002:0003adb0       v3_akey_id                 00000000000d71f0     OpensslLib:v3_akey.obj
 0002:0003ae18       ??_C@_06KHDOHNKC@always@   00000000000d7258     OpensslLib:v3_akey.obj
 0002:0003ae20       v3_ns_ia5_list             00000000000d7260     OpensslLib:v3_ia5.obj
 0002:0003b160       v3_delta_crl               00000000000d75a0     OpensslLib:v3_int.obj
 0002:0003b1d0       v3_inhibit_anyp            00000000000d7610     OpensslLib:v3_int.obj
 0002:0003b240       v3_crl_num                 00000000000d7680     OpensslLib:v3_int.obj
 0002:0003b2b0       v3_ext_admission           00000000000d76f0     OpensslLib:v3_admis.obj
 0002:0003b318       ??_C@_0BC@KHBCHCNJ@namingAuthorityId@ 00000000000d7758     OpensslLib:v3_admis.obj
 0002:0003b330       ??_C@_0BD@DEIEGLEM@namingAuthorityUrl@ 00000000000d7770     OpensslLib:v3_admis.obj
 0002:0003b348       ??_C@_0BE@NPIMHIBI@namingAuthorityText@ 00000000000d7788     OpensslLib:v3_admis.obj
 0002:0003b360       ??_C@_0BB@COJAOCFM@NAMING_AUTHORITY@ 00000000000d77a0     OpensslLib:v3_admis.obj
 0002:0003b378       ??_C@_0BA@DBBLIBJC@namingAuthority@ 00000000000d77b8     OpensslLib:v3_admis.obj
 0002:0003b388       ??_C@_0BA@JCIKJJCP@professionItems@ 00000000000d77c8     OpensslLib:v3_admis.obj
 0002:0003b398       ??_C@_0P@PBNEFCJO@professionOIDs@ 00000000000d77d8     OpensslLib:v3_admis.obj
 0002:0003b3a8       ??_C@_0BD@NJLNALHF@registrationNumber@ 00000000000d77e8     OpensslLib:v3_admis.obj
 0002:0003b3c0       ??_C@_0BC@EDMGMCCO@addProfessionInfo@ 00000000000d7800     OpensslLib:v3_admis.obj
 0002:0003b3d8       ??_C@_0BA@KKEGAEAH@PROFESSION_INFO@ 00000000000d7818     OpensslLib:v3_admis.obj
 0002:0003b3e8       ??_C@_0BD@GKCCDPCL@admissionAuthority@ 00000000000d7828     OpensslLib:v3_admis.obj
 0002:0003b400       ??_C@_0BA@KJOLGNIM@professionInfos@ 00000000000d7840     OpensslLib:v3_admis.obj
 0002:0003b410       ??_C@_0L@OIMBEHAN@ADMISSIONS@ 00000000000d7850     OpensslLib:v3_admis.obj
 0002:0003b420       ??_C@_0BF@FNBKMPAG@contentsOfAdmissions@ 00000000000d7860     OpensslLib:v3_admis.obj
 0002:0003b438       ??_C@_0BB@PBMIGONA@ADMISSION_SYNTAX@ 00000000000d7878     OpensslLib:v3_admis.obj
 0002:0003b450       ??_C@_0BF@MPDFFBEA@?$CF?$CKsnamingAuthority?3?5@ 00000000000d7890     OpensslLib:v3_admis.obj
 0002:0003b468       ??_C@_0BM@DCICMEAO@?$CF?$CKs?5?5admissionAuthorityId?3?5@ 00000000000d78a8     OpensslLib:v3_admis.obj
 0002:0003b484       ??_C@_01PKGAHCOL@?$CJ@     00000000000d78c4     OpensslLib:v3_admis.obj
 0002:0003b488       ??_C@_02GFKOMOKH@?5?$CI@   00000000000d78c8     OpensslLib:v3_admis.obj
 0002:0003b490       ??_C@_09MCJOGJJM@?$CFs?$CFs?$CFs?$CFs?6@ 00000000000d78d0     OpensslLib:v3_admis.obj
 0002:0003b4a0       ??_C@_0BL@DELGFPFK@?$CF?$CKs?5?5namingAuthorityText?3?5@ 00000000000d78e0     OpensslLib:v3_admis.obj
 0002:0003b4c0       ??_C@_0BK@OPCGIEEP@?$CF?$CKs?5?5namingAuthorityUrl?3?5@ 00000000000d7900     OpensslLib:v3_admis.obj
 0002:0003b4e0       ??_C@_0BI@NKKBPCEB@?$CF?$CKsadmissionAuthority?3?6@ 00000000000d7920     OpensslLib:v3_admis.obj
 0002:0003b4f8       ??_C@_05EGGOJAEM@?$CF?$CKs?5?5@ 00000000000d7938     OpensslLib:v3_admis.obj
 0002:0003b500       ??_C@_0P@ONCDAKNH@?$CF?$CKsEntry?5?$CF0d?3?6@ 00000000000d7940     OpensslLib:v3_admis.obj
 0002:0003b510       ??_C@_0BK@MGPHHOEM@?$CF?$CKs?5?5admissionAuthority?3?6@ 00000000000d7950     OpensslLib:v3_admis.obj
 0002:0003b530       ??_C@_07BAKLHGB@?$CF?$CKs?5?5?5?5@ 00000000000d7970     OpensslLib:v3_admis.obj
 0002:0003b538       ??_C@_0CB@JOPMCDOG@?$CF?$CKs?5?5Profession?5Info?5Entry?5?$CF0d?3@ 00000000000d7978     OpensslLib:v3_admis.obj
 0002:0003b560       ??_C@_0BM@PNLACIIE@?$CF?$CKs?5?5?5?5registrationNumber?3?5@ 00000000000d79a0     OpensslLib:v3_admis.obj
 0002:0003b580       ??_C@_0BG@COHLBKD@?$CF?$CKs?5?5?5?5Info?5Entries?3?6@ 00000000000d79c0     OpensslLib:v3_admis.obj
 0002:0003b598       ??_C@_09IECKBPIB@?$CF?$CKs?5?5?5?5?5?5@ 00000000000d79d8     OpensslLib:v3_admis.obj
 0002:0003b5a8       ??_C@_0BJ@KFOBDAG@?$CF?$CKs?5?5?5?5Profession?5OIDs?3?6@ 00000000000d79e8     OpensslLib:v3_admis.obj
 0002:0003b5c8       ??_C@_0BD@OELCPJIC@?$CF?$CKs?5?5?5?5?5?5?$CFs?$CFs?$CFs?$CFs?6@ 00000000000d7a08     OpensslLib:v3_admis.obj
 0002:0003b5e0       PROFESSION_INFO_it         00000000000d7a20     OpensslLib:v3_admis.obj
 0002:0003b670       ADMISSION_SYNTAX_it        00000000000d7ab0     OpensslLib:v3_admis.obj
 0002:0003b6a0       ADMISSIONS_it              00000000000d7ae0     OpensslLib:v3_admis.obj
 0002:0003b810       NAMING_AUTHORITY_it        00000000000d7c50     OpensslLib:v3_admis.obj
 0002:0003b840       v3_skey_id                 00000000000d7c80     OpensslLib:v3_skey.obj
 0002:0003b8a8       ??_C@_04OIJGJDKO@hash@     00000000000d7ce8     OpensslLib:v3_skey.obj
 0002:0003b8b0       v3_crl_reason              00000000000d7cf0     OpensslLib:v3_enum.obj
 0002:0003b918       ??_C@_0M@NNPCGPMF@Unspecified@ 00000000000d7d58     OpensslLib:v3_enum.obj
 0002:0003b928       ??_C@_0M@MFMDLEDN@unspecified@ 00000000000d7d68     OpensslLib:v3_enum.obj
 0002:0003b938       ??_C@_0BA@GLPEKBIK@Remove?5From?5CRL@ 00000000000d7d78     OpensslLib:v3_enum.obj
 0002:0003b948       ??_C@_0O@BILLKPKO@removeFromCRL@ 00000000000d7d88     OpensslLib:v3_enum.obj
 0002:0003b960       v3_pkey_usage_period       00000000000d7da0     OpensslLib:v3_pku.obj
 0002:0003b9c8       ??_C@_0BC@CCOKACDM@PKEY_USAGE_PERIOD@ 00000000000d7e08     OpensslLib:v3_pku.obj
 0002:0003b9e0       ??_C@_0N@KGLJEEMK@Not?5Before?3?5@ 00000000000d7e20     OpensslLib:v3_pku.obj
 0002:0003b9f0       ??_C@_0M@FCHJLIHE@Not?5After?3?5@ 00000000000d7e30     OpensslLib:v3_pku.obj
 0002:0003ba40       PKEY_USAGE_PERIOD_it       00000000000d7e80     OpensslLib:v3_pku.obj
 0002:0003ba70       v3_sxnet                   00000000000d7eb0     OpensslLib:v3_sxnet.obj
 0002:0003bad8       ??_C@_04LDDJGOBB@zone@     00000000000d7f18     OpensslLib:v3_sxnet.obj
 0002:0003bae0       ??_C@_04CCHAHKJA@user@     00000000000d7f20     OpensslLib:v3_sxnet.obj
 0002:0003bae8       ??_C@_07FLDOGLPN@SXNETID@  00000000000d7f28     OpensslLib:v3_sxnet.obj
 0002:0003baf0       ??_C@_03NDFJNBKD@ids@      00000000000d7f30     OpensslLib:v3_sxnet.obj
 0002:0003baf4       ??_C@_05BPAJFIHK@SXNET@    00000000000d7f34     OpensslLib:v3_sxnet.obj
 0002:0003bb00       ??_C@_0BF@NMLBNADB@?6?$CF?$CKsZone?3?5?$CFs?0?5User?3?5@ 00000000000d7f40     OpensslLib:v3_sxnet.obj
 0002:0003bb60       SXNETID_it                 00000000000d7fa0     OpensslLib:v3_sxnet.obj
 0002:0003bbd0       SXNET_it                   00000000000d8010     OpensslLib:v3_sxnet.obj
 0002:0003bc00       v3_pci                     00000000000d8040     OpensslLib:v3_pci.obj
 0002:0003bc68       ??_C@_0BE@HDJEDONA@?$CF?$CKsPolicy?5Text?3?5?$CFs?6@ 00000000000d80a8     OpensslLib:v3_pci.obj
 0002:0003bc80       ??_C@_08JGCCIMAA@language@ 00000000000d80c0     OpensslLib:v3_pci.obj
 0002:0003bc8c       ??_C@_04ODCMNEMO@hex?3@    00000000000d80cc     OpensslLib:v3_pci.obj
 0002:0003bc94       ??_C@_05BOPHDICO@file?3@   00000000000d80d4     OpensslLib:v3_pci.obj
 0002:0003bc9c       ??_C@_05FHIGHPDA@text?3@   00000000000d80dc     OpensslLib:v3_pci.obj
 0002:0003bcb0       v3_tls_feature             00000000000d80f0     OpensslLib:v3_tlsf.obj
 0002:0003bd18       ??_C@_0M@HGHOPPFP@TLS_FEATURE@ 00000000000d8158     OpensslLib:v3_tlsf.obj
 0002:0003bd28       ??_C@_0P@NAKMKOPA@status_request@ 00000000000d8168     OpensslLib:v3_tlsf.obj
 0002:0003bd38       ??_C@_0BC@HEECFCMD@status_request_v2@ 00000000000d8178     OpensslLib:v3_tlsf.obj
 0002:0003cda8       ??_C@_03JFFFKLGJ@C1x@      00000000000d91e8     OpensslLib:sm2_crypt.obj
 0002:0003cdac       ??_C@_03IMEOJKCI@C1y@      00000000000d91ec     OpensslLib:sm2_crypt.obj
 0002:0003cdb0       ??_C@_02IGAJHAEE@C3@       00000000000d91f0     OpensslLib:sm2_crypt.obj
 0002:0003cdb4       ??_C@_02JPBCEBAF@C2@       00000000000d91f4     OpensslLib:sm2_crypt.obj
 0002:0003cdb8       ??_C@_0P@HHMLELMD@SM2_Ciphertext@ 00000000000d91f8     OpensslLib:sm2_crypt.obj
 0002:0003ce50       SM2_Ciphertext_it          00000000000d9290     OpensslLib:sm2_crypt.obj
 0002:0003d6e0       PBEPARAM_it                00000000000d9b20     OpensslLib:p5_pbe.obj
 0002:0003d710       ??_C@_04BKLHDIKK@iter@     00000000000d9b50     OpensslLib:p5_pbe.obj
 0002:0003d718       ??_C@_08CKLJFNPB@PBEPARAM@ 00000000000d9b58     OpensslLib:p5_pbe.obj
 0002:0003d770       PBKDF2PARAM_it             00000000000d9bb0     OpensslLib:p5_pbev2.obj
 0002:0003d7a0       PBE2PARAM_it               00000000000d9be0     OpensslLib:p5_pbev2.obj
 0002:0003d7d0       ??_C@_07KEPFKPDN@keyfunc@  00000000000d9c10     OpensslLib:p5_pbev2.obj
 0002:0003d7d8       ??_C@_0L@HBBFMHKN@encryption@ 00000000000d9c18     OpensslLib:p5_pbev2.obj
 0002:0003d7e8       ??_C@_09DHBCCKCK@PBE2PARAM@ 00000000000d9c28     OpensslLib:p5_pbev2.obj
 0002:0003d7f8       ??_C@_09PKJJLJJD@keylength@ 00000000000d9c38     OpensslLib:p5_pbev2.obj
 0002:0003d804       ??_C@_03NBFGPAGA@prf@      00000000000d9c44     OpensslLib:p5_pbev2.obj
 0002:0003d808       ??_C@_0M@DPMJHKGH@PBKDF2PARAM@ 00000000000d9c48     OpensslLib:p5_pbev2.obj
 0002:0003de60       ??_C@_09OJPHJNPC@fips_mode@ 00000000000da2a0     OpensslLib:evp_cnf.obj
 0002:0003de70       ??_C@_0M@HEHLDANB@alg_section@ 00000000000da2b0     OpensslLib:evp_cnf.obj
 0002:0003de80       ??_C@_0N@DJMJOKGL@stbl_section@ 00000000000da2c0     OpensslLib:asn_mstbl.obj
 0002:0003de90       ??_C@_03KLIPLJLL@min@      00000000000da2d0     OpensslLib:asn_mstbl.obj
 0002:0003de94       ??_C@_04LFLEPBN@mask@      00000000000da2d4     OpensslLib:asn_mstbl.obj
 0002:0003de9c       ??_C@_06HCDOONEJ@nomask@   00000000000da2dc     OpensslLib:asn_mstbl.obj
 0002:0003dea4       ??_C@_06KABKJMAI@field?$DN@ 00000000000da2e4     OpensslLib:asn_mstbl.obj
 0002:0003deb0       ??_C@_0M@HCKPEIO@oid_section@ 00000000000da2f0     OpensslLib:asn_moid.obj
 0002:0003df80       curve448_scalar_zero       00000000000da3c0     OpensslLib:scalar.obj
 0002:0003e000       curve448_scalar_one        00000000000da440     OpensslLib:scalar.obj
 0002:00043500       ??_C@_0BB@KDJGCOOH@?$CFlu?3?$CFs?3?$CFs?3?$CFd?3?$CFs?6@ 00000000000df940     OpensslLib:err_prn.obj
 0002:00043518       ??_C@_0BA@KGLEEAIB@OpenSSL?5NULL?5UI@ 00000000000df958     OpensslLib:ui_null.obj
 0002:000435a0       _bignum_dh2048_224_q       00000000000df9e0     OpensslLib:bn_dh.obj
 0002:000435b8       _bignum_dh2048_256_g       00000000000df9f8     OpensslLib:bn_dh.obj
 0002:000435d0       _bignum_dh1024_160_g       00000000000dfa10     OpensslLib:bn_dh.obj
 0002:000435e8       _bignum_dh2048_224_p       00000000000dfa28     OpensslLib:bn_dh.obj
 0002:00043600       _bignum_dh2048_256_p       00000000000dfa40     OpensslLib:bn_dh.obj
 0002:00043618       _bignum_dh2048_224_g       00000000000dfa58     OpensslLib:bn_dh.obj
 0002:00043630       _bignum_dh1024_160_p       00000000000dfa70     OpensslLib:bn_dh.obj
 0002:00043648       _bignum_dh2048_256_q       00000000000dfa88     OpensslLib:bn_dh.obj
 0002:00043660       _bignum_dh1024_160_q       00000000000dfaa0     OpensslLib:bn_dh.obj
 0002:00043678       _bignum_ffdhe4096_p        00000000000dfab8     OpensslLib:bn_dh.obj
 0002:00043690       _bignum_ffdhe8192_p        00000000000dfad0     OpensslLib:bn_dh.obj
 0002:000436a8       _bignum_ffdhe2048_p        00000000000dfae8     OpensslLib:bn_dh.obj
 0002:000436c0       _bignum_const_2            00000000000dfb00     OpensslLib:bn_dh.obj
 0002:000436d8       _bignum_ffdhe6144_p        00000000000dfb18     OpensslLib:bn_dh.obj
 0002:000436f0       _bignum_ffdhe3072_p        00000000000dfb30     OpensslLib:bn_dh.obj
 0002:000447f0       ??_C@_0CH@LGCIOEGA@UEFI?5Crypto?5Library?5default?5see@ 00000000000e0c30     BaseCryptLib:CryptRandTsc.obj
 0002:00044860       CumulativeDays             00000000000e0ca0     BaseCryptLib:TimerWrapper.obj
 0002:00044940       ??_C@_0EP@JFHHNCHN@OldPoolHdr?9?$DOSignature?5?$DN?$DN?5?$CI?$CI?$CI?8c?8@ 00000000000e0d80     BaseCryptLib:BaseMemAllocation.obj
 0002:00044990       ??_C@_0EI@CMIHJPOM@d?3?2edk2?2edk2?2CryptoPkg?2Library?2@ 00000000000e0dd0     BaseCryptLib:BaseMemAllocation.obj
 0002:000449e0       ??_C@_0EM@DCOKKDEG@PoolHdr?9?$DOSignature?5?$DN?$DN?5?$CI?$CI?$CI?8c?8?$CJ?5?$HM@ 00000000000e0e20     BaseCryptLib:BaseMemAllocation.obj
 0002:00044a30       ??_C@_0BN@FHPHCJAL@BufferToSort?5?$CB?$DN?5?$CI?$CIvoid?5?$CK?$CJ?50?$CJ@ 00000000000e0e70     BaseCryptLib:CrtWrapper.obj
 0002:00044a50       ??_C@_0EB@CPKLNMEF@d?3?2edk2?2edk2?2CryptoPkg?2Library?2@ 00000000000e0e90     BaseCryptLib:CrtWrapper.obj
 0002:00044a98       ??_C@_0CA@DJEMEKLN@CompareFunction?5?$CB?$DN?5?$CI?$CIvoid?5?$CK?$CJ?50?$CJ@ 00000000000e0ed8     BaseCryptLib:CrtWrapper.obj
 0002:00044ab8       ??_C@_0BD@IPPNMEE@s1?5?$CB?$DN?5?$CI?$CIvoid?5?$CK?$CJ?50?$CJ@ 00000000000e0ef8     BaseCryptLib:CrtWrapper.obj
 0002:00044ad0       ??_C@_0BD@OCHJABCG@s2?5?$CB?$DN?5?$CI?$CIvoid?5?$CK?$CJ?50?$CJ@ 00000000000e0f10     BaseCryptLib:CrtWrapper.obj
 0002:00044ae8       ??_C@_0BF@MBPLIJNB@base?5?$CB?$DN?5?$CI?$CIvoid?5?$CK?$CJ?50?$CJ@ 00000000000e0f28     BaseCryptLib:CrtWrapper.obj
 0002:00044b00       ??_C@_0BI@BKNMBGLA@compare?5?$CB?$DN?5?$CI?$CIvoid?5?$CK?$CJ?50?$CJ@ 00000000000e0f40     BaseCryptLib:CrtWrapper.obj
 0002:00044b18       ??_C@_0DJ@FHIMIJAH@d?3?2edk2?2edk2?2MdePkg?2Library?2Bas@ 00000000000e0f58     BaseLib:DivU64x32Remainder.obj
 0002:00044b58       ??_C@_0CC@JOEHDGKB@DestinationBuffer?5?$CB?$DN?5?$CI?$CIvoid?5?$CK?$CJ?5@ 00000000000e0f98     BaseMemoryLibRepStr:CompareMemWrapper.obj
 0002:00044b80       ??_C@_0EE@JHMFOHJP@d?3?2edk2?2edk2?2MdePkg?2Library?2Bas@ 00000000000e0fc0     BaseMemoryLibRepStr:CompareMemWrapper.obj
 0002:00044bc8       ??_C@_0BN@MDMCNBCC@SourceBuffer?5?$CB?$DN?5?$CI?$CIvoid?5?$CK?$CJ?50?$CJ@ 00000000000e1008     BaseMemoryLibRepStr:CompareMemWrapper.obj
 0002:00044bf0       ??_C@_0EC@GJLMDALB@d?3?2edk2?2edk2?2MdePkg?2Library?2Bas@ 00000000000e1030     BaseMemoryLibRepStr:ScanMem8Wrapper.obj
 0002:00044c38       ??_C@_0DH@FEKOHHMP@d?3?2edk2?2edk2?2MdePkg?2Library?2Bas@ 00000000000e1078     BaseIoLibIntrinsicSev:IoLib.obj
 0002:00044c70       ??_C@_0BD@OMMAJMCK@?$CIAddress?5?$CG?53?$CJ?5?$DN?$DN?50@ 00000000000e10b0     BaseIoLibIntrinsicSev:IoLib.obj
 0002:00044c88       ??_C@_0DN@NJMGBLNP@d?3?2edk2?2edk2?2MdePkg?2Library?2Bas@ 00000000000e10c8     BaseRngLibTimerLib:RngLibTimer.obj
 0002:00044cc8       ??_C@_0BF@NGOMKDDB@Rand?5?$CB?$DN?5?$CI?$CIvoid?5?$CK?$CJ?50?$CJ@ 00000000000e1108     BaseRngLibTimerLib:RngLibTimer.obj
 0002:00044ce0       __real@4020000000000000    00000000000e1120     OpensslLib:drbg_lib.obj
 0002:00044ce8       __real@43e0000000000000    00000000000e1128     OpensslLib:drbg_lib.obj
 0002:00044cf0       __xmm@00000003000000020000000100000000 00000000000e1130     OpensslLib:f_generic.obj
 0002:00044d00       __xmm@00000008000000080000000800000008 00000000000e1140     OpensslLib:f_generic.obj
 0002:00044d10       __xmm@36363636363636363636363636363636 00000000000e1150     OpensslLib:hmac.obj
 0002:00044d20       __xmm@5c5c5c5c5c5c5c5c5c5c5c5c5c5c5c5c 00000000000e1160     OpensslLib:hmac.obj
 0002:00044dd4       __volatile_metadata        00000000000e1214     <linker-defined>
 0003:00000000       _fltused                   00000000000e1b40     BaseIntrinsicLib:MemoryIntrinsics.obj
 0003:00000008       gEfiLoadedImageProtocolGuid 00000000000e1b48     TlsDxe:AutoGen.obj
 0003:00000018       gEfiTlsProtocolGuid        00000000000e1b58     TlsDxe:AutoGen.obj
 0003:00000028       gEfiTlsServiceBindingProtocolGuid 00000000000e1b68     TlsDxe:AutoGen.obj
 0003:00000038       gPcdProtocolGuid           00000000000e1b78     TlsDxe:AutoGen.obj
 0003:00000048       gEfiDevicePathUtilitiesProtocolGuid 00000000000e1b88     TlsDxe:AutoGen.obj
 0003:00000058       gEfiTlsConfigurationProtocolGuid 00000000000e1b98     TlsDxe:AutoGen.obj
 0003:00000068       mTlsServiceBinding         00000000000e1ba8     TlsDxe:TlsDriver.obj
 0003:00000078       mTlsProtocol               00000000000e1bb8     TlsDxe:TlsProtocol.obj
 0003:00000098       mTlsConfigurationProtocol  00000000000e1bd8     TlsDxe:TlsConfigProtocol.obj
 0003:00002ee0       rand_meth                  00000000000e4a20     OpensslLib:drbg_lib.obj
 0003:00003550       gST                        00000000000e5090     UefiBootServicesTableLib:UefiBootServicesTableLib.obj
 0003:00003558       gBS                        00000000000e5098     UefiBootServicesTableLib:UefiBootServicesTableLib.obj
 0003:00003560       gImageHandle               00000000000e50a0     UefiBootServicesTableLib:UefiBootServicesTableLib.obj
 0003:00003568       gRT                        00000000000e50a8     UefiRuntimeServicesTableLib:UefiRuntimeServicesTableLib.obj
 0003:00003570       mDevicePathLibDevicePathUtilities 00000000000e50b0     UefiDevicePathLibDevicePathProtocol:UefiDevicePathLib.obj
 0003:00003578       mPcd                       00000000000e50b8     DxePcdLib:DxePcdLib.obj
 0003:00003580       gParity                    00000000000e50c0     PcAtSerialPortLib:SerialPortLib.obj
 0003:00003581       gBreakSet                  00000000000e50c1     PcAtSerialPortLib:SerialPortLib.obj
 0003:00003748       errno                      00000000000e5288     BaseCryptLib:CrtWrapper.obj

 entry point at        0001:000002b4

 Static symbols

 0001:0000001a       InternalMemCopyMem.0       00000000000002da     BaseMemoryLibRepStr:CopyMem.obj
 0001:0000002a       @CopyBackward              00000000000002ea     BaseMemoryLibRepStr:CopyMem.obj
 0001:00000033       @CopyBytes                 00000000000002f3     BaseMemoryLibRepStr:CopyMem.obj
 0001:00005494       tlsa_free                  0000000000005754 f   OpensslLib:ssl_lib.obj
 0001:000054c4       dane_final                 0000000000005784 f   OpensslLib:ssl_lib.obj
 0001:0000551c       ssl_check_allowed_versions 00000000000057dc f   OpensslLib:ssl_lib.obj
 0001:00005604       clear_ciphers              00000000000058c4 f   OpensslLib:ssl_lib.obj
 0001:000065c0       ssl_start_async_job        0000000000006880 f   OpensslLib:ssl_lib.obj
 0001:00006688       ssl_io_intern              0000000000006948 f   OpensslLib:ssl_lib.obj
 0001:00007088       ssl_session_hash           0000000000007348 f   OpensslLib:ssl_lib.obj
 0001:000070fc       ssl_session_cmp            00000000000073bc f   OpensslLib:ssl_lib.obj
 0001:00007c8c       ssl_do_handshake_intern    0000000000007f4c f   OpensslLib:ssl_lib.obj
 0001:00007ef0       ssl_cipher_id_cmp_BSEARCH_CMP_FN 00000000000081b0 f   OpensslLib:ssl_lib.obj
 0001:00007f04       nss_keylog_int             00000000000081c4 f   OpensslLib:ssl_lib.obj
 0001:00008520       ossl_init_ssl_base_ossl_   00000000000087e0 f   OpensslLib:ssl_init.obj
 0001:000086b0       ssl_library_stop           0000000000008970 f   OpensslLib:ssl_init.obj
 0001:00008a08       mem_init                   0000000000008cc8 f   OpensslLib:bss_mem.obj
 0001:00008a9c       mem_new                    0000000000008d5c f   OpensslLib:bss_mem.obj
 0001:00008aa4       secmem_new                 0000000000008d64 f   OpensslLib:bss_mem.obj
 0001:00008ab0       mem_free                   0000000000008d70 f   OpensslLib:bss_mem.obj
 0001:00008ae8       mem_buf_free               0000000000008da8 f   OpensslLib:bss_mem.obj
 0001:00008b90       mem_buf_sync               0000000000008e50 f   OpensslLib:bss_mem.obj
 0001:00008bec       mem_read                   0000000000008eac f   OpensslLib:bss_mem.obj
 0001:00008c7c       mem_write                  0000000000008f3c f   OpensslLib:bss_mem.obj
 0001:00008d44       mem_ctrl                   0000000000009004 f   OpensslLib:bss_mem.obj
 0001:00008eb8       mem_gets                   0000000000009178 f   OpensslLib:bss_mem.obj
 0001:00008f34       mem_puts                   00000000000091f4 f   OpensslLib:bss_mem.obj
 0001:00008fd8       x509_object_cmp            0000000000009298 f   OpensslLib:x509_lu.obj
 0001:000094d4       x509_store_add             0000000000009794 f   OpensslLib:x509_lu.obj
 0001:00009608       x509_object_idx_cnt        00000000000098c8 f   OpensslLib:x509_lu.obj
 0001:00009e38       bio_call_callback          000000000000a0f8 f   OpensslLib:bio_lib.obj
 0001:0000a0bc       bio_read_intern            000000000000a37c f   OpensslLib:bio_lib.obj
 0001:0000a1e8       bio_write_intern           000000000000a4a8 f   OpensslLib:bio_lib.obj
 0001:0000aab8       sk_table_cmp               000000000000ad78 f   OpensslLib:a_strnid.obj
 0001:0000aab8       ameth_cmp_BSEARCH_CMP_FN   000000000000ad78 f   OpensslLib:ameth_lib.obj
 0001:0000aab8       pmeth_cmp_BSEARCH_CMP_FN   000000000000ad78 f   OpensslLib:pmeth_lib.obj
 0001:0000aab8       ext_cmp_BSEARCH_CMP_FN     000000000000ad78 f   OpensslLib:v3_lib.obj
 0001:0000aab8       sk_comp_cmp                000000000000ad78 f   OpensslLib:ssl_ciph.obj
 0001:0000aac8       do_load_builtin_compressions_ossl_ 000000000000ad88 f   OpensslLib:ssl_ciph.obj
 0001:0000ae48       ssl_cipher_collect_ciphers 000000000000b108 f   OpensslLib:ssl_ciph.obj
 0001:0000afc0       ssl_cipher_apply_rule      000000000000b280 f   OpensslLib:ssl_ciph.obj
 0001:0000b310       ssl_cipher_strength_sort   000000000000b5d0 f   OpensslLib:ssl_ciph.obj
 0001:0000b410       ssl_cipher_process_rulestr 000000000000b6d0 f   OpensslLib:ssl_ciph.obj
 0001:0000b858       check_suiteb_cipher_list   000000000000bb18 f   OpensslLib:ssl_ciph.obj
 0001:0000b990       ciphersuite_cb             000000000000bc50 f   OpensslLib:ssl_ciph.obj
 0001:0000ba18       set_ciphersuites           000000000000bcd8 f   OpensslLib:ssl_ciph.obj
 0001:0000baac       update_cipher_list_by_id   000000000000bd6c f   OpensslLib:ssl_ciph.obj
 0001:0000bb1c       update_cipher_list         000000000000bddc f   OpensslLib:ssl_ciph.obj
 0001:0000c3c0       by_dir_hash_free           000000000000c680 f   OpensslLib:by_dir.obj
 0001:0000c3c0       str_free                   000000000000c680 f   OpensslLib:x509_vpm.obj
 0001:0000c3c0       cmeth_free                 000000000000c680 f   OpensslLib:ssl_ciph.obj
 0001:0000c9f0       def_generate_session_id    000000000000ccb0 f   OpensslLib:ssl_sess.obj
 0001:0000d28c       remove_session_lock        000000000000d54c f   OpensslLib:ssl_sess.obj
 0001:0000d424       timeout_cb                 000000000000d6e4 f   OpensslLib:ssl_sess.obj
 0001:0000d534       SSL_SESSION_list_remove    000000000000d7f4 f   OpensslLib:ssl_sess.obj
 0001:0000d5c0       PACKET_get_net_4           000000000000d880 f   OpensslLib:ssl_rsa.obj
 0001:0000d5c0       PACKET_get_net_4           000000000000d880 f   OpensslLib:extensions_srvr.obj
 0001:0000d5c0       PACKET_get_net_4           000000000000d880 f   OpensslLib:statem_clnt.obj
 0001:0000d610       PACKET_get_length_prefixed_2 000000000000d8d0 f   OpensslLib:ssl_rsa.obj
 0001:0000d6ec       ssl_set_pkey               000000000000d9ac f   OpensslLib:ssl_rsa.obj
 0001:0000d8fc       ssl_set_cert               000000000000dbbc f   OpensslLib:ssl_rsa.obj
 0001:0000dae8       use_certificate_chain_file 000000000000dda8 f   OpensslLib:ssl_rsa.obj
 0001:0000dd14       serverinfo_find_extension  000000000000dfd4 f   OpensslLib:ssl_rsa.obj
 0001:0000ddfc       serverinfoex_srv_parse_cb  000000000000e0bc f   OpensslLib:ssl_rsa.obj
 0001:0000de18       serverinfo_srv_parse_cb    000000000000e0d8 f   OpensslLib:ssl_rsa.obj
 0001:0000de34       serverinfoex_srv_add_cb    000000000000e0f4 f   OpensslLib:ssl_rsa.obj
 0001:0000dea4       serverinfo_srv_add_cb      000000000000e164 f   OpensslLib:ssl_rsa.obj
 0001:0000dee4       serverinfo_process_buffer  000000000000e1a4 f   OpensslLib:ssl_rsa.obj
 0001:0000e6c8       x509_cb                    000000000000e988 f   OpensslLib:x_x509.obj
 0001:0000ea98       sk_OPENSSL_STRING_deep_copy 000000000000ed58 f   OpensslLib:x509_vpm.obj
 0001:0000ebe4       str_copy                   000000000000eea4 f   OpensslLib:x509_vpm.obj
 0001:0000ebec       int_x509_param_set_hosts   000000000000eeac f   OpensslLib:x509_vpm.obj
 0001:0000f00c       int_x509_param_set1        000000000000f2cc f   OpensslLib:x509_vpm.obj
 0001:0000f1e8       table_cmp_BSEARCH_CMP_FN   000000000000f4a8 f   OpensslLib:x509_vpm.obj
 0001:0000f274       err_string_data_hash       000000000000f534 f   OpensslLib:err.obj
 0001:0000f2b0       err_string_data_cmp        000000000000f570 f   OpensslLib:err.obj
 0001:0000f2c4       ERR_STATE_free             000000000000f584 f   OpensslLib:err.obj
 0001:0000f334       do_err_strings_init_ossl_  000000000000f5f4 f   OpensslLib:err.obj
 0001:0000f570       get_error_values           000000000000f830 f   OpensslLib:err.obj
 0001:0000f9b4       err_do_init_ossl_          000000000000fc74 f   OpensslLib:err.obj
 0001:0000fae4       err_set_error_data_int     000000000000fda4 f   OpensslLib:err.obj
 0001:0000fea8       state_machine              0000000000010168 f   OpensslLib:statem.obj
 0001:00010224       read_state_machine         00000000000104e4 f   OpensslLib:statem.obj
 0001:00010550       write_state_machine        0000000000010810 f   OpensslLib:statem.obj
 0001:00010b70       evp_EncryptDecryptUpdate   0000000000010e30 f   OpensslLib:evp_enc.obj
 0001:0001186c       sk_reserve                 0000000000011b2c f   OpensslLib:stack.obj
 0001:00011a4c       internal_delete            0000000000011d0c f   OpensslLib:stack.obj
 0001:00011aa0       internal_find              0000000000011d60 f   OpensslLib:stack.obj
 0001:00011c00       ssl_x509_store_ctx_init_ossl_ 0000000000011ec0 f   OpensslLib:ssl_cert.obj
 0001:000128c4       xname_cmp                  0000000000012b84 f   OpensslLib:ssl_cert.obj
 0001:00012a5c       xname_sk_cmp               0000000000012d1c f   OpensslLib:ssl_cert.obj
 0001:00012f98       ssl_security_default_callback 0000000000013258 f   OpensslLib:ssl_cert.obj
 0001:000151ec       doall_util_fn              00000000000154ac f   OpensslLib:lhash.obj
 0001:0001526c       expand                     000000000001552c f   OpensslLib:lhash.obj
 0001:00015358       getrn                      0000000000015618 f   OpensslLib:lhash.obj
 0001:000158a4       nid_cb                     0000000000015b64 f   OpensslLib:t1_lib.obj
 0001:00015ab0       tls1_get_group_id          0000000000015d70 f   OpensslLib:t1_lib.obj
 0001:00015afc       tls1_check_pkey_comp       0000000000015dbc f   OpensslLib:t1_lib.obj
 0001:00015c98       tls1_check_cert_param      0000000000015f58 f   OpensslLib:t1_lib.obj
 0001:00015dc0       rsa_pss_check_min_key_size 0000000000016080 f   OpensslLib:t1_lib.obj
 0001:00015e20       tls1_get_legacy_sigalg     00000000000160e0 f   OpensslLib:t1_lib.obj
 0001:0001606c       sigalg_security_bits       000000000001632c f   OpensslLib:t1_lib.obj
 0001:00016b5c       tls12_sigalg_allowed       0000000000016e1c f   OpensslLib:t1_lib.obj
 0001:00016f18       tls12_shared_sigalgs       00000000000171d8 f   OpensslLib:t1_lib.obj
 0001:00017334       get_sigorhash              00000000000175f4 f   OpensslLib:t1_lib.obj
 0001:000173f4       sig_cb                     00000000000176b4 f   OpensslLib:t1_lib.obj
 0001:000177ac       tls1_check_sig_alg         0000000000017a6c f   OpensslLib:t1_lib.obj
 0001:000178b0       ssl_check_ca_name          0000000000017b70 f   OpensslLib:t1_lib.obj
 0001:00017f64       ssl_security_cert_key      0000000000018224 f   OpensslLib:t1_lib.obj
 0001:000181f0       check_cert_usable          00000000000184b0 f   OpensslLib:t1_lib.obj
 0001:000182f4       find_sig_alg               00000000000185b4 f   OpensslLib:t1_lib.obj
 0001:000188a8       async_release_job          0000000000018b68 f   OpensslLib:async.obj
 0001:00018bac       async_empty_pool           0000000000018e6c f   OpensslLib:async.obj
 0001:00018d20       pubkey_cb                  0000000000018fe0 f   OpensslLib:x_pubkey.obj
 0001:00018d84       x509_pubkey_decode         0000000000019044 f   OpensslLib:x_pubkey.obj
 0001:00019214       check_suite_b              00000000000194d4 f   OpensslLib:x509_cmp.obj
 0001:00019550       sec_alloc_realloc          0000000000019810 f   OpensslLib:buffer.obj
 0001:00019c08       ssl_do_config              0000000000019ec8 f   OpensslLib:ssl_mcnf.obj
 0001:0001a0bc       do_rand_init_ossl_         000000000001a37c f   OpensslLib:rand_lib.obj
 0001:0001a260       rand_pool_grow             000000000001a520 f   OpensslLib:rand_lib.obj
 0001:0001a9c8       pkey_set_type              000000000001ac88 f   OpensslLib:p_lib.obj
 0001:0001acbc       PACKET_get_net_2           000000000001af7c f   OpensslLib:statem_srvr.obj
 0001:0001acf4       PACKET_copy_bytes          000000000001afb4 f   OpensslLib:statem_clnt.obj
 0001:0001acf4       PACKET_copy_bytes          000000000001afb4 f   OpensslLib:statem_srvr.obj
 0001:0001ad34       PACKET_get_length_prefixed_1 000000000001aff4 f   OpensslLib:extensions_clnt.obj
 0001:0001ad34       PACKET_get_length_prefixed_1 000000000001aff4 f   OpensslLib:extensions_srvr.obj
 0001:0001ad34       PACKET_get_length_prefixed_1 000000000001aff4 f   OpensslLib:statem_clnt.obj
 0001:0001ad34       PACKET_get_length_prefixed_1 000000000001aff4 f   OpensslLib:statem_srvr.obj
 0001:0001ad9c       PACKET_get_length_prefixed_2 000000000001b05c f   OpensslLib:statem_srvr.obj
 0001:0001ae08       ossl_statem_server13_read_transition 000000000001b0c8 f   OpensslLib:statem_srvr.obj
 0001:0001b148       ossl_statem_server13_write_transition 000000000001b408 f   OpensslLib:statem_srvr.obj
 0001:0001bfac       ssl_check_for_safari       000000000001c26c f   OpensslLib:statem_srvr.obj
 0001:0001c550       tls_early_post_process_client_hello 000000000001c810 f   OpensslLib:statem_srvr.obj
 0001:0001d114       tls_handle_status_request  000000000001d3d4 f   OpensslLib:statem_srvr.obj
 0001:0001e4d4       tls_process_cke_psk_preamble 000000000001e794 f   OpensslLib:statem_srvr.obj
 0001:0001e644       tls_process_cke_rsa        000000000001e904 f   OpensslLib:statem_srvr.obj
 0001:0001e8f4       tls_process_cke_dhe        000000000001ebb4 f   OpensslLib:statem_srvr.obj
 0001:0001ea80       tls_process_cke_ecdhe      000000000001ed40 f   OpensslLib:statem_srvr.obj
 0001:0001f388       create_ticket_prequel      000000000001f648 f   OpensslLib:statem_srvr.obj
 0001:0001f48c       construct_stateless_ticket 000000000001f74c f   OpensslLib:statem_srvr.obj
 0001:0001fe5c       tls_construct_encrypted_extensions 000000000002011c f   OpensslLib:statem_srvr.obj
 0001:0001ff3c       table_cmp_BSEARCH_CMP_FN   00000000000201fc f   OpensslLib:a_strnid.obj
 0001:0001ff3c       sig_cmp_BSEARCH_CMP_FN     00000000000201fc f   OpensslLib:obj_xref.obj
 0001:0001ff3c       nid_cmp_BSEARCH_CMP_FN     00000000000201fc f   OpensslLib:v3_purp.obj
 0001:0001ff44       check_sig_alg_match        0000000000020204 f   OpensslLib:v3_purp.obj
 0001:0001fffc       x509v3_cache_extensions    00000000000202bc f   OpensslLib:v3_purp.obj
 0001:00020740       check_ca                   0000000000020a00 f   OpensslLib:v3_purp.obj
 0001:000207a0       check_purpose_ssl_client   0000000000020a60 f   OpensslLib:v3_purp.obj
 0001:00020810       check_purpose_ssl_server   0000000000020ad0 f   OpensslLib:v3_purp.obj
 0001:00020880       check_purpose_ns_ssl_server 0000000000020b40 f   OpensslLib:v3_purp.obj
 0001:000208bc       purpose_smime              0000000000020b7c f   OpensslLib:v3_purp.obj
 0001:00020918       check_purpose_smime_sign   0000000000020bd8 f   OpensslLib:v3_purp.obj
 0001:00020954       check_purpose_smime_encrypt 0000000000020c14 f   OpensslLib:v3_purp.obj
 0001:00020990       check_purpose_crl_sign     0000000000020c50 f   OpensslLib:v3_purp.obj
 0001:000209c8       ocsp_helper                0000000000020c88 f   OpensslLib:v3_purp.obj
 0001:000209dc       check_purpose_timestamp_sign 0000000000020c9c f   OpensslLib:v3_purp.obj
 0001:00020a68       ecx_cmp_parameters         0000000000020d28 f   OpensslLib:ecx_meth.obj
 0001:00020a68       null_init_key              0000000000020d28 f   OpensslLib:e_null.obj
 0001:00020a68       final                      0000000000020d28 f   OpensslLib:m_null.obj
 0001:00020a68       init                       0000000000020d28 f   OpensslLib:m_null.obj
 0001:00020a68       update                     0000000000020d28 f   OpensslLib:m_null.obj
 0001:00020a68       i2r_ocsp_nocheck           0000000000020d28 f   OpensslLib:v3_ocsp.obj
 0001:00020a68       no_check                   0000000000020d28 f   OpensslLib:v3_purp.obj
 0001:00020c80       x509_name_ex_new           0000000000020f40 f   OpensslLib:x_name.obj
 0001:00020d14       x509_name_ex_free          0000000000020fd4 f   OpensslLib:x_name.obj
 0001:00020d68       local_sk_X509_NAME_ENTRY_free 0000000000021028 f   OpensslLib:x_name.obj
 0001:00020d8c       local_sk_X509_NAME_ENTRY_pop_free 000000000002104c f   OpensslLib:x_name.obj
 0001:00020d98       x509_name_ex_d2i           0000000000021058 f   OpensslLib:x_name.obj
 0001:0002106c       x509_name_ex_i2d           000000000002132c f   OpensslLib:x_name.obj
 0001:000210d0       x509_name_encode           0000000000021390 f   OpensslLib:x_name.obj
 0001:0002125c       x509_name_ex_print         000000000002151c f   OpensslLib:x_name.obj
 0001:000212a4       x509_name_canon            0000000000021564 f   OpensslLib:x_name.obj
 0001:000214b8       asn1_string_canon          0000000000021778 f   OpensslLib:x_name.obj
 0001:0002161c       i2d_name_canon             00000000000218dc f   OpensslLib:x_name.obj
 0001:000217d8       custom_ext_add_old_cb_wrap 0000000000021a98 f   OpensslLib:extensions_cust.obj
 0001:000217d8       custom_ext_parse_old_cb_wrap 0000000000021a98 f   OpensslLib:extensions_cust.obj
 0001:00021818       custom_ext_free_old_cb_wrap 0000000000021ad8 f   OpensslLib:extensions_cust.obj
 0001:00021dec       add_custom_ext_intern      00000000000220ac f   OpensslLib:extensions_cust.obj
 0001:00021f6c       add_old_custom_ext         000000000002222c f   OpensslLib:extensions_cust.obj
 0001:0002206c       sn_cmp_BSEARCH_CMP_FN      000000000002232c f   OpensslLib:obj_dat.obj
 0001:00022088       ln_cmp_BSEARCH_CMP_FN      0000000000022348 f   OpensslLib:obj_dat.obj
 0001:000220a8       added_obj_hash             0000000000022368 f   OpensslLib:obj_dat.obj
 0001:0002216c       added_obj_cmp              000000000002242c f   OpensslLib:obj_dat.obj
 0001:00022538       obj_cmp_BSEARCH_CMP_FN     00000000000227f8 f   OpensslLib:obj_dat.obj
 0001:00022d0c       do_ex_data_init_ossl_      0000000000022fcc f   OpensslLib:ex_data.obj
 0001:00022d54       get_and_lock               0000000000023014 f   OpensslLib:ex_data.obj
 0001:000235bc       buffer_new                 000000000002387c f   OpensslLib:bf_buff.obj
 0001:00023658       buffer_free                0000000000023918 f   OpensslLib:bf_buff.obj
 0001:000236ac       buffer_read                000000000002396c f   OpensslLib:bf_buff.obj
 0001:00023814       buffer_write               0000000000023ad4 f   OpensslLib:bf_buff.obj
 0001:000239c4       buffer_ctrl                0000000000023c84 f   OpensslLib:bf_buff.obj
 0001:00023d88       buffer_callback_ctrl       0000000000024048 f   OpensslLib:bf_buff.obj
 0001:00023d9c       buffer_gets                000000000002405c f   OpensslLib:bf_buff.obj
 0001:00023ea4       buffer_puts                0000000000024164 f   OpensslLib:bf_buff.obj
 0001:0002401c       dir_ctrl                   00000000000242dc f   OpensslLib:by_dir.obj
 0001:00024074       new_dir                    0000000000024334 f   OpensslLib:by_dir.obj
 0001:00024118       by_dir_hash_cmp            00000000000243d8 f   OpensslLib:by_dir.obj
 0001:00024130       by_dir_entry_free          00000000000243f0 f   OpensslLib:by_dir.obj
 0001:00024160       free_dir                   0000000000024420 f   OpensslLib:by_dir.obj
 0001:000241a0       add_cert_dir               0000000000024460 f   OpensslLib:by_dir.obj
 0001:00024374       get_cert_by_subject        0000000000024634 f   OpensslLib:by_dir.obj
 0001:00025234       derive_secret_key_and_iv   00000000000254f4 f   OpensslLib:tls13_enc.obj
 0001:00025f8c       PACKET_get_net_2           000000000002624c f   OpensslLib:extensions_clnt.obj
 0001:00025f8c       PACKET_get_net_2           000000000002624c f   OpensslLib:extensions_srvr.obj
 0001:00025f8c       PACKET_get_net_2           000000000002624c f   OpensslLib:statem_clnt.obj
 0001:00025f8c       PACKET_get_net_2           000000000002624c f   OpensslLib:statem_lib.obj
 0001:000263a8       get_cert_verify_tbs_data   0000000000026668 f   OpensslLib:statem_lib.obj
 0001:00027464       ssl_add_cert_to_wpacket    0000000000027724 f   OpensslLib:statem_lib.obj
 0001:00027558       ssl_add_cert_chain         0000000000027818 f   OpensslLib:statem_lib.obj
 0001:00027f8c       version_cmp                000000000002824c f   OpensslLib:statem_lib.obj
 0001:00027fdc       ssl_method_error           000000000002829c f   OpensslLib:statem_lib.obj
 0001:00028090       is_tls13_capable           0000000000028350 f   OpensslLib:statem_lib.obj
 0001:00028370       check_for_downgrade        0000000000028630 f   OpensslLib:statem_lib.obj
 0001:00028b18       ca_dn_cmp                  0000000000028dd8 f   OpensslLib:statem_lib.obj
 0001:00028fe4       by_file_ctrl               00000000000292a4 f   OpensslLib:by_file.obj
 0001:000291bc       aes_init_key               000000000002947c f   OpensslLib:e_aes.obj
 0001:00029274       aes_cbc_cipher             0000000000029534 f   OpensslLib:e_aes.obj
 0001:000292e0       aes_ecb_cipher             00000000000295a0 f   OpensslLib:e_aes.obj
 0001:00029358       aes_ofb_cipher             0000000000029618 f   OpensslLib:e_aes.obj
 0001:000293b8       aes_cfb_cipher             0000000000029678 f   OpensslLib:e_aes.obj
 0001:00029420       aes_cfb8_cipher            00000000000296e0 f   OpensslLib:e_aes.obj
 0001:00029480       aes_cfb1_cipher            0000000000029740 f   OpensslLib:e_aes.obj
 0001:000295b4       aes_ctr_cipher             0000000000029874 f   OpensslLib:e_aes.obj
 0001:00029648       aes_gcm_cleanup            0000000000029908 f   OpensslLib:e_aes.obj
 0001:000296a0       aes_gcm_ctrl               0000000000029960 f   OpensslLib:e_aes.obj
 0001:00029a88       aes_gcm_init_key           0000000000029d48 f   OpensslLib:e_aes.obj
 0001:00029b80       aes_gcm_tls_cipher         0000000000029e40 f   OpensslLib:e_aes.obj
 0001:00029ccc       aes_gcm_cipher             0000000000029f8c f   OpensslLib:e_aes.obj
 0001:00029dc4       aes_xts_ctrl               000000000002a084 f   OpensslLib:e_aes.obj
 0001:00029e34       aes_xts_init_key           000000000002a0f4 f   OpensslLib:e_aes.obj
 0001:00029f80       aes_xts_cipher             000000000002a240 f   OpensslLib:e_aes.obj
 0001:0002a018       aes_ccm_ctrl               000000000002a2d8 f   OpensslLib:e_aes.obj
 0001:0002a23c       aes_ccm_init_key           000000000002a4fc f   OpensslLib:e_aes.obj
 0001:0002a2f4       aes_ccm_tls_cipher         000000000002a5b4 f   OpensslLib:e_aes.obj
 0001:0002a4d4       aes_ccm_cipher             000000000002a794 f   OpensslLib:e_aes.obj
 0001:0002a708       aes_wrap_init_key          000000000002a9c8 f   OpensslLib:e_aes.obj
 0001:0002a7a4       aes_wrap_cipher            000000000002aa64 f   OpensslLib:e_aes.obj
 0001:0002a948       init                       000000000002ac08 f   OpensslLib:m_sha1.obj
 0001:0002a954       update                     000000000002ac14 f   OpensslLib:m_sha1.obj
 0001:0002a960       final                      000000000002ac20 f   OpensslLib:m_sha1.obj
 0001:0002a970       ctrl                       000000000002ac30 f   OpensslLib:m_sha1.obj
 0001:0002aa84       init224                    000000000002ad44 f   OpensslLib:m_sha1.obj
 0001:0002aa90       update224                  000000000002ad50 f   OpensslLib:m_sha1.obj
 0001:0002aa90       update256                  000000000002ad50 f   OpensslLib:m_sha1.obj
 0001:0002aa9c       final224                   000000000002ad5c f   OpensslLib:m_sha1.obj
 0001:0002aa9c       final256                   000000000002ad5c f   OpensslLib:m_sha1.obj
 0001:0002aaac       init256                    000000000002ad6c f   OpensslLib:m_sha1.obj
 0001:0002aab8       init512_224                000000000002ad78 f   OpensslLib:m_sha1.obj
 0001:0002ab4c       init512_256                000000000002ae0c f   OpensslLib:m_sha1.obj
 0001:0002abe0       init384                    000000000002aea0 f   OpensslLib:m_sha1.obj
 0001:0002abec       update384                  000000000002aeac f   OpensslLib:m_sha1.obj
 0001:0002abec       update512                  000000000002aeac f   OpensslLib:m_sha1.obj
 0001:0002abf8       final384                   000000000002aeb8 f   OpensslLib:m_sha1.obj
 0001:0002abf8       final512                   000000000002aeb8 f   OpensslLib:m_sha1.obj
 0001:0002ac08       init512                    000000000002aec8 f   OpensslLib:m_sha1.obj
 0001:0002ac14       aria_init_key              000000000002aed4 f   OpensslLib:e_aria.obj
 0001:0002ac80       aria_128_cbc_cipher        000000000002af40 f   OpensslLib:e_aria.obj
 0001:0002ac80       aria_192_cbc_cipher        000000000002af40 f   OpensslLib:e_aria.obj
 0001:0002ac80       aria_256_cbc_cipher        000000000002af40 f   OpensslLib:e_aria.obj
 0001:0002ad54       aria_128_cfb128_cipher     000000000002b014 f   OpensslLib:e_aria.obj
 0001:0002ad54       aria_192_cfb128_cipher     000000000002b014 f   OpensslLib:e_aria.obj
 0001:0002ad54       aria_256_cfb128_cipher     000000000002b014 f   OpensslLib:e_aria.obj
 0001:0002ae04       aria_128_ecb_cipher        000000000002b0c4 f   OpensslLib:e_aria.obj
 0001:0002ae04       aria_192_ecb_cipher        000000000002b0c4 f   OpensslLib:e_aria.obj
 0001:0002ae04       aria_256_ecb_cipher        000000000002b0c4 f   OpensslLib:e_aria.obj
 0001:0002ae7c       aria_128_ofb_cipher        000000000002b13c f   OpensslLib:e_aria.obj
 0001:0002ae7c       aria_192_ofb_cipher        000000000002b13c f   OpensslLib:e_aria.obj
 0001:0002ae7c       aria_256_ofb_cipher        000000000002b13c f   OpensslLib:e_aria.obj
 0001:0002af7c       aria_128_cfb1_cipher       000000000002b23c f   OpensslLib:e_aria.obj
 0001:0002af7c       aria_192_cfb1_cipher       000000000002b23c f   OpensslLib:e_aria.obj
 0001:0002af7c       aria_256_cfb1_cipher       000000000002b23c f   OpensslLib:e_aria.obj
 0001:0002b038       aria_128_cfb8_cipher       000000000002b2f8 f   OpensslLib:e_aria.obj
 0001:0002b038       aria_192_cfb8_cipher       000000000002b2f8 f   OpensslLib:e_aria.obj
 0001:0002b038       aria_256_cfb8_cipher       000000000002b2f8 f   OpensslLib:e_aria.obj
 0001:0002b0e4       aria_ctr_cipher            000000000002b3a4 f   OpensslLib:e_aria.obj
 0001:0002b14c       aria_gcm_init_key          000000000002b40c f   OpensslLib:e_aria.obj
 0001:0002b268       aria_gcm_ctrl              000000000002b528 f   OpensslLib:e_aria.obj
 0001:0002b650       aria_gcm_tls_cipher        000000000002b910 f   OpensslLib:e_aria.obj
 0001:0002b794       aria_gcm_cipher            000000000002ba54 f   OpensslLib:e_aria.obj
 0001:0002b86c       aria_gcm_cleanup           000000000002bb2c f   OpensslLib:e_aria.obj
 0001:0002b898       aria_ccm_init_key          000000000002bb58 f   OpensslLib:e_aria.obj
 0001:0002b978       aria_ccm_ctrl              000000000002bc38 f   OpensslLib:e_aria.obj
 0001:0002bb9c       aria_ccm_tls_cipher        000000000002be5c f   OpensslLib:e_aria.obj
 0001:0002bd7c       aria_ccm_cipher            000000000002c03c f   OpensslLib:e_aria.obj
 0001:0002bfb0       init                       000000000002c270 f   OpensslLib:m_md5_sha1.obj
 0001:0002bfdc       update                     000000000002c29c f   OpensslLib:m_md5_sha1.obj
 0001:0002c020       final                      000000000002c2e0 f   OpensslLib:m_md5_sha1.obj
 0001:0002c058       ctrl                       000000000002c318 f   OpensslLib:m_md5_sha1.obj
 0001:0002c1f8       o_names_init_ossl_         000000000002c4b8 f   OpensslLib:o_names.obj
 0001:0002c250       obj_name_cmp               000000000002c510 f   OpensslLib:o_names.obj
 0001:0002c2a0       obj_name_hash              000000000002c560 f   OpensslLib:o_names.obj
 0001:0002c49c       init                       000000000002c75c f   OpensslLib:m_md5.obj
 0001:0002c4a8       update                     000000000002c768 f   OpensslLib:m_md5.obj
 0001:0002c4b4       final                      000000000002c774 f   OpensslLib:m_md5.obj
 0001:0002c4c4       ossl_init_get_thread_local 000000000002c784 f   OpensslLib:init.obj
 0001:0002c51c       ossl_init_base_ossl_       000000000002c7dc f   OpensslLib:init.obj
 0001:0002c588       ossl_init_add_all_digests_ossl_ 000000000002c848 f   OpensslLib:init.obj
 0001:0002c6a4       ossl_init_config_ossl_     000000000002c964 f   OpensslLib:init.obj
 0001:0002c73c       ossl_init_async_ossl_      000000000002c9fc f   OpensslLib:init.obj
 0001:0002d3b8       cipher_compare             000000000002d678 f   OpensslLib:s3_lib.obj
 0001:0002eab8       ssl3_set_req_cert_type     000000000002ed78 f   OpensslLib:s3_lib.obj
 0001:0002ec7c       ssl3_read_internal         000000000002ef3c f   OpensslLib:s3_lib.obj
 0001:0002fae4       crl_inf_cb                 000000000002fda4 f   OpensslLib:x_crl.obj
 0001:0002fb18       crl_cb                     000000000002fdd8 f   OpensslLib:x_crl.obj
 0001:00030134       setup_idp                  00000000000303f4 f   OpensslLib:x_crl.obj
 0001:00030238       X509_REVOKED_cmp           00000000000304f8 f   OpensslLib:x_crl.obj
 0001:00030244       def_crl_verify             0000000000030504 f   OpensslLib:x_crl.obj
 0001:0003026c       def_crl_lookup             000000000003052c f   OpensslLib:x_crl.obj
 0001:0003041c       null_callback              00000000000306dc f   OpensslLib:x509_vfy.obj
 0001:00030420       verify_cb_cert             00000000000306e0 f   OpensslLib:x509_vfy.obj
 0001:00030470       check_auth_level           0000000000030730 f   OpensslLib:x509_vfy.obj
 0001:000305dc       verify_chain               000000000003089c f   OpensslLib:x509_vfy.obj
 0001:0003083c       find_issuer                0000000000030afc f   OpensslLib:x509_vfy.obj
 0001:0003096c       check_issued               0000000000030c2c f   OpensslLib:x509_vfy.obj
 0001:00030988       check_chain_extensions     0000000000030c48 f   OpensslLib:x509_vfy.obj
 0001:00030d34       check_name_constraints     0000000000030ff4 f   OpensslLib:x509_vfy.obj
 0001:00031024       check_id_error             00000000000312e4 f   OpensslLib:x509_vfy.obj
 0001:00031070       check_hosts                0000000000031330 f   OpensslLib:x509_vfy.obj
 0001:0003116c       check_id                   000000000003142c f   OpensslLib:x509_vfy.obj
 0001:000312b4       check_trust                0000000000031574 f   OpensslLib:x509_vfy.obj
 0001:00031540       check_revocation           0000000000031800 f   OpensslLib:x509_vfy.obj
 0001:000315bc       check_cert                 000000000003187c f   OpensslLib:x509_vfy.obj
 0001:00031810       check_crl_time             0000000000031ad0 f   OpensslLib:x509_vfy.obj
 0001:00031908       get_crl_sk                 0000000000031bc8 f   OpensslLib:x509_vfy.obj
 0001:00031c70       crl_extension_match        0000000000031f30 f   OpensslLib:x509_vfy.obj
 0001:00031d70       crl_akid_check             0000000000032030 f   OpensslLib:x509_vfy.obj
 0001:00031efc       check_crl_path             00000000000321bc f   OpensslLib:x509_vfy.obj
 0001:00032004       idp_check_dp               00000000000322c4 f   OpensslLib:x509_vfy.obj
 0001:000322ec       crl_crldp_check            00000000000325ac f   OpensslLib:x509_vfy.obj
 0001:0003244c       check_crl                  000000000003270c f   OpensslLib:x509_vfy.obj
 0001:00032700       cert_crl                   00000000000329c0 f   OpensslLib:x509_vfy.obj
 0001:000327ac       check_policy               0000000000032a6c f   OpensslLib:x509_vfy.obj
 0001:00032a4c       internal_verify            0000000000032d0c f   OpensslLib:x509_vfy.obj
 0001:00033220       dane_match                 00000000000334e0 f   OpensslLib:x509_vfy.obj
 0001:00033570       check_dane_issuer          0000000000033830 f   OpensslLib:x509_vfy.obj
 0001:000335ec       check_dane_pkeys           00000000000338ac f   OpensslLib:x509_vfy.obj
 0001:00033740       check_leaf_suiteb          0000000000033a00 f   OpensslLib:x509_vfy.obj
 0001:000337e8       dane_verify                0000000000033aa8 f   OpensslLib:x509_vfy.obj
 0001:00033924       build_chain                0000000000033be4 f   OpensslLib:x509_vfy.obj
 0001:00034340       check_key_level            0000000000034600 f   OpensslLib:x509_vfy.obj
 0001:00034548       module_add                 0000000000034808 f   OpensslLib:conf_mod.obj
 0001:00034714       null_cipher                00000000000349d4 f   OpensslLib:e_null.obj
 0001:00034a6c       ssl_session_strndup        0000000000034d2c f   OpensslLib:ssl_asn1.obj
 0001:00035018       check_pem                  00000000000352d8 f   OpensslLib:pem_lib.obj
 0001:00035238       pem_bytes_read_bio_flags   00000000000354f8 f   OpensslLib:pem_lib.obj
 0001:000359a4       load_iv                    0000000000035c64 f   OpensslLib:pem_lib.obj
 0001:00035a50       sanitize_line              0000000000035d10 f   OpensslLib:pem_lib.obj
 0001:00035b08       get_name                   0000000000035dc8 f   OpensslLib:pem_lib.obj
 0001:00035c70       get_header_and_data        0000000000035f30 f   OpensslLib:pem_lib.obj
 0001:000363d0       PACKET_get_length_prefixed_3 0000000000036690 f   OpensslLib:extensions.obj
 0001:00036d6c       final_renegotiate          000000000003702c f   OpensslLib:extensions.obj
 0001:00036dc0       init_server_name           0000000000037080 f   OpensslLib:extensions.obj
 0001:00036df8       final_server_name          00000000000370b8 f   OpensslLib:extensions.obj
 0001:0003706c       final_ec_pt_formats        000000000003732c f   OpensslLib:extensions.obj
 0001:000370fc       init_session_ticket        00000000000373bc f   OpensslLib:extensions.obj
 0001:00037110       init_status_request        00000000000373d0 f   OpensslLib:extensions.obj
 0001:00037150       init_npn                   0000000000037410 f   OpensslLib:extensions.obj
 0001:00037164       init_alpn                  0000000000037424 f   OpensslLib:extensions.obj
 0001:000371e0       final_alpn                 00000000000374a0 f   OpensslLib:extensions.obj
 0001:00037230       init_sig_algs              00000000000374f0 f   OpensslLib:extensions.obj
 0001:00037268       init_sig_algs_cert         0000000000037528 f   OpensslLib:extensions.obj
 0001:000372a0       init_etm                   0000000000037560 f   OpensslLib:extensions.obj
 0001:000372b0       init_ems                   0000000000037570 f   OpensslLib:extensions.obj
 0001:000372d8       final_ems                  0000000000037598 f   OpensslLib:extensions.obj
 0001:00037348       init_certificate_authorities 0000000000037608 f   OpensslLib:extensions.obj
 0001:00037388       tls_construct_certificate_authorities 0000000000037648 f   OpensslLib:extensions.obj
 0001:00037440       tls_parse_certificate_authorities 0000000000037700 f   OpensslLib:extensions.obj
 0001:00037490       init_srtp                  0000000000037750 f   OpensslLib:extensions.obj
 0001:000374a4       final_sig_algs             0000000000037764 f   OpensslLib:extensions.obj
 0001:000374f8       final_key_share            00000000000377b8 f   OpensslLib:extensions.obj
 0001:000376f0       init_psk_kex_modes         00000000000379b0 f   OpensslLib:extensions.obj
 0001:00037b60       final_early_data           0000000000037e20 f   OpensslLib:extensions.obj
 0001:00037c24       final_maxfragmentlen       0000000000037ee4 f   OpensslLib:extensions.obj
 0001:00037cac       init_post_handshake_auth   0000000000037f6c f   OpensslLib:extensions.obj
 0001:000389d0       file_puts                  0000000000038c90 f   OpensslLib:bss_file.obj
 0001:000389d0       file_read                  0000000000038c90 f   OpensslLib:bss_file.obj
 0001:000389d0       file_write                 0000000000038c90 f   OpensslLib:bss_file.obj
 0001:000389d4       file_ctrl                  0000000000038c94 f   OpensslLib:bss_file.obj
 0001:000389d4       file_free                  0000000000038c94 f   OpensslLib:bss_file.obj
 0001:000389d4       file_gets                  0000000000038c94 f   OpensslLib:bss_file.obj
 0001:000389d4       file_new                   0000000000038c94 f   OpensslLib:bss_file.obj
 0001:00038ce4       rsa_cb                     0000000000038fa4 f   OpensslLib:rsa_asn1.obj
 0001:00038d58       rsa_pss_cb                 0000000000039018 f   OpensslLib:rsa_asn1.obj
 0001:00038ed8       ocsp_nonce_free            0000000000039198 f   OpensslLib:v3_ocsp.obj
 0001:00039078       asn1_item_embed_d2i        0000000000039338 f   OpensslLib:tasn_dec.obj
 0001:000397bc       asn1_template_ex_d2i       0000000000039a7c f   OpensslLib:tasn_dec.obj
 0001:00039930       asn1_template_noexp_d2i    0000000000039bf0 f   OpensslLib:tasn_dec.obj
 0001:00039bc0       asn1_d2i_ex_primitive      0000000000039e80 f   OpensslLib:tasn_dec.obj
 0001:00039eb0       asn1_ex_c2i                000000000003a170 f   OpensslLib:tasn_dec.obj
 0001:0003a158       asn1_find_end              000000000003a418 f   OpensslLib:tasn_dec.obj
 0001:0003a298       asn1_collect               000000000003a558 f   OpensslLib:tasn_dec.obj
 0001:0003a448       asn1_check_tlen            000000000003a708 f   OpensslLib:tasn_dec.obj
 0001:0003a6a8       gnames_from_sectname       000000000003a968 f   OpensslLib:v3_crld.obj
 0001:0003a74c       set_dist_point_name        000000000003aa0c f   OpensslLib:v3_crld.obj
 0001:0003a904       set_reasons                000000000003abc4 f   OpensslLib:v3_crld.obj
 0001:0003a9fc       print_reasons              000000000003acbc f   OpensslLib:v3_crld.obj
 0001:0003aad0       crldp_from_section         000000000003ad90 f   OpensslLib:v3_crld.obj
 0001:0003abd0       v2i_crld                   000000000003ae90 f   OpensslLib:v3_crld.obj
 0001:0003ad9c       dpn_cb                     000000000003b05c f   OpensslLib:v3_crld.obj
 0001:0003adec       v2i_idp                    000000000003b0ac f   OpensslLib:v3_crld.obj
 0001:0003afbc       print_gens                 000000000003b27c f   OpensslLib:v3_crld.obj
 0001:0003b03c       print_distpoint            000000000003b2fc f   OpensslLib:v3_crld.obj
 0001:0003b090       i2r_idp                    000000000003b350 f   OpensslLib:v3_crld.obj
 0001:0003b0d4       i2r_crldp                  000000000003b394 f   OpensslLib:v3_crld.obj
 0001:0003b2a4       asn1_item_embed_new        000000000003b564 f   OpensslLib:tasn_new.obj
 0001:0003b4ec       asn1_template_new          000000000003b7ac f   OpensslLib:tasn_new.obj
 0001:0003b584       asn1_template_clear        000000000003b844 f   OpensslLib:tasn_new.obj
 0001:0003b600       asn1_primitive_new         000000000003b8c0 f   OpensslLib:tasn_new.obj
 0001:0003b788       policy_cache_create        000000000003ba48 f   OpensslLib:pcy_cache.obj
 0001:0003b904       policy_cache_new           000000000003bbc4 f   OpensslLib:pcy_cache.obj
 0001:0003bad0       policy_data_cmp            000000000003bd90 f   OpensslLib:pcy_cache.obj
 0001:0003bb00       ia5ncasecmp                000000000003bdc0 f   OpensslLib:v3_ncons.obj
 0001:0003bb4c       v2i_NAME_CONSTRAINTS       000000000003be0c f   OpensslLib:v3_ncons.obj
 0001:0003bd0c       i2r_NAME_CONSTRAINTS       000000000003bfcc f   OpensslLib:v3_ncons.obj
 0001:0003bd68       do_i2r_name_constraints    000000000003c028 f   OpensslLib:v3_ncons.obj
 0001:0003c1f8       nc_match                   000000000003c4b8 f   OpensslLib:v3_ncons.obj
 0001:0003c334       nc_match_single            000000000003c5f4 f   OpensslLib:v3_ncons.obj
 0001:0003c4f8       nc_email                   000000000003c7b8 f   OpensslLib:v3_ncons.obj
 0001:0003c5c4       nc_uri                     000000000003c884 f   OpensslLib:v3_ncons.obj
 0001:0003ca98       asn1_item_flags_i2d        000000000003cd58 f   OpensslLib:tasn_enc.obj
 0001:0003cec0       asn1_template_ex_i2d       000000000003d180 f   OpensslLib:tasn_enc.obj
 0001:0003d1a4       der_cmp                    000000000003d464 f   OpensslLib:tasn_enc.obj
 0001:0003d1e4       asn1_set_seq_out           000000000003d4a4 f   OpensslLib:tasn_enc.obj
 0001:0003d41c       asn1_i2d_ex_primitive      000000000003d6dc f   OpensslLib:tasn_enc.obj
 0001:0003d510       asn1_ex_i2c                000000000003d7d0 f   OpensslLib:tasn_enc.obj
 0001:0003d758       trust_1oidany              000000000003da18 f   OpensslLib:x509_trs.obj
 0001:0003d764       trust_1oid                 000000000003da24 f   OpensslLib:x509_trs.obj
 0001:0003d770       trust_compat               000000000003da30 f   OpensslLib:x509_trs.obj
 0001:0003d7b4       obj_trust                  000000000003da74 f   OpensslLib:x509_trs.obj
 0001:0003e178       bignum_to_string           000000000003e438 f   OpensslLib:v3_utl.obj
 0001:0003e834       strip_spaces               000000000003eaf4 f   OpensslLib:v3_utl.obj
 0001:0003e914       equal_nocase               000000000003ebd4 f   OpensslLib:v3_utl.obj
 0001:0003e998       equal_case                 000000000003ec58 f   OpensslLib:v3_utl.obj
 0001:0003e9fc       equal_email                000000000003ecbc f   OpensslLib:v3_utl.obj
 0001:0003ea9c       wildcard_match             000000000003ed5c f   OpensslLib:v3_utl.obj
 0001:0003ebcc       valid_star                 000000000003ee8c f   OpensslLib:v3_utl.obj
 0001:0003ed20       equal_wildcard             000000000003efe0 f   OpensslLib:v3_utl.obj
 0001:0003edc4       do_check_string            000000000003f084 f   OpensslLib:v3_utl.obj
 0001:0003eee0       do_x509_check              000000000003f1a0 f   OpensslLib:v3_utl.obj
 0001:0003f230       ipv4_from_asc              000000000003f4f0 f   OpensslLib:v3_utl.obj
 0001:0003f2b4       ipv6_from_asc              000000000003f574 f   OpensslLib:v3_utl.obj
 0001:0003f3c0       ipv6_cb                    000000000003f680 f   OpensslLib:v3_utl.obj
 0001:0003f6a0       PACKET_get_net_3           000000000003f960 f   OpensslLib:statem_clnt.obj
 0001:0003f6e4       PACKET_memdup              000000000003f9a4 f   OpensslLib:extensions_srvr.obj
 0001:0003f6e4       PACKET_memdup              000000000003f9a4 f   OpensslLib:statem_clnt.obj
 0001:0003f74c       PACKET_get_length_prefixed_2 000000000003fa0c f   OpensslLib:extensions_srvr.obj
 0001:0003f74c       PACKET_get_length_prefixed_2 000000000003fa0c f   OpensslLib:statem_clnt.obj
 0001:0003f7b8       PACKET_as_length_prefixed_2 000000000003fa78 f   OpensslLib:extensions_clnt.obj
 0001:0003f7b8       PACKET_as_length_prefixed_2 000000000003fa78 f   OpensslLib:extensions_srvr.obj
 0001:0003f7b8       PACKET_as_length_prefixed_2 000000000003fa78 f   OpensslLib:statem_clnt.obj
 0001:0003f828       ossl_statem_client13_read_transition 000000000003fae8 f   OpensslLib:statem_clnt.obj
 0001:0003fc3c       ossl_statem_client13_write_transition 000000000003fefc f   OpensslLib:statem_clnt.obj
 0001:00040bc4       set_client_ciphersuite     0000000000040e84 f   OpensslLib:statem_clnt.obj
 0001:00041448       tls_process_as_hello_retry_request 0000000000041708 f   OpensslLib:statem_clnt.obj
 0001:00041a88       tls_process_ske_psk_preamble 0000000000041d48 f   OpensslLib:statem_clnt.obj
 0001:00041b7c       tls_process_ske_dhe        0000000000041e3c f   OpensslLib:statem_clnt.obj
 0001:00041de4       tls_process_ske_ecdhe      00000000000420a4 f   OpensslLib:statem_clnt.obj
 0001:00042ca4       tls_construct_cke_psk_preamble 0000000000042f64 f   OpensslLib:statem_clnt.obj
 0001:00042ee4       tls_construct_cke_rsa      00000000000431a4 f   OpensslLib:statem_clnt.obj
 0001:0004313c       tls_construct_cke_dhe      00000000000433fc f   OpensslLib:statem_clnt.obj
 0001:00043230       tls_construct_cke_ecdhe    00000000000434f0 f   OpensslLib:statem_clnt.obj
 0001:000434a4       ssl3_check_client_certificate 0000000000043764 f   OpensslLib:statem_clnt.obj
 0001:00043b98       tls_process_encrypted_extensions 0000000000043e58 f   OpensslLib:statem_clnt.obj
 0001:00043cb8       ssl_cipher_list_to_bytes   0000000000043f78 f   OpensslLib:statem_clnt.obj
 0001:00043f2c       ossl_assert_int            00000000000441ec f   OpensslLib:packet.obj
 0001:000440d0       wpacket_intern_init_len    0000000000044390 f   OpensslLib:packet.obj
 0001:00044174       wpacket_intern_close       0000000000044434 f   OpensslLib:packet.obj
 0001:00044538       dtls1_hm_fragment_new      00000000000447f8 f   OpensslLib:statem_dtls.obj
 0001:00044d58       dtls1_preprocess_fragment  0000000000045018 f   OpensslLib:statem_dtls.obj
 0001:00044e58       dtls1_reassemble_fragment  0000000000045118 f   OpensslLib:statem_dtls.obj
 0001:00045174       dtls1_process_out_of_seq_message 0000000000045434 f   OpensslLib:statem_dtls.obj
 0001:00045380       dtls_get_reassembled_message 0000000000045640 f   OpensslLib:statem_dtls.obj
 0001:0004582c       int_ctx_new                0000000000045aec f   OpensslLib:pmeth_lib.obj
 0001:00047f04       tls1_PRF                   00000000000481c4 f   OpensslLib:t1_enc.obj
 0001:00049410       ec_guess_cofactor          00000000000496d0 f   OpensslLib:ec_lib.obj
 0001:0004a0d0       ec_precompute_mont_data    000000000004a390 f   OpensslLib:ec_lib.obj
 0001:0004a1c8       ec_field_inverse_mod_ord   000000000004a488 f   OpensslLib:ec_lib.obj
 0001:0004a5bc       hmac_ctx_cleanup           000000000004a87c f   OpensslLib:hmac.obj
 0001:0004a654       hmac_ctx_alloc_mds         000000000004a914 f   OpensslLib:hmac.obj
 0001:0004a8d4       bn_free_d                  000000000004ab94 f   OpensslLib:bn_lib.obj
 0001:0004acf8       bn2binpad                  000000000004afb8 f   OpensslLib:bn_lib.obj
 0001:0004b108       rsa_get_public_exp         000000000004b3c8 f   OpensslLib:rsa_crpt.obj
 0001:0004b368       ec_group_new_from_data     000000000004b628 f   OpensslLib:ec_curve.obj
 0001:0004bc44       i2v_AUTHORITY_INFO_ACCESS  000000000004bf04 f   OpensslLib:v3_info.obj
 0001:0004bdf0       v2i_AUTHORITY_INFO_ACCESS  000000000004c0b0 f   OpensslLib:v3_info.obj
 0001:0004c348       i2c_ibuf                   000000000004c608 f   OpensslLib:a_int.obj
 0001:0004c41c       c2i_ibuf                   000000000004c6dc f   OpensslLib:a_int.obj
 0001:0004c538       asn1_get_uint64            000000000004c7f8 f   OpensslLib:a_int.obj
 0001:0004c664       asn1_string_get_int64      000000000004c924 f   OpensslLib:a_int.obj
 0001:0004c738       asn1_string_set_int64      000000000004c9f8 f   OpensslLib:a_int.obj
 0001:0004c798       bn_to_asn1_string          000000000004ca58 f   OpensslLib:a_int.obj
 0001:0004c880       asn1_string_to_bn          000000000004cb40 f   OpensslLib:a_int.obj
 0001:0004ca14       sigx_cmp_BSEARCH_CMP_FN    000000000004ccd4 f   OpensslLib:obj_xref.obj
 0001:0004d11c       leap_year                  000000000004d3dc f   OpensslLib:a_time.obj
 0001:0004d17c       determine_days             000000000004d43c f   OpensslLib:a_time.obj
 0001:0004da18       ssl_set_option             000000000004dcd8 f   OpensslLib:ssl_conf.obj
 0001:0004da70       ssl_set_option_list        000000000004dd30 f   OpensslLib:ssl_conf.obj
 0001:0004db44       cmd_SignatureAlgorithms    000000000004de04 f   OpensslLib:ssl_conf.obj
 0001:0004db98       cmd_ClientSignatureAlgorithms 000000000004de58 f   OpensslLib:ssl_conf.obj
 0001:0004dbf0       cmd_Groups                 000000000004deb0 f   OpensslLib:ssl_conf.obj
 0001:0004dc78       cmd_Curves                 000000000004df38 f   OpensslLib:ssl_conf.obj
 0001:0004dc80       cmd_ECDHParameters         000000000004df40 f   OpensslLib:ssl_conf.obj
 0001:0004ddb4       cmd_CipherString           000000000004e074 f   OpensslLib:ssl_conf.obj
 0001:0004de88       cmd_Ciphersuites           000000000004e148 f   OpensslLib:ssl_conf.obj
 0001:0004df3c       cmd_Protocol               000000000004e1fc f   OpensslLib:ssl_conf.obj
 0001:0004df80       min_max_proto              000000000004e240 f   OpensslLib:ssl_conf.obj
 0001:0004e018       cmd_MinProtocol            000000000004e2d8 f   OpensslLib:ssl_conf.obj
 0001:0004e024       cmd_MaxProtocol            000000000004e2e4 f   OpensslLib:ssl_conf.obj
 0001:0004e030       cmd_Options                000000000004e2f0 f   OpensslLib:ssl_conf.obj
 0001:0004e07c       cmd_VerifyMode             000000000004e33c f   OpensslLib:ssl_conf.obj
 0001:0004e0c8       cmd_Certificate            000000000004e388 f   OpensslLib:ssl_conf.obj
 0001:0004e1a8       cmd_PrivateKey             000000000004e468 f   OpensslLib:ssl_conf.obj
 0001:0004e208       cmd_ServerInfoFile         000000000004e4c8 f   OpensslLib:ssl_conf.obj
 0001:0004e230       do_store                   000000000004e4f0 f   OpensslLib:ssl_conf.obj
 0001:0004e2c8       cmd_ChainCAPath            000000000004e588 f   OpensslLib:ssl_conf.obj
 0001:0004e2d8       cmd_ChainCAFile            000000000004e598 f   OpensslLib:ssl_conf.obj
 0001:0004e2e4       cmd_VerifyCAPath           000000000004e5a4 f   OpensslLib:ssl_conf.obj
 0001:0004e2f4       cmd_VerifyCAFile           000000000004e5b4 f   OpensslLib:ssl_conf.obj
 0001:0004e304       cmd_RequestCAFile          000000000004e5c4 f   OpensslLib:ssl_conf.obj
 0001:0004e34c       cmd_ClientCAFile           000000000004e60c f   OpensslLib:ssl_conf.obj
 0001:0004e354       cmd_RequestCAPath          000000000004e614 f   OpensslLib:ssl_conf.obj
 0001:0004e3d8       cmd_ClientCAPath           000000000004e698 f   OpensslLib:ssl_conf.obj
 0001:0004e3e0       cmd_DHParameters           000000000004e6a0 f   OpensslLib:ssl_conf.obj
 0001:0004e4c4       cmd_RecordPadding          000000000004e784 f   OpensslLib:ssl_conf.obj
 0001:0004e55c       cmd_NumTickets             000000000004e81c f   OpensslLib:ssl_conf.obj
 0001:0004e5bc       ssl_conf_cmd_skip_prefix   000000000004e87c f   OpensslLib:ssl_conf.obj
 0001:0004e670       ssl_conf_cmd_lookup        000000000004e930 f   OpensslLib:ssl_conf.obj
 0001:0004e970       ssl_module_free            000000000004ec30 f   OpensslLib:conf_ssl.obj
 0001:0004ea3c       ssl_module_init            000000000004ecfc f   OpensslLib:conf_ssl.obj
 0001:0004ed40       RandGetBytes               000000000004f000 f   OpensslLib:rand_pool.obj
 0001:0004ef4c       rand_drbg_new              000000000004f20c f   OpensslLib:drbg_lib.obj
 0001:0004fa08       drbg_setup                 000000000004fcc8 f   OpensslLib:drbg_lib.obj
 0001:0004fac0       do_rand_drbg_init_ossl_    000000000004fd80 f   OpensslLib:drbg_lib.obj
 0001:0004fb50       drbg_bytes                 000000000004fe10 f   OpensslLib:drbg_lib.obj
 0001:0004fca8       drbg_add                   000000000004ff68 f   OpensslLib:drbg_lib.obj
 0001:0004fdcc       drbg_seed                  000000000005008c f   OpensslLib:drbg_lib.obj
 0001:0004fddc       drbg_status                000000000005009c f   OpensslLib:drbg_lib.obj
 0001:000500c0       make_kn                    0000000000050380 f   OpensslLib:cmac.obj
 0001:00050480       update                     0000000000050740 f   OpensslLib:m_sigver.obj
 0001:000504a0       do_sigver_init             0000000000050760 f   OpensslLib:m_sigver.obj
 0001:00050e58       i2v_BASIC_CONSTRAINTS      0000000000051118 f   OpensslLib:v3_bcons.obj
 0001:00050eac       v2i_BASIC_CONSTRAINTS      000000000005116c f   OpensslLib:v3_bcons.obj
 0001:00050fe8       send_bio_chars             00000000000512a8 f   OpensslLib:a_strex.obj
 0001:00051024       do_esc_char                00000000000512e4 f   OpensslLib:a_strex.obj
 0001:000511a4       do_buf                     0000000000051464 f   OpensslLib:a_strex.obj
 0001:000513d0       do_hex_dump                0000000000051690 f   OpensslLib:a_strex.obj
 0001:0005145c       do_dump                    000000000005171c f   OpensslLib:a_strex.obj
 0001:00051570       do_print_ex                0000000000051830 f   OpensslLib:a_strex.obj
 0001:00051770       do_indent                  0000000000051a30 f   OpensslLib:a_strex.obj
 0001:000517dc       do_name_ex                 0000000000051a9c f   OpensslLib:a_strex.obj
 0001:00052ce0       pbe2_cmp_BSEARCH_CMP_FN    0000000000052fa0 f   OpensslLib:evp_pbe.obj
 0001:00054b78       gcm_gmult_4bit             0000000000054e38 f   OpensslLib:gcm128.obj
 0001:00056504       crypto_128_unwrap_raw      00000000000567c4 f   OpensslLib:wrap128.obj
 0001:00056cac       cfbr_encrypt_block         0000000000056f6c f   OpensslLib:cfb128.obj
 0001:00057318       sha256_block_data_order    00000000000575d8 f   OpensslLib:sha256.obj
 0001:00057ba0       sha512_block_data_order    0000000000057e60 f   OpensslLib:sha512.obj
 0001:000582b8       sha1_block_data_order      0000000000058578 f   OpensslLib:sha1dgst.obj
 0001:0005858c       rotnr                      000000000005884c f   OpensslLib:aria.obj
 0001:00058614       sl2                        00000000000588d4 f   OpensslLib:aria.obj
 0001:000586a4       a                          0000000000058964 f   OpensslLib:aria.obj
 0001:00058820       FO                         0000000000058ae0 f   OpensslLib:aria.obj
 0001:0005a25c       trans_cb                   000000000005a51c f   OpensslLib:pmeth_gn.obj
 0001:0005a924       tree_init                  000000000005abe4 f   OpensslLib:pcy_tree.obj
 0001:0005ac90       tree_link_nodes            000000000005af50 f   OpensslLib:pcy_tree.obj
 0001:0005ae64       tree_add_unmatched         000000000005b124 f   OpensslLib:pcy_tree.obj
 0001:0005aef8       tree_link_any              000000000005b1b8 f   OpensslLib:pcy_tree.obj
 0001:0005b0ec       tree_add_auth_node         000000000005b3ac f   OpensslLib:pcy_tree.obj
 0001:0005b168       tree_calculate_authority_set 000000000005b428 f   OpensslLib:pcy_tree.obj
 0001:0005b29c       tree_calculate_user_set    000000000005b55c f   OpensslLib:pcy_tree.obj
 0001:0005b40c       tree_evaluate              000000000005b6cc f   OpensslLib:pcy_tree.obj
 0001:0005b5d4       exnode_free                000000000005b894 f   OpensslLib:pcy_tree.obj
 0001:0005ba14       cmac_size                  000000000005bcd4 f   OpensslLib:cm_ameth.obj
 0001:0005ba1c       cmac_key_free              000000000005bcdc f   OpensslLib:cm_ameth.obj
 0001:0005ba1c       pkey_cmac_cleanup          000000000005bcdc f   OpensslLib:cm_pmeth.obj
 0001:0005ba28       ecx_key_op                 000000000005bce8 f   OpensslLib:ecx_meth.obj
 0001:0005bd04       ecx_pub_encode             000000000005bfc4 f   OpensslLib:ecx_meth.obj
 0001:0005bdf0       ecx_pub_decode             000000000005c0b0 f   OpensslLib:ecx_meth.obj
 0001:0005be1c       ecx_pub_cmp                000000000005c0dc f   OpensslLib:ecx_meth.obj
 0001:0005be8c       ecx_priv_decode            000000000005c14c f   OpensslLib:ecx_meth.obj
 0001:0005bf20       ecx_priv_encode            000000000005c1e0 f   OpensslLib:ecx_meth.obj
 0001:0005c06c       ecx_size                   000000000005c32c f   OpensslLib:ecx_meth.obj
 0001:0005c098       ecx_bits                   000000000005c358 f   OpensslLib:ecx_meth.obj
 0001:0005c0c8       ecx_security_bits          000000000005c388 f   OpensslLib:ecx_meth.obj
 0001:0005c0e8       ecx_free                   000000000005c3a8 f   OpensslLib:ecx_meth.obj
 0001:0005c160       ecx_key_print              000000000005c420 f   OpensslLib:ecx_meth.obj
 0001:0005c2fc       ecx_priv_print             000000000005c5bc f   OpensslLib:ecx_meth.obj
 0001:0005c314       ecx_pub_print              000000000005c5d4 f   OpensslLib:ecx_meth.obj
 0001:0005c328       ecx_ctrl                   000000000005c5e8 f   OpensslLib:ecx_meth.obj
 0001:0005c3f0       ecd_ctrl                   000000000005c6b0 f   OpensslLib:ecx_meth.obj
 0001:0005c408       ecx_set_priv_key           000000000005c6c8 f   OpensslLib:ecx_meth.obj
 0001:0005c430       ecx_set_pub_key            000000000005c6f0 f   OpensslLib:ecx_meth.obj
 0001:0005c454       ecx_get_priv_key           000000000005c714 f   OpensslLib:ecx_meth.obj
 0001:0005c530       ecx_get_pub_key            000000000005c7f0 f   OpensslLib:ecx_meth.obj
 0001:0005c604       ecd_size25519              000000000005c8c4 f   OpensslLib:ecx_meth.obj
 0001:0005c604       hmac_size                  000000000005c8c4 f   OpensslLib:hm_ameth.obj
 0001:0005c60c       ecd_size448                000000000005c8cc f   OpensslLib:ecx_meth.obj
 0001:0005c614       ecd_item_verify            000000000005c8d4 f   OpensslLib:ecx_meth.obj
 0001:0005c690       ecd_item_sign25519         000000000005c950 f   OpensslLib:ecx_meth.obj
 0001:0005c6e8       ecd_sig_info_set25519      000000000005c9a8 f   OpensslLib:ecx_meth.obj
 0001:0005c708       ecd_item_sign448           000000000005c9c8 f   OpensslLib:ecx_meth.obj
 0001:0005c760       ecd_sig_info_set448        000000000005ca20 f   OpensslLib:ecx_meth.obj
 0001:0005c780       pkey_ecx_keygen            000000000005ca40 f   OpensslLib:ecx_meth.obj
 0001:0005c7ac       validate_ecx_derive        000000000005ca6c f   OpensslLib:ecx_meth.obj
 0001:0005c81c       pkey_ecx_derive25519       000000000005cadc f   OpensslLib:ecx_meth.obj
 0001:0005c8a4       pkey_ecx_derive448         000000000005cb64 f   OpensslLib:ecx_meth.obj
 0001:0005c904       pkey_ecx_ctrl              000000000005cbc4 f   OpensslLib:ecx_meth.obj
 0001:0005c914       pkey_ecd_digestsign25519   000000000005cbd4 f   OpensslLib:ecx_meth.obj
 0001:0005c980       pkey_ecd_digestsign448     000000000005cc40 f   OpensslLib:ecx_meth.obj
 0001:0005c9ec       pkey_ecd_digestverify25519 000000000005ccac f   OpensslLib:ecx_meth.obj
 0001:0005ca14       pkey_ecd_digestverify448   000000000005ccd4 f   OpensslLib:ecx_meth.obj
 0001:0005ca54       pkey_ecd_ctrl              000000000005cd14 f   OpensslLib:ecx_meth.obj
 0001:0005ca9c       eckey_param2type           000000000005cd5c f   OpensslLib:ec_ameth.obj
 0001:0005cb80       eckey_pub_encode           000000000005ce40 f   OpensslLib:ec_ameth.obj
 0001:0005cd34       eckey_pub_decode           000000000005cff4 f   OpensslLib:ec_ameth.obj
 0001:0005cebc       eckey_pub_cmp              000000000005d17c f   OpensslLib:ec_ameth.obj
 0001:0005cf0c       eckey_priv_decode          000000000005d1cc f   OpensslLib:ec_ameth.obj
 0001:0005d088       eckey_priv_encode          000000000005d348 f   OpensslLib:ec_ameth.obj
 0001:0005d1b0       int_ec_size                000000000005d470 f   OpensslLib:ec_ameth.obj
 0001:0005d1bc       ec_bits                    000000000005d47c f   OpensslLib:ec_ameth.obj
 0001:0005d1cc       ec_security_bits           000000000005d48c f   OpensslLib:ec_ameth.obj
 0001:0005d230       ec_missing_parameters      000000000005d4f0 f   OpensslLib:ec_ameth.obj
 0001:0005d24c       ec_copy_parameters         000000000005d50c f   OpensslLib:ec_ameth.obj
 0001:0005d2bc       ec_cmp_parameters          000000000005d57c f   OpensslLib:ec_ameth.obj
 0001:0005d2f8       int_ec_free                000000000005d5b8 f   OpensslLib:ec_ameth.obj
 0001:0005d304       do_EC_KEY_print            000000000005d5c4 f   OpensslLib:ec_ameth.obj
 0001:0005d580       eckey_param_decode         000000000005d840 f   OpensslLib:ec_ameth.obj
 0001:0005d5c4       eckey_param_encode         000000000005d884 f   OpensslLib:ec_ameth.obj
 0001:0005d5fc       eckey_param_print          000000000005d8bc f   OpensslLib:ec_ameth.obj
 0001:0005d60c       eckey_pub_print            000000000005d8cc f   OpensslLib:ec_ameth.obj
 0001:0005d61c       eckey_priv_print           000000000005d8dc f   OpensslLib:ec_ameth.obj
 0001:0005d628       old_ec_priv_decode         000000000005d8e8 f   OpensslLib:ec_ameth.obj
 0001:0005d670       old_ec_priv_encode         000000000005d930 f   OpensslLib:ec_ameth.obj
 0001:0005d67c       ec_pkey_ctrl               000000000005d93c f   OpensslLib:ec_ameth.obj
 0001:0005d784       ec_pkey_check              000000000005da44 f   OpensslLib:ec_ameth.obj
 0001:0005d7b8       ec_pkey_public_check       000000000005da78 f   OpensslLib:ec_ameth.obj
 0001:0005d7c4       ec_pkey_param_check        000000000005da84 f   OpensslLib:ec_ameth.obj
 0001:0005d7f8       siphash_size               000000000005dab8 f   OpensslLib:siphash_ameth.obj
 0001:0005d800       hmac_key_free              000000000005dac0 f   OpensslLib:hm_ameth.obj
 0001:0005d800       siphash_key_free           000000000005dac0 f   OpensslLib:siphash_ameth.obj
 0001:0005d834       dh_pkey_ctrl               000000000005daf4 f   OpensslLib:dh_ameth.obj
 0001:0005d834       siphash_pkey_ctrl          000000000005daf4 f   OpensslLib:siphash_ameth.obj
 0001:0005d83c       hmac_pkey_public_cmp       000000000005dafc f   OpensslLib:hm_ameth.obj
 0001:0005d83c       siphash_pkey_public_cmp    000000000005dafc f   OpensslLib:siphash_ameth.obj
 0001:0005d84c       siphash_set_priv_key       000000000005db0c f   OpensslLib:siphash_ameth.obj
 0001:0005d8bc       siphash_get_priv_key       000000000005db7c f   OpensslLib:siphash_ameth.obj
 0001:0005d90c       hmac_pkey_ctrl             000000000005dbcc f   OpensslLib:hm_ameth.obj
 0001:0005d924       hmac_set_priv_key          000000000005dbe4 f   OpensslLib:hm_ameth.obj
 0001:0005d998       hmac_get_priv_key          000000000005dc58 f   OpensslLib:hm_ameth.obj
 0001:0005d9e0       rsa_param_encode           000000000005dca0 f   OpensslLib:rsa_ameth.obj
 0001:0005da38       rsa_param_decode           000000000005dcf8 f   OpensslLib:rsa_ameth.obj
 0001:0005dab4       rsa_pub_encode             000000000005dd74 f   OpensslLib:rsa_ameth.obj
 0001:0005dbac       rsa_pub_decode             000000000005de6c f   OpensslLib:rsa_ameth.obj
 0001:0005dc44       rsa_pub_cmp                000000000005df04 f   OpensslLib:rsa_ameth.obj
 0001:0005dcac       old_rsa_priv_decode        000000000005df6c f   OpensslLib:rsa_ameth.obj
 0001:0005dcf8       old_rsa_priv_encode        000000000005dfb8 f   OpensslLib:rsa_ameth.obj
 0001:0005dd08       rsa_priv_encode            000000000005dfc8 f   OpensslLib:rsa_ameth.obj
 0001:0005dddc       rsa_priv_decode            000000000005e09c f   OpensslLib:rsa_ameth.obj
 0001:0005de70       int_rsa_size               000000000005e130 f   OpensslLib:rsa_ameth.obj
 0001:0005de94       rsa_bits                   000000000005e154 f   OpensslLib:rsa_ameth.obj
 0001:0005dea4       rsa_security_bits          000000000005e164 f   OpensslLib:rsa_ameth.obj
 0001:0005df60       int_rsa_free               000000000005e220 f   OpensslLib:rsa_ameth.obj
 0001:0005df6c       rsa_pss_param_print        000000000005e22c f   OpensslLib:rsa_ameth.obj
 0001:0005e250       pkey_rsa_print             000000000005e510 f   OpensslLib:rsa_ameth.obj
 0001:0005e5b8       rsa_pub_print              000000000005e878 f   OpensslLib:rsa_ameth.obj
 0001:0005e5c0       rsa_priv_print             000000000005e880 f   OpensslLib:rsa_ameth.obj
 0001:0005e5cc       rsa_pss_decode             000000000005e88c f   OpensslLib:rsa_ameth.obj
 0001:0005e650       rsa_sig_print              000000000005e910 f   OpensslLib:rsa_ameth.obj
 0001:0005e700       rsa_pkey_ctrl              000000000005e9c0 f   OpensslLib:rsa_ameth.obj
 0001:0005e7f4       rsa_md_to_algor            000000000005eab4 f   OpensslLib:rsa_ameth.obj
 0001:0005e864       rsa_md_to_mgf1             000000000005eb24 f   OpensslLib:rsa_ameth.obj
 0001:0005ea6c       rsa_ctx_to_pss_string      000000000005ed2c f   OpensslLib:rsa_ameth.obj
 0001:0005ec08       rsa_pss_to_ctx             000000000005eec8 f   OpensslLib:rsa_ameth.obj
 0001:0005eff0       rsa_item_verify            000000000005f2b0 f   OpensslLib:rsa_ameth.obj
 0001:0005f050       rsa_item_sign              000000000005f310 f   OpensslLib:rsa_ameth.obj
 0001:0005f120       rsa_sig_info_set           000000000005f3e0 f   OpensslLib:rsa_ameth.obj
 0001:0005f1f4       rsa_pkey_check             000000000005f4b4 f   OpensslLib:rsa_ameth.obj
 0001:0005f200       int_dh_free                000000000005f4c0 f   OpensslLib:dh_ameth.obj
 0001:0005f20c       dh_pub_decode              000000000005f4cc f   OpensslLib:dh_ameth.obj
 0001:0005f3dc       dh_pub_encode              000000000005f69c f   OpensslLib:dh_ameth.obj
 0001:0005f54c       dh_priv_decode             000000000005f80c f   OpensslLib:dh_ameth.obj
 0001:0005f748       dh_priv_encode             000000000005fa08 f   OpensslLib:dh_ameth.obj
 0001:0005f894       dh_param_decode            000000000005fb54 f   OpensslLib:dh_ameth.obj
 0001:0005f8f4       dh_param_encode            000000000005fbb4 f   OpensslLib:dh_ameth.obj
 0001:0005f918       do_dh_print                000000000005fbd8 f   OpensslLib:dh_ameth.obj
 0001:0005fc0c       int_dh_size                000000000005fecc f   OpensslLib:dh_ameth.obj
 0001:0005fc30       dh_bits                    000000000005fef0 f   OpensslLib:dh_ameth.obj
 0001:0005fc40       dh_security_bits           000000000005ff00 f   OpensslLib:dh_ameth.obj
 0001:0005fc88       dh_cmp_parameters          000000000005ff48 f   OpensslLib:dh_ameth.obj
 0001:0005fcfc       int_dh_bn_cpy              000000000005ffbc f   OpensslLib:dh_ameth.obj
 0001:0005fd48       int_dh_param_copy          0000000000060008 f   OpensslLib:dh_ameth.obj
 0001:0005fe0c       dh_copy_parameters         00000000000600cc f   OpensslLib:dh_ameth.obj
 0001:0005fe68       dh_missing_parameters      0000000000060128 f   OpensslLib:dh_ameth.obj
 0001:0005fe88       dh_pub_cmp                 0000000000060148 f   OpensslLib:dh_ameth.obj
 0001:0005fed0       dh_param_print             0000000000060190 f   OpensslLib:dh_ameth.obj
 0001:0005fedc       dh_public_print            000000000006019c f   OpensslLib:dh_ameth.obj
 0001:0005feec       dh_private_print           00000000000601ac f   OpensslLib:dh_ameth.obj
 0001:0005fefc       dh_pkey_public_check       00000000000601bc f   OpensslLib:dh_ameth.obj
 0001:0005ff8c       dh_pkey_param_check        000000000006024c f   OpensslLib:dh_ameth.obj
 0001:00060068       uint64_new                 0000000000060328 f   OpensslLib:x_int64.obj
 0001:000600a4       uint32_free                0000000000060364 f   OpensslLib:x_int64.obj
 0001:000600a4       uint64_free                0000000000060364 f   OpensslLib:x_int64.obj
 0001:000600c0       uint64_clear               0000000000060380 f   OpensslLib:x_int64.obj
 0001:000600c8       uint64_i2c                 0000000000060388 f   OpensslLib:x_int64.obj
 0001:0006015c       uint64_c2i                 000000000006041c f   OpensslLib:x_int64.obj
 0001:00060220       uint64_print               00000000000604e0 f   OpensslLib:x_int64.obj
 0001:00060240       uint32_new                 0000000000060500 f   OpensslLib:x_int64.obj
 0001:0006027c       uint32_clear               000000000006053c f   OpensslLib:x_int64.obj
 0001:00060284       uint32_i2c                 0000000000060544 f   OpensslLib:x_int64.obj
 0001:0006031c       uint32_c2i                 00000000000605dc f   OpensslLib:x_int64.obj
 0001:00060408       uint32_print               00000000000606c8 f   OpensslLib:x_int64.obj
 0001:000605fc       evp_decodeblock_int        00000000000608bc f   OpensslLib:encode.obj
 0001:00060d60       use_ecc                    0000000000061020 f   OpensslLib:extensions_clnt.obj
 0001:00061b44       add_key_share              0000000000061e04 f   OpensslLib:extensions_clnt.obj
 0001:00063914       PACKET_as_length_prefixed_1 0000000000063bd4 f   OpensslLib:extensions_srvr.obj
 0001:000669fc       BN_STACK_push              0000000000066cbc f   OpensslLib:bn_ctx.obj
 0001:00066aac       BN_POOL_get                0000000000066d6c f   OpensslLib:bn_ctx.obj
 0001:000671ec       bnrand                     00000000000674ac f   OpensslLib:bn_rand.obj
 0001:00067378       bnrand_range               0000000000067638 f   OpensslLib:bn_rand.obj
 0001:00067a10       pkey_cb                    0000000000067cd0 f   OpensslLib:p8_pkey.obj
 0001:00067bc0       ec_asn1_group2fieldid      0000000000067e80 f   OpensslLib:ec_asn1.obj
 0001:00067cf0       ec_asn1_group2curve        0000000000067fb0 f   OpensslLib:ec_asn1.obj
 0001:00068f14       dh_cb                      00000000000691d4 f   OpensslLib:dh_asn1.obj
 0001:0006938c       rsa_ossl_public_encrypt    000000000006964c f   OpensslLib:rsa_ossl.obj
 0001:0006962c       rsa_get_blinding           00000000000698ec f   OpensslLib:rsa_ossl.obj
 0001:000696a4       rsa_ossl_private_encrypt   0000000000069964 f   OpensslLib:rsa_ossl.obj
 0001:00069ae8       rsa_ossl_private_decrypt   0000000000069da8 f   OpensslLib:rsa_ossl.obj
 0001:00069eac       rsa_ossl_public_decrypt    000000000006a16c f   OpensslLib:rsa_ossl.obj
 0001:0006a1c8       rsa_ossl_mod_exp           000000000006a488 f   OpensslLib:rsa_ossl.obj
 0001:0006acb8       rsa_ossl_init              000000000006af78 f   OpensslLib:rsa_ossl.obj
 0001:0006acc4       rsa_ossl_finish            000000000006af84 f   OpensslLib:rsa_ossl.obj
 0001:0006b2b4       bn_new                     000000000006b574 f   OpensslLib:x_bignum.obj
 0001:0006b2d8       bn_secure_new              000000000006b598 f   OpensslLib:x_bignum.obj
 0001:0006b304       bn_free                    000000000006b5c4 f   OpensslLib:x_bignum.obj
 0001:0006b334       bn_i2c                     000000000006b5f4 f   OpensslLib:x_bignum.obj
 0001:0006b3ac       bn_c2i                     000000000006b66c f   OpensslLib:x_bignum.obj
 0001:0006b414       bn_secure_c2i              000000000006b6d4 f   OpensslLib:x_bignum.obj
 0001:0006b4a0       bn_print                   000000000006b760 f   OpensslLib:x_bignum.obj
 0001:0006bd2c       v2i_issuer_alt             000000000006bfec f   OpensslLib:v3_alt.obj
 0001:0006be54       copy_issuer                000000000006c114 f   OpensslLib:v3_alt.obj
 0001:0006bfb0       v2i_subject_alt            000000000006c270 f   OpensslLib:v3_alt.obj
 0001:0006c110       copy_email                 000000000006c3d0 f   OpensslLib:v3_alt.obj
 0001:0006c698       do_othername               000000000006c958 f   OpensslLib:v3_alt.obj
 0001:0006c758       do_dirname                 000000000006ca18 f   OpensslLib:v3_alt.obj
 0001:0006c860       i2v_POLICY_CONSTRAINTS     000000000006cb20 f   OpensslLib:v3_pcons.obj
 0001:0006c8a4       v2i_POLICY_CONSTRAINTS     000000000006cb64 f   OpensslLib:v3_pcons.obj
 0001:0006cb84       r2i_certpol                000000000006ce44 f   OpensslLib:v3_cpols.obj
 0001:0006cdcc       policy_section             000000000006d08c f   OpensslLib:v3_cpols.obj
 0001:0006d094       displaytext_str2tag        000000000006d354 f   OpensslLib:v3_cpols.obj
 0001:0006d16c       notice_section             000000000006d42c f   OpensslLib:v3_cpols.obj
 0001:0006d53c       i2r_certpol                000000000006d7fc f   OpensslLib:v3_cpols.obj
 0001:0006d5e0       print_qualifiers           000000000006d8a0 f   OpensslLib:v3_cpols.obj
 0001:0006e0e0       pkey_dh_init               000000000006e3a0 f   OpensslLib:dh_pmeth.obj
 0001:0006e13c       pkey_dh_cleanup            000000000006e3fc f   OpensslLib:dh_pmeth.obj
 0001:0006e16c       pkey_dh_copy               000000000006e42c f   OpensslLib:dh_pmeth.obj
 0001:0006e220       pkey_dh_ctrl               000000000006e4e0 f   OpensslLib:dh_pmeth.obj
 0001:0006e3d0       pkey_dh_ctrl_str           000000000006e690 f   OpensslLib:dh_pmeth.obj
 0001:0006e570       pkey_dh_paramgen           000000000006e830 f   OpensslLib:dh_pmeth.obj
 0001:0006e794       pkey_dh_keygen             000000000006ea54 f   OpensslLib:dh_pmeth.obj
 0001:0006e820       pkey_dh_derive             000000000006eae0 f   OpensslLib:dh_pmeth.obj
 0001:0006e9ac       pkey_cmac_init             000000000006ec6c f   OpensslLib:cm_pmeth.obj
 0001:0006e9d4       pkey_cmac_copy             000000000006ec94 f   OpensslLib:cm_pmeth.obj
 0001:0006ea14       pkey_cmac_keygen           000000000006ecd4 f   OpensslLib:cm_pmeth.obj
 0001:0006ea7c       int_update                 000000000006ed3c f   OpensslLib:cm_pmeth.obj
 0001:0006eb70       cmac_signctx_init          000000000006ee30 f   OpensslLib:cm_pmeth.obj
 0001:0006eb88       cmac_signctx               000000000006ee48 f   OpensslLib:cm_pmeth.obj
 0001:0006ec98       pkey_cmac_ctrl             000000000006ef58 f   OpensslLib:cm_pmeth.obj
 0001:0006ed24       pkey_cmac_ctrl_str         000000000006efe4 f   OpensslLib:cm_pmeth.obj
 0001:0006edf4       pkey_rsa_init              000000000006f0b4 f   OpensslLib:rsa_pmeth.obj
 0001:0006ee58       pkey_rsa_copy              000000000006f118 f   OpensslLib:rsa_pmeth.obj
 0001:0006eeec       setup_tbuf                 000000000006f1ac f   OpensslLib:rsa_pmeth.obj
 0001:0006ef58       pkey_rsa_cleanup           000000000006f218 f   OpensslLib:rsa_pmeth.obj
 0001:0006ef90       pkey_rsa_sign              000000000006f250 f   OpensslLib:rsa_pmeth.obj
 0001:0006f1a0       pkey_rsa_verifyrecover     000000000006f460 f   OpensslLib:rsa_pmeth.obj
 0001:0006f334       pkey_rsa_verify            000000000006f5f4 f   OpensslLib:rsa_pmeth.obj
 0001:0006f4e0       pkey_rsa_encrypt           000000000006f7a0 f   OpensslLib:rsa_pmeth.obj
 0001:0006f5e4       pkey_rsa_decrypt           000000000006f8a4 f   OpensslLib:rsa_pmeth.obj
 0001:0006f724       check_padding_md           000000000006f9e4 f   OpensslLib:rsa_pmeth.obj
 0001:0006f7dc       pkey_rsa_ctrl              000000000006fa9c f   OpensslLib:rsa_pmeth.obj
 0001:0006fb6c       pkey_rsa_ctrl_str          000000000006fe2c f   OpensslLib:rsa_pmeth.obj
 0001:0007001c       pkey_rsa_keygen            00000000000702dc f   OpensslLib:rsa_pmeth.obj
 0001:000701c0       pkey_pss_init              0000000000070480 f   OpensslLib:rsa_pmeth.obj
 0001:000702ac       pkey_tls1_prf_init         000000000007056c f   OpensslLib:tls1_prf.obj
 0001:000702e8       pkey_tls1_prf_cleanup      00000000000705a8 f   OpensslLib:tls1_prf.obj
 0001:00070348       pkey_tls1_prf_ctrl         0000000000070608 f   OpensslLib:tls1_prf.obj
 0001:0007045c       pkey_tls1_prf_ctrl_str     000000000007071c f   OpensslLib:tls1_prf.obj
 0001:00070570       pkey_tls1_prf_derive       0000000000070830 f   OpensslLib:tls1_prf.obj
 0001:000705e4       tls1_prf_P_hash            00000000000708a4 f   OpensslLib:tls1_prf.obj
 0001:0007085c       tls1_prf_alg               0000000000070b1c f   OpensslLib:tls1_prf.obj
 0001:000709dc       pkey_hkdf_init             0000000000070c9c f   OpensslLib:hkdf.obj
 0001:00070a18       pkey_hkdf_cleanup          0000000000070cd8 f   OpensslLib:hkdf.obj
 0001:00070aa0       pkey_hkdf_ctrl             0000000000070d60 f   OpensslLib:hkdf.obj
 0001:00070c08       pkey_hkdf_ctrl_str         0000000000070ec8 f   OpensslLib:hkdf.obj
 0001:00070db4       pkey_hkdf_derive_init      0000000000071074 f   OpensslLib:hkdf.obj
 0001:00070e48       pkey_hkdf_derive           0000000000071108 f   OpensslLib:hkdf.obj
 0001:00070fc8       HKDF_Extract               0000000000071288 f   OpensslLib:hkdf.obj
 0001:000710b0       HKDF_Expand                0000000000071370 f   OpensslLib:hkdf.obj
 0001:00071298       pkey_sm2_init              0000000000071558 f   OpensslLib:sm2_pmeth.obj
 0001:000712d4       pkey_sm2_cleanup           0000000000071594 f   OpensslLib:sm2_pmeth.obj
 0001:00071314       pkey_sm2_copy              00000000000715d4 f   OpensslLib:sm2_pmeth.obj
 0001:000713d0       pkey_sm2_sign              0000000000071690 f   OpensslLib:sm2_pmeth.obj
 0001:00071464       pkey_sm2_verify            0000000000071724 f   OpensslLib:sm2_pmeth.obj
 0001:000715b8       pkey_sm2_encrypt           0000000000071878 f   OpensslLib:sm2_pmeth.obj
 0001:000716a8       pkey_sm2_decrypt           0000000000071968 f   OpensslLib:sm2_pmeth.obj
 0001:00071780       pkey_sm2_ctrl              0000000000071a40 f   OpensslLib:sm2_pmeth.obj
 0001:000718cc       pkey_sm2_ctrl_str          0000000000071b8c f   OpensslLib:sm2_pmeth.obj
 0001:000719b0       pkey_sm2_digest_custom     0000000000071c70 f   OpensslLib:sm2_pmeth.obj
 0001:00071a80       pkey_siphash_init          0000000000071d40 f   OpensslLib:siphash_pmeth.obj
 0001:00071acc       pkey_siphash_cleanup       0000000000071d8c f   OpensslLib:siphash_pmeth.obj
 0001:00071b40       pkey_siphash_copy          0000000000071e00 f   OpensslLib:siphash_pmeth.obj
 0001:00071bb4       pkey_siphash_keygen        0000000000071e74 f   OpensslLib:siphash_pmeth.obj
 0001:00071bf0       int_update                 0000000000071eb0 f   OpensslLib:siphash_pmeth.obj
 0001:00071c10       siphash_signctx_init       0000000000071ed0 f   OpensslLib:siphash_pmeth.obj
 0001:00071c70       siphash_signctx            0000000000071f30 f   OpensslLib:siphash_pmeth.obj
 0001:00071c94       pkey_siphash_ctrl          0000000000071f54 f   OpensslLib:siphash_pmeth.obj
 0001:00071d90       pkey_siphash_ctrl_str      0000000000072050 f   OpensslLib:siphash_pmeth.obj
 0001:00071e48       pkey_ec_init               0000000000072108 f   OpensslLib:ec_pmeth.obj
 0001:00071e8c       pkey_ec_copy               000000000007214c f   OpensslLib:ec_pmeth.obj
 0001:00071f34       pkey_ec_cleanup            00000000000721f4 f   OpensslLib:ec_pmeth.obj
 0001:00071f7c       pkey_ec_sign               000000000007223c f   OpensslLib:ec_pmeth.obj
 0001:00072050       pkey_ec_verify             0000000000072310 f   OpensslLib:ec_pmeth.obj
 0001:000720bc       pkey_ec_derive             000000000007237c f   OpensslLib:ec_pmeth.obj
 0001:00072178       pkey_ec_kdf_derive         0000000000072438 f   OpensslLib:ec_pmeth.obj
 0001:00072290       pkey_ec_ctrl               0000000000072550 f   OpensslLib:ec_pmeth.obj
 0001:000724f4       pkey_ec_ctrl_str           00000000000727b4 f   OpensslLib:ec_pmeth.obj
 0001:00072664       pkey_ec_paramgen           0000000000072924 f   OpensslLib:ec_pmeth.obj
 0001:000726e8       pkey_ec_keygen             00000000000729a8 f   OpensslLib:ec_pmeth.obj
 0001:000727d4       pkey_hmac_init             0000000000072a94 f   OpensslLib:hm_pmeth.obj
 0001:00072840       pkey_hmac_copy             0000000000072b00 f   OpensslLib:hm_pmeth.obj
 0001:000728b8       pkey_hmac_cleanup          0000000000072b78 f   OpensslLib:hm_pmeth.obj
 0001:00072924       pkey_hmac_keygen           0000000000072be4 f   OpensslLib:hm_pmeth.obj
 0001:00072968       int_update                 0000000000072c28 f   OpensslLib:hm_pmeth.obj
 0001:000729a0       hmac_signctx_init          0000000000072c60 f   OpensslLib:hm_pmeth.obj
 0001:000729e0       hmac_signctx               0000000000072ca0 f   OpensslLib:hm_pmeth.obj
 0001:00072a4c       pkey_hmac_ctrl             0000000000072d0c f   OpensslLib:hm_pmeth.obj
 0001:00072abc       pkey_hmac_ctrl_str         0000000000072d7c f   OpensslLib:hm_pmeth.obj
 0001:00072b38       tls1_md5_final_raw         0000000000072df8 f   OpensslLib:s3_cbc.obj
 0001:00072bc8       tls1_sha1_final_raw        0000000000072e88 f   OpensslLib:s3_cbc.obj
 0001:00072c6c       tls1_sha256_final_raw      0000000000072f2c f   OpensslLib:s3_cbc.obj
 0001:00072c9c       tls1_sha512_final_raw      0000000000072f5c f   OpensslLib:s3_cbc.obj
 0001:00073428       bn_from_montgomery_word    00000000000736e8 f   OpensslLib:bn_mont.obj
 0001:00075b94       bn_get_bits                0000000000075e54 f   OpensslLib:bn_exp.obj
 0001:00075bec       MOD_EXP_CTIME_COPY_TO_PREBUF 0000000000075eac f   OpensslLib:bn_exp.obj
 0001:00075c44       MOD_EXP_CTIME_COPY_FROM_PREBUF 0000000000075f04 f   OpensslLib:bn_exp.obj
 0001:00076a08       bn_mod_inverse_no_branch   0000000000076cc8 f   OpensslLib:bn_gcd.obj
 0001:000778cc       generate_key               0000000000077b8c f   OpensslLib:dh_key.obj
 0001:00077b24       compute_key                0000000000077de4 f   OpensslLib:dh_key.obj
 0001:00077c90       dh_bn_mod_exp              0000000000077f50 f   OpensslLib:dh_key.obj
 0001:00077ccc       dh_init                    0000000000077f8c f   OpensslLib:dh_key.obj
 0001:00077cd8       dh_finish                  0000000000077f98 f   OpensslLib:dh_key.obj
 0001:00077e70       julian_adj                 0000000000078130 f   OpensslLib:o_time.obj
 0001:00077f8c       julian_to_date             000000000007824c f   OpensslLib:o_time.obj
 0001:00078094       ctr_XOR                    0000000000078354 f   OpensslLib:drbg_ctr.obj
 0001:00078114       ctr_BCC_block              00000000000783d4 f   OpensslLib:drbg_ctr.obj
 0001:00078180       ctr_BCC_blocks             0000000000078440 f   OpensslLib:drbg_ctr.obj
 0001:000781fc       ctr_BCC_update             00000000000784bc f   OpensslLib:drbg_ctr.obj
 0001:000782c0       ctr_df                     0000000000078580 f   OpensslLib:drbg_ctr.obj
 0001:00078524       ctr_update                 00000000000787e4 f   OpensslLib:drbg_ctr.obj
 0001:00078718       drbg_ctr_instantiate       00000000000789d8 f   OpensslLib:drbg_ctr.obj
 0001:00078810       drbg_ctr_reseed            0000000000078ad0 f   OpensslLib:drbg_ctr.obj
 0001:0007887c       drbg_ctr_generate          0000000000078b3c f   OpensslLib:drbg_ctr.obj
 0001:00078ae8       drbg_ctr_uninstantiate     0000000000078da8 f   OpensslLib:drbg_ctr.obj
 0001:00079688       traverse_string            0000000000079948 f   OpensslLib:a_mbstr.obj
 0001:00079780       in_utf8                    0000000000079a40 f   OpensslLib:a_mbstr.obj
 0001:00079788       out_utf8                   0000000000079a48 f   OpensslLib:a_mbstr.obj
 0001:000797ac       type_str                   0000000000079a6c f   OpensslLib:a_mbstr.obj
 0001:00079850       cpy_asc                    0000000000079b10 f   OpensslLib:a_mbstr.obj
 0001:00079860       cpy_bmp                    0000000000079b20 f   OpensslLib:a_mbstr.obj
 0001:0007987c       cpy_univ                   0000000000079b3c f   OpensslLib:a_mbstr.obj
 0001:000798ac       cpy_utf8                   0000000000079b6c f   OpensslLib:a_mbstr.obj
 0001:0007a6d8       sm4_init_key               000000000007a998 f   OpensslLib:e_sm4.obj
 0001:0007a6f8       sm4_cbc_cipher             000000000007a9b8 f   OpensslLib:e_sm4.obj
 0001:0007a800       sm4_cfb128_cipher          000000000007aac0 f   OpensslLib:e_sm4.obj
 0001:0007a8b0       sm4_ecb_cipher             000000000007ab70 f   OpensslLib:e_sm4.obj
 0001:0007a934       sm4_ofb_cipher             000000000007abf4 f   OpensslLib:e_sm4.obj
 0001:0007aa34       sm4_ctr_cipher             000000000007acf4 f   OpensslLib:e_sm4.obj
 0001:0007aa9c       init                       000000000007ad5c f   OpensslLib:m_sha3.obj
 0001:0007ab1c       sha3_init                  000000000007addc f   OpensslLib:m_sha3.obj
 0001:0007ab24       shake_init                 000000000007ade4 f   OpensslLib:m_sha3.obj
 0001:0007ab2c       sha3_update                000000000007adec f   OpensslLib:m_sha3.obj
 0001:0007ac24       sha3_final                 000000000007aee4 f   OpensslLib:m_sha3.obj
 0001:0007acc8       shake_ctrl                 000000000007af88 f   OpensslLib:m_sha3.obj
 0001:0007ace8       init                       000000000007afa8 f   OpensslLib:m_sm3.obj
 0001:0007ad44       update                     000000000007b004 f   OpensslLib:m_sm3.obj
 0001:0007ae58       final                      000000000007b118 f   OpensslLib:m_sm3.obj
 0001:0007af70       st_free                    000000000007b230 f   OpensslLib:a_strnid.obj
 0001:0007b060       node_cmp                   000000000007b320 f   OpensslLib:pcy_node.obj
 0001:0007b1bc       oneshot_hash               000000000007b47c f   OpensslLib:eddsa.obj
 0001:0007b260       hash_init_with_dom         000000000007b520 f   OpensslLib:eddsa.obj
 0001:0007b978       fe_frombytes               000000000007bc38 f   OpensslLib:curve25519.obj
 0001:0007bc30       fe_tobytes                 000000000007bef0 f   OpensslLib:curve25519.obj
 0001:0007bea0       fe_mul                     000000000007c160 f   OpensslLib:curve25519.obj
 0001:0007c758       fe_sq                      000000000007ca18 f   OpensslLib:curve25519.obj
 0001:0007cce4       fe_invert                  000000000007cfa4 f   OpensslLib:curve25519.obj
 0001:0007cf24       fe_sq2                     000000000007d1e4 f   OpensslLib:curve25519.obj
 0001:0007d494       fe_pow22523                000000000007d754 f   OpensslLib:curve25519.obj
 0001:0007d6d8       ge_p3_tobytes              000000000007d998 f   OpensslLib:curve25519.obj
 0001:0007d758       ge_frombytes_vartime       000000000007da18 f   OpensslLib:curve25519.obj
 0001:0007d9b0       ge_p3_to_cached            000000000007dc70 f   OpensslLib:curve25519.obj
 0001:0007da30       ge_p1p1_to_p2              000000000007dcf0 f   OpensslLib:curve25519.obj
 0001:0007da8c       ge_p1p1_to_p3              000000000007dd4c f   OpensslLib:curve25519.obj
 0001:0007db00       ge_p2_dbl                  000000000007ddc0 f   OpensslLib:curve25519.obj
 0001:0007dbec       ge_p3_dbl                  000000000007deac f   OpensslLib:curve25519.obj
 0001:0007dc5c       ge_madd                    000000000007df1c f   OpensslLib:curve25519.obj
 0001:0007dd9c       ge_add                     000000000007e05c f   OpensslLib:curve25519.obj
 0001:0007def0       cmov                       000000000007e1b0 f   OpensslLib:curve25519.obj
 0001:0007df70       table_select               000000000007e230 f   OpensslLib:curve25519.obj
 0001:0007e168       ge_scalarmult_base         000000000007e428 f   OpensslLib:curve25519.obj
 0001:0007e354       x25519_scalar_mult_generic 000000000007e614 f   OpensslLib:curve25519.obj
 0001:0007e818       slide                      000000000007ead8 f   OpensslLib:curve25519.obj
 0001:0007e918       ge_double_scalarmult_vartime 000000000007ebd8 f   OpensslLib:curve25519.obj
 0001:0007ee80       x25519_sc_reduce           000000000007f140 f   OpensslLib:curve25519.obj
 0001:0007fcb8       sc_muladd                  000000000007ff78 f   OpensslLib:curve25519.obj
 0001:000820a0       gf_bias                    0000000000082360 f   OpensslLib:curve448.obj
 0001:00082100       gf_weak_reduce             00000000000823c0 f   OpensslLib:curve448.obj
 0001:00082100       gf_weak_reduce             00000000000823c0 f   OpensslLib:f_generic.obj
 0001:0008214c       gf_sub_nr                  000000000008240c f   OpensslLib:curve448.obj
 0001:00082190       gf_cond_neg                0000000000082450 f   OpensslLib:curve448.obj
 0001:00082208       gf_invert                  00000000000824c8 f   OpensslLib:curve448.obj
 0001:00082294       point_double_internal      0000000000082554 f   OpensslLib:curve448.obj
 0001:00082460       pt_to_pniels               0000000000082720 f   OpensslLib:curve448.obj
 0001:000824e0       pniels_to_pt               00000000000827a0 f   OpensslLib:curve448.obj
 0001:00082580       niels_to_pt                0000000000082840 f   OpensslLib:curve448.obj
 0001:0008261c       add_niels_to_pt            00000000000828dc f   OpensslLib:curve448.obj
 0001:00082790       sub_niels_from_pt          0000000000082a50 f   OpensslLib:curve448.obj
 0001:000828f8       add_pniels_to_pt           0000000000082bb8 f   OpensslLib:curve448.obj
 0001:00083584       recode_wnaf                0000000000083844 f   OpensslLib:curve448.obj
 0001:000843c0       print_bin                  0000000000084680 f   OpensslLib:eck_prn.obj
 0001:00085054       free_string                0000000000085314 f   OpensslLib:ui_lib.obj
 0001:0008509c       general_allocate_string    000000000008535c f   OpensslLib:ui_lib.obj
 0001:0008519c       print_error                000000000008545c f   OpensslLib:ui_lib.obj
 0001:00085c68       ecdsa_sign_setup           0000000000085f28 f   OpensslLib:ecdsa_ossl.obj
 0001:000883f0       generate_v3                00000000000886b0 f   OpensslLib:asn1_gen.obj
 0001:00088700       asn1_cb                    00000000000889c0 f   OpensslLib:asn1_gen.obj
 0001:0008897c       parse_tagging              0000000000088c3c f   OpensslLib:asn1_gen.obj
 0001:00088a28       asn1_multi                 0000000000088ce8 f   OpensslLib:asn1_gen.obj
 0001:00088bd0       append_exp                 0000000000088e90 f   OpensslLib:asn1_gen.obj
 0001:00088c64       asn1_str2tag               0000000000088f24 f   OpensslLib:asn1_gen.obj
 0001:00088cfc       asn1_str2type              0000000000088fbc f   OpensslLib:asn1_gen.obj
 0001:00089090       bitstr_cb                  0000000000089350 f   OpensslLib:asn1_gen.obj
 0001:000890e4       mask_cb                    00000000000893a4 f   OpensslLib:asn1_gen.obj
 0001:0008918c       i2v_POLICY_MAPPINGS        000000000008944c f   OpensslLib:v3_pmaps.obj
 0001:00089244       v2i_POLICY_MAPPINGS        0000000000089504 f   OpensslLib:v3_pmaps.obj
 0001:0008942c       i2v_EXTENDED_KEY_USAGE     00000000000896ec f   OpensslLib:v3_extku.obj
 0001:000894b8       v2i_EXTENDED_KEY_USAGE     0000000000089778 f   OpensslLib:v3_extku.obj
 0001:000897c4       i2r_ocsp_crlid             0000000000089a84 f   OpensslLib:v3_ocsp.obj
 0001:00089918       i2r_ocsp_acutoff           0000000000089bd8 f   OpensslLib:v3_ocsp.obj
 0001:00089964       i2r_object                 0000000000089c24 f   OpensslLib:v3_ocsp.obj
 0001:000899a8       ocsp_nonce_new             0000000000089c68 f   OpensslLib:v3_ocsp.obj
 0001:000899b4       i2d_ocsp_nonce             0000000000089c74 f   OpensslLib:v3_ocsp.obj
 0001:000899ec       d2i_ocsp_nonce             0000000000089cac f   OpensslLib:v3_ocsp.obj
 0001:00089a84       i2r_ocsp_nonce             0000000000089d44 f   OpensslLib:v3_ocsp.obj
 0001:00089ac8       s2i_ocsp_nocheck           0000000000089d88 f   OpensslLib:v3_ocsp.obj
 0001:00089ad4       i2r_ocsp_serviceloc        0000000000089d94 f   OpensslLib:v3_ocsp.obj
 0001:00089be0       i2v_AUTHORITY_KEYID        0000000000089ea0 f   OpensslLib:v3_akey.obj
 0001:00089c88       v2i_AUTHORITY_KEYID        0000000000089f48 f   OpensslLib:v3_akey.obj
 0001:0008a088       s2i_asn1_int               000000000008a348 f   OpensslLib:v3_int.obj
 0001:0008a090       i2r_NAMING_AUTHORITY       000000000008a350 f   OpensslLib:v3_admis.obj
 0001:0008a23c       i2r_ADMISSION_SYNTAX       000000000008a4fc f   OpensslLib:v3_admis.obj
 0001:0008a678       s2i_skey_id                000000000008a938 f   OpensslLib:v3_skey.obj
 0001:0008a864       i2r_PKEY_USAGE_PERIOD      000000000008ab24 f   OpensslLib:v3_pku.obj
 0001:0008a90c       sxnet_i2r                  000000000008abcc f   OpensslLib:v3_sxnet.obj
 0001:0008a9cc       sxnet_v2i                  000000000008ac8c f   OpensslLib:v3_sxnet.obj
 0001:0008acc8       i2r_pci                    000000000008af88 f   OpensslLib:v3_pci.obj
 0001:0008ad68       process_pci_value          000000000008b028 f   OpensslLib:v3_pci.obj
 0001:0008b180       r2i_pci                    000000000008b440 f   OpensslLib:v3_pci.obj
 0001:0008b5ac       i2v_TLS_FEATURE            000000000008b86c f   OpensslLib:v3_tlsf.obj
 0001:0008b660       v2i_TLS_FEATURE            000000000008b920 f   OpensslLib:v3_tlsf.obj
 0001:0008bdc4       witness                    000000000008c084 f   OpensslLib:bn_prime.obj
 0001:0008bea4       probable_prime             000000000008c164 f   OpensslLib:bn_prime.obj
 0001:0008c038       probable_prime_dh          000000000008c2f8 f   OpensslLib:bn_prime.obj
 0001:0008c328       dh_param_init              000000000008c5e8 f   OpensslLib:dh_rfc7919.obj
 0001:0008c3e8       dh_builtin_genparams       000000000008c6a8 f   OpensslLib:dh_gen.obj
 0001:0008c6d4       rsa_builtin_keygen         000000000008c994 f   OpensslLib:rsa_gen.obj
 0001:0008d074       encode_pkcs1               000000000008d334 f   OpensslLib:rsa_sign.obj
 0001:0008dfe4       sm2_sig_gen                000000000008e2a4 f   OpensslLib:sm2_sign.obj
 0001:0008e290       sm2_sig_verify             000000000008e550 f   OpensslLib:sm2_sign.obj
 0001:0008e69c       ec_field_size              000000000008e95c f   OpensslLib:sm2_crypt.obj
 0001:00090310       nist_cp_bn_0               00000000000905d0 f   OpensslLib:bn_nist.obj
 0001:00091d18       SM4_T_slow                 0000000000091fd8 f   OpensslLib:sm4.obj
 0001:000930a4       alg_module_init            0000000000093364 f   OpensslLib:evp_cnf.obj
 0001:000931fc       stbl_module_init           00000000000934bc f   OpensslLib:asn_mstbl.obj
 0001:000932d8       stbl_module_finish         0000000000093598 f   OpensslLib:asn_mstbl.obj
 0001:00093304       do_tcreate                 00000000000935c4 f   OpensslLib:asn_mstbl.obj
 0001:00093668       oid_module_init            0000000000093928 f   OpensslLib:asn_moid.obj
 0001:0009384c       oid_module_finish          0000000000093b0c f   OpensslLib:asn_moid.obj
 0001:00093850       Round                      0000000000093b10 f   OpensslLib:keccak1600.obj
 0001:00093c20       KeccakF1600                0000000000093ee0 f   OpensslLib:keccak1600.obj
 0001:0009671c       sc_subx                    00000000000969dc f   OpensslLib:scalar.obj
 0001:000967a8       sc_montmul                 0000000000096a68 f   OpensslLib:scalar.obj
 0001:00096b6c       gf_sqrn                    0000000000096e2c f   OpensslLib:f_generic.obj
 0001:0009b394       inet_pton4                 000000000009b654 f   BaseCryptLib:inet_pton.obj
 0001:0009b464       inet_pton6                 000000000009b724 f   BaseCryptLib:inet_pton.obj
 0001:0009ba70       QuickSortWorker            000000000009bd30 f   BaseCryptLib:CrtWrapper.obj
 0002:00000b90       TlsCipherMappingTable      000000000009cfd0     TlsLib:TlsConfig.obj
 0002:00001c00       secmem_method              000000000009e040     OpensslLib:bss_mem.obj
 0002:00001c60       mem_method                 000000000009e0a0     OpensslLib:bss_mem.obj
 0002:00001cc0       ?tlsv1_2_client_method_data@?1??tlsv1_2_client_method@@9@9 000000000009e100     OpensslLib:methods.obj
 0002:00001da0       ?tlsv1_3_server_method_data@?1??tlsv1_3_server_method@@9@9 000000000009e1e0     OpensslLib:methods.obj
 0002:00001e80       ?tlsv1_1_client_method_data@?1??tlsv1_1_client_method@@9@9 000000000009e2c0     OpensslLib:methods.obj
 0002:00001f60       ?tlsv1_1_server_method_data@?1??tlsv1_1_server_method@@9@9 000000000009e3a0     OpensslLib:methods.obj
 0002:00002040       ?tlsv1_3_client_method_data@?1??tlsv1_3_client_method@@9@9 000000000009e480     OpensslLib:methods.obj
 0002:00002120       ?tlsv1_server_method_data@?1??tlsv1_server_method@@9@9 000000000009e560     OpensslLib:methods.obj
 0002:00002200       ?tlsv1_client_method_data@?1??tlsv1_client_method@@9@9 000000000009e640     OpensslLib:methods.obj
 0002:000022e0       ?TLS_client_method_data@?1??TLS_client_method@@9@9 000000000009e720     OpensslLib:methods.obj
 0002:000023c0       ?tlsv1_2_server_method_data@?1??tlsv1_2_server_method@@9@9 000000000009e800     OpensslLib:methods.obj
 0002:000028d0       cipher_aliases             000000000009ed10     OpensslLib:ssl_ciph.obj
 0002:00004090       ssl_cipher_table_mac       00000000000a04d0     OpensslLib:ssl_ciph.obj
 0002:000040f0       ssl_cipher_table_cipher    00000000000a0530     OpensslLib:ssl_ciph.obj
 0002:00004280       X509_CINF_seq_tt           00000000000a06c0     OpensslLib:x_x509.obj
 0002:000043c0       X509_seq_tt                00000000000a0800     OpensslLib:x_x509.obj
 0002:00004450       X509_CINF_aux              00000000000a0890     OpensslLib:x_x509.obj
 0002:00004478       X509_aux                   00000000000a08b8     OpensslLib:x_x509.obj
 0002:00004520       default_table              00000000000a0960     OpensslLib:x509_vpm.obj
 0002:000047b0       ssl_cert_info              00000000000a0bf0     OpensslLib:ssl_cert.obj
 0002:000047f8       ?minbits_table@?1??ssl_security_default_callback@@9@9 00000000000a0c38     OpensslLib:ssl_cert.obj
 0002:00004bd0       tls12_sigalgs              00000000000a1010     OpensslLib:t1_lib.obj
 0002:00004bf4       ecformats_default          00000000000a1034     OpensslLib:t1_lib.obj
 0002:00004c00       legacy_rsa_sigalg          00000000000a1040     OpensslLib:t1_lib.obj
 0002:00004c28       tls_default_sigalg         00000000000a1068     OpensslLib:t1_lib.obj
 0002:00004c40       nid_list                   00000000000a1080     OpensslLib:t1_lib.obj
 0002:00004db0       sigalg_lookup_tbl          00000000000a11f0     OpensslLib:t1_lib.obj
 0002:00005080       eccurves_default           00000000000a14c0     OpensslLib:t1_lib.obj
 0002:0000508c       suiteb_sigalgs             00000000000a14cc     OpensslLib:t1_lib.obj
 0002:00005090       suiteb_curves              00000000000a14d0     OpensslLib:t1_lib.obj
 0002:000050f0       X509_PUBKEY_aux            00000000000a1530     OpensslLib:x_pubkey.obj
 0002:00005120       X509_PUBKEY_seq_tt         00000000000a1560     OpensslLib:x_pubkey.obj
 0002:000051f0       OCSP_SERVICELOC_seq_tt     00000000000a1630     OpensslLib:ocsp_asn.obj
 0002:00005230       OCSP_CRLID_seq_tt          00000000000a1670     OpensslLib:ocsp_asn.obj
 0002:000052f0       OCSP_RESPID_ch_tt          00000000000a1730     OpensslLib:ocsp_asn.obj
 0002:00005360       ?hexdig@?1??do_hex_dump@@9@9 00000000000a17a0     OpensslLib:a_strex.obj
 0002:00005360       ?hexdig@?1??OPENSSL_buf2hexstr@@9@9 00000000000a17a0     OpensslLib:o_str.obj
 0002:00005360       ?hex@?1??X509_NAME_oneline@@9@9 00000000000a17a0     OpensslLib:x509_obj.obj
 0002:000053d3       ?null_compression@?1??tls_process_client_hello@@9@9 00000000000a1813     OpensslLib:statem_srvr.obj
 0002:000053d8       ?nonce_label@?2??tls_construct_new_session_ticket@@9@9 00000000000a1818     OpensslLib:statem_srvr.obj
 0002:000053e8       ?kSafariExtensionsBlock@?1??ssl_check_for_safari@@9@9 00000000000a1828     OpensslLib:statem_srvr.obj
 0002:00005530       ?supported_nids@?1??X509_supported_extension@@9@9 00000000000a1970     OpensslLib:v3_purp.obj
 0002:00005600       X509_NAME_ENTRIES_item_tt  00000000000a1a40     OpensslLib:x_name.obj
 0002:00005620       X509_NAME_ENTRY_seq_tt     00000000000a1a60     OpensslLib:x_name.obj
 0002:00005690       X509_NAME_INTERNAL_item_tt 00000000000a1ad0     OpensslLib:x_name.obj
 0002:000056b0       x509_name_ff               00000000000a1af0     OpensslLib:x_name.obj
 0002:000056e8       X509_NAME_INTERNAL_it      00000000000a1b28     OpensslLib:x_name.obj
 0002:00005718       X509_NAME_ENTRIES_it       00000000000a1b58     OpensslLib:x_name.obj
 0002:0000d910       nid_objs                   00000000000a9d50     OpensslLib:obj_dat.obj
 0002:000193d0       ln_objs                    00000000000b5810     OpensslLib:obj_dat.obj
 0002:0001a660       so                         00000000000b6aa0     OpensslLib:obj_dat.obj
 0002:0001c4c0       obj_objs                   00000000000b8900     OpensslLib:obj_dat.obj
 0002:0001d580       sn_objs                    00000000000b99c0     OpensslLib:obj_dat.obj
 0002:0001e810       methods_buffer             00000000000bac50     OpensslLib:bf_buff.obj
 0002:0001e920       X509_EXTENSION_seq_tt      00000000000bad60     OpensslLib:x_exten.obj
 0002:0001e9b0       X509_EXTENSIONS_item_tt    00000000000badf0     OpensslLib:x_exten.obj
 0002:0001eaa0       ?client_handshake_traffic@?1??tls13_change_cipher_state@@9@9 00000000000baee0     OpensslLib:tls13_enc.obj
 0002:0001eab0       ?application_traffic@?1??tls13_update_key@@9@9 00000000000baef0     OpensslLib:tls13_enc.obj
 0002:0001eac0       ?exporter_master_secret@?1??tls13_change_cipher_state@@9@9 00000000000baf00     OpensslLib:tls13_enc.obj
 0002:0001ead0       ?exporterlabel@?1??tls13_export_keying_material@@9@9 00000000000baf10     OpensslLib:tls13_enc.obj
 0002:0001eae0       ?resumption_master_secret@?1??tls13_change_cipher_state@@9@9 00000000000baf20     OpensslLib:tls13_enc.obj
 0002:0001eaec       ?keylabel@?1??tls13_derive_key@@9@9 00000000000baf2c     OpensslLib:tls13_enc.obj
 0002:0001eaf0       ?server_handshake_traffic@?1??tls13_change_cipher_state@@9@9 00000000000baf30     OpensslLib:tls13_enc.obj
 0002:0001eb00       ?ivlabel@?1??tls13_derive_iv@@9@9 00000000000baf40     OpensslLib:tls13_enc.obj
 0002:0001eb04       ?label_prefix@?1??tls13_hkdf_expand@@9@9 00000000000baf44     OpensslLib:tls13_enc.obj
 0002:0001eb10       ?server_application_traffic@?1??tls13_change_cipher_state@@9@9 00000000000baf50     OpensslLib:tls13_enc.obj
 0002:0001eb20       ?early_exporter_master_secret@?1??tls13_change_cipher_state@@9@9 00000000000baf60     OpensslLib:tls13_enc.obj
 0002:0001eb30       ?derived_secret_label@?1??tls13_generate_secret@@9@9 00000000000baf70     OpensslLib:tls13_enc.obj
 0002:0001eb38       ?client_early_traffic@?1??tls13_change_cipher_state@@9@9 00000000000baf78     OpensslLib:tls13_enc.obj
 0002:0001eb48       ?client_application_traffic@?1??tls13_change_cipher_state@@9@9 00000000000baf88     OpensslLib:tls13_enc.obj
 0002:0001eb58       ?finishedlabel@?1??tls13_derive_finishedkey@@9@9 00000000000baf98     OpensslLib:tls13_enc.obj
 0002:0001ebd0       dtls_version_table         00000000000bb010     OpensslLib:statem_lib.obj
 0002:0001ec30       ?servercontext@?1??get_cert_verify_tbs_data@@9@9 00000000000bb070     OpensslLib:statem_lib.obj
 0002:0001ec60       ?clientcontext@?1??get_cert_verify_tbs_data@@9@9 00000000000bb0a0     OpensslLib:statem_lib.obj
 0002:0001ec90       tls_version_table          00000000000bb0d0     OpensslLib:statem_lib.obj
 0002:0001ed20       x509table                  00000000000bb160     OpensslLib:statem_lib.obj
 0002:0001ee80       aes_192_ecb                00000000000bb2c0     OpensslLib:e_aes.obj
 0002:0001eee0       aes_192_ccm                00000000000bb320     OpensslLib:e_aes.obj
 0002:0001ef40       aes_192_ctr                00000000000bb380     OpensslLib:e_aes.obj
 0002:0001efa0       aes_128_ofb                00000000000bb3e0     OpensslLib:e_aes.obj
 0002:0001f000       aes_256_ccm                00000000000bb440     OpensslLib:e_aes.obj
 0002:0001f060       aes_192_gcm                00000000000bb4a0     OpensslLib:e_aes.obj
 0002:0001f0c0       aes_128_wrap_pad           00000000000bb500     OpensslLib:e_aes.obj
 0002:0001f120       aes_256_ctr                00000000000bb560     OpensslLib:e_aes.obj
 0002:0001f180       aes_192_cfb8               00000000000bb5c0     OpensslLib:e_aes.obj
 0002:0001f1e0       aes_192_cfb                00000000000bb620     OpensslLib:e_aes.obj
 0002:0001f240       aes_256_gcm                00000000000bb680     OpensslLib:e_aes.obj
 0002:0001f2a0       aes_128_gcm                00000000000bb6e0     OpensslLib:e_aes.obj
 0002:0001f300       aes_128_cfb1               00000000000bb740     OpensslLib:e_aes.obj
 0002:0001f360       aes_192_cbc                00000000000bb7a0     OpensslLib:e_aes.obj
 0002:0001f3c0       aes_128_xts                00000000000bb800     OpensslLib:e_aes.obj
 0002:0001f420       aes_128_ctr                00000000000bb860     OpensslLib:e_aes.obj
 0002:0001f480       aes_256_wrap               00000000000bb8c0     OpensslLib:e_aes.obj
 0002:0001f4e0       aes_256_cbc                00000000000bb920     OpensslLib:e_aes.obj
 0002:0001f540       aes_192_ofb                00000000000bb980     OpensslLib:e_aes.obj
 0002:0001f5a0       aes_256_wrap_pad           00000000000bb9e0     OpensslLib:e_aes.obj
 0002:0001f600       aes_128_ecb                00000000000bba40     OpensslLib:e_aes.obj
 0002:0001f660       aes_256_ofb                00000000000bbaa0     OpensslLib:e_aes.obj
 0002:0001f6c0       aes_256_cfb                00000000000bbb00     OpensslLib:e_aes.obj
 0002:0001f720       aes_128_wrap               00000000000bbb60     OpensslLib:e_aes.obj
 0002:0001f780       aes_256_cfb1               00000000000bbbc0     OpensslLib:e_aes.obj
 0002:0001f7e0       aes_128_cbc                00000000000bbc20     OpensslLib:e_aes.obj
 0002:0001f840       aes_192_wrap_pad           00000000000bbc80     OpensslLib:e_aes.obj
 0002:0001f8a0       aes_256_cfb8               00000000000bbce0     OpensslLib:e_aes.obj
 0002:0001f900       aes_128_cfb8               00000000000bbd40     OpensslLib:e_aes.obj
 0002:0001f960       aes_256_ecb                00000000000bbda0     OpensslLib:e_aes.obj
 0002:0001f9c0       aes_256_xts                00000000000bbe00     OpensslLib:e_aes.obj
 0002:0001fa20       aes_128_cfb                00000000000bbe60     OpensslLib:e_aes.obj
 0002:0001fa80       aes_192_wrap               00000000000bbec0     OpensslLib:e_aes.obj
 0002:0001fae0       aes_192_cfb1               00000000000bbf20     OpensslLib:e_aes.obj
 0002:0001fb40       aes_128_ccm                00000000000bbf80     OpensslLib:e_aes.obj
 0002:0001fba0       sha1_md                    00000000000bbfe0     OpensslLib:m_sha1.obj
 0002:0001fbf0       sha224_md                  00000000000bc030     OpensslLib:m_sha1.obj
 0002:0001fc40       sha512_224_md              00000000000bc080     OpensslLib:m_sha1.obj
 0002:0001fc90       sha256_md                  00000000000bc0d0     OpensslLib:m_sha1.obj
 0002:0001fce0       sha512_md                  00000000000bc120     OpensslLib:m_sha1.obj
 0002:0001fd30       sha384_md                  00000000000bc170     OpensslLib:m_sha1.obj
 0002:0001fd80       sha512_256_md              00000000000bc1c0     OpensslLib:m_sha1.obj
 0002:0001fdd0       aria_256_ctr               00000000000bc210     OpensslLib:e_aria.obj
 0002:0001fe30       aria_192_ofb               00000000000bc270     OpensslLib:e_aria.obj
 0002:0001fe90       aria_128_cbc               00000000000bc2d0     OpensslLib:e_aria.obj
 0002:0001fef0       aria_192_ccm               00000000000bc330     OpensslLib:e_aria.obj
 0002:0001ff50       aria_128_ofb               00000000000bc390     OpensslLib:e_aria.obj
 0002:0001ffb0       aria_128_gcm               00000000000bc3f0     OpensslLib:e_aria.obj
 0002:00020010       aria_192_cfb8              00000000000bc450     OpensslLib:e_aria.obj
 0002:00020070       aria_256_cbc               00000000000bc4b0     OpensslLib:e_aria.obj
 0002:000200d0       aria_192_cfb1              00000000000bc510     OpensslLib:e_aria.obj
 0002:00020130       aria_128_ecb               00000000000bc570     OpensslLib:e_aria.obj
 0002:00020190       aria_256_ecb               00000000000bc5d0     OpensslLib:e_aria.obj
 0002:000201f0       aria_192_ecb               00000000000bc630     OpensslLib:e_aria.obj
 0002:00020250       aria_128_cfb1              00000000000bc690     OpensslLib:e_aria.obj
 0002:000202b0       aria_256_cfb8              00000000000bc6f0     OpensslLib:e_aria.obj
 0002:00020310       aria_256_gcm               00000000000bc750     OpensslLib:e_aria.obj
 0002:00020370       aria_256_cfb1              00000000000bc7b0     OpensslLib:e_aria.obj
 0002:000203d0       aria_128_cfb128            00000000000bc810     OpensslLib:e_aria.obj
 0002:00020430       aria_256_cfb128            00000000000bc870     OpensslLib:e_aria.obj
 0002:00020490       aria_128_ctr               00000000000bc8d0     OpensslLib:e_aria.obj
 0002:000204f0       aria_128_cfb8              00000000000bc930     OpensslLib:e_aria.obj
 0002:00020550       aria_192_cfb128            00000000000bc990     OpensslLib:e_aria.obj
 0002:000205b0       aria_192_cbc               00000000000bc9f0     OpensslLib:e_aria.obj
 0002:00020610       aria_192_ctr               00000000000bca50     OpensslLib:e_aria.obj
 0002:00020670       aria_128_ccm               00000000000bcab0     OpensslLib:e_aria.obj
 0002:000206d0       aria_256_ofb               00000000000bcb10     OpensslLib:e_aria.obj
 0002:00020730       aria_256_ccm               00000000000bcb70     OpensslLib:e_aria.obj
 0002:00020790       aria_192_gcm               00000000000bcbd0     OpensslLib:e_aria.obj
 0002:000207f0       md5_sha1_md                00000000000bcc30     OpensslLib:m_md5_sha1.obj
 0002:00020840       md5_md                     00000000000bcc80     OpensslLib:m_md5.obj
 0002:000225e0       X509_REVOKED_seq_tt        00000000000bea20     OpensslLib:x_crl.obj
 0002:00022640       X509_CRL_INFO_seq_tt       00000000000bea80     OpensslLib:x_crl.obj
 0002:00022720       X509_CRL_seq_tt            00000000000beb60     OpensslLib:x_crl.obj
 0002:00022780       X509_CRL_INFO_aux          00000000000bebc0     OpensslLib:x_crl.obj
 0002:000227d8       X509_CRL_aux               00000000000bec18     OpensslLib:x_crl.obj
 0002:00022800       minbits_table              00000000000bec40     OpensslLib:x509_vfy.obj
 0002:00022830       n_cipher                   00000000000bec70     OpensslLib:e_null.obj
 0002:00022a00       SSL_SESSION_ASN1_seq_tt    00000000000bee40     OpensslLib:ssl_asn1.obj
 0002:00022ce0       SSL_SESSION_ASN1_it        00000000000bf120     OpensslLib:ssl_asn1.obj
 0002:00022e40       ?ENCRYPTED@?1??PEM_get_EVP_CIPHER_INFO@@9@9 00000000000bf280     OpensslLib:pem_lib.obj
 0002:00022e50       endstr                     00000000000bf290     OpensslLib:pem_lib.obj
 0002:00022e60       ?DEKInfo@?1??PEM_get_EVP_CIPHER_INFO@@9@9 00000000000bf2a0     OpensslLib:pem_lib.obj
 0002:00022e70       beginstr                   00000000000bf2b0     OpensslLib:pem_lib.obj
 0002:00022e7c       tailstr                    00000000000bf2bc     OpensslLib:pem_lib.obj
 0002:00022e88       ?ProcType@?1??PEM_get_EVP_CIPHER_INFO@@9@9 00000000000bf2c8     OpensslLib:pem_lib.obj
 0002:00022ea0       ext_defs                   00000000000bf2e0     OpensslLib:extensions.obj
 0002:00023450       ?resumption_label@?1??tls_psk_do_binder@@9@9 00000000000bf890     OpensslLib:extensions.obj
 0002:00023460       ?external_label@?1??tls_psk_do_binder@@9@9 00000000000bf8a0     OpensslLib:extensions.obj
 0002:00023480       methods_filep              00000000000bf8c0     OpensslLib:bss_file.obj
 0002:00023610       RSAPublicKey_seq_tt        00000000000bfa50     OpensslLib:rsa_asn1.obj
 0002:00023650       RSAPublicKey_aux           00000000000bfa90     OpensslLib:rsa_asn1.obj
 0002:00023680       RSAPrivateKey_seq_tt       00000000000bfac0     OpensslLib:rsa_asn1.obj
 0002:000237c0       RSAPrivateKey_aux          00000000000bfc00     OpensslLib:rsa_asn1.obj
 0002:00023818       RSA_PSS_PARAMS_aux         00000000000bfc58     OpensslLib:rsa_asn1.obj
 0002:00023840       RSA_PSS_PARAMS_seq_tt      00000000000bfc80     OpensslLib:rsa_asn1.obj
 0002:000238f0       RSA_PRIME_INFO_seq_tt      00000000000bfd30     OpensslLib:rsa_asn1.obj
 0002:00023ce0       ASN1_SEQUENCE_ANY_item_tt  00000000000c0120     OpensslLib:tasn_typ.obj
 0002:00023d90       ASN1_SET_ANY_item_tt       00000000000c01d0     OpensslLib:tasn_typ.obj
 0002:00023e90       tag2bit                    00000000000c02d0     OpensslLib:tasn_dec.obj
 0002:00023f60       X509_ALGOR_seq_tt          00000000000c03a0     OpensslLib:x_algor.obj
 0002:00024238       CRL_DIST_POINTS_item_tt    00000000000c0678     OpensslLib:v3_crld.obj
 0002:00024260       ISSUING_DIST_POINT_seq_tt  00000000000c06a0     OpensslLib:v3_crld.obj
 0002:000243f0       reason_flags               00000000000c0830     OpensslLib:v3_crld.obj
 0002:00024580       DIST_POINT_NAME_ch_tt      00000000000c09c0     OpensslLib:v3_crld.obj
 0002:00024630       DIST_POINT_seq_tt          00000000000c0a70     OpensslLib:v3_crld.obj
 0002:000246c0       DIST_POINT_NAME_aux        00000000000c0b00     OpensslLib:v3_crld.obj
 0002:00024720       X509_CERT_AUX_seq_tt       00000000000c0b60     OpensslLib:x_x509a.obj
 0002:00024840       AUTHORITY_KEYID_seq_tt     00000000000c0c80     OpensslLib:v3_akeya.obj
 0002:00024a20       OTHERNAME_seq_tt           00000000000c0e60     OpensslLib:v3_genn.obj
 0002:00024a60       EDIPARTYNAME_seq_tt        00000000000c0ea0     OpensslLib:v3_genn.obj
 0002:00024aa0       GENERAL_NAMES_item_tt      00000000000c0ee0     OpensslLib:v3_genn.obj
 0002:00024b20       GENERAL_NAME_ch_tt         00000000000c0f60     OpensslLib:v3_genn.obj
 0002:00024ca0       X509_VAL_seq_tt            00000000000c10e0     OpensslLib:x_val.obj
 0002:00024da0       NAME_CONSTRAINTS_seq_tt    00000000000c11e0     OpensslLib:v3_ncons.obj
 0002:00024e80       GENERAL_SUBTREE_seq_tt     00000000000c12c0     OpensslLib:v3_ncons.obj
 0002:00024ff8       ?nonce_label@?N@??tls_process_new_session_ticket@@9@9 00000000000c1438     OpensslLib:statem_clnt.obj
 0002:00025180       bitmask_end_values         00000000000c15c0     OpensslLib:statem_dtls.obj
 0002:00025188       bitmask_start_values       00000000000c15c8     OpensslLib:statem_dtls.obj
 0002:00025ce0       ctype_char_map             00000000000c2120     OpensslLib:ctype.obj
 0002:00025e16       ?dummy_key@?1??HMAC@@9@9   00000000000c2256     OpensslLib:hmac.obj
 0002:00025e18       ?const_one@?1??BN_value_one@@9@9 00000000000c2258     OpensslLib:bn_lib.obj
 0002:00025e30       ?data_one@?1??BN_value_one@@9@9 00000000000c2270     OpensslLib:bn_lib.obj
 0002:00026340       _EC_brainpoolP512t1        00000000000c2780     OpensslLib:ec_curve.obj
 0002:000264d0       _EC_WTLS_8                 00000000000c2910     OpensslLib:ec_curve.obj
 0002:00026540       _EC_brainpoolP512r1        00000000000c2980     OpensslLib:ec_curve.obj
 0002:000266d0       _EC_X9_62_PRIME_239V3      00000000000c2b10     OpensslLib:ec_curve.obj
 0002:000267b0       _EC_SECG_PRIME_224K1       00000000000c2bf0     OpensslLib:ec_curve.obj
 0002:00026870       _EC_SECG_PRIME_128R2       00000000000c2cb0     OpensslLib:ec_curve.obj
 0002:00026900       _EC_sm2p256v1              00000000000c2d40     OpensslLib:ec_curve.obj
 0002:000269d0       curve_list                 00000000000c2e10     OpensslLib:ec_curve.obj
 0002:00026ed0       _EC_brainpoolP256t1        00000000000c3310     OpensslLib:ec_curve.obj
 0002:00026fa0       _EC_SECG_PRIME_112R1       00000000000c33e0     OpensslLib:ec_curve.obj
 0002:00027020       _EC_NIST_PRIME_521         00000000000c3460     OpensslLib:ec_curve.obj
 0002:000271d0       _EC_NIST_PRIME_192         00000000000c3610     OpensslLib:ec_curve.obj
 0002:00027290       _EC_NIST_PRIME_384         00000000000c36d0     OpensslLib:ec_curve.obj
 0002:000273e0       _EC_SECG_PRIME_128R1       00000000000c3820     OpensslLib:ec_curve.obj
 0002:00027470       _EC_WTLS_9                 00000000000c38b0     OpensslLib:ec_curve.obj
 0002:00027500       _EC_SECG_PRIME_160R2       00000000000c3940     OpensslLib:ec_curve.obj
 0002:000275b0       _EC_SECG_PRIME_192K1       00000000000c39f0     OpensslLib:ec_curve.obj
 0002:00027650       _EC_NIST_PRIME_224         00000000000c3a90     OpensslLib:ec_curve.obj
 0002:00027720       _EC_brainpoolP160t1        00000000000c3b60     OpensslLib:ec_curve.obj
 0002:000277b0       _EC_brainpoolP384r1        00000000000c3bf0     OpensslLib:ec_curve.obj
 0002:000278e0       _EC_WTLS_12                00000000000c3d20     OpensslLib:ec_curve.obj
 0002:000279a0       _EC_SECG_PRIME_160K1       00000000000c3de0     OpensslLib:ec_curve.obj
 0002:00027a30       _EC_X9_62_PRIME_239V1      00000000000c3e70     OpensslLib:ec_curve.obj
 0002:00027b10       _EC_brainpoolP160r1        00000000000c3f50     OpensslLib:ec_curve.obj
 0002:00027ba0       _EC_brainpoolP224t1        00000000000c3fe0     OpensslLib:ec_curve.obj
 0002:00027c60       _EC_X9_62_PRIME_239V2      00000000000c40a0     OpensslLib:ec_curve.obj
 0002:00027d40       _EC_X9_62_PRIME_192V2      00000000000c4180     OpensslLib:ec_curve.obj
 0002:00027e00       _EC_SECG_PRIME_256K1       00000000000c4240     OpensslLib:ec_curve.obj
 0002:00027ed0       _EC_brainpoolP224r1        00000000000c4310     OpensslLib:ec_curve.obj
 0002:00027f90       _EC_SECG_PRIME_112R2       00000000000c43d0     OpensslLib:ec_curve.obj
 0002:00028010       _EC_brainpoolP192r1        00000000000c4450     OpensslLib:ec_curve.obj
 0002:000280b0       _EC_brainpoolP320t1        00000000000c44f0     OpensslLib:ec_curve.obj
 0002:000281b0       _EC_brainpoolP320r1        00000000000c45f0     OpensslLib:ec_curve.obj
 0002:000282b0       _EC_SECG_PRIME_160R1       00000000000c46f0     OpensslLib:ec_curve.obj
 0002:00028360       _EC_brainpoolP256r1        00000000000c47a0     OpensslLib:ec_curve.obj
 0002:00028430       _EC_brainpoolP384t1        00000000000c4870     OpensslLib:ec_curve.obj
 0002:00028560       _EC_brainpoolP192t1        00000000000c49a0     OpensslLib:ec_curve.obj
 0002:00028600       _EC_X9_62_PRIME_192V3      00000000000c4a40     OpensslLib:ec_curve.obj
 0002:000286c0       _EC_X9_62_PRIME_256V1      00000000000c4b00     OpensslLib:ec_curve.obj
 0002:000287b0       ?RFC2409_PRIME_1024@?1??BN_get_rfc2409_prime_1024@@9@9 00000000000c4bf0     OpensslLib:bn_const.obj
 0002:00028830       ?RFC3526_PRIME_3072@?1??BN_get_rfc3526_prime_3072@@9@9 00000000000c4c70     OpensslLib:bn_const.obj
 0002:000289b0       ?RFC3526_PRIME_4096@?1??BN_get_rfc3526_prime_4096@@9@9 00000000000c4df0     OpensslLib:bn_const.obj
 0002:00028bb0       ?RFC3526_PRIME_8192@?1??BN_get_rfc3526_prime_8192@@9@9 00000000000c4ff0     OpensslLib:bn_const.obj
 0002:00028fb0       ?RFC3526_PRIME_2048@?1??BN_get_rfc3526_prime_2048@@9@9 00000000000c53f0     OpensslLib:bn_const.obj
 0002:00029170       ACCESS_DESCRIPTION_seq_tt  00000000000c55b0     OpensslLib:v3_info.obj
 0002:00029288       AUTHORITY_INFO_ACCESS_item_tt 00000000000c56c8     OpensslLib:v3_info.obj
 0002:000292c0       sigoid_srt_xref            00000000000c5700     OpensslLib:obj_xref.obj
 0002:00029420       sigoid_srt                 00000000000c5860     OpensslLib:obj_xref.obj
 0002:00029740       ?max@?1??asn1_time_to_tm@@9@9 00000000000c5b80     OpensslLib:a_time.obj
 0002:00029770       ?min@?1??asn1_time_to_tm@@9@9 00000000000c5bb0     OpensslLib:a_time.obj
 0002:00029798       _asn1_mon                  00000000000c5bd8     OpensslLib:a_time.obj
 0002:000297c8       ?ydays@?1??determine_days@@9@9 00000000000c5c08     OpensslLib:a_time.obj
 0002:00029800       ?mdays@?1??asn1_time_to_tm@@9@9 00000000000c5c40     OpensslLib:a_time.obj
 0002:00029dd0       ssl_cmd_switches           00000000000c6210     OpensslLib:ssl_conf.obj
 0002:00029e80       ?ssl_vfy_list@?1??cmd_VerifyMode@@9@9 00000000000c62c0     OpensslLib:ssl_conf.obj
 0002:00029f10       ?ssl_option_list@?1??cmd_Options@@9@9 00000000000c6350     OpensslLib:ssl_conf.obj
 0002:0002a080       ?ssl_protocol_list@?1??cmd_Protocol@@9@9 00000000000c64c0     OpensslLib:ssl_conf.obj
 0002:0002a160       ssl_conf_cmds              00000000000c65a0     OpensslLib:ssl_conf.obj
 0002:0002a760       ?versions@?1??protocol_from_string@@9@9 00000000000c6ba0     OpensslLib:ssl_conf.obj
 0002:0002a8b0       ossl_pers_string           00000000000c6cf0     OpensslLib:drbg_lib.obj
 0002:0002a8f0       X509_ATTRIBUTE_seq_tt      00000000000c6d30     OpensslLib:x_attrib.obj
 0002:0002a960       ?zero_iv@?1??CMAC_Init@@9@9 00000000000c6da0     OpensslLib:cmac.obj
 0002:0002a9f0       PROXY_POLICY_seq_tt        00000000000c6e30     OpensslLib:v3_pcia.obj
 0002:0002aa60       PROXY_CERT_INFO_EXTENSION_seq_tt 00000000000c6ea0     OpensslLib:v3_pcia.obj
 0002:0002ab00       BASIC_CONSTRAINTS_seq_tt   00000000000c6f40     OpensslLib:v3_bcons.obj
 0002:0002ac00       tag2nbyte                  00000000000c7040     OpensslLib:a_strex.obj
 0002:0002ac20       char_type                  00000000000c7060     OpensslLib:a_strex.obj
 0002:0002ad40       Hex                        00000000000c7180     OpensslLib:bn_print.obj
 0002:0002ad60       builtin_pbe                00000000000c71a0     OpensslLib:evp_pbe.obj
 0002:0002b010       Td2                        00000000000c7450     OpensslLib:aes_core.obj
 0002:0002b410       Td1                        00000000000c7850     OpensslLib:aes_core.obj
 0002:0002b810       Td4                        00000000000c7c50     OpensslLib:aes_core.obj
 0002:0002b810       sb3                        00000000000c7c50     OpensslLib:aria.obj
 0002:0002b910       Td0                        00000000000c7d50     OpensslLib:aes_core.obj
 0002:0002bd10       Te0                        00000000000c8150     OpensslLib:aes_core.obj
 0002:0002c110       rcon                       00000000000c8550     OpensslLib:aes_core.obj
 0002:0002c140       Te3                        00000000000c8580     OpensslLib:aes_core.obj
 0002:0002c540       Te2                        00000000000c8980     OpensslLib:aes_core.obj
 0002:0002c940       Td3                        00000000000c8d80     OpensslLib:aes_core.obj
 0002:0002cd40       Te1                        00000000000c9180     OpensslLib:aes_core.obj
 0002:0002d140       rem_4bit                   00000000000c9580     OpensslLib:gcm128.obj
 0002:0002d1c0       default_aiv                00000000000c9600     OpensslLib:wrap128.obj
 0002:0002d1c8       default_iv                 00000000000c9608     OpensslLib:wrap128.obj
 0002:0002d1d0       K256                       00000000000c9610     OpensslLib:sha256.obj
 0002:0002d2d0       K512                       00000000000c9710     OpensslLib:sha512.obj
 0002:0002d550       sb4                        00000000000c9990     OpensslLib:aria.obj
 0002:0002d650       c3                         00000000000c9a90     OpensslLib:aria.obj
 0002:0002d660       c2                         00000000000c9aa0     OpensslLib:aria.obj
 0002:0002d670       c1                         00000000000c9ab0     OpensslLib:aria.obj
 0002:0002d680       sb2                        00000000000c9ac0     OpensslLib:aria.obj
 0002:0002d780       sb1                        00000000000c9bc0     OpensslLib:aria.obj
 0002:0002f330       srpdata_ascii2bin          00000000000cb770     OpensslLib:encode.obj
 0002:0002f3b0       data_ascii2bin             00000000000cb7f0     OpensslLib:encode.obj
 0002:0002f450       openssl_ec_key_method      00000000000cb890     OpensslLib:ec_kmeth.obj
 0002:0002f530       PKCS8_PRIV_KEY_INFO_seq_tt 00000000000cb970     OpensslLib:p8_pkey.obj
 0002:0002f5b0       PKCS8_PRIV_KEY_INFO_aux    00000000000cb9f0     OpensslLib:p8_pkey.obj
 0002:0002f620       X509_SIG_seq_tt            00000000000cba60     OpensslLib:x_sig.obj
 0002:0002f858       X9_62_CURVE_it             00000000000cbc98     OpensslLib:ec_asn1.obj
 0002:0002f890       X9_62_FIELDID_seq_tt       00000000000cbcd0     OpensslLib:ec_asn1.obj
 0002:0002f8d0       X9_62_PENTANOMIAL_seq_tt   00000000000cbd10     OpensslLib:ec_asn1.obj
 0002:0002f930       fieldID_def_tt             00000000000cbd70     OpensslLib:ec_asn1.obj
 0002:0002f950       X9_62_CHARACTERISTIC_TWO_adb 00000000000cbd90     OpensslLib:ec_asn1.obj
 0002:0002f980       X9_62_CHARACTERISTIC_TWO_seq_tt 00000000000cbdc0     OpensslLib:ec_asn1.obj
 0002:0002f9e0       ECDSA_SIG_seq_tt           00000000000cbe20     OpensslLib:ec_asn1.obj
 0002:0002fa20       ECPARAMETERS_seq_tt        00000000000cbe60     OpensslLib:ec_asn1.obj
 0002:0002fae0       ECDSA_SIG_it               00000000000cbf20     OpensslLib:ec_asn1.obj
 0002:0002fb10       X9_62_FIELDID_it           00000000000cbf50     OpensslLib:ec_asn1.obj
 0002:0002fb40       X9_62_CHARACTERISTIC_TWO_it 00000000000cbf80     OpensslLib:ec_asn1.obj
 0002:0002fb70       ECPKPARAMETERS_ch_tt       00000000000cbfb0     OpensslLib:ec_asn1.obj
 0002:0002fc00       EC_PRIVATEKEY_it           00000000000cc040     OpensslLib:ec_asn1.obj
 0002:0002fc30       X9_62_FIELDID_adb          00000000000cc070     OpensslLib:ec_asn1.obj
 0002:0002fc60       EC_PRIVATEKEY_seq_tt       00000000000cc0a0     OpensslLib:ec_asn1.obj
 0002:0002fce0       X9_62_CURVE_seq_tt         00000000000cc120     OpensslLib:ec_asn1.obj
 0002:0002fd40       X9_62_PENTANOMIAL_it       00000000000cc180     OpensslLib:ec_asn1.obj
 0002:0002fd70       X9_62_CHARACTERISTIC_TWO_adbtbl 00000000000cc1b0     OpensslLib:ec_asn1.obj
 0002:0002fde8       char_two_def_tt            00000000000cc228     OpensslLib:ec_asn1.obj
 0002:0002fe10       X9_62_FIELDID_adbtbl       00000000000cc250     OpensslLib:ec_asn1.obj
 0002:0002fec0       DHvparams_it               00000000000cc300     OpensslLib:dh_asn1.obj
 0002:0002fef0       DHxparams_seq_tt           00000000000cc330     OpensslLib:dh_asn1.obj
 0002:0002ffc0       DHparams_seq_tt            00000000000cc400     OpensslLib:dh_asn1.obj
 0002:00030020       DHvparams_seq_tt           00000000000cc460     OpensslLib:dh_asn1.obj
 0002:00030060       DHparams_aux               00000000000cc4a0     OpensslLib:dh_asn1.obj
 0002:00030088       DHxparams_it               00000000000cc4c8     OpensslLib:dh_asn1.obj
 0002:00030450       POLICY_CONSTRAINTS_seq_tt  00000000000cc890     OpensslLib:v3_pcons.obj
 0002:00030680       POLICYQUALINFO_adb         00000000000ccac0     OpensslLib:v3_cpols.obj
 0002:000306b0       POLICYQUALINFO_adbtbl      00000000000ccaf0     OpensslLib:v3_cpols.obj
 0002:00030730       POLICYQUALINFO_seq_tt      00000000000ccb70     OpensslLib:v3_cpols.obj
 0002:00030770       NOTICEREF_seq_tt           00000000000ccbb0     OpensslLib:v3_cpols.obj
 0002:000307b0       policydefault_tt           00000000000ccbf0     OpensslLib:v3_cpols.obj
 0002:000307d0       USERNOTICE_seq_tt          00000000000ccc10     OpensslLib:v3_cpols.obj
 0002:00030810       CERTIFICATEPOLICIES_item_tt 00000000000ccc50     OpensslLib:v3_cpols.obj
 0002:00030860       POLICYINFO_seq_tt          00000000000ccca0     OpensslLib:v3_cpols.obj
 0002:00031748       ?df_key@?3??drbg_ctr_init@@9@9 00000000000cdb88     OpensslLib:drbg_ctr.obj
 0002:00031900       ?tag2str@?1??ASN1_tag2str@@9@9 00000000000cdd40     OpensslLib:asn1_par.obj
 0002:00031a20       sm4_ecb                    00000000000cde60     OpensslLib:e_sm4.obj
 0002:00031a80       sm4_ctr_mode               00000000000cdec0     OpensslLib:e_sm4.obj
 0002:00031ae0       sm4_cfb128                 00000000000cdf20     OpensslLib:e_sm4.obj
 0002:00031b40       sm4_cbc                    00000000000cdf80     OpensslLib:e_sm4.obj
 0002:00031ba0       sm4_ofb                    00000000000cdfe0     OpensslLib:e_sm4.obj
 0002:00031c00       ?shake128_md@?1??EVP_shake128@@9@9 00000000000ce040     OpensslLib:m_sha3.obj
 0002:00031c50       ?shake256_md@?1??EVP_shake256@@9@9 00000000000ce090     OpensslLib:m_sha3.obj
 0002:00031ca0       ?sha3_224_md@?1??EVP_sha3_224@@9@9 00000000000ce0e0     OpensslLib:m_sha3.obj
 0002:00031cf0       ?sha3_384_md@?1??EVP_sha3_384@@9@9 00000000000ce130     OpensslLib:m_sha3.obj
 0002:00031d40       ?sha3_256_md@?1??EVP_sha3_256@@9@9 00000000000ce180     OpensslLib:m_sha3.obj
 0002:00031d90       ?sha3_512_md@?1??EVP_sha3_512@@9@9 00000000000ce1d0     OpensslLib:m_sha3.obj
 0002:00031de0       sm3_md                     00000000000ce220     OpensslLib:m_sm3.obj
 0002:00031e30       tbl_standard               00000000000ce270     OpensslLib:a_strnid.obj
 0002:00032050       null_md                    00000000000ce490     OpensslLib:m_null.obj
 0002:000320b0       ?order@?1??c448_ed448_verify@@9@9 00000000000ce4f0     OpensslLib:eddsa.obj
 0002:000320f0       ?zero@?1??fe_isnonzero@@9@9 00000000000ce530     OpensslLib:curve25519.obj
 0002:00032110       d                          00000000000ce550     OpensslLib:curve25519.obj
 0002:00032138       d2                         00000000000ce578     OpensslLib:curve25519.obj
 0002:00032160       k25519Precomp              00000000000ce5a0     OpensslLib:curve25519.obj
 0002:00039960       sqrtm1                     00000000000d5da0     OpensslLib:curve25519.obj
 0002:00039988       ?kZeros@?1??X25519@@9@9    00000000000d5dc8     OpensslLib:curve25519.obj
 0002:000399b0       Bi                         00000000000d5df0     OpensslLib:curve25519.obj
 0002:00039db0       ONE                        00000000000d61f0     OpensslLib:curve448.obj
 0002:00039df0       precomputed_scalarmul_adjustment 00000000000d6230     OpensslLib:curve448.obj
 0002:00039f30       ZERO                       00000000000d6370     OpensslLib:curve448.obj
 0002:0003a1f0       ?tnst@?1??asn1_str2tag@@9@9 00000000000d6630     OpensslLib:asn1_gen.obj
 0002:0003a5c0       POLICY_MAPPING_seq_tt      00000000000d6a00     OpensslLib:v3_pmaps.obj
 0002:0003a660       POLICY_MAPPINGS_item_tt    00000000000d6aa0     OpensslLib:v3_pmaps.obj
 0002:0003a770       EXTENDED_KEY_USAGE_item_tt 00000000000d6bb0     OpensslLib:v3_extku.obj
 0002:0003b610       ADMISSIONS_seq_tt          00000000000d7a50     OpensslLib:v3_admis.obj
 0002:0003b6d0       NAMING_AUTHORITY_seq_tt    00000000000d7b10     OpensslLib:v3_admis.obj
 0002:0003b730       PROFESSION_INFO_seq_tt     00000000000d7b70     OpensslLib:v3_admis.obj
 0002:0003b7d0       ADMISSION_SYNTAX_seq_tt    00000000000d7c10     OpensslLib:v3_admis.obj
 0002:0003ba00       PKEY_USAGE_PERIOD_seq_tt   00000000000d7e40     OpensslLib:v3_pku.obj
 0002:0003bb20       SXNET_seq_tt               00000000000d7f60     OpensslLib:v3_sxnet.obj
 0002:0003bb90       SXNETID_seq_tt             00000000000d7fd0     OpensslLib:v3_sxnet.obj
 0002:0003bd50       TLS_FEATURE_it             00000000000d8190     OpensslLib:v3_tlsf.obj
 0002:0003bd80       TLS_FEATURE_item_tt        00000000000d81c0     OpensslLib:v3_tlsf.obj
 0002:0003bda0       primes                     00000000000d81e0     OpensslLib:bn_prime.obj
 0002:0003cda0       zeroes                     00000000000d91e0     OpensslLib:rsa_pss.obj
 0002:0003cdd0       SM2_Ciphertext_seq_tt      00000000000d9210     OpensslLib:sm2_crypt.obj
 0002:0003ce80       ?ret@?1??EC_GFp_nist_method@@9@9 00000000000d92c0     OpensslLib:ecp_nist.obj
 0002:0003d030       _nist_p_256                00000000000d9470     OpensslLib:bn_nist.obj
 0002:0003d0d0       ?_bignum_nist_p_256_sqr@?1??BN_nist_mod_256@@9@9 00000000000d9510     OpensslLib:bn_nist.obj
 0002:0003d0f0       _nist_p_521                00000000000d9530     OpensslLib:bn_nist.obj
 0002:0003d138       _nist_p_192_sqr            00000000000d9578     OpensslLib:bn_nist.obj
 0002:0003d168       _nist_p_224_sqr            00000000000d95a8     OpensslLib:bn_nist.obj
 0002:0003d1a0       _bignum_nist_p_521         00000000000d95e0     OpensslLib:bn_nist.obj
 0002:0003d1b8       _bignum_nist_p_256         00000000000d95f8     OpensslLib:bn_nist.obj
 0002:0003d1d0       _bignum_nist_p_384         00000000000d9610     OpensslLib:bn_nist.obj
 0002:0003d1e8       ?_bignum_nist_p_521_sqr@?1??BN_nist_mod_521@@9@9 00000000000d9628     OpensslLib:bn_nist.obj
 0002:0003d200       _nist_p_384_sqr            00000000000d9640     OpensslLib:bn_nist.obj
 0002:0003d260       ?_bignum_nist_p_224_sqr@?1??BN_nist_mod_224@@9@9 00000000000d96a0     OpensslLib:bn_nist.obj
 0002:0003d280       _nist_p_224                00000000000d96c0     OpensslLib:bn_nist.obj
 0002:0003d2c0       ?_bignum_nist_p_384_sqr@?1??BN_nist_mod_384@@9@9 00000000000d9700     OpensslLib:bn_nist.obj
 0002:0003d2d8       ?_bignum_nist_p_192_sqr@?1??BN_nist_mod_192@@9@9 00000000000d9718     OpensslLib:bn_nist.obj
 0002:0003d2f0       _nist_p_521_sqr            00000000000d9730     OpensslLib:bn_nist.obj
 0002:0003d380       _nist_p_256_sqr            00000000000d97c0     OpensslLib:bn_nist.obj
 0002:0003d3c0       _bignum_nist_p_224         00000000000d9800     OpensslLib:bn_nist.obj
 0002:0003d3d8       _bignum_nist_p_192         00000000000d9818     OpensslLib:bn_nist.obj
 0002:0003d3f0       _nist_p_384                00000000000d9830     OpensslLib:bn_nist.obj
 0002:0003d4e0       _nist_p_192                00000000000d9920     OpensslLib:bn_nist.obj
 0002:0003d530       ?ret@?1??EC_GFp_mont_method@@9@9 00000000000d9970     OpensslLib:ecp_mont.obj
 0002:0003d730       PBEPARAM_seq_tt            00000000000d9b70     OpensslLib:p5_pbe.obj
 0002:0003d820       PBE2PARAM_seq_tt           00000000000d9c60     OpensslLib:p5_pbev2.obj
 0002:0003d860       PBKDF2PARAM_seq_tt         00000000000d9ca0     OpensslLib:p5_pbev2.obj
 0002:0003d8e0       ?CK@?1??SM4_set_key@@9@9   00000000000d9d20     OpensslLib:sm4.obj
 0002:0003d960       SM4_S                      00000000000d9da0     OpensslLib:sm4.obj
 0002:0003da60       SM4_SBOX_T                 00000000000d9ea0     OpensslLib:sm4.obj
 0002:0003dec0       iotas                      00000000000da300     OpensslLib:keccak1600.obj
 0002:0003dfc0       sc_p                       00000000000da400     OpensslLib:scalar.obj
 0002:0003e040       sc_r2                      00000000000da480     OpensslLib:scalar.obj
 0002:0003e080       curve448_wnaf_base_table   00000000000da4c0     OpensslLib:curve448_tables.obj
 0002:0003f880       curve448_precomputed_base_table 00000000000dbcc0     OpensslLib:curve448_tables.obj
 0002:00043480       MODULUS                    00000000000df8c0     OpensslLib:f_generic.obj
 0002:000434c0       ONE                        00000000000df900     OpensslLib:f_generic.obj
 0002:00043530       ui_null                    00000000000df970     OpensslLib:ui_null.obj
 0002:00043580       ?tab@?1??BN_kronecker@@9@9 00000000000df9c0     OpensslLib:bn_kron.obj
 0002:00043710       dh1024_160_g               00000000000dfb50     OpensslLib:bn_dh.obj
 0002:00043790       ffdhe4096_p                00000000000dfbd0     OpensslLib:bn_dh.obj
 0002:00043990       dh2048_256_q               00000000000dfdd0     OpensslLib:bn_dh.obj
 0002:000439b0       ffdhe3072_p                00000000000dfdf0     OpensslLib:bn_dh.obj
 0002:00043b30       dh2048_256_p               00000000000dff70     OpensslLib:bn_dh.obj
 0002:00043c30       dh2048_256_g               00000000000e0070     OpensslLib:bn_dh.obj
 0002:00043d30       dh2048_224_g               00000000000e0170     OpensslLib:bn_dh.obj
 0002:00043e30       value_2                    00000000000e0270     OpensslLib:bn_dh.obj
 0002:00043e38       dh2048_224_q               00000000000e0278     OpensslLib:bn_dh.obj
 0002:00043e58       dh1024_160_q               00000000000e0298     OpensslLib:bn_dh.obj
 0002:00043e70       dh2048_224_p               00000000000e02b0     OpensslLib:bn_dh.obj
 0002:00043f70       ffdhe8192_p                00000000000e03b0     OpensslLib:bn_dh.obj
 0002:00044370       ffdhe2048_p                00000000000e07b0     OpensslLib:bn_dh.obj
 0002:00044470       ffdhe6144_p                00000000000e08b0     OpensslLib:bn_dh.obj
 0002:00044770       dh1024_160_p               00000000000e0bb0     OpensslLib:bn_dh.obj
 0002:00044818       ?xdigits_u@?1??inet_pton6@@9@9 00000000000e0c58     BaseCryptLib:inet_pton.obj
 0002:00044830       ?xdigits_l@?1??inet_pton6@@9@9 00000000000e0c70     BaseCryptLib:inet_pton.obj
 0002:00044848       ?digits@?1??inet_pton4@@9@9 00000000000e0c88     BaseCryptLib:inet_pton.obj
 0002:00044d30       default_zeros              00000000000e1170     OpensslLib:tls13_enc.obj
 0002:00044d70       allzeroes                  00000000000e11b0     OpensslLib:curve25519.obj
 0003:000000a8       allow_customize            00000000000e1be8     OpensslLib:mem.obj
 0003:000000b0       ssl_mac_pkey_id            00000000000e1bf0     OpensslLib:ssl_ciph.obj
 0003:000000e0       zlib_method_nozlib         00000000000e1c20     OpensslLib:c_zlib.obj
 0003:00000110       ssl_x509_store_ctx_idx     00000000000e1c50     OpensslLib:ssl_cert.obj
 0003:00000120       xstandard                  00000000000e1c60     OpensslLib:v3_purp.obj
 0003:000002d0       new_nid                    00000000000e1e10     OpensslLib:obj_dat.obj
 0003:000002e0       x509_dir_lookup            00000000000e1e20     OpensslLib:by_dir.obj
 0003:00000330       x509_file_lookup           00000000000e1e70     OpensslLib:by_file.obj
 0003:00000380       destructor_key             00000000000e1ec0     OpensslLib:init.obj
 0003:00000388       memset_func                00000000000e1ec8     OpensslLib:mem_clr.obj
 0003:00000390       ssl3_scsvs                 00000000000e1ed0     OpensslLib:s3_lib.obj
 0003:00000430       tls13_ciphers              00000000000e1f70     OpensslLib:s3_lib.obj
 0003:00000570       ssl3_ciphers               00000000000e20b0     OpensslLib:s3_lib.obj
 0003:00002af0       int_crl_meth               00000000000e4630     OpensslLib:x_crl.obj
 0003:00002b20       standard_methods           00000000000e4660     OpensslLib:ameth_lib.obj
 0003:00002b90       trstandard                 00000000000e46d0     OpensslLib:x509_trs.obj
 0003:00002cd0       ?scsv@?N@??ssl_cipher_list_to_bytes@@9@9 00000000000e4810     OpensslLib:statem_clnt.obj
 0003:00002d20       ?scsv@?P@??ssl_cipher_list_to_bytes@@9@9 00000000000e4860     OpensslLib:statem_clnt.obj
 0003:00002d70       standard_methods           00000000000e48b0     OpensslLib:pmeth_lib.obj
 0003:00002df0       nist_curves                00000000000e4930     OpensslLib:ec_curve.obj
 0003:00002f10       uint64_pf                  00000000000e4a50     OpensslLib:x_int64.obj
 0003:00002f50       uint32_pf                  00000000000e4a90     OpensslLib:x_int64.obj
 0003:00002f90       rsa_pkcs1_ossl_meth        00000000000e4ad0     OpensslLib:rsa_ossl.obj
 0003:00003010       bignum_pf                  00000000000e4b50     OpensslLib:x_bignum.obj
 0003:00003050       cbignum_pf                 00000000000e4b90     OpensslLib:x_bignum.obj
 0003:00003090       standard_exts              00000000000e4bd0     OpensslLib:v3_lib.obj
 0003:000031e0       dh_ossl                    00000000000e4d20     OpensslLib:dh_key.obj
 0003:00003228       drbg_ctr_meth              00000000000e4d68     OpensslLib:drbg_ctr.obj
 0003:00003248       ?c80@?1??ctr_df@@9@9       00000000000e4d88     OpensslLib:drbg_ctr.obj
 0003:00003250       key_usage_type_table       00000000000e4d90     OpensslLib:v3_bitst.obj
 0003:00003340       ns_cert_type_table         00000000000e4e80     OpensslLib:v3_bitst.obj
 0003:00003420       crl_reasons                00000000000e4f60     OpensslLib:v3_enum.obj
 0003:00003530       tls_feature_tbl            00000000000e5070     OpensslLib:v3_tlsf.obj
 0003:00003584       ?stoperrset@?1??OPENSSL_init_ssl@@9@9 00000000000e50c4     OpensslLib:ssl_init.obj
 0003:00003588       ossl_init_ssl_base_ossl_ret_ 00000000000e50c8     OpensslLib:ssl_init.obj
 0003:0000358c       ssl_base_inited            00000000000e50cc     OpensslLib:ssl_init.obj
 0003:00003590       ssl_strings_inited         00000000000e50d0     OpensslLib:ssl_init.obj
 0003:00003594       ssl_strings                00000000000e50d4     OpensslLib:ssl_init.obj
 0003:00003598       ossl_init_load_ssl_strings_ossl_ret_ 00000000000e50d8     OpensslLib:ssl_init.obj
 0003:0000359c       ssl_base                   00000000000e50dc     OpensslLib:ssl_init.obj
 0003:000035a0       ssl_load_builtin_comp_once 00000000000e50e0     OpensslLib:ssl_ciph.obj
 0003:000035a4       do_load_builtin_compressions_ossl_ret_ 00000000000e50e4     OpensslLib:ssl_ciph.obj
 0003:000035a8       ssl_comp_methods           00000000000e50e8     OpensslLib:ssl_ciph.obj
 0003:000035b0       ssl_digest_methods         00000000000e50f0     OpensslLib:ssl_ciph.obj
 0003:00003610       param_table                00000000000e5150     OpensslLib:x509_vpm.obj
 0003:00003618       err_init                   00000000000e5158     OpensslLib:err.obj
 0003:00003620       int_error_hash             00000000000e5160     OpensslLib:err.obj
 0003:00003628       do_err_strings_init_ossl_ret_ 00000000000e5168     OpensslLib:err.obj
 0003:0000362c       err_do_init_ossl_ret_      00000000000e516c     OpensslLib:err.obj
 0003:00003630       err_string_init            00000000000e5170     OpensslLib:err.obj
 0003:00003634       ssl_x509_store_ctx_once    00000000000e5174     OpensslLib:ssl_cert.obj
 0003:00003638       ssl_x509_store_ctx_init_ossl_ret_ 00000000000e5178     OpensslLib:ssl_cert.obj
 0003:0000363c       ?thread_local_key@?1??CRYPTO_THREAD_init_local@@9@9 00000000000e517c     OpensslLib:threads_none.obj
 0003:00003640       rand_init                  00000000000e5180     OpensslLib:rand_lib.obj
 0003:00003644       do_rand_init_ossl_ret_     00000000000e5184     OpensslLib:rand_lib.obj
 0003:00003648       xptable                    00000000000e5188     OpensslLib:v3_purp.obj
 0003:00003650       added                      00000000000e5190     OpensslLib:obj_dat.obj
 0003:00003658       ex_data_lock               00000000000e5198     OpensslLib:ex_data.obj
 0003:00003660       do_ex_data_init_ossl_ret_  00000000000e51a0     OpensslLib:ex_data.obj
 0003:00003664       ex_data_init               00000000000e51a4     OpensslLib:ex_data.obj
 0003:00003668       names_lh                   00000000000e51a8     OpensslLib:o_names.obj
 0003:00003670       init                       00000000000e51b0     OpensslLib:o_names.obj
 0003:00003678       obj_lock                   00000000000e51b8     OpensslLib:o_names.obj
 0003:00003680       o_names_init_ossl_ret_     00000000000e51c0     OpensslLib:o_names.obj
 0003:00003684       add_all_digests            00000000000e51c4     OpensslLib:init.obj
 0003:00003688       ossl_init_load_crypto_strings_ossl_ret_ 00000000000e51c8     OpensslLib:init.obj
 0003:0000368c       ossl_init_base_ossl_ret_   00000000000e51cc     OpensslLib:init.obj
 0003:00003690       ossl_init_config_ossl_ret_ 00000000000e51d0     OpensslLib:init.obj
 0003:00003698       init_lock                  00000000000e51d8     OpensslLib:init.obj
 0003:000036a0       register_atexit            00000000000e51e0     OpensslLib:init.obj
 0003:000036a8       conf_settings              00000000000e51e8     OpensslLib:init.obj
 0003:000036b0       stop_handlers              00000000000e51f0     OpensslLib:init.obj
 0003:000036b8       ossl_init_async_ossl_ret_  00000000000e51f8     OpensslLib:init.obj
 0003:000036bc       ossl_init_zlib_ossl_ret_   00000000000e51fc     OpensslLib:init.obj
 0003:000036c0       zlib                       00000000000e5200     OpensslLib:init.obj
 0003:000036c4       ossl_init_register_atexit_ossl_ret_ 00000000000e5204     OpensslLib:init.obj
 0003:000036c8       add_all_ciphers            00000000000e5208     OpensslLib:init.obj
 0003:000036cc       ossl_init_load_crypto_nodelete_ossl_ret_ 00000000000e520c     OpensslLib:init.obj
 0003:000036d0       config                     00000000000e5210     OpensslLib:init.obj
 0003:000036d4       load_crypto_nodelete       00000000000e5214     OpensslLib:init.obj
 0003:000036d8       async                      00000000000e5218     OpensslLib:init.obj
 0003:000036dc       ossl_init_add_all_ciphers_ossl_ret_ 00000000000e521c     OpensslLib:init.obj
 0003:000036e0       stopped                    00000000000e5220     OpensslLib:init.obj
 0003:000036e4       load_crypto_strings        00000000000e5224     OpensslLib:init.obj
 0003:000036e8       ossl_init_add_all_digests_ossl_ret_ 00000000000e5228     OpensslLib:init.obj
 0003:000036ec       base                       00000000000e522c     OpensslLib:init.obj
 0003:000036f0       app_methods                00000000000e5230     OpensslLib:ameth_lib.obj
 0003:000036f8       supported_modules          00000000000e5238     OpensslLib:conf_mod.obj
 0003:00003700       trtable                    00000000000e5240     OpensslLib:x509_trs.obj
 0003:00003708       app_pkey_methods           00000000000e5248     OpensslLib:pmeth_lib.obj
 0003:00003710       do_rand_drbg_init_ossl_ret_ 00000000000e5250     OpensslLib:drbg_lib.obj
 0003:00003714       rand_drbg_init             00000000000e5254     OpensslLib:drbg_lib.obj
 0003:00003718       rand_drbg_flags            00000000000e5258     OpensslLib:drbg_lib.obj
 0003:00003720       ?zeros@?1??CRYPTO_128_unwrap_pad@@9@9 00000000000e5260     OpensslLib:wrap128.obj
 0003:00003728       openssl_configured         00000000000e5268     OpensslLib:conf_sap.obj
 0003:00003730       ext_list                   00000000000e5270     OpensslLib:v3_lib.obj
 0003:00003738       stable                     00000000000e5278     OpensslLib:a_strnid.obj
 0003:00003740       default_UI_meth            00000000000e5280     OpensslLib:ui_openssl.obj
 0003:00003750       mRunningOnQ35              00000000000e5290     DxePciLibI440FxQ35:PciLib.obj
 0003:00003754       mAcpiTimerIoAddr           00000000000e5294     DxeAcpiTimerLib:DxeAcpiTimerLib.obj
 0003:00003758       stopped                    00000000000e5298     OpensslLib:ssl_init.obj
 0003:00003760       ssl_mac_secret_size        00000000000e52a0     OpensslLib:ssl_ciph.obj
 0003:000037c0       disabled_enc_mask          00000000000e5300     OpensslLib:ssl_ciph.obj
 0003:000037c4       disabled_mkey_mask         00000000000e5304     OpensslLib:ssl_ciph.obj
 0003:000037c8       disabled_mac_mask          00000000000e5308     OpensslLib:ssl_ciph.obj
 0003:000037d0       ssl_cipher_methods         00000000000e5310     OpensslLib:ssl_ciph.obj
 0003:00003880       disabled_auth_mask         00000000000e53c0     OpensslLib:ssl_ciph.obj
 0003:00003884       err_thread_local           00000000000e53c4     OpensslLib:err.obj
 0003:00003888       err_string_lock            00000000000e53c8     OpensslLib:err.obj
 0003:00003890       ctxkey                     00000000000e53d0     OpensslLib:async.obj
 0003:00003894       poolkey                    00000000000e53d4     OpensslLib:async.obj
 0003:00003898       rand_nonce_count           00000000000e53d8     OpensslLib:rand_lib.obj
 0003:000038a0       thread_local_storage       00000000000e53e0     OpensslLib:threads_none.obj
 0003:000040a0       default_RAND_meth          00000000000e5be0     OpensslLib:rand_lib.obj
 0003:000040a8       rand_nonce_lock            00000000000e5be8     OpensslLib:rand_lib.obj
 0003:000040b0       rand_meth_lock             00000000000e5bf0     OpensslLib:rand_lib.obj
 0003:000040b8       free_type                  00000000000e5bf8     OpensslLib:o_names.obj
 0003:000040c0       ex_data                    00000000000e5c00     OpensslLib:ex_data.obj
 0003:00004140       name_funcs_stack           00000000000e5c80     OpensslLib:o_names.obj
 0003:00004148       ?nilbn@?1??bn_init@@9@9    00000000000e5c88     OpensslLib:bn_lib.obj
 0003:00004160       ?m@?1??HMAC@@9@9           00000000000e5ca0     OpensslLib:hmac.obj
 0003:000041a0       sigx_app                   00000000000e5ce0     OpensslLib:obj_xref.obj
 0003:000041a8       sig_app                    00000000000e5ce8     OpensslLib:obj_xref.obj
 0003:000041b0       ssl_names_count            00000000000e5cf0     OpensslLib:conf_ssl.obj
 0003:000041b8       ssl_names                  00000000000e5cf8     OpensslLib:conf_ssl.obj
 0003:000041c0       private_drbg               00000000000e5d00     OpensslLib:drbg_lib.obj
 0003:000041c4       public_drbg                00000000000e5d04     OpensslLib:drbg_lib.obj
 0003:000041c8       master_drbg                00000000000e5d08     OpensslLib:drbg_lib.obj
 0003:000041d0       pbe_algs                   00000000000e5d10     OpensslLib:evp_pbe.obj
 0003:000041d8       ?tntmp@?1??asn1_str2tag@@9@9 00000000000e5d18     OpensslLib:asn1_gen.obj
 0003:000041e0       ?m@?1??SHA512@@9@9         00000000000e5d20     OpensslLib:sha512.obj
 0003:00004220       prompt_string              00000000000e5d60     OpensslLib:evp_key.obj
 0005:00000000       $unwind$_DriverUnloadHandler 00000000000eb440     UefiDriverEntryPoint:DriverEntryPoint.obj
 0005:00000010       $unwind$ASN1_INTEGER_cmp   00000000000eb450     OpensslLib:a_int.obj
 0005:00000010       $unwind$cpy_utf8           00000000000eb450     OpensslLib:a_mbstr.obj
 0005:00000010       $unwind$out_utf8           00000000000eb450     OpensslLib:a_mbstr.obj
 0005:00000010       $unwind$send_bio_chars     00000000000eb450     OpensslLib:a_strex.obj
 0005:00000010       $unwind$ASN1_item_new      00000000000eb450     OpensslLib:tasn_new.obj
 0005:00000010       $unwind$bn_free            00000000000eb450     OpensslLib:x_bignum.obj
 0005:00000010       $unwind$bn_new             00000000000eb450     OpensslLib:x_bignum.obj
 0005:00000010       $unwind$bn_secure_new      00000000000eb450     OpensslLib:x_bignum.obj
 0005:00000010       $unwind$uint32_free        00000000000eb450     OpensslLib:x_int64.obj
 0005:00000010       $unwind$uint64_free        00000000000eb450     OpensslLib:x_int64.obj
 0005:00000010       $unwind$BIO_push           00000000000eb450     OpensslLib:bio_lib.obj
 0005:00000010       $unwind$bread_conv         00000000000eb450     OpensslLib:bio_meth.obj
 0005:00000010       $unwind$bwrite_conv        00000000000eb450     OpensslLib:bio_meth.obj
 0005:00000010       $unwind$mem_buf_sync       00000000000eb450     OpensslLib:bss_mem.obj
 0005:00000010       $unwind$mem_free           00000000000eb450     OpensslLib:bss_mem.obj
 0005:00000010       $unwind$mem_gets           00000000000eb450     OpensslLib:bss_mem.obj
 0005:00000010       $unwind$bn_free_d          00000000000eb450     OpensslLib:bn_lib.obj
 0005:00000010       $unwind$nist_cp_bn_0       00000000000eb450     OpensslLib:bn_nist.obj
 0005:00000010       $unwind$pkey_cmac_init     00000000000eb450     OpensslLib:cm_pmeth.obj
 0005:00000010       $unwind$dh_cb              00000000000eb450     OpensslLib:dh_asn1.obj
 0005:00000010       $unwind$pkey_dh_cleanup    00000000000eb450     OpensslLib:dh_pmeth.obj
 0005:00000010       $unwind$ec_cmp_parameters  00000000000eb450     OpensslLib:ec_ameth.obj
 0005:00000010       $unwind$ec_GFp_mont_group_clear_finish 00000000000eb450     OpensslLib:ecp_mont.obj
 0005:00000010       $unwind$ec_GFp_mont_group_finish 00000000000eb450     OpensslLib:ecp_mont.obj
 0005:00000010       $unwind$ec_GFp_mont_group_init 00000000000eb450     OpensslLib:ecp_mont.obj
 0005:00000010       $unwind$ec_GFp_simple_group_clear_finish 00000000000eb450     OpensslLib:ecp_smpl.obj
 0005:00000010       $unwind$ec_GFp_simple_group_finish 00000000000eb450     OpensslLib:ecp_smpl.obj
 0005:00000010       $unwind$ec_GFp_simple_group_init 00000000000eb450     OpensslLib:ecp_smpl.obj
 0005:00000010       $unwind$ec_GFp_simple_point_clear_finish 00000000000eb450     OpensslLib:ecp_smpl.obj
 0005:00000010       $unwind$ec_GFp_simple_point_finish 00000000000eb450     OpensslLib:ecp_smpl.obj
 0005:00000010       $unwind$ec_GFp_simple_point_init 00000000000eb450     OpensslLib:ecp_smpl.obj
 0005:00000010       $unwind$ecd_item_sign25519 00000000000eb450     OpensslLib:ecx_meth.obj
 0005:00000010       $unwind$ecd_item_sign448   00000000000eb450     OpensslLib:ecx_meth.obj
 0005:00000010       $unwind$ERR_pop_to_mark    00000000000eb450     OpensslLib:err.obj
 0005:00000010       $unwind$do_err_strings_init_ossl_ 00000000000eb450     OpensslLib:err.obj
 0005:00000010       $unwind$err_clear_last_constant_time 00000000000eb450     OpensslLib:err.obj
 0005:00000010       $unwind$openssl_add_all_ciphers_int 00000000000eb450     OpensslLib:c_allc.obj
 0005:00000010       $unwind$EVP_CIPHER_CTX_reset 00000000000eb450     OpensslLib:evp_enc.obj
 0005:00000010       $unwind$init               00000000000eb450     OpensslLib:m_md5_sha1.obj
 0005:00000010       $unwind$EVP_add_cipher     00000000000eb450     OpensslLib:names.obj
 0005:00000010       $unwind$EVP_get_cipherbyname 00000000000eb450     OpensslLib:names.obj
 0005:00000010       $unwind$EVP_get_digestbyname 00000000000eb450     OpensslLib:names.obj
 0005:00000010       $unwind$do_ex_data_init_ossl_ 00000000000eb450     OpensslLib:ex_data.obj
 0005:00000010       $unwind$hmac_key_free      00000000000eb450     OpensslLib:hm_ameth.obj
 0005:00000010       $unwind$pkey_hmac_keygen   00000000000eb450     OpensslLib:hm_pmeth.obj
 0005:00000010       $unwind$HMAC_CTX_new       00000000000eb450     OpensslLib:hmac.obj
 0005:00000010       $unwind$hmac_ctx_cleanup   00000000000eb450     OpensslLib:hmac.obj
 0005:00000010       $unwind$ossl_init_thread_start 00000000000eb450     OpensslLib:init.obj
 0005:00000010       $unwind$OPENSSL_LH_retrieve 00000000000eb450     OpensslLib:lhash.obj
 0005:00000010       $unwind$MD5_Init           00000000000eb450     OpensslLib:md5_dgst.obj
 0005:00000010       $unwind$CRYPTO_ccm128_setiv 00000000000eb450     OpensslLib:ccm128.obj
 0005:00000010       $unwind$CRYPTO_ccm128_tag  00000000000eb450     OpensslLib:ccm128.obj
 0005:00000010       $unwind$obj_name_hash      00000000000eb450     OpensslLib:o_names.obj
 0005:00000010       $unwind$added_obj_hash     00000000000eb450     OpensslLib:obj_dat.obj
 0005:00000010       $unwind$do_rand_drbg_init_ossl_ 00000000000eb450     OpensslLib:drbg_lib.obj
 0005:00000010       $unwind$do_rand_init_ossl_ 00000000000eb450     OpensslLib:rand_lib.obj
 0005:00000010       $unwind$rand_drbg_cleanup_entropy 00000000000eb450     OpensslLib:rand_lib.obj
 0005:00000010       $unwind$rsa_param_encode   00000000000eb450     OpensslLib:rsa_ameth.obj
 0005:00000010       $unwind$rsa_security_bits  00000000000eb450     OpensslLib:rsa_ameth.obj
 0005:00000010       $unwind$rsa_multip_info_free 00000000000eb450     OpensslLib:rsa_mp.obj
 0005:00000010       $unwind$pkey_rsa_cleanup   00000000000eb450     OpensslLib:rsa_pmeth.obj
 0005:00000010       $unwind$pkey_rsa_init      00000000000eb450     OpensslLib:rsa_pmeth.obj
 0005:00000010       $unwind$SHA1_Init          00000000000eb450     OpensslLib:sha1dgst.obj
 0005:00000010       $unwind$SHA224_Init        00000000000eb450     OpensslLib:sha256.obj
 0005:00000010       $unwind$SHA256_Init        00000000000eb450     OpensslLib:sha256.obj
 0005:00000010       $unwind$siphash_get_priv_key 00000000000eb450     OpensslLib:siphash_ameth.obj
 0005:00000010       $unwind$siphash_key_free   00000000000eb450     OpensslLib:siphash_ameth.obj
 0005:00000010       $unwind$pkey_siphash_keygen 00000000000eb450     OpensslLib:siphash_pmeth.obj
 0005:00000010       $unwind$init               00000000000eb450     OpensslLib:m_sm3.obj
 0005:00000010       $unwind$free_string        00000000000eb450     OpensslLib:ui_lib.obj
 0005:00000010       $unwind$by_dir_entry_free  00000000000eb450     OpensslLib:by_dir.obj
 0005:00000010       $unwind$free_dir           00000000000eb450     OpensslLib:by_dir.obj
 0005:00000010       $unwind$X509_OBJECT_free   00000000000eb450     OpensslLib:x509_lu.obj
 0005:00000010       $unwind$X509V3_EXT_d2i     00000000000eb450     OpensslLib:v3_lib.obj
 0005:00000010       $unwind$check_purpose_timestamp_sign 00000000000eb450     OpensslLib:v3_purp.obj
 0005:00000010       $unwind$equal_case         00000000000eb450     OpensslLib:v3_utl.obj
 0005:00000010       $unwind$ipv6_cb            00000000000eb450     OpensslLib:v3_utl.obj
 0005:00000010       $unwind$dtls1_query_mtu    00000000000eb450     OpensslLib:d1_lib.obj
 0005:00000010       $unwind$dtls1_stop_timer   00000000000eb450     OpensslLib:d1_lib.obj
 0005:00000010       $unwind$WPACKET_get_length 00000000000eb450     OpensslLib:packet.obj
 0005:00000010       $unwind$WPACKET_get_total_written 00000000000eb450     OpensslLib:packet.obj
 0005:00000010       $unwind$wpacket_intern_close 00000000000eb450     OpensslLib:packet.obj
 0005:00000010       $unwind$ssl3_setup_buffers 00000000000eb450     OpensslLib:ssl3_buffer.obj
 0005:00000010       $unwind$ssl3_put_cipher_by_char 00000000000eb450     OpensslLib:s3_lib.obj
 0005:00000010       $unwind$ssl3_set_handshake_header 00000000000eb450     OpensslLib:s3_lib.obj
 0005:00000010       $unwind$cmd_ClientSignatureAlgorithms 00000000000eb450     OpensslLib:ssl_conf.obj
 0005:00000010       $unwind$cmd_ServerInfoFile 00000000000eb450     OpensslLib:ssl_conf.obj
 0005:00000010       $unwind$cmd_SignatureAlgorithms 00000000000eb450     OpensslLib:ssl_conf.obj
 0005:00000010       $unwind$dane_final         00000000000eb450     OpensslLib:ssl_lib.obj
 0005:00000010       $unwind$ssl_free_wbio_buffer 00000000000eb450     OpensslLib:ssl_lib.obj
 0005:00000010       $unwind$init_alpn          00000000000eb450     OpensslLib:extensions.obj
 0005:00000010       $unwind$init_certificate_authorities 00000000000eb450     OpensslLib:extensions.obj
 0005:00000010       $unwind$init_server_name   00000000000eb450     OpensslLib:extensions.obj
 0005:00000010       $unwind$init_sig_algs      00000000000eb450     OpensslLib:extensions.obj
 0005:00000010       $unwind$init_sig_algs_cert 00000000000eb450     OpensslLib:extensions.obj
 0005:00000010       $unwind$init_status_request 00000000000eb450     OpensslLib:extensions.obj
 0005:00000010       $unwind$statem_flush       00000000000eb450     OpensslLib:statem.obj
 0005:00000010       $unwind$ossl_statem_client13_read_transition 00000000000eb450     OpensslLib:statem_clnt.obj
 0005:00000010       $unwind$rsa_pss_check_min_key_size 00000000000eb450     OpensslLib:t1_lib.obj
 0005:00000010       $unwind$ssl_set_client_disabled 00000000000eb450     OpensslLib:t1_lib.obj
 0005:00000010       $unwind$tls1_check_pkey_comp 00000000000eb450     OpensslLib:t1_lib.obj
 0005:00000010       $unwind$tls1_clear         00000000000eb450     OpensslLib:t1_lib.obj
 0005:00000010       $unwind$tls1_free          00000000000eb450     OpensslLib:t1_lib.obj
 0005:00000010       $unwind$tls1_get_legacy_sigalg 00000000000eb450     OpensslLib:t1_lib.obj
 0005:00000010       $unwind$tls1_new           00000000000eb450     OpensslLib:t1_lib.obj
 0005:00000010       $unwind$tls1_set_peer_legacy_sigalg 00000000000eb450     OpensslLib:t1_lib.obj
 0005:00000010       $unwind$MmioRead32         00000000000eb450     BaseIoLibIntrinsicSev:IoLib.obj
 0005:00000010       $unwind$IoRead32           00000000000eb450     BaseIoLibIntrinsicSev:IoLibMsc.obj
 0005:00000010       $unwind$SaveAndDisableInterrupts 00000000000eb450     BaseLib:Cpu.obj
 0005:00000010       $unwind$InternalBaseLibIsListValid 00000000000eb450     BaseLib:LinkedList.obj
 0005:00000010       $unwind$RemoveEntryList    00000000000eb450     BaseLib:LinkedList.obj
 0005:00000010       $unwind$StrnLenS           00000000000eb450     BaseLib:SafeString.obj
 0005:00000010       $unwind$PciExpressRead32   00000000000eb450     BasePciExpressLib:PciExpressLib.obj
 0005:00000010       $unwind$_ModuleEntryPoint  00000000000eb450     UefiDriverEntryPoint:DriverEntryPoint.obj
 0005:00000010       $unwind$AllocateZeroPool   00000000000eb450     UefiMemoryAllocationLib:MemoryAllocationLib.obj
 0005:00000018       $unwind$strncasecmp        00000000000eb458     BaseCryptLib:CrtWrapper.obj
 0005:00000018       $unwind$asn1_str2tag       00000000000eb458     OpensslLib:asn1_gen.obj
 0005:00000018       $unwind$mask_cb            00000000000eb458     OpensslLib:asn1_gen.obj
 0005:00000018       $unwind$ASN1_STRING_set0   00000000000eb458     OpensslLib:asn1_lib.obj
 0005:00000018       $unwind$PKCS8_pkey_set0    00000000000eb458     OpensslLib:p8_pkey.obj
 0005:00000018       $unwind$bn_c2i             00000000000eb458     OpensslLib:x_bignum.obj
 0005:00000018       $unwind$bn_i2c             00000000000eb458     OpensslLib:x_bignum.obj
 0005:00000018       $unwind$buffer_new         00000000000eb458     OpensslLib:bf_buff.obj
 0005:00000018       $unwind$mem_init           00000000000eb458     OpensslLib:bss_mem.obj
 0005:00000018       $unwind$mem_read           00000000000eb458     OpensslLib:bss_mem.obj
 0005:00000018       $unwind$BN_add             00000000000eb458     OpensslLib:bn_add.obj
 0005:00000018       $unwind$BN_sub             00000000000eb458     OpensslLib:bn_add.obj
 0005:00000018       $unwind$BN_copy            00000000000eb458     OpensslLib:bn_lib.obj
 0005:00000018       $unwind$BN_sub_word        00000000000eb458     OpensslLib:bn_word.obj
 0005:00000018       $unwind$sec_alloc_realloc  00000000000eb458     OpensslLib:buffer.obj
 0005:00000018       $unwind$pkey_cmac_keygen   00000000000eb458     OpensslLib:cm_pmeth.obj
 0005:00000018       $unwind$CMAC_CTX_copy      00000000000eb458     OpensslLib:cmac.obj
 0005:00000018       $unwind$dh_cmp_parameters  00000000000eb458     OpensslLib:dh_ameth.obj
 0005:00000018       $unwind$dh_copy_parameters 00000000000eb458     OpensslLib:dh_ameth.obj
 0005:00000018       $unwind$int_dh_param_copy  00000000000eb458     OpensslLib:dh_ameth.obj
 0005:00000018       $unwind$d2i_DHxparams      00000000000eb458     OpensslLib:dh_asn1.obj
 0005:00000018       $unwind$pkey_dh_ctrl       00000000000eb458     OpensslLib:dh_pmeth.obj
 0005:00000018       $unwind$pt_to_pniels       00000000000eb458     OpensslLib:curve448.obj
 0005:00000018       $unwind$EC_KEY_set_group   00000000000eb458     OpensslLib:ec_key.obj
 0005:00000018       $unwind$ecx_get_priv_key   00000000000eb458     OpensslLib:ecx_meth.obj
 0005:00000018       $unwind$ecx_get_pub_key    00000000000eb458     OpensslLib:ecx_meth.obj
 0005:00000018       $unwind$err_set_error_data_int 00000000000eb458     OpensslLib:err.obj
 0005:00000018       $unwind$EVP_DigestFinal_ex 00000000000eb458     OpensslLib:digest.obj
 0005:00000018       $unwind$aes_gcm_init_key   00000000000eb458     OpensslLib:e_aes.obj
 0005:00000018       $unwind$update             00000000000eb458     OpensslLib:m_md5_sha1.obj
 0005:00000018       $unwind$EVP_PKEY_CTX_hex2ctrl 00000000000eb458     OpensslLib:pmeth_lib.obj
 0005:00000018       $unwind$pkey_hmac_cleanup  00000000000eb458     OpensslLib:hm_pmeth.obj
 0005:00000018       $unwind$pkey_hmac_copy     00000000000eb458     OpensslLib:hm_pmeth.obj
 0005:00000018       $unwind$pkey_hmac_ctrl_str 00000000000eb458     OpensslLib:hm_pmeth.obj
 0005:00000018       $unwind$OPENSSL_LH_new     00000000000eb458     OpensslLib:lhash.obj
 0005:00000018       $unwind$CRYPTO_clear_realloc 00000000000eb458     OpensslLib:mem.obj
 0005:00000018       $unwind$CRYPTO_strndup     00000000000eb458     OpensslLib:o_str.obj
 0005:00000018       $unwind$check_pem          00000000000eb458     OpensslLib:pem_lib.obj
 0005:00000018       $unwind$drbg_ctr_uninstantiate 00000000000eb458     OpensslLib:drbg_ctr.obj
 0005:00000018       $unwind$rsa_md_to_algor    00000000000eb458     OpensslLib:rsa_ameth.obj
 0005:00000018       $unwind$rsa_cb             00000000000eb458     OpensslLib:rsa_asn1.obj
 0005:00000018       $unwind$rsa_get_blinding   00000000000eb458     OpensslLib:rsa_ossl.obj
 0005:00000018       $unwind$rsa_ossl_finish    00000000000eb458     OpensslLib:rsa_ossl.obj
 0005:00000018       $unwind$siphash_set_priv_key 00000000000eb458     OpensslLib:siphash_ameth.obj
 0005:00000018       $unwind$pkey_siphash_cleanup 00000000000eb458     OpensslLib:siphash_pmeth.obj
 0005:00000018       $unwind$pkey_siphash_copy  00000000000eb458     OpensslLib:siphash_pmeth.obj
 0005:00000018       $unwind$pkey_siphash_ctrl_str 00000000000eb458     OpensslLib:siphash_pmeth.obj
 0005:00000018       $unwind$OPENSSL_sk_new_reserve 00000000000eb458     OpensslLib:stack.obj
 0005:00000018       $unwind$X509_chain_up_ref  00000000000eb458     OpensslLib:x509_cmp.obj
 0005:00000018       $unwind$check_revocation   00000000000eb458     OpensslLib:x509_vfy.obj
 0005:00000018       $unwind$X509_NAME_delete_entry 00000000000eb458     OpensslLib:x509name.obj
 0005:00000018       $unwind$x509_name_ex_i2d   00000000000eb458     OpensslLib:x_name.obj
 0005:00000018       $unwind$tree_add_auth_node 00000000000eb458     OpensslLib:pcy_tree.obj
 0005:00000018       $unwind$nc_uri             00000000000eb458     OpensslLib:v3_ncons.obj
 0005:00000018       $unwind$X509_check_purpose 00000000000eb458     OpensslLib:v3_purp.obj
 0005:00000018       $unwind$X509V3_add_value_int 00000000000eb458     OpensslLib:v3_utl.obj
 0005:00000018       $unwind$WPACKET_sub_allocate_bytes__ 00000000000eb458     OpensslLib:packet.obj
 0005:00000018       $unwind$WPACKET_sub_memcpy__ 00000000000eb458     OpensslLib:packet.obj
 0005:00000018       $unwind$ssl3_release_write_buffer 00000000000eb458     OpensslLib:ssl3_buffer.obj
 0005:00000018       $unwind$SSL3_RECORD_clear  00000000000eb458     OpensslLib:ssl3_record.obj
 0005:00000018       $unwind$ssl3_set_req_cert_type 00000000000eb458     OpensslLib:s3_lib.obj
 0005:00000018       $unwind$ssl3_send_alert    00000000000eb458     OpensslLib:s3_msg.obj
 0005:00000018       $unwind$ssl_cert_set1_chain 00000000000eb458     OpensslLib:ssl_cert.obj
 0005:00000018       $unwind$update_cipher_list_by_id 00000000000eb458     OpensslLib:ssl_ciph.obj
 0005:00000018       $unwind$cmd_PrivateKey     00000000000eb458     OpensslLib:ssl_conf.obj
 0005:00000018       $unwind$cmd_RecordPadding  00000000000eb458     OpensslLib:ssl_conf.obj
 0005:00000018       $unwind$SSL_CTX_add_session 00000000000eb458     OpensslLib:ssl_sess.obj
 0005:00000018       $unwind$custom_exts_free   00000000000eb458     OpensslLib:extensions_cust.obj
 0005:00000018       $unwind$check_for_downgrade 00000000000eb458     OpensslLib:statem_lib.obj
 0005:00000018       $unwind$is_tls13_capable   00000000000eb458     OpensslLib:statem_lib.obj
 0005:00000018       $unwind$get_sigorhash      00000000000eb458     OpensslLib:t1_lib.obj
 0005:00000018       $unwind$tls1_check_sig_alg 00000000000eb458     OpensslLib:t1_lib.obj
 0005:00000018       $unwind$rand_pool_acquire_entropy 00000000000eb458     OpensslLib:rand_pool.obj
 0005:00000018       $unwind$DivU64x32Remainder 00000000000eb458     BaseLib:DivU64x32Remainder.obj
 0005:00000018       $unwind$AsciiStrnCmp       00000000000eb458     BaseLib:String.obj
 0005:00000018       $unwind$ScanMem8           00000000000eb458     BaseMemoryLibRepStr:ScanMem8Wrapper.obj
 0005:00000018       $unwind$SetMem             00000000000eb458     BaseMemoryLibRepStr:SetMemWrapper.obj
 0005:00000018       $unwind$PciCf8Read32       00000000000eb458     BasePciCf8Lib:PciCf8Lib.obj
 0005:00000018       $unwind$ProcessLibraryConstructorList 00000000000eb458     TlsDxe:AutoGen.obj
 0005:00000018       $unwind$InternalAcpiDelay  00000000000eb458     DxeAcpiTimerLib:AcpiTimerLib.obj
 0005:00000028       $unwind$asn1_primitive_free 00000000000eb468     OpensslLib:tasn_fre.obj
 0005:00000028       $unwind$X509_ALGOR_set0    00000000000eb468     OpensslLib:x_algor.obj
 0005:00000028       $unwind$BN_set_bit         00000000000eb468     OpensslLib:bn_lib.obj
 0005:00000028       $unwind$BN_MONT_CTX_set_locked 00000000000eb468     OpensslLib:bn_mont.obj
 0005:00000028       $unwind$BN_add_word        00000000000eb468     OpensslLib:bn_word.obj
 0005:00000028       $unwind$ge_p1p1_to_p2      00000000000eb468     OpensslLib:curve25519.obj
 0005:00000028       $unwind$niels_to_pt        00000000000eb468     OpensslLib:curve448.obj
 0005:00000028       $unwind$oneshot_hash       00000000000eb468     OpensslLib:eddsa.obj
 0005:00000028       $unwind$EC_curve_nist2nid  00000000000eb468     OpensslLib:ec_curve.obj
 0005:00000028       $unwind$ec_precompute_mont_data 00000000000eb468     OpensslLib:ec_lib.obj
 0005:00000028       $unwind$ERR_clear_error    00000000000eb468     OpensslLib:err.obj
 0005:00000028       $unwind$ERR_put_error      00000000000eb468     OpensslLib:err.obj
 0005:00000028       $unwind$aes_ccm_ctrl       00000000000eb468     OpensslLib:e_aes.obj
 0005:00000028       $unwind$aes_wrap_init_key  00000000000eb468     OpensslLib:e_aes.obj
 0005:00000028       $unwind$aria_ccm_ctrl      00000000000eb468     OpensslLib:e_aria.obj
 0005:00000028       $unwind$init               00000000000eb468     OpensslLib:m_sha3.obj
 0005:00000028       $unwind$sha3_final         00000000000eb468     OpensslLib:m_sha3.obj
 0005:00000028       $unwind$hmac_set_priv_key  00000000000eb468     OpensslLib:hm_ameth.obj
 0005:00000028       $unwind$pkey_hkdf_ctrl     00000000000eb468     OpensslLib:hkdf.obj
 0005:00000028       $unwind$pkey_tls1_prf_ctrl 00000000000eb468     OpensslLib:tls1_prf.obj
 0005:00000028       $unwind$CRYPTO_ccm128_init 00000000000eb468     OpensslLib:ccm128.obj
 0005:00000028       $unwind$ctr_BCC_update     00000000000eb468     OpensslLib:drbg_ctr.obj
 0005:00000028       $unwind$rsa_pss_params_create 00000000000eb468     OpensslLib:rsa_ameth.obj
 0005:00000028       $unwind$OPENSSL_sk_insert  00000000000eb468     OpensslLib:stack.obj
 0005:00000028       $unwind$x509_store_add     00000000000eb468     OpensslLib:x509_lu.obj
 0005:00000028       $unwind$X509_check_trust   00000000000eb468     OpensslLib:x509_trs.obj
 0005:00000028       $unwind$check_crl_time     00000000000eb468     OpensslLib:x509_vfy.obj
 0005:00000028       $unwind$crl_extension_match 00000000000eb468     OpensslLib:x509_vfy.obj
 0005:00000028       $unwind$x509_check_cert_time 00000000000eb468     OpensslLib:x509_vfy.obj
 0005:00000028       $unwind$asn1_string_canon  00000000000eb468     OpensslLib:x_name.obj
 0005:00000028       $unwind$tree_add_unmatched 00000000000eb468     OpensslLib:pcy_tree.obj
 0005:00000028       $unwind$do_othername       00000000000eb468     OpensslLib:v3_alt.obj
 0005:00000028       $unwind$print_gens         00000000000eb468     OpensslLib:v3_crld.obj
 0005:00000028       $unwind$print_reasons      00000000000eb468     OpensslLib:v3_crld.obj
 0005:00000028       $unwind$pqueue_find        00000000000eb468     OpensslLib:pqueue.obj
 0005:00000028       $unwind$ssl_cert_select_current 00000000000eb468     OpensslLib:ssl_cert.obj
 0005:00000028       $unwind$do_store           00000000000eb468     OpensslLib:ssl_conf.obj
 0005:00000028       $unwind$ssl_conf_cmd_lookup 00000000000eb468     OpensslLib:ssl_conf.obj
 0005:00000028       $unwind$ssl_update_cache   00000000000eb468     OpensslLib:ssl_lib.obj
 0005:00000028       $unwind$def_generate_session_id 00000000000eb468     OpensslLib:ssl_sess.obj
 0005:00000028       $unwind$remove_session_lock 00000000000eb468     OpensslLib:ssl_sess.obj
 0005:00000028       $unwind$check_cert_usable  00000000000eb468     OpensslLib:t1_lib.obj
 0005:00000028       $unwind$ssl_check_ca_name  00000000000eb468     OpensslLib:t1_lib.obj
 0005:00000028       $unwind$ssl_get_auto_dh    00000000000eb468     OpensslLib:t1_lib.obj
 0005:00000028       $unwind$tls1_check_cert_param 00000000000eb468     OpensslLib:t1_lib.obj
 0005:00000028       $unwind$CompareMem         00000000000eb468     BaseMemoryLibRepStr:CompareMemWrapper.obj
 0005:00000028       $unwind$CopyMem            00000000000eb468     BaseMemoryLibRepStr:CopyMemWrapper.obj
 0005:00000028       $unwind$TlsCreateInstance  00000000000eb468     TlsDxe:TlsDriver.obj
 0005:0000003c       $unwind$TlsDriverEntryPoint 00000000000eb47c     TlsDxe:TlsDriver.obj
 0005:00000058       $unwind$tls_process_finished 00000000000eb498     OpensslLib:statem_lib.obj
 0005:00000058       $unwind$TlsServiceBindingCreateChild 00000000000eb498     TlsDxe:TlsDriver.obj
 0005:0000006c       $unwind$uint64_i2c         00000000000eb4ac     OpensslLib:x_int64.obj
 0005:0000006c       $unwind$TlsServiceBindingDestroyChild 00000000000eb4ac     TlsDxe:TlsDriver.obj
 0005:0000007c       $unwind$pkey_ec_kdf_derive 00000000000eb4bc     OpensslLib:ec_pmeth.obj
 0005:0000007c       $unwind$drbg_ctr_generate  00000000000eb4bc     OpensslLib:drbg_ctr.obj
 0005:0000007c       $unwind$TlsSetSessionData  00000000000eb4bc     TlsDxe:TlsProtocol.obj
 0005:00000094       $unwind$BN_uadd            00000000000eb4d4     OpensslLib:bn_add.obj
 0005:00000094       $unwind$bn_div_words       00000000000eb4d4     OpensslLib:bn_asm.obj
 0005:00000094       $unwind$BN_bin2bn          00000000000eb4d4     OpensslLib:bn_lib.obj
 0005:00000094       $unwind$BN_num_bits        00000000000eb4d4     OpensslLib:bn_lib.obj
 0005:00000094       $unwind$bn_from_mont_fixed_top 00000000000eb4d4     OpensslLib:bn_mont.obj
 0005:00000094       $unwind$BN_div_word        00000000000eb4d4     OpensslLib:bn_word.obj
 0005:00000094       $unwind$int_update         00000000000eb4d4     OpensslLib:cm_pmeth.obj
 0005:00000094       $unwind$ec_GFp_simple_group_get_curve 00000000000eb4d4     OpensslLib:ecp_smpl.obj
 0005:00000094       $unwind$EVP_Digest         00000000000eb4d4     OpensslLib:digest.obj
 0005:00000094       $unwind$aes_ecb_cipher     00000000000eb4d4     OpensslLib:e_aes.obj
 0005:00000094       $unwind$aria_128_ecb_cipher 00000000000eb4d4     OpensslLib:e_aria.obj
 0005:00000094       $unwind$aria_192_ecb_cipher 00000000000eb4d4     OpensslLib:e_aria.obj
 0005:00000094       $unwind$aria_256_ecb_cipher 00000000000eb4d4     OpensslLib:e_aria.obj
 0005:00000094       $unwind$sm4_ecb_cipher     00000000000eb4d4     OpensslLib:e_sm4.obj
 0005:00000094       $unwind$getrn              00000000000eb4d4     OpensslLib:lhash.obj
 0005:00000094       $unwind$SHA1_Final         00000000000eb4d4     OpensslLib:sha1dgst.obj
 0005:00000094       $unwind$SHA256_Final       00000000000eb4d4     OpensslLib:sha256.obj
 0005:00000094       $unwind$SM4_decrypt        00000000000eb4d4     OpensslLib:sm4.obj
 0005:00000094       $unwind$SM4_encrypt        00000000000eb4d4     OpensslLib:sm4.obj
 0005:00000094       $unwind$obj_trust          00000000000eb4d4     OpensslLib:x509_trs.obj
 0005:00000094       $unwind$i2r_certpol        00000000000eb4d4     OpensslLib:v3_cpols.obj
 0005:00000094       $unwind$crldp_from_section 00000000000eb4d4     OpensslLib:v3_crld.obj
 0005:00000094       $unwind$nc_email           00000000000eb4d4     OpensslLib:v3_ncons.obj
 0005:00000094       $unwind$update_cipher_list 00000000000eb4d4     OpensslLib:ssl_ciph.obj
 0005:00000094       $unwind$cmd_Ciphersuites   00000000000eb4d4     OpensslLib:ssl_conf.obj
 0005:00000094       $unwind$cmd_DHParameters   00000000000eb4d4     OpensslLib:ssl_conf.obj
 0005:00000094       $unwind$min_max_proto      00000000000eb4d4     OpensslLib:ssl_conf.obj
 0005:00000094       $unwind$ssl_set_option_list 00000000000eb4d4     OpensslLib:ssl_conf.obj
 0005:00000094       $unwind$SSL_get1_supported_ciphers 00000000000eb4d4     OpensslLib:ssl_lib.obj
 0005:00000094       $unwind$TlsGetSessionData  00000000000eb4d4     TlsDxe:TlsProtocol.obj
 0005:000000ac       $unwind$ASN1_BIT_STRING_set_bit 00000000000eb4ec     OpensslLib:a_bitstr.obj
 0005:000000ac       $unwind$BN_usub            00000000000eb4ec     OpensslLib:bn_add.obj
 0005:000000ac       $unwind$BN_mod_mul_reciprocal 00000000000eb4ec     OpensslLib:bn_recp.obj
 0005:000000ac       $unwind$DH_check_pub_key   00000000000eb4ec     OpensslLib:dh_check.obj
 0005:000000ac       $unwind$ec_field_inverse_mod_ord 00000000000eb4ec     OpensslLib:ec_lib.obj
 0005:000000ac       $unwind$ec_guess_cofactor  00000000000eb4ec     OpensslLib:ec_lib.obj
 0005:000000ac       $unwind$ec_GFp_mont_field_inv 00000000000eb4ec     OpensslLib:ecp_mont.obj
 0005:000000ac       $unwind$ec_GFp_nist_field_mul 00000000000eb4ec     OpensslLib:ecp_nist.obj
 0005:000000ac       $unwind$ec_GFp_nist_group_set_curve 00000000000eb4ec     OpensslLib:ecp_nist.obj
 0005:000000ac       $unwind$ec_GFp_simple_field_inv 00000000000eb4ec     OpensslLib:ecp_smpl.obj
 0005:000000ac       $unwind$ec_GFp_simple_make_affine 00000000000eb4ec     OpensslLib:ecp_smpl.obj
 0005:000000ac       $unwind$get_name           00000000000eb4ec     OpensslLib:pem_lib.obj
 0005:000000ac       $unwind$X509_STORE_CTX_get_by_subject 00000000000eb4ec     OpensslLib:x509_lu.obj
 0005:000000ac       $unwind$v2i_issuer_alt     00000000000eb4ec     OpensslLib:v3_alt.obj
 0005:000000ac       $unwind$v2i_subject_alt    00000000000eb4ec     OpensslLib:v3_alt.obj
 0005:000000ac       $unwind$ssl_handshake_hash 00000000000eb4ec     OpensslLib:ssl_lib.obj
 0005:000000ac       $unwind$tls_parse_all_extensions 00000000000eb4ec     OpensslLib:extensions.obj
 0005:000000ac       $unwind$tls_construct_ctos_use_srtp 00000000000eb4ec     OpensslLib:extensions_clnt.obj
 0005:000000ac       $unwind$ssl_add_cert_chain 00000000000eb4ec     OpensslLib:statem_lib.obj
 0005:000000ac       $unwind$tls12_copy_sigalgs 00000000000eb4ec     OpensslLib:t1_lib.obj
 0005:000000ac       $unwind$TlsBuildResponsePacket 00000000000eb4ec     TlsDxe:TlsProtocol.obj
 0005:000000c8       $unwind$i2c_ASN1_BIT_STRING 00000000000eb508     OpensslLib:a_bitstr.obj
 0005:000000c8       $unwind$EVP_PKEY_asn1_find_str 00000000000eb508     OpensslLib:ameth_lib.obj
 0005:000000c8       $unwind$mem_ctrl           00000000000eb508     OpensslLib:bss_mem.obj
 0005:000000c8       $unwind$BN_mul_word        00000000000eb508     OpensslLib:bn_word.obj
 0005:000000c8       $unwind$cmac_signctx       00000000000eb508     OpensslLib:cm_pmeth.obj
 0005:000000c8       $unwind$ssl_module_free    00000000000eb508     OpensslLib:conf_ssl.obj
 0005:000000c8       $unwind$DH_check_params    00000000000eb508     OpensslLib:dh_check.obj
 0005:000000c8       $unwind$ge_p1p1_to_p3      00000000000eb508     OpensslLib:curve25519.obj
 0005:000000c8       $unwind$EVP_CIPHER_set_asn1_iv 00000000000eb508     OpensslLib:evp_lib.obj
 0005:000000c8       $unwind$sha3_update        00000000000eb508     OpensslLib:m_sha3.obj
 0005:000000c8       $unwind$expand             00000000000eb508     OpensslLib:lhash.obj
 0005:000000c8       $unwind$MD5_Final          00000000000eb508     OpensslLib:md5_dgst.obj
 0005:000000c8       $unwind$MD5_Update         00000000000eb508     OpensslLib:md5_dgst.obj
 0005:000000c8       $unwind$CRYPTO_realloc     00000000000eb508     OpensslLib:mem.obj
 0005:000000c8       $unwind$OBJ_NAME_add       00000000000eb508     OpensslLib:o_names.obj
 0005:000000c8       $unwind$SHA3_absorb        00000000000eb508     OpensslLib:keccak1600.obj
 0005:000000c8       $unwind$SHA1_Update        00000000000eb508     OpensslLib:sha1dgst.obj
 0005:000000c8       $unwind$SHA256_Update      00000000000eb508     OpensslLib:sha256.obj
 0005:000000c8       $unwind$SHA512_Update      00000000000eb508     OpensslLib:sha512.obj
 0005:000000c8       $unwind$update             00000000000eb508     OpensslLib:m_sm3.obj
 0005:000000c8       $unwind$sm3_final          00000000000eb508     OpensslLib:sm3.obj
 0005:000000c8       $unwind$check_crl          00000000000eb508     OpensslLib:x509_vfy.obj
 0005:000000c8       $unwind$dane_verify        00000000000eb508     OpensslLib:x509_vfy.obj
 0005:000000c8       $unwind$internal_verify    00000000000eb508     OpensslLib:x509_vfy.obj
 0005:000000c8       $unwind$X509_VERIFY_PARAM_inherit 00000000000eb508     OpensslLib:x509_vpm.obj
 0005:000000c8       $unwind$int_x509_param_set_hosts 00000000000eb508     OpensslLib:x509_vpm.obj
 0005:000000c8       $unwind$i2v_GENERAL_NAMES  00000000000eb508     OpensslLib:v3_alt.obj
 0005:000000c8       $unwind$i2r_crldp          00000000000eb508     OpensslLib:v3_crld.obj
 0005:000000c8       $unwind$SXNET_get_id_INTEGER 00000000000eb508     OpensslLib:v3_sxnet.obj
 0005:000000c8       $unwind$cmd_Certificate    00000000000eb508     OpensslLib:ssl_conf.obj
 0005:000000c8       $unwind$cmd_ECDHParameters 00000000000eb508     OpensslLib:ssl_conf.obj
 0005:000000c8       $unwind$check_in_list      00000000000eb508     OpensslLib:statem_lib.obj
 0005:000000c8       $unwind$ssl_version_supported 00000000000eb508     OpensslLib:statem_lib.obj
 0005:000000c8       $unwind$TlsConfigurationGetData 00000000000eb508     TlsDxe:TlsConfigProtocol.obj
 0005:000000c8       $unwind$TlsConfigurationSetData 00000000000eb508     TlsDxe:TlsConfigProtocol.obj
 0005:000000c8       $unwind$TlsProcessPacket   00000000000eb508     TlsDxe:TlsProtocol.obj
 0005:000000e0       $unwind$sm2_sig_verify     00000000000eb520     OpensslLib:sm2_sign.obj
 0005:000000e0       $unwind$TlsDecryptPacket   00000000000eb520     TlsDxe:TlsImpl.obj
 0005:000000e0       $unwind$TlsEncryptPacket   00000000000eb520     TlsDxe:TlsImpl.obj
 0005:000000f8       $unwind$strchr             00000000000eb538     BaseCryptLib:CrtWrapper.obj
 0005:000000f8       $unwind$AES_set_decrypt_key 00000000000eb538     OpensslLib:aes_core.obj
 0005:000000f8       $unwind$ASN1_STRING_cmp    00000000000eb538     OpensslLib:asn1_lib.obj
 0005:000000f8       $unwind$ASN1_STRING_copy   00000000000eb538     OpensslLib:asn1_lib.obj
 0005:000000f8       $unwind$ASN1_STRING_dup    00000000000eb538     OpensslLib:asn1_lib.obj
 0005:000000f8       $unwind$der_cmp            00000000000eb538     OpensslLib:tasn_enc.obj
 0005:000000f8       $unwind$async_release_job  00000000000eb538     OpensslLib:async.obj
 0005:000000f8       $unwind$buffer_free        00000000000eb538     OpensslLib:bf_buff.obj
 0005:000000f8       $unwind$BIO_indent         00000000000eb538     OpensslLib:bio_lib.obj
 0005:000000f8       $unwind$BIO_pop            00000000000eb538     OpensslLib:bio_lib.obj
 0005:000000f8       $unwind$mem_buf_free       00000000000eb538     OpensslLib:bss_mem.obj
 0005:000000f8       $unwind$BN_dup             00000000000eb538     OpensslLib:bn_lib.obj
 0005:000000f8       $unwind$BN_set_word        00000000000eb538     OpensslLib:bn_lib.obj
 0005:000000f8       $unwind$BN_mod_lshift1_quick 00000000000eb538     OpensslLib:bn_mod.obj
 0005:000000f8       $unwind$BN_mod_sub_quick   00000000000eb538     OpensslLib:bn_mod.obj
 0005:000000f8       $unwind$BN_MONT_CTX_copy   00000000000eb538     OpensslLib:bn_mont.obj
 0005:000000f8       $unwind$BN_lshift1         00000000000eb538     OpensslLib:bn_shift.obj
 0005:000000f8       $unwind$BN_mod_word        00000000000eb538     OpensslLib:bn_word.obj
 0005:000000f8       $unwind$pkey_cmac_copy     00000000000eb538     OpensslLib:cm_pmeth.obj
 0005:000000f8       $unwind$dh_pub_cmp         00000000000eb538     OpensslLib:dh_ameth.obj
 0005:000000f8       $unwind$dh_security_bits   00000000000eb538     OpensslLib:dh_ameth.obj
 0005:000000f8       $unwind$int_dh_bn_cpy      00000000000eb538     OpensslLib:dh_ameth.obj
 0005:000000f8       $unwind$pkey_dh_copy       00000000000eb538     OpensslLib:dh_pmeth.obj
 0005:000000f8       $unwind$dh_param_init      00000000000eb538     OpensslLib:dh_rfc7919.obj
 0005:000000f8       $unwind$ge_p3_to_cached    00000000000eb538     OpensslLib:curve25519.obj
 0005:000000f8       $unwind$gf_strong_reduce   00000000000eb538     OpensslLib:f_generic.obj
 0005:000000f8       $unwind$ec_copy_parameters 00000000000eb538     OpensslLib:ec_ameth.obj
 0005:000000f8       $unwind$EC_KEY_dup         00000000000eb538     OpensslLib:ec_key.obj
 0005:000000f8       $unwind$EC_GROUP_dup       00000000000eb538     OpensslLib:ec_lib.obj
 0005:000000f8       $unwind$pkey_ec_cleanup    00000000000eb538     OpensslLib:ec_pmeth.obj
 0005:000000f8       $unwind$pkey_ec_copy       00000000000eb538     OpensslLib:ec_pmeth.obj
 0005:000000f8       $unwind$ec_GFp_mont_group_copy 00000000000eb538     OpensslLib:ecp_mont.obj
 0005:000000f8       $unwind$ec_GFp_simple_group_copy 00000000000eb538     OpensslLib:ecp_smpl.obj
 0005:000000f8       $unwind$ec_GFp_simple_invert 00000000000eb538     OpensslLib:ecp_smpl.obj
 0005:000000f8       $unwind$ec_GFp_simple_point_copy 00000000000eb538     OpensslLib:ecp_smpl.obj
 0005:000000f8       $unwind$ecx_free           00000000000eb538     OpensslLib:ecx_meth.obj
 0005:000000f8       $unwind$EVP_MD_CTX_reset   00000000000eb538     OpensslLib:digest.obj
 0005:000000f8       $unwind$aes_gcm_cipher     00000000000eb538     OpensslLib:e_aes.obj
 0005:000000f8       $unwind$aes_gcm_cleanup    00000000000eb538     OpensslLib:e_aes.obj
 0005:000000f8       $unwind$aria_gcm_cipher    00000000000eb538     OpensslLib:e_aria.obj
 0005:000000f8       $unwind$final              00000000000eb538     OpensslLib:m_md5_sha1.obj
 0005:000000f8       $unwind$EVP_add_digest     00000000000eb538     OpensslLib:names.obj
 0005:000000f8       $unwind$EVP_PKEY_cmp       00000000000eb538     OpensslLib:p_lib.obj
 0005:000000f8       $unwind$HMAC_CTX_copy      00000000000eb538     OpensslLib:hmac.obj
 0005:000000f8       $unwind$hmac_ctx_alloc_mds 00000000000eb538     OpensslLib:hmac.obj
 0005:000000f8       $unwind$ossl_init_base_ossl_ 00000000000eb538     OpensslLib:init.obj
 0005:000000f8       $unwind$pkey_hkdf_cleanup  00000000000eb538     OpensslLib:hkdf.obj
 0005:000000f8       $unwind$pkey_hkdf_derive_init 00000000000eb538     OpensslLib:hkdf.obj
 0005:000000f8       $unwind$pkey_tls1_prf_cleanup 00000000000eb538     OpensslLib:tls1_prf.obj
 0005:000000f8       $unwind$CRYPTO_malloc      00000000000eb538     OpensslLib:mem.obj
 0005:000000f8       $unwind$CRYPTO_zalloc      00000000000eb538     OpensslLib:mem.obj
 0005:000000f8       $unwind$CRYPTO_gcm128_tag  00000000000eb538     OpensslLib:gcm128.obj
 0005:000000f8       $unwind$CRYPTO_strdup      00000000000eb538     OpensslLib:o_str.obj
 0005:000000f8       $unwind$i2d_ocsp_nonce     00000000000eb538     OpensslLib:v3_ocsp.obj
 0005:000000f8       $unwind$pem_check_suffix   00000000000eb538     OpensslLib:pem_lib.obj
 0005:000000f8       $unwind$RAND_priv_bytes    00000000000eb538     OpensslLib:rand_lib.obj
 0005:000000f8       $unwind$rsa_pub_cmp        00000000000eb538     OpensslLib:rsa_ameth.obj
 0005:000000f8       $unwind$pkey_rsa_copy      00000000000eb538     OpensslLib:rsa_pmeth.obj
 0005:000000f8       $unwind$pkey_sm2_cleanup   00000000000eb538     OpensslLib:sm2_pmeth.obj
 0005:000000f8       $unwind$internal_delete    00000000000eb538     OpensslLib:stack.obj
 0005:000000f8       $unwind$X509_cmp           00000000000eb538     OpensslLib:x509_cmp.obj
 0005:000000f8       $unwind$check_suite_b      00000000000eb538     OpensslLib:x509_cmp.obj
 0005:000000f8       $unwind$trust_compat       00000000000eb538     OpensslLib:x509_trs.obj
 0005:000000f8       $unwind$X509v3_get_ext_by_NID 00000000000eb538     OpensslLib:x509_v3.obj
 0005:000000f8       $unwind$X509_STORE_CTX_cleanup 00000000000eb538     OpensslLib:x509_vfy.obj
 0005:000000f8       $unwind$check_dane_issuer  00000000000eb538     OpensslLib:x509_vfy.obj
 0005:000000f8       $unwind$check_key_level    00000000000eb538     OpensslLib:x509_vfy.obj
 0005:000000f8       $unwind$verify_chain       00000000000eb538     OpensslLib:x509_vfy.obj
 0005:000000f8       $unwind$X509_NAME_get_index_by_NID 00000000000eb538     OpensslLib:x509name.obj
 0005:000000f8       $unwind$X509_PUBKEY_set0_param 00000000000eb538     OpensslLib:x_pubkey.obj
 0005:000000f8       $unwind$pubkey_cb          00000000000eb538     OpensslLib:x_pubkey.obj
 0005:000000f8       $unwind$displaytext_str2tag 00000000000eb538     OpensslLib:v3_cpols.obj
 0005:000000f8       $unwind$i2r_idp            00000000000eb538     OpensslLib:v3_crld.obj
 0005:000000f8       $unwind$i2r_PKEY_USAGE_PERIOD 00000000000eb538     OpensslLib:v3_pku.obj
 0005:000000f8       $unwind$X509_check_akid    00000000000eb538     OpensslLib:v3_purp.obj
 0005:000000f8       $unwind$check_purpose_ns_ssl_server 00000000000eb538     OpensslLib:v3_purp.obj
 0005:000000f8       $unwind$x509_likely_issued 00000000000eb538     OpensslLib:v3_purp.obj
 0005:000000f8       $unwind$a2i_ipadd          00000000000eb538     OpensslLib:v3_utl.obj
 0005:000000f8       $unwind$name_cmp           00000000000eb538     OpensslLib:v3_utl.obj
 0005:000000f8       $unwind$dtls1_clear_received_buffer 00000000000eb538     OpensslLib:d1_lib.obj
 0005:000000f8       $unwind$dtls1_clear_sent_buffer 00000000000eb538     OpensslLib:d1_lib.obj
 0005:000000f8       $unwind$dtls1_start_timer  00000000000eb538     OpensslLib:d1_lib.obj
 0005:000000f8       $unwind$WPACKET_allocate_bytes 00000000000eb538     OpensslLib:packet.obj
 0005:000000f8       $unwind$WPACKET_cleanup    00000000000eb538     OpensslLib:packet.obj
 0005:000000f8       $unwind$WPACKET_finish     00000000000eb538     OpensslLib:packet.obj
 0005:000000f8       $unwind$WPACKET_init_static_len 00000000000eb538     OpensslLib:packet.obj
 0005:000000f8       $unwind$WPACKET_memcpy     00000000000eb538     OpensslLib:packet.obj
 0005:000000f8       $unwind$WPACKET_put_bytes__ 00000000000eb538     OpensslLib:packet.obj
 0005:000000f8       $unwind$WPACKET_reserve_bytes 00000000000eb538     OpensslLib:packet.obj
 0005:000000f8       $unwind$dtls1_reset_seq_numbers 00000000000eb538     OpensslLib:rec_layer_d1.obj
 0005:000000f8       $unwind$RECORD_LAYER_release 00000000000eb538     OpensslLib:rec_layer_s3.obj
 0005:000000f8       $unwind$ssl3_cleanup_key_block 00000000000eb538     OpensslLib:s3_enc.obj
 0005:000000f8       $unwind$ssl3_free_digest_list 00000000000eb538     OpensslLib:s3_enc.obj
 0005:000000f8       $unwind$ssl3_clear         00000000000eb538     OpensslLib:s3_lib.obj
 0005:000000f8       $unwind$ssl_dh_to_pkey     00000000000eb538     OpensslLib:s3_lib.obj
 0005:000000f8       $unwind$ssl_fill_hello_random 00000000000eb538     OpensslLib:s3_lib.obj
 0005:000000f8       $unwind$ssl_session_strndup 00000000000eb538     OpensslLib:ssl_asn1.obj
 0005:000000f8       $unwind$SSL_CTX_set_ciphersuites 00000000000eb538     OpensslLib:ssl_ciph.obj
 0005:000000f8       $unwind$cmd_NumTickets     00000000000eb538     OpensslLib:ssl_conf.obj
 0005:000000f8       $unwind$cmd_RequestCAFile  00000000000eb538     OpensslLib:ssl_conf.obj
 0005:000000f8       $unwind$ssl_conf_cmd_skip_prefix 00000000000eb538     OpensslLib:ssl_conf.obj
 0005:000000f8       $unwind$SSL_ctrl           00000000000eb538     OpensslLib:ssl_lib.obj
 0005:000000f8       $unwind$SSL_set0_wbio      00000000000eb538     OpensslLib:ssl_lib.obj
 0005:000000f8       $unwind$clear_ciphers      00000000000eb538     OpensslLib:ssl_lib.obj
 0005:000000f8       $unwind$ssl_replace_hash   00000000000eb538     OpensslLib:ssl_lib.obj
 0005:000000f8       $unwind$timeout_cb         00000000000eb538     OpensslLib:ssl_sess.obj
 0005:000000f8       $unwind$use_ecc            00000000000eb538     OpensslLib:extensions_clnt.obj
 0005:000000f8       $unwind$PACKET_copy_bytes  00000000000eb538     OpensslLib:statem_clnt.obj
 0005:000000f8       $unwind$dtls1_get_message_header 00000000000eb538     OpensslLib:statem_dtls.obj
 0005:000000f8       $unwind$ssl3_take_mac      00000000000eb538     OpensslLib:statem_lib.obj
 0005:000000f8       $unwind$tls_close_construct_packet 00000000000eb538     OpensslLib:statem_lib.obj
 0005:000000f8       $unwind$PACKET_copy_bytes  00000000000eb538     OpensslLib:statem_srvr.obj
 0005:000000f8       $unwind$InsertTailList     00000000000eb538     BaseLib:LinkedList.obj
 0005:000000f8       $unwind$AsciiStrCmp        00000000000eb538     BaseLib:String.obj
 0005:000000f8       $unwind$AsciiStrLen        00000000000eb538     BaseLib:String.obj
 0005:000000f8       $unwind$AsciiStriCmp       00000000000eb538     BaseLib:String.obj
 0005:000000f8       $unwind$ZeroMem            00000000000eb538     BaseMemoryLibRepStr:ZeroMemWrapper.obj
 0005:000000f8       $unwind$GetRandomNumber64  00000000000eb538     BaseRngLibTimerLib:RngLibTimer.obj
 0005:00000104       $unwind$DebugPrint         00000000000eb544     BaseDebugLibSerialPort:DebugLib.obj
 0005:0000010c       $unwind$DebugPrintMarker   00000000000eb54c     BaseDebugLibSerialPort:DebugLib.obj
 0005:00000120       $unwind$DebugAssert        00000000000eb560     BaseDebugLibSerialPort:DebugLib.obj
 0005:00000128       $unwind$strspn             00000000000eb568     BaseCryptLib:CrtWrapper.obj
 0005:00000128       $unwind$ASN1_ENUMERATED_get 00000000000eb568     OpensslLib:a_int.obj
 0005:00000128       $unwind$ASN1_INTEGER_get   00000000000eb568     OpensslLib:a_int.obj
 0005:00000128       $unwind$asn1_string_set_int64 00000000000eb568     OpensslLib:a_int.obj
 0005:00000128       $unwind$st_free            00000000000eb568     OpensslLib:a_strnid.obj
 0005:00000128       $unwind$stbl_module_finish 00000000000eb568     OpensslLib:asn_mstbl.obj
 0005:00000128       $unwind$PKCS8_PRIV_KEY_INFO_free 00000000000eb568     OpensslLib:p8_pkey.obj
 0005:00000128       $unwind$pkey_cb            00000000000eb568     OpensslLib:p8_pkey.obj
 0005:00000128       $unwind$ASN1_TYPE_free     00000000000eb568     OpensslLib:tasn_typ.obj
 0005:00000128       $unwind$X509_ALGOR_free    00000000000eb568     OpensslLib:x_algor.obj
 0005:00000128       $unwind$ASYNC_get_current_job 00000000000eb568     OpensslLib:async.obj
 0005:00000128       $unwind$BN_GENCB_call      00000000000eb568     OpensslLib:bn_prime.obj
 0005:00000128       $unwind$int_dh_size        00000000000eb568     OpensslLib:dh_ameth.obj
 0005:00000128       $unwind$dh_finish          00000000000eb568     OpensslLib:dh_key.obj
 0005:00000128       $unwind$gf_sub_nr          00000000000eb568     OpensslLib:curve448.obj
 0005:00000128       $unwind$ec_security_bits   00000000000eb568     OpensslLib:ec_ameth.obj
 0005:00000128       $unwind$eckey_pub_cmp      00000000000eb568     OpensslLib:ec_ameth.obj
 0005:00000128       $unwind$ERR_set_mark       00000000000eb568     OpensslLib:err.obj
 0005:00000128       $unwind$aria_gcm_cleanup   00000000000eb568     OpensslLib:e_aria.obj
 0005:00000128       $unwind$null_cipher        00000000000eb568     OpensslLib:e_null.obj
 0005:00000128       $unwind$sm4_init_key       00000000000eb568     OpensslLib:e_sm4.obj
 0005:00000128       $unwind$EVP_CIPHER_CTX_iv_length 00000000000eb568     OpensslLib:evp_lib.obj
 0005:00000128       $unwind$EVP_PKEY_get1_tls_encodedpoint 00000000000eb568     OpensslLib:p_lib.obj
 0005:00000128       $unwind$EVP_PKEY_set1_tls_encodedpoint 00000000000eb568     OpensslLib:p_lib.obj
 0005:00000128       $unwind$hmac_get_priv_key  00000000000eb568     OpensslLib:hm_ameth.obj
 0005:00000128       $unwind$int_update         00000000000eb568     OpensslLib:hm_pmeth.obj
 0005:00000128       $unwind$ossl_init_add_all_digests_ossl_ 00000000000eb568     OpensslLib:init.obj
 0005:00000128       $unwind$ossl_init_config_ossl_ 00000000000eb568     OpensslLib:init.obj
 0005:00000128       $unwind$o_names_init_ossl_ 00000000000eb568     OpensslLib:o_names.obj
 0005:00000128       $unwind$obj_name_cmp       00000000000eb568     OpensslLib:o_names.obj
 0005:00000128       $unwind$added_obj_cmp      00000000000eb568     OpensslLib:obj_dat.obj
 0005:00000128       $unwind$obj_cmp_BSEARCH_CMP_FN 00000000000eb568     OpensslLib:obj_dat.obj
 0005:00000128       $unwind$OCSP_RESPID_free   00000000000eb568     OpensslLib:ocsp_asn.obj
 0005:00000128       $unwind$i2r_object         00000000000eb568     OpensslLib:v3_ocsp.obj
 0005:00000128       $unwind$i2r_ocsp_acutoff   00000000000eb568     OpensslLib:v3_ocsp.obj
 0005:00000128       $unwind$i2r_ocsp_nonce     00000000000eb568     OpensslLib:v3_ocsp.obj
 0005:00000128       $unwind$RAND_DRBG_get0_master 00000000000eb568     OpensslLib:drbg_lib.obj
 0005:00000128       $unwind$drbg_status        00000000000eb568     OpensslLib:drbg_lib.obj
 0005:00000128       $unwind$RAND_get_rand_method 00000000000eb568     OpensslLib:rand_lib.obj
 0005:00000128       $unwind$int_rsa_size       00000000000eb568     OpensslLib:rsa_ameth.obj
 0005:00000128       $unwind$rsa_pss_cb         00000000000eb568     OpensslLib:rsa_asn1.obj
 0005:00000128       $unwind$int_update         00000000000eb568     OpensslLib:siphash_pmeth.obj
 0005:00000128       $unwind$x509_object_cmp    00000000000eb568     OpensslLib:x509_lu.obj
 0005:00000128       $unwind$check_issued       00000000000eb568     OpensslLib:x509_vfy.obj
 0005:00000128       $unwind$X509_ATTRIBUTE_free 00000000000eb568     OpensslLib:x_attrib.obj
 0005:00000128       $unwind$X509_CRL_free      00000000000eb568     OpensslLib:x_crl.obj
 0005:00000128       $unwind$X509_EXTENSION_free 00000000000eb568     OpensslLib:x_exten.obj
 0005:00000128       $unwind$X509_NAME_ENTRY_free 00000000000eb568     OpensslLib:x_name.obj
 0005:00000128       $unwind$X509_NAME_free     00000000000eb568     OpensslLib:x_name.obj
 0005:00000128       $unwind$X509_free          00000000000eb568     OpensslLib:x_x509.obj
 0005:00000128       $unwind$policy_data_cmp    00000000000eb568     OpensslLib:pcy_cache.obj
 0005:00000128       $unwind$node_cmp           00000000000eb568     OpensslLib:pcy_node.obj
 0005:00000128       $unwind$exnode_free        00000000000eb568     OpensslLib:pcy_tree.obj
 0005:00000128       $unwind$POLICYINFO_free    00000000000eb568     OpensslLib:v3_cpols.obj
 0005:00000128       $unwind$POLICYQUALINFO_free 00000000000eb568     OpensslLib:v3_cpols.obj
 0005:00000128       $unwind$DIST_POINT_free    00000000000eb568     OpensslLib:v3_crld.obj
 0005:00000128       $unwind$dpn_cb             00000000000eb568     OpensslLib:v3_crld.obj
 0005:00000128       $unwind$GENERAL_NAMES_free 00000000000eb568     OpensslLib:v3_genn.obj
 0005:00000128       $unwind$GENERAL_NAME_free  00000000000eb568     OpensslLib:v3_genn.obj
 0005:00000128       $unwind$ACCESS_DESCRIPTION_free 00000000000eb568     OpensslLib:v3_info.obj
 0005:00000128       $unwind$POLICY_MAPPING_free 00000000000eb568     OpensslLib:v3_pmaps.obj
 0005:00000128       $unwind$check_purpose_crl_sign 00000000000eb568     OpensslLib:v3_purp.obj
 0005:00000128       $unwind$check_purpose_smime_encrypt 00000000000eb568     OpensslLib:v3_purp.obj
 0005:00000128       $unwind$check_purpose_smime_sign 00000000000eb568     OpensslLib:v3_purp.obj
 0005:00000128       $unwind$check_purpose_ssl_client 00000000000eb568     OpensslLib:v3_purp.obj
 0005:00000128       $unwind$check_purpose_ssl_server 00000000000eb568     OpensslLib:v3_purp.obj
 0005:00000128       $unwind$purpose_smime      00000000000eb568     OpensslLib:v3_purp.obj
 0005:00000128       $unwind$dtls1_min_mtu      00000000000eb568     OpensslLib:d1_lib.obj
 0005:00000128       $unwind$ossl_assert_int    00000000000eb568     OpensslLib:packet.obj
 0005:00000128       $unwind$do_load_builtin_compressions_ossl_ 00000000000eb568     OpensslLib:ssl_ciph.obj
 0005:00000128       $unwind$ssl_handshake_md   00000000000eb568     OpensslLib:ssl_ciph.obj
 0005:00000128       $unwind$ssl_library_stop   00000000000eb568     OpensslLib:ssl_init.obj
 0005:00000128       $unwind$ssl_clear_bad_session 00000000000eb568     OpensslLib:ssl_sess.obj
 0005:00000128       $unwind$custom_ext_free_old_cb_wrap 00000000000eb568     OpensslLib:extensions_cust.obj
 0005:00000128       $unwind$ossl_statem_client_pre_work 00000000000eb568     OpensslLib:statem_clnt.obj
 0005:00000128       $unwind$tls_construct_cert_status 00000000000eb568     OpensslLib:statem_srvr.obj
 0005:00000128       $unwind$tls_construct_server_done 00000000000eb568     OpensslLib:statem_srvr.obj
 0005:00000128       $unwind$sigalg_security_bits 00000000000eb568     OpensslLib:t1_lib.obj
 0005:00000128       $unwind$tls1_get_group_id  00000000000eb568     OpensslLib:t1_lib.obj
 0005:00000128       $unwind$TlsSetConnectionEnd 00000000000eb568     TlsLib:TlsConfig.obj
 0005:00000128       $unwind$GetPcdProtocol     00000000000eb568     DxePcdLib:DxePcdLib.obj
 0005:00000128       $unwind$FreePool           00000000000eb568     UefiMemoryAllocationLib:MemoryAllocationLib.obj
 0005:00000128       $unwind$InternalAllocatePool 00000000000eb568     UefiMemoryAllocationLib:MemoryAllocationLib.obj
 0005:00000130       $unwind$BN_nist_mod_192    00000000000eb570     OpensslLib:bn_nist.obj
 0005:00000130       $unwind$generate_key       00000000000eb570     OpensslLib:dh_key.obj
 0005:00000130       $unwind$aes_ccm_cipher     00000000000eb570     OpensslLib:e_aes.obj
 0005:00000130       $unwind$aes_ccm_tls_cipher 00000000000eb570     OpensslLib:e_aes.obj
 0005:00000130       $unwind$aria_ccm_cipher    00000000000eb570     OpensslLib:e_aria.obj
 0005:00000130       $unwind$aria_ccm_tls_cipher 00000000000eb570     OpensslLib:e_aria.obj
 0005:00000130       $unwind$drbg_ctr_instantiate 00000000000eb570     OpensslLib:drbg_ctr.obj
 0005:00000130       $unwind$RAND_DRBG_bytes    00000000000eb570     OpensslLib:drbg_lib.obj
 0005:00000130       $unwind$ssl_cipher_get_evp 00000000000eb570     OpensslLib:ssl_ciph.obj
 0005:00000130       $unwind$TlsNew             00000000000eb570     TlsLib:TlsInit.obj
 0005:0000014c       $unwind$TlsSetCipherList   00000000000eb58c     TlsLib:TlsConfig.obj
 0005:00000164       $unwind$BIO_ctrl           00000000000eb5a4     OpensslLib:bio_lib.obj
 0005:00000164       $unwind$bio_read_intern    00000000000eb5a4     OpensslLib:bio_lib.obj
 0005:00000164       $unwind$bio_write_intern   00000000000eb5a4     OpensslLib:bio_lib.obj
 0005:00000164       $unwind$ossl_ecdsa_verify  00000000000eb5a4     OpensslLib:ecdsa_ossl.obj
 0005:00000164       $unwind$rand_drbg_get_nonce 00000000000eb5a4     OpensslLib:rand_lib.obj
 0005:00000164       $unwind$a2i_IPADDRESS_NC   00000000000eb5a4     OpensslLib:v3_utl.obj
 0005:00000164       $unwind$TlsSetVerifyHost   00000000000eb5a4     TlsLib:TlsConfig.obj
 0005:00000178       $unwind$TlsSetCaCertificate 00000000000eb5b8     TlsLib:TlsConfig.obj
 0005:0000018c       $unwind$TlsSetHostPublicCert 00000000000eb5cc     TlsLib:TlsConfig.obj
 0005:0000019c       $unwind$TlsGetHostPublicCert 00000000000eb5dc     TlsLib:TlsConfig.obj
 0005:000001a8       $unwind$TlsDoHandshake     00000000000eb5e8     TlsLib:TlsProcess.obj
 0005:000001c0       $unwind$ssl_set_sig_mask   00000000000eb600     OpensslLib:t1_lib.obj
 0005:000001c0       $unwind$TlsHandleAlert     00000000000eb600     TlsLib:TlsProcess.obj
 0005:000001d8       $unwind$pkey_rsa_decrypt   00000000000eb618     OpensslLib:rsa_pmeth.obj
 0005:000001d8       $unwind$TlsCloseNotify     00000000000eb618     TlsLib:TlsProcess.obj
 0005:000001ec       $unwind$BIO_free           00000000000eb62c     OpensslLib:bio_lib.obj
 0005:000001ec       $unwind$pkey_ecd_digestsign448 00000000000eb62c     OpensslLib:ecx_meth.obj
 0005:000001ec       $unwind$aes_ctr_cipher     00000000000eb62c     OpensslLib:e_aes.obj
 0005:000001ec       $unwind$ssl3_shutdown      00000000000eb62c     OpensslLib:s3_lib.obj
 0005:000001ec       $unwind$tls_parse_stoc_psk 00000000000eb62c     OpensslLib:extensions_clnt.obj
 0005:000001ec       $unwind$tls_parse_stoc_use_srtp 00000000000eb62c     OpensslLib:extensions_clnt.obj
 0005:000001ec       $unwind$tls_parse_ctos_ec_pt_formats 00000000000eb62c     OpensslLib:extensions_srvr.obj
 0005:000001ec       $unwind$tls_parse_ctos_sig_algs 00000000000eb62c     OpensslLib:extensions_srvr.obj
 0005:000001ec       $unwind$tls_parse_ctos_sig_algs_cert 00000000000eb62c     OpensslLib:extensions_srvr.obj
 0005:000001ec       $unwind$AsciiStrCatS       00000000000eb62c     BaseLib:SafeString.obj
 0005:000001ec       $unwind$AsciiStrCpyS       00000000000eb62c     BaseLib:SafeString.obj
 0005:000001ec       $unwind$AsciiStrDecimalToUintnS 00000000000eb62c     BaseLib:SafeString.obj
 0005:000001ec       $unwind$AsciiStrnCpyS      00000000000eb62c     BaseLib:SafeString.obj
 0005:000001f4       $unwind$AsciiSPrint        00000000000eb634     BasePrintLib:PrintLib.obj
 0005:000001fc       $unwind$rsa_pss_decode     00000000000eb63c     OpensslLib:rsa_ameth.obj
 0005:000001fc       $unwind$ssl_session_hash   00000000000eb63c     OpensslLib:ssl_lib.obj
 0005:000001fc       $unwind$BasePrintLibValueToString 00000000000eb63c     BasePrintLib:PrintLibInternal.obj
 0005:00000208       $unwind$BasePrintLibSPrintMarker 00000000000eb648     BasePrintLib:PrintLibInternal.obj
 0005:00000224       $unwind$BasePrintLibSPrint 00000000000eb664     BasePrintLib:PrintLibInternal.obj
 0005:0000022c       $unwind$free               00000000000eb66c     BaseCryptLib:BaseMemAllocation.obj
 0005:0000022c       $unwind$ASN1_OBJECT_free   00000000000eb66c     OpensslLib:a_object.obj
 0005:0000022c       $unwind$ASN1_STRING_clear_free 00000000000eb66c     OpensslLib:asn1_lib.obj
 0005:0000022c       $unwind$asn1_ex_i2c        00000000000eb66c     OpensslLib:tasn_enc.obj
 0005:0000022c       $unwind$BN_BLINDING_free   00000000000eb66c     OpensslLib:bn_blind.obj
 0005:0000022c       $unwind$BN_clear_free      00000000000eb66c     OpensslLib:bn_lib.obj
 0005:0000022c       $unwind$BN_MONT_CTX_free   00000000000eb66c     OpensslLib:bn_mont.obj
 0005:0000022c       $unwind$EC_GROUP_free      00000000000eb66c     OpensslLib:ec_lib.obj
 0005:0000022c       $unwind$EC_POINT_clear_free 00000000000eb66c     OpensslLib:ec_lib.obj
 0005:0000022c       $unwind$EC_POINT_free      00000000000eb66c     OpensslLib:ec_lib.obj
 0005:0000022c       $unwind$EVP_PKEY_free      00000000000eb66c     OpensslLib:p_lib.obj
 0005:0000022c       $unwind$EVP_PKEY_CTX_free  00000000000eb66c     OpensslLib:pmeth_lib.obj
 0005:0000022c       $unwind$RAND_DRBG_free     00000000000eb66c     OpensslLib:drbg_lib.obj
 0005:0000022c       $unwind$rand_drbg_cleanup_nonce 00000000000eb66c     OpensslLib:rand_lib.obj
 0005:0000022c       $unwind$OPENSSL_sk_sort    00000000000eb66c     OpensslLib:stack.obj
 0005:0000022c       $unwind$X509_VERIFY_PARAM_free 00000000000eb66c     OpensslLib:x509_vpm.obj
 0005:0000022c       $unwind$local_sk_X509_NAME_ENTRY_free 00000000000eb66c     OpensslLib:x_name.obj
 0005:0000022c       $unwind$policy_data_free   00000000000eb66c     OpensslLib:pcy_data.obj
 0005:0000022c       $unwind$i2v_BASIC_CONSTRAINTS 00000000000eb66c     OpensslLib:v3_bcons.obj
 0005:0000022c       $unwind$i2v_POLICY_CONSTRAINTS 00000000000eb66c     OpensslLib:v3_pcons.obj
 0005:0000022c       $unwind$X509V3_conf_free   00000000000eb66c     OpensslLib:v3_utl.obj
 0005:0000022c       $unwind$tlsa_free          00000000000eb66c     OpensslLib:ssl_lib.obj
 0005:00000234       $unwind$UTF8_getc          00000000000eb674     OpensslLib:a_utf8.obj
 0005:00000234       $unwind$bn_add_words       00000000000eb674     OpensslLib:bn_asm.obj
 0005:00000234       $unwind$MOD_EXP_CTIME_COPY_TO_PREBUF 00000000000eb674     OpensslLib:bn_exp.obj
 0005:00000234       $unwind$cmov               00000000000eb674     OpensslLib:curve25519.obj
 0005:00000234       $unwind$sanitize_line      00000000000eb674     OpensslLib:pem_lib.obj
 0005:00000234       $unwind$ctr_XOR            00000000000eb674     OpensslLib:drbg_ctr.obj
 0005:00000234       $unwind$ssl_check_allowed_versions 00000000000eb674     OpensslLib:ssl_lib.obj
 0005:0000023c       $unwind$SSL_clear          00000000000eb67c     OpensslLib:ssl_lib.obj
 0005:0000023c       $unwind$ossl_statem_client_read_transition 00000000000eb67c     OpensslLib:statem_clnt.obj
 0005:0000023c       $unwind$tls_process_change_cipher_spec 00000000000eb67c     OpensslLib:statem_lib.obj
 0005:0000024c       $unwind$ASYNC_start_job    00000000000eb68c     OpensslLib:async.obj
 0005:0000024c       $unwind$CRYPTO_128_wrap_pad 00000000000eb68c     OpensslLib:wrap128.obj
 0005:0000024c       $unwind$RAND_DRBG_generate 00000000000eb68c     OpensslLib:drbg_lib.obj
 0005:0000024c       $unwind$X509_load_cert_file 00000000000eb68c     OpensslLib:by_file.obj
 0005:0000024c       $unwind$X509_NAME_add_entry 00000000000eb68c     OpensslLib:x509name.obj
 0005:0000024c       $unwind$SSL_new            00000000000eb68c     OpensslLib:ssl_lib.obj
 0005:00000268       $unwind$SSL_has_matching_session_id 00000000000eb6a8     OpensslLib:ssl_lib.obj
 0005:00000274       $unwind$SHA3_squeeze       00000000000eb6b4     OpensslLib:keccak1600.obj
 0005:00000274       $unwind$SSL_free           00000000000eb6b4     OpensslLib:ssl_lib.obj
 0005:00000288       $unwind$dh_pkey_param_check 00000000000eb6c8     OpensslLib:dh_ameth.obj
 0005:00000288       $unwind$pkey_sm2_sign      00000000000eb6c8     OpensslLib:sm2_pmeth.obj
 0005:00000288       $unwind$DIST_POINT_set_dpname 00000000000eb6c8     OpensslLib:v3_crld.obj
 0005:00000288       $unwind$ssl_start_async_job 00000000000eb6c8     OpensslLib:ssl_lib.obj
 0005:00000288       $unwind$ssl_generate_session_id 00000000000eb6c8     OpensslLib:ssl_sess.obj
 0005:00000288       $unwind$dtls_construct_hello_verify_request 00000000000eb6c8     OpensslLib:statem_srvr.obj
 0005:00000288       $unwind$tls_construct_certificate_request 00000000000eb6c8     OpensslLib:statem_srvr.obj
 0005:0000029c       $unwind$add_pniels_to_pt   00000000000eb6dc     OpensslLib:curve448.obj
 0005:0000029c       $unwind$pniels_to_pt       00000000000eb6dc     OpensslLib:curve448.obj
 0005:0000029c       $unwind$gf_serialize       00000000000eb6dc     OpensslLib:f_generic.obj
 0005:0000029c       $unwind$ssl_read_internal  00000000000eb6dc     OpensslLib:ssl_lib.obj
 0005:0000029c       $unwind$ssl_write_internal 00000000000eb6dc     OpensslLib:ssl_lib.obj
 0005:000002b0       $unwind$SSL_CTX_ctrl       00000000000eb6f0     OpensslLib:ssl_lib.obj
 0005:000002c4       $unwind$asn1_get_uint64    00000000000eb704     OpensslLib:a_int.obj
 0005:000002c4       $unwind$bitstr_cb          00000000000eb704     OpensslLib:asn1_gen.obj
 0005:000002c4       $unwind$parse_tagging      00000000000eb704     OpensslLib:asn1_gen.obj
 0005:000002c4       $unwind$BN_CTX_new         00000000000eb704     OpensslLib:bn_ctx.obj
 0005:000002c4       $unwind$BN_mod_exp         00000000000eb704     OpensslLib:bn_exp.obj
 0005:000002c4       $unwind$BN_new             00000000000eb704     OpensslLib:bn_lib.obj
 0005:000002c4       $unwind$BN_MONT_CTX_new    00000000000eb704     OpensslLib:bn_mont.obj
 0005:000002c4       $unwind$BUF_MEM_new        00000000000eb704     OpensslLib:buffer.obj
 0005:000002c4       $unwind$DH_new_by_nid      00000000000eb704     OpensslLib:dh_rfc7919.obj
 0005:000002c4       $unwind$ec_pkey_check      00000000000eb704     OpensslLib:ec_ameth.obj
 0005:000002c4       $unwind$ec_pkey_param_check 00000000000eb704     OpensslLib:ec_ameth.obj
 0005:000002c4       $unwind$EC_GROUP_new_from_ecpkparameters 00000000000eb704     OpensslLib:ec_asn1.obj
 0005:000002c4       $unwind$EC_KEY_check_key   00000000000eb704     OpensslLib:ec_key.obj
 0005:000002c4       $unwind$ec_key_simple_generate_public_key 00000000000eb704     OpensslLib:ec_key.obj
 0005:000002c4       $unwind$EC_POINT_add       00000000000eb704     OpensslLib:ec_lib.obj
 0005:000002c4       $unwind$EC_POINT_cmp       00000000000eb704     OpensslLib:ec_lib.obj
 0005:000002c4       $unwind$EC_POINT_copy      00000000000eb704     OpensslLib:ec_lib.obj
 0005:000002c4       $unwind$EC_POINT_dbl       00000000000eb704     OpensslLib:ec_lib.obj
 0005:000002c4       $unwind$EC_POINT_invert    00000000000eb704     OpensslLib:ec_lib.obj
 0005:000002c4       $unwind$EC_POINT_is_at_infinity 00000000000eb704     OpensslLib:ec_lib.obj
 0005:000002c4       $unwind$EC_POINT_is_on_curve 00000000000eb704     OpensslLib:ec_lib.obj
 0005:000002c4       $unwind$EC_POINT_set_to_infinity 00000000000eb704     OpensslLib:ec_lib.obj
 0005:000002c4       $unwind$EC_POINT_oct2point 00000000000eb704     OpensslLib:ec_oct.obj
 0005:000002c4       $unwind$EC_POINT_point2oct 00000000000eb704     OpensslLib:ec_oct.obj
 0005:000002c4       $unwind$EC_POINT_set_compressed_coordinates 00000000000eb704     OpensslLib:ec_oct.obj
 0005:000002c4       $unwind$ossl_ecdh_compute_key 00000000000eb704     OpensslLib:ecdh_ossl.obj
 0005:000002c4       $unwind$ossl_ecdsa_sign_setup 00000000000eb704     OpensslLib:ecdsa_ossl.obj
 0005:000002c4       $unwind$ecx_priv_print     00000000000eb704     OpensslLib:ecx_meth.obj
 0005:000002c4       $unwind$ecx_pub_decode     00000000000eb704     OpensslLib:ecx_meth.obj
 0005:000002c4       $unwind$ecx_pub_print      00000000000eb704     OpensslLib:ecx_meth.obj
 0005:000002c4       $unwind$ecx_set_priv_key   00000000000eb704     OpensslLib:ecx_meth.obj
 0005:000002c4       $unwind$ecx_set_pub_key    00000000000eb704     OpensslLib:ecx_meth.obj
 0005:000002c4       $unwind$pkey_ecd_ctrl      00000000000eb704     OpensslLib:ecx_meth.obj
 0005:000002c4       $unwind$pkey_ecx_keygen    00000000000eb704     OpensslLib:ecx_meth.obj
 0005:000002c4       $unwind$validate_ecx_derive 00000000000eb704     OpensslLib:ecx_meth.obj
 0005:000002c4       $unwind$ERR_peek_last_error 00000000000eb704     OpensslLib:err.obj
 0005:000002c4       $unwind$aria_init_key      00000000000eb704     OpensslLib:e_aria.obj
 0005:000002c4       $unwind$EVP_CIPHER_CTX_ctrl 00000000000eb704     OpensslLib:evp_enc.obj
 0005:000002c4       $unwind$EVP_CIPHER_CTX_set_key_length 00000000000eb704     OpensslLib:evp_enc.obj
 0005:000002c4       $unwind$update             00000000000eb704     OpensslLib:m_sigver.obj
 0005:000002c4       $unwind$EVP_PKEY_get0_DH   00000000000eb704     OpensslLib:p_lib.obj
 0005:000002c4       $unwind$EVP_PKEY_get0_EC_KEY 00000000000eb704     OpensslLib:p_lib.obj
 0005:000002c4       $unwind$EVP_PKEY_get0_RSA  00000000000eb704     OpensslLib:p_lib.obj
 0005:000002c4       $unwind$EVP_PKEY_verify    00000000000eb704     OpensslLib:pmeth_fn.obj
 0005:000002c4       $unwind$pkey_hmac_ctrl     00000000000eb704     OpensslLib:hm_pmeth.obj
 0005:000002c4       $unwind$rand_pool_add_end  00000000000eb704     OpensslLib:rand_lib.obj
 0005:000002c4       $unwind$RSA_pkey_ctx_ctrl  00000000000eb704     OpensslLib:rsa_lib.obj
 0005:000002c4       $unwind$check_padding_md   00000000000eb704     OpensslLib:rsa_pmeth.obj
 0005:000002c4       $unwind$siphash_signctx_init 00000000000eb704     OpensslLib:siphash_pmeth.obj
 0005:000002c4       $unwind$X509_LOOKUP_ctrl   00000000000eb704     OpensslLib:x509_lu.obj
 0005:000002c4       $unwind$X509_OBJECT_new    00000000000eb704     OpensslLib:x509_lu.obj
 0005:000002c4       $unwind$X509_VERIFY_PARAM_new 00000000000eb704     OpensslLib:x509_vpm.obj
 0005:000002c4       $unwind$def_crl_verify     00000000000eb704     OpensslLib:x_crl.obj
 0005:000002c4       $unwind$GENERAL_NAME_print 00000000000eb704     OpensslLib:v3_alt.obj
 0005:000002c4       $unwind$X509V3_get_section 00000000000eb704     OpensslLib:v3_conf.obj
 0005:000002c4       $unwind$ssl3_peek          00000000000eb704     OpensslLib:s3_lib.obj
 0005:000002c4       $unwind$ssl3_read          00000000000eb704     OpensslLib:s3_lib.obj
 0005:000002c4       $unwind$cmd_Options        00000000000eb704     OpensslLib:ssl_conf.obj
 0005:000002c4       $unwind$cmd_Protocol       00000000000eb704     OpensslLib:ssl_conf.obj
 0005:000002c4       $unwind$cmd_VerifyMode     00000000000eb704     OpensslLib:ssl_conf.obj
 0005:000002c4       $unwind$SSL_set_cipher_list 00000000000eb704     OpensslLib:ssl_lib.obj
 0005:000002c4       $unwind$ssl_undefined_function 00000000000eb704     OpensslLib:ssl_lib.obj
 0005:000002c4       $unwind$ssl_undefined_void_function 00000000000eb704     OpensslLib:ssl_lib.obj
 0005:000002c4       $unwind$serverinfoex_srv_add_cb 00000000000eb704     OpensslLib:ssl_rsa.obj
 0005:000002c4       $unwind$final_ec_pt_formats 00000000000eb704     OpensslLib:extensions.obj
 0005:000002c4       $unwind$final_ems          00000000000eb704     OpensslLib:extensions.obj
 0005:000002c4       $unwind$final_maxfragmentlen 00000000000eb704     OpensslLib:extensions.obj
 0005:000002c4       $unwind$final_renegotiate  00000000000eb704     OpensslLib:extensions.obj
 0005:000002c4       $unwind$final_sig_algs     00000000000eb704     OpensslLib:extensions.obj
 0005:000002c4       $unwind$tls_parse_stoc_early_data 00000000000eb704     OpensslLib:extensions_clnt.obj
 0005:000002c4       $unwind$tls_parse_stoc_maxfragmentlen 00000000000eb704     OpensslLib:extensions_clnt.obj
 0005:000002c4       $unwind$tls_parse_stoc_status_request 00000000000eb704     OpensslLib:extensions_clnt.obj
 0005:000002c4       $unwind$custom_ext_add_old_cb_wrap 00000000000eb704     OpensslLib:extensions_cust.obj
 0005:000002c4       $unwind$custom_ext_parse_old_cb_wrap 00000000000eb704     OpensslLib:extensions_cust.obj
 0005:000002c4       $unwind$tls_parse_ctos_early_data 00000000000eb704     OpensslLib:extensions_srvr.obj
 0005:000002c4       $unwind$tls_parse_ctos_ems 00000000000eb704     OpensslLib:extensions_srvr.obj
 0005:000002c4       $unwind$tls_parse_ctos_maxfragmentlen 00000000000eb704     OpensslLib:extensions_srvr.obj
 0005:000002c4       $unwind$tls_parse_ctos_post_handshake_auth 00000000000eb704     OpensslLib:extensions_srvr.obj
 0005:000002c4       $unwind$ossl_statem_client13_write_transition 00000000000eb704     OpensslLib:statem_clnt.obj
 0005:000002c4       $unwind$ossl_statem_client_construct_message 00000000000eb704     OpensslLib:statem_clnt.obj
 0005:000002c4       $unwind$ossl_statem_client_post_process_message 00000000000eb704     OpensslLib:statem_clnt.obj
 0005:000002c4       $unwind$tls_construct_end_of_early_data 00000000000eb704     OpensslLib:statem_clnt.obj
 0005:000002c4       $unwind$ssl_allow_compression 00000000000eb704     OpensslLib:statem_lib.obj
 0005:000002c4       $unwind$PACKET_get_length_prefixed_2 00000000000eb704     OpensslLib:statem_srvr.obj
 0005:000002c4       $unwind$ossl_statem_server13_write_transition 00000000000eb704     OpensslLib:statem_srvr.obj
 0005:000002c4       $unwind$ossl_statem_server_construct_message 00000000000eb704     OpensslLib:statem_srvr.obj
 0005:000002c4       $unwind$ossl_statem_server_write_transition 00000000000eb704     OpensslLib:statem_srvr.obj
 0005:000002c4       $unwind$tls_curve_allowed  00000000000eb704     OpensslLib:t1_lib.obj
 0005:000002c4       $unwind$tls_use_ticket     00000000000eb704     OpensslLib:t1_lib.obj
 0005:000002cc       $unwind$qsort              00000000000eb70c     BaseCryptLib:CrtWrapper.obj
 0005:000002cc       $unwind$ASN1_STRING_set    00000000000eb70c     OpensslLib:asn1_lib.obj
 0005:000002cc       $unwind$ASN1_item_pack     00000000000eb70c     OpensslLib:asn_pack.obj
 0005:000002cc       $unwind$bn_secure_c2i      00000000000eb70c     OpensslLib:x_bignum.obj
 0005:000002cc       $unwind$mem_write          00000000000eb70c     OpensslLib:bss_mem.obj
 0005:000002cc       $unwind$witness            00000000000eb70c     OpensslLib:bn_prime.obj
 0005:000002cc       $unwind$CONF_parse_list    00000000000eb70c     OpensslLib:conf_mod.obj
 0005:000002cc       $unwind$ec_asn1_group2fieldid 00000000000eb70c     OpensslLib:ec_asn1.obj
 0005:000002cc       $unwind$EC_GROUP_new_curve_GFp 00000000000eb70c     OpensslLib:ec_cvt.obj
 0005:000002cc       $unwind$ec_key_simple_check_key 00000000000eb70c     OpensslLib:ec_key.obj
 0005:000002cc       $unwind$EC_GROUP_set_generator 00000000000eb70c     OpensslLib:ec_lib.obj
 0005:000002cc       $unwind$pkey_ec_keygen     00000000000eb70c     OpensslLib:ec_pmeth.obj
 0005:000002cc       $unwind$ecx_key_print      00000000000eb70c     OpensslLib:ecx_meth.obj
 0005:000002cc       $unwind$EVP_CipherInit_ex  00000000000eb70c     OpensslLib:evp_enc.obj
 0005:000002cc       $unwind$rand_pool_new      00000000000eb70c     OpensslLib:rand_lib.obj
 0005:000002cc       $unwind$RSA_padding_add_PKCS1_type_2 00000000000eb70c     OpensslLib:rsa_pk1.obj
 0005:000002cc       $unwind$RSA_padding_add_SSLv23 00000000000eb70c     OpensslLib:rsa_ssl.obj
 0005:000002cc       $unwind$ec_field_size      00000000000eb70c     OpensslLib:sm2_crypt.obj
 0005:000002cc       $unwind$UI_process         00000000000eb70c     OpensslLib:ui_lib.obj
 0005:000002cc       $unwind$check_id           00000000000eb70c     OpensslLib:x509_vfy.obj
 0005:000002cc       $unwind$level_add_node     00000000000eb70c     OpensslLib:pcy_node.obj
 0005:000002cc       $unwind$copy_issuer        00000000000eb70c     OpensslLib:v3_alt.obj
 0005:000002cc       $unwind$v2i_GENERAL_NAME_ex 00000000000eb70c     OpensslLib:v3_alt.obj
 0005:000002cc       $unwind$NAME_CONSTRAINTS_check 00000000000eb70c     OpensslLib:v3_ncons.obj
 0005:000002cc       $unwind$do_i2r_name_constraints 00000000000eb70c     OpensslLib:v3_ncons.obj
 0005:000002cc       $unwind$ssl_cert_dup       00000000000eb70c     OpensslLib:ssl_cert.obj
 0005:000002cc       $unwind$ssl_verify_cert_chain 00000000000eb70c     OpensslLib:ssl_cert.obj
 0005:000002cc       $unwind$SSL_CTX_new        00000000000eb70c     OpensslLib:ssl_lib.obj
 0005:000002cc       $unwind$dtls1_hm_fragment_new 00000000000eb70c     OpensslLib:statem_dtls.obj
 0005:000002e4       $unwind$CMAC_CTX_free      00000000000eb724     OpensslLib:cmac.obj
 0005:000002e4       $unwind$EC_GROUP_clear_free 00000000000eb724     OpensslLib:ec_lib.obj
 0005:000002e4       $unwind$ssl3_free          00000000000eb724     OpensslLib:s3_lib.obj
 0005:000002e4       $unwind$SSL_CTX_free       00000000000eb724     OpensslLib:ssl_lib.obj
 0005:000002f0       $unwind$ssl_set_masks      00000000000eb730     OpensslLib:ssl_lib.obj
 0005:0000030c       $unwind$asn1_string_to_bn  00000000000eb74c     OpensslLib:a_int.obj
 0005:0000030c       $unwind$ASN1_TYPE_unpack_sequence 00000000000eb74c     OpensslLib:a_type.obj
 0005:0000030c       $unwind$ASN1_generate_v3   00000000000eb74c     OpensslLib:asn1_gen.obj
 0005:0000030c       $unwind$append_exp         00000000000eb74c     OpensslLib:asn1_gen.obj
 0005:0000030c       $unwind$ASN1_STRING_type_new 00000000000eb74c     OpensslLib:asn1_lib.obj
 0005:0000030c       $unwind$uint32_new         00000000000eb74c     OpensslLib:x_int64.obj
 0005:0000030c       $unwind$uint64_new         00000000000eb74c     OpensslLib:x_int64.obj
 0005:0000030c       $unwind$BN_CTX_get         00000000000eb74c     OpensslLib:bn_ctx.obj
 0005:0000030c       $unwind$BN_CTX_start       00000000000eb74c     OpensslLib:bn_ctx.obj
 0005:0000030c       $unwind$BN_lshift          00000000000eb74c     OpensslLib:bn_shift.obj
 0005:0000030c       $unwind$BN_rshift          00000000000eb74c     OpensslLib:bn_shift.obj
 0005:0000030c       $unwind$pkey_cmac_ctrl     00000000000eb74c     OpensslLib:cm_pmeth.obj
 0005:0000030c       $unwind$CMAC_CTX_new       00000000000eb74c     OpensslLib:cmac.obj
 0005:0000030c       $unwind$dh_param_decode    00000000000eb74c     OpensslLib:dh_ameth.obj
 0005:0000030c       $unwind$dh_pkey_public_check 00000000000eb74c     OpensslLib:dh_ameth.obj
 0005:0000030c       $unwind$dh_bn_mod_exp      00000000000eb74c     OpensslLib:dh_key.obj
 0005:0000030c       $unwind$pkey_dh_init       00000000000eb74c     OpensslLib:dh_pmeth.obj
 0005:0000030c       $unwind$curve448_scalar_add 00000000000eb74c     OpensslLib:scalar.obj
 0005:0000030c       $unwind$eckey_param_decode 00000000000eb74c     OpensslLib:ec_ameth.obj
 0005:0000030c       $unwind$eckey_param_encode 00000000000eb74c     OpensslLib:ec_ameth.obj
 0005:0000030c       $unwind$old_ec_priv_decode 00000000000eb74c     OpensslLib:ec_ameth.obj
 0005:0000030c       $unwind$ECDSA_SIG_new      00000000000eb74c     OpensslLib:ec_asn1.obj
 0005:0000030c       $unwind$pkey_ec_init       00000000000eb74c     OpensslLib:ec_pmeth.obj
 0005:0000030c       $unwind$pkey_ec_verify     00000000000eb74c     OpensslLib:ec_pmeth.obj
 0005:0000030c       $unwind$ec_GFp_mont_field_decode 00000000000eb74c     OpensslLib:ecp_mont.obj
 0005:0000030c       $unwind$ec_GFp_mont_field_encode 00000000000eb74c     OpensslLib:ecp_mont.obj
 0005:0000030c       $unwind$ec_GFp_mont_field_mul 00000000000eb74c     OpensslLib:ecp_mont.obj
 0005:0000030c       $unwind$ec_GFp_mont_field_set_to_one 00000000000eb74c     OpensslLib:ecp_mont.obj
 0005:0000030c       $unwind$ec_GFp_mont_field_sqr 00000000000eb74c     OpensslLib:ecp_mont.obj
 0005:0000030c       $unwind$ec_GFp_simple_point_set_affine_coordinates 00000000000eb74c     OpensslLib:ecp_smpl.obj
 0005:0000030c       $unwind$pkey_ecd_digestsign25519 00000000000eb74c     OpensslLib:ecx_meth.obj
 0005:0000030c       $unwind$aes_cbc_cipher     00000000000eb74c     OpensslLib:e_aes.obj
 0005:0000030c       $unwind$EVP_PKEY_new       00000000000eb74c     OpensslLib:p_lib.obj
 0005:0000030c       $unwind$EVP_PKEY_derive_init 00000000000eb74c     OpensslLib:pmeth_fn.obj
 0005:0000030c       $unwind$EVP_PKEY_encrypt_init 00000000000eb74c     OpensslLib:pmeth_fn.obj
 0005:0000030c       $unwind$EVP_PKEY_sign_init 00000000000eb74c     OpensslLib:pmeth_fn.obj
 0005:0000030c       $unwind$EVP_PKEY_verify_init 00000000000eb74c     OpensslLib:pmeth_fn.obj
 0005:0000030c       $unwind$EVP_PKEY_keygen_init 00000000000eb74c     OpensslLib:pmeth_gn.obj
 0005:0000030c       $unwind$EVP_PKEY_CTX_ctrl  00000000000eb74c     OpensslLib:pmeth_lib.obj
 0005:0000030c       $unwind$hmac_signctx       00000000000eb74c     OpensslLib:hm_pmeth.obj
 0005:0000030c       $unwind$pkey_hkdf_init     00000000000eb74c     OpensslLib:hkdf.obj
 0005:0000030c       $unwind$pkey_tls1_prf_init 00000000000eb74c     OpensslLib:tls1_prf.obj
 0005:0000030c       $unwind$ctr_BCC_block      00000000000eb74c     OpensslLib:drbg_ctr.obj
 0005:0000030c       $unwind$rand_pool_add_begin 00000000000eb74c     OpensslLib:rand_lib.obj
 0005:0000030c       $unwind$old_rsa_priv_decode 00000000000eb74c     OpensslLib:rsa_ameth.obj
 0005:0000030c       $unwind$rsa_multip_info_new 00000000000eb74c     OpensslLib:rsa_mp.obj
 0005:0000030c       $unwind$RSA_padding_check_PKCS1_type_1 00000000000eb74c     OpensslLib:rsa_pk1.obj
 0005:0000030c       $unwind$setup_tbuf         00000000000eb74c     OpensslLib:rsa_pmeth.obj
 0005:0000030c       $unwind$pkey_siphash_init  00000000000eb74c     OpensslLib:siphash_pmeth.obj
 0005:0000030c       $unwind$pkey_sm2_init      00000000000eb74c     OpensslLib:sm2_pmeth.obj
 0005:0000030c       $unwind$dir_ctrl           00000000000eb74c     OpensslLib:by_dir.obj
 0005:0000030c       $unwind$by_file_ctrl       00000000000eb74c     OpensslLib:by_file.obj
 0005:0000030c       $unwind$X509_check_private_key 00000000000eb74c     OpensslLib:x509_cmp.obj
 0005:0000030c       $unwind$x509_name_ex_print 00000000000eb74c     OpensslLib:x_name.obj
 0005:0000030c       $unwind$X509_PUBKEY_get0   00000000000eb74c     OpensslLib:x_pubkey.obj
 0005:0000030c       $unwind$wpacket_intern_init_len 00000000000eb74c     OpensslLib:packet.obj
 0005:0000030c       $unwind$early_data_count_ok 00000000000eb74c     OpensslLib:ssl3_record.obj
 0005:0000030c       $unwind$ssl_cert_new       00000000000eb74c     OpensslLib:ssl_cert.obj
 0005:0000030c       $unwind$ossl_init_ssl_base_ossl_ 00000000000eb74c     OpensslLib:ssl_init.obj
 0005:0000030c       $unwind$SSL_get_error      00000000000eb74c     OpensslLib:ssl_lib.obj
 0005:0000030c       $unwind$SSL_SESSION_new    00000000000eb74c     OpensslLib:ssl_sess.obj
 0005:0000030c       $unwind$final_early_data   00000000000eb74c     OpensslLib:extensions.obj
 0005:0000030c       $unwind$PACKET_as_length_prefixed_2 00000000000eb74c     OpensslLib:extensions_clnt.obj
 0005:0000030c       $unwind$tls_parse_stoc_server_name 00000000000eb74c     OpensslLib:extensions_clnt.obj
 0005:0000030c       $unwind$PACKET_as_length_prefixed_2 00000000000eb74c     OpensslLib:extensions_srvr.obj
 0005:0000030c       $unwind$PACKET_get_length_prefixed_2 00000000000eb74c     OpensslLib:extensions_srvr.obj
 0005:0000030c       $unwind$tls_parse_ctos_renegotiate 00000000000eb74c     OpensslLib:extensions_srvr.obj
 0005:0000030c       $unwind$tls_parse_ctos_session_ticket 00000000000eb74c     OpensslLib:extensions_srvr.obj
 0005:0000030c       $unwind$PACKET_as_length_prefixed_2 00000000000eb74c     OpensslLib:statem_clnt.obj
 0005:0000030c       $unwind$PACKET_get_length_prefixed_2 00000000000eb74c     OpensslLib:statem_clnt.obj
 0005:0000030c       $unwind$ssl3_check_client_certificate 00000000000eb74c     OpensslLib:statem_clnt.obj
 0005:0000030c       $unwind$tls_process_initial_server_flight 00000000000eb74c     OpensslLib:statem_clnt.obj
 0005:0000030c       $unwind$tls13_restore_handshake_digest_for_pha 00000000000eb74c     OpensslLib:statem_lib.obj
 0005:0000030c       $unwind$tls13_save_handshake_digest_for_pha 00000000000eb74c     OpensslLib:statem_lib.obj
 0005:0000030c       $unwind$tls_construct_change_cipher_spec 00000000000eb74c     OpensslLib:statem_lib.obj
 0005:0000030c       $unwind$tls_construct_key_update 00000000000eb74c     OpensslLib:statem_lib.obj
 0005:0000030c       $unwind$tls_process_key_update 00000000000eb74c     OpensslLib:statem_lib.obj
 0005:0000030c       $unwind$ossl_statem_server_post_process_message 00000000000eb74c     OpensslLib:statem_srvr.obj
 0005:0000030c       $unwind$ossl_statem_server_post_work 00000000000eb74c     OpensslLib:statem_srvr.obj
 0005:0000030c       $unwind$ossl_statem_server_pre_work 00000000000eb74c     OpensslLib:statem_srvr.obj
 0005:0000030c       $unwind$ossl_statem_server_process_message 00000000000eb74c     OpensslLib:statem_srvr.obj
 0005:0000030c       $unwind$ossl_statem_server_read_transition 00000000000eb74c     OpensslLib:statem_srvr.obj
 0005:0000030c       $unwind$tls_construct_encrypted_extensions 00000000000eb74c     OpensslLib:statem_srvr.obj
 0005:0000030c       $unwind$tls_handle_status_request 00000000000eb74c     OpensslLib:statem_srvr.obj
 0005:0000030c       $unwind$tls_post_process_client_hello 00000000000eb74c     OpensslLib:statem_srvr.obj
 0005:0000030c       $unwind$tls13_generate_handshake_secret 00000000000eb74c     OpensslLib:tls13_enc.obj
 0005:00000314       $unwind$gf_cond_neg        00000000000eb754     OpensslLib:curve448.obj
 0005:00000314       $unwind$gf_sqrn            00000000000eb754     OpensslLib:f_generic.obj
 0005:00000314       $unwind$SSL_do_handshake   00000000000eb754     OpensslLib:ssl_lib.obj
 0005:00000320       $unwind$policy_cache_create 00000000000eb760     OpensslLib:pcy_cache.obj
 0005:00000320       $unwind$nss_keylog_int     00000000000eb760     OpensslLib:ssl_lib.obj
 0005:0000033c       $unwind$c2i_uint64_int     00000000000eb77c     OpensslLib:a_int.obj
 0005:0000033c       $unwind$OBJ_NAME_get       00000000000eb77c     OpensslLib:o_names.obj
 0005:0000033c       $unwind$equal_wildcard     00000000000eb77c     OpensslLib:v3_utl.obj
 0005:0000033c       $unwind$ssl3_read_internal 00000000000eb77c     OpensslLib:s3_lib.obj
 0005:0000033c       $unwind$ssl_cache_cipherlist 00000000000eb77c     OpensslLib:ssl_lib.obj
 0005:0000033c       $unwind$ssl_security_cert_key 00000000000eb77c     OpensslLib:t1_lib.obj
 0005:00000354       $unwind$asn1_multi         00000000000eb794     OpensslLib:asn1_gen.obj
 0005:00000354       $unwind$probable_prime     00000000000eb794     OpensslLib:bn_prime.obj
 0005:00000354       $unwind$BN_bn2dec          00000000000eb794     OpensslLib:bn_print.obj
 0005:00000354       $unwind$ec_GFp_simple_group_set_curve 00000000000eb794     OpensslLib:ecp_smpl.obj
 0005:00000354       $unwind$aria_128_cbc_cipher 00000000000eb794     OpensslLib:e_aria.obj
 0005:00000354       $unwind$aria_192_cbc_cipher 00000000000eb794     OpensslLib:e_aria.obj
 0005:00000354       $unwind$aria_256_cbc_cipher 00000000000eb794     OpensslLib:e_aria.obj
 0005:00000354       $unwind$sm4_cbc_cipher     00000000000eb794     OpensslLib:e_sm4.obj
 0005:00000354       $unwind$EVP_DecryptUpdate  00000000000eb794     OpensslLib:evp_enc.obj
 0005:00000354       $unwind$add_cert_dir       00000000000eb794     OpensslLib:by_dir.obj
 0005:00000354       $unwind$check_hosts        00000000000eb794     OpensslLib:x509_vfy.obj
 0005:00000354       $unwind$check_name_constraints 00000000000eb794     OpensslLib:x509_vfy.obj
 0005:00000354       $unwind$X509V3_NAME_from_section 00000000000eb794     OpensslLib:v3_utl.obj
 0005:00000354       $unwind$bytes_to_cipher_list 00000000000eb794     OpensslLib:ssl_lib.obj
 0005:00000354       $unwind$ssl_session_dup    00000000000eb794     OpensslLib:ssl_sess.obj
 0005:00000354       $unwind$tls1_PRF           00000000000eb794     OpensslLib:t1_enc.obj
 0005:00000354       $unwind$tls1_set_groups    00000000000eb794     OpensslLib:t1_lib.obj
 0005:00000370       $unwind$time               00000000000eb7b0     BaseCryptLib:TimerWrapper.obj
 0005:00000370       $unwind$ASN1_item_digest   00000000000eb7b0     OpensslLib:a_digest.obj
 0005:00000370       $unwind$ASN1_item_dup      00000000000eb7b0     OpensslLib:a_dup.obj
 0005:00000370       $unwind$asn1_template_new  00000000000eb7b0     OpensslLib:tasn_new.obj
 0005:00000370       $unwind$asn1_do_adb        00000000000eb7b0     OpensslLib:tasn_utl.obj
 0005:00000370       $unwind$asn1_do_lock       00000000000eb7b0     OpensslLib:tasn_utl.obj
 0005:00000370       $unwind$ASYNC_init_thread  00000000000eb7b0     OpensslLib:async.obj
 0005:00000370       $unwind$BN_BLINDING_new    00000000000eb7b0     OpensslLib:bn_blind.obj
 0005:00000370       $unwind$BN_POOL_get        00000000000eb7b0     OpensslLib:bn_ctx.obj
 0005:00000370       $unwind$BN_div             00000000000eb7b0     OpensslLib:bn_div.obj
 0005:00000370       $unwind$BN_nnmod           00000000000eb7b0     OpensslLib:bn_mod.obj
 0005:00000370       $unwind$COMP_CTX_new       00000000000eb7b0     OpensslLib:comp_lib.obj
 0005:00000370       $unwind$pkey_dh_keygen     00000000000eb7b0     OpensslLib:dh_pmeth.obj
 0005:00000370       $unwind$EC_GROUP_get_ecpkparameters 00000000000eb7b0     OpensslLib:ec_asn1.obj
 0005:00000370       $unwind$i2d_ECPKParameters 00000000000eb7b0     OpensslLib:ec_asn1.obj
 0005:00000370       $unwind$EC_KEY_new_method  00000000000eb7b0     OpensslLib:ec_kmeth.obj
 0005:00000370       $unwind$EC_GROUP_new       00000000000eb7b0     OpensslLib:ec_lib.obj
 0005:00000370       $unwind$EC_POINT_new       00000000000eb7b0     OpensslLib:ec_lib.obj
 0005:00000370       $unwind$EC_POINTs_make_affine 00000000000eb7b0     OpensslLib:ec_lib.obj
 0005:00000370       $unwind$pkey_ec_derive     00000000000eb7b0     OpensslLib:ec_pmeth.obj
 0005:00000370       $unwind$ecd_item_verify    00000000000eb7b0     OpensslLib:ecx_meth.obj
 0005:00000370       $unwind$aes_init_key       00000000000eb7b0     OpensslLib:e_aes.obj
 0005:00000370       $unwind$aes_xts_cipher     00000000000eb7b0     OpensslLib:e_aes.obj
 0005:00000370       $unwind$EVP_CIPHER_CTX_copy 00000000000eb7b0     OpensslLib:evp_enc.obj
 0005:00000370       $unwind$EVP_DecryptFinal_ex 00000000000eb7b0     OpensslLib:evp_enc.obj
 0005:00000370       $unwind$EVP_CIPHER_asn1_to_param 00000000000eb7b0     OpensslLib:evp_lib.obj
 0005:00000370       $unwind$EVP_PKEY_copy_parameters 00000000000eb7b0     OpensslLib:p_lib.obj
 0005:00000370       $unwind$EVP_PKEY_derive_set_peer 00000000000eb7b0     OpensslLib:pmeth_fn.obj
 0005:00000370       $unwind$EVP_PKEY_keygen    00000000000eb7b0     OpensslLib:pmeth_gn.obj
 0005:00000370       $unwind$EVP_PKEY_CTX_dup   00000000000eb7b0     OpensslLib:pmeth_lib.obj
 0005:00000370       $unwind$pkey_hmac_init     00000000000eb7b0     OpensslLib:hm_pmeth.obj
 0005:00000370       $unwind$CRYPTO_memdup      00000000000eb7b0     OpensslLib:o_str.obj
 0005:00000370       $unwind$OPENSSL_buf2hexstr 00000000000eb7b0     OpensslLib:o_str.obj
 0005:00000370       $unwind$OBJ_dup            00000000000eb7b0     OpensslLib:obj_lib.obj
 0005:00000370       $unwind$PEM_def_callback   00000000000eb7b0     OpensslLib:pem_lib.obj
 0005:00000370       $unwind$drbg_setup         00000000000eb7b0     OpensslLib:drbg_lib.obj
 0005:00000370       $unwind$rand_drbg_new      00000000000eb7b0     OpensslLib:drbg_lib.obj
 0005:00000370       $unwind$RAND_bytes         00000000000eb7b0     OpensslLib:rand_lib.obj
 0005:00000370       $unwind$rand_pool_add      00000000000eb7b0     OpensslLib:rand_lib.obj
 0005:00000370       $unwind$rand_pool_bytes_needed 00000000000eb7b0     OpensslLib:rand_lib.obj
 0005:00000370       $unwind$rsa_item_verify    00000000000eb7b0     OpensslLib:rsa_ameth.obj
 0005:00000370       $unwind$pkey_siphash_ctrl  00000000000eb7b0     OpensslLib:siphash_pmeth.obj
 0005:00000370       $unwind$pkey_sm2_decrypt   00000000000eb7b0     OpensslLib:sm2_pmeth.obj
 0005:00000370       $unwind$OPENSSL_sk_dup     00000000000eb7b0     OpensslLib:stack.obj
 0005:00000370       $unwind$sk_reserve         00000000000eb7b0     OpensslLib:stack.obj
 0005:00000370       $unwind$new_dir            00000000000eb7b0     OpensslLib:by_dir.obj
 0005:00000370       $unwind$X509_STORE_new     00000000000eb7b0     OpensslLib:x509_lu.obj
 0005:00000370       $unwind$X509_verify_cert   00000000000eb7b0     OpensslLib:x509_vfy.obj
 0005:00000370       $unwind$x509_name_ex_new   00000000000eb7b0     OpensslLib:x_name.obj
 0005:00000370       $unwind$i2s_ASN1_IA5STRING 00000000000eb7b0     OpensslLib:v3_ia5.obj
 0005:00000370       $unwind$s2i_ASN1_IA5STRING 00000000000eb7b0     OpensslLib:v3_ia5.obj
 0005:00000370       $unwind$i2s_ASN1_INTEGER   00000000000eb7b0     OpensslLib:v3_utl.obj
 0005:00000370       $unwind$ssl3_init_finished_mac 00000000000eb7b0     OpensslLib:s3_enc.obj
 0005:00000370       $unwind$ssl_cert_add0_chain_cert 00000000000eb7b0     OpensslLib:ssl_cert.obj
 0005:00000370       $unwind$cmd_RequestCAPath  00000000000eb7b0     OpensslLib:ssl_conf.obj
 0005:00000370       $unwind$OPENSSL_init_ssl   00000000000eb7b0     OpensslLib:ssl_init.obj
 0005:00000370       $unwind$SSL_CTX_use_certificate 00000000000eb7b0     OpensslLib:ssl_rsa.obj
 0005:00000370       $unwind$SSL_use_certificate 00000000000eb7b0     OpensslLib:ssl_rsa.obj
 0005:00000370       $unwind$tls_parse_certificate_authorities 00000000000eb7b0     OpensslLib:extensions.obj
 0005:00000370       $unwind$tls_construct_ctos_ems 00000000000eb7b0     OpensslLib:extensions_clnt.obj
 0005:00000370       $unwind$tls_construct_ctos_etm 00000000000eb7b0     OpensslLib:extensions_clnt.obj
 0005:00000370       $unwind$tls_construct_ctos_maxfragmentlen 00000000000eb7b0     OpensslLib:extensions_clnt.obj
 0005:00000370       $unwind$tls_construct_ctos_npn 00000000000eb7b0     OpensslLib:extensions_clnt.obj
 0005:00000370       $unwind$tls_construct_ctos_post_handshake_auth 00000000000eb7b0     OpensslLib:extensions_clnt.obj
 0005:00000370       $unwind$tls_construct_ctos_renegotiate 00000000000eb7b0     OpensslLib:extensions_clnt.obj
 0005:00000370       $unwind$tls_parse_stoc_renegotiate 00000000000eb7b0     OpensslLib:extensions_clnt.obj
 0005:00000370       $unwind$tls_parse_stoc_session_ticket 00000000000eb7b0     OpensslLib:extensions_clnt.obj
 0005:00000370       $unwind$tls_construct_stoc_ems 00000000000eb7b0     OpensslLib:extensions_srvr.obj
 0005:00000370       $unwind$tls_construct_stoc_etm 00000000000eb7b0     OpensslLib:extensions_srvr.obj
 0005:00000370       $unwind$tls_construct_stoc_maxfragmentlen 00000000000eb7b0     OpensslLib:extensions_srvr.obj
 0005:00000370       $unwind$tls_construct_stoc_renegotiate 00000000000eb7b0     OpensslLib:extensions_srvr.obj
 0005:00000370       $unwind$tls_construct_stoc_server_name 00000000000eb7b0     OpensslLib:extensions_srvr.obj
 0005:00000370       $unwind$tls_construct_stoc_session_ticket 00000000000eb7b0     OpensslLib:extensions_srvr.obj
 0005:00000370       $unwind$tls_construct_stoc_status_request 00000000000eb7b0     OpensslLib:extensions_srvr.obj
 0005:00000370       $unwind$ossl_statem_fatal  00000000000eb7b0     OpensslLib:statem.obj
 0005:00000370       $unwind$ossl_statem_client_post_work 00000000000eb7b0     OpensslLib:statem_clnt.obj
 0005:00000370       $unwind$tls_construct_client_certificate 00000000000eb7b0     OpensslLib:statem_clnt.obj
 0005:00000370       $unwind$dtls_construct_change_cipher_spec 00000000000eb7b0     OpensslLib:statem_dtls.obj
 0005:00000370       $unwind$tls_construct_cert_status_body 00000000000eb7b0     OpensslLib:statem_srvr.obj
 0005:0000037c       $unwind$CRYPTO_cbc128_encrypt 00000000000eb7bc     OpensslLib:cbc128.obj
 0005:0000037c       $unwind$CRYPTO_ccm128_aad  00000000000eb7bc     OpensslLib:ccm128.obj
 0005:0000037c       $unwind$X509_STORE_free    00000000000eb7bc     OpensslLib:x509_lu.obj
 0005:00000394       $unwind$c2i_ibuf           00000000000eb7d4     OpensslLib:a_int.obj
 0005:00000394       $unwind$BIO_new            00000000000eb7d4     OpensslLib:bio_lib.obj
 0005:00000394       $unwind$bn_expand2         00000000000eb7d4     OpensslLib:bn_lib.obj
 0005:00000394       $unwind$BN_mod_sqr         00000000000eb7d4     OpensslLib:bn_mod.obj
 0005:00000394       $unwind$BN_bn2hex          00000000000eb7d4     OpensslLib:bn_print.obj
 0005:00000394       $unwind$BUF_MEM_grow       00000000000eb7d4     OpensslLib:buffer.obj
 0005:00000394       $unwind$BUF_MEM_grow_clean 00000000000eb7d4     OpensslLib:buffer.obj
 0005:00000394       $unwind$DH_new             00000000000eb7d4     OpensslLib:dh_lib.obj
 0005:00000394       $unwind$d2i_ECParameters   00000000000eb7d4     OpensslLib:ec_asn1.obj
 0005:00000394       $unwind$EC_KEY_copy        00000000000eb7d4     OpensslLib:ec_key.obj
 0005:00000394       $unwind$EC_KEY_oct2key     00000000000eb7d4     OpensslLib:ec_key.obj
 0005:00000394       $unwind$ec_key_simple_oct2priv 00000000000eb7d4     OpensslLib:ec_key.obj
 0005:00000394       $unwind$EC_GROUP_copy      00000000000eb7d4     OpensslLib:ec_lib.obj
 0005:00000394       $unwind$EC_GROUP_set_seed  00000000000eb7d4     OpensslLib:ec_lib.obj
 0005:00000394       $unwind$EC_POINT_set_affine_coordinates 00000000000eb7d4     OpensslLib:ec_lib.obj
 0005:00000394       $unwind$pkey_ec_ctrl       00000000000eb7d4     OpensslLib:ec_pmeth.obj
 0005:00000394       $unwind$pkey_ec_ctrl_str   00000000000eb7d4     OpensslLib:ec_pmeth.obj
 0005:00000394       $unwind$pkey_ec_paramgen   00000000000eb7d4     OpensslLib:ec_pmeth.obj
 0005:00000394       $unwind$ecx_ctrl           00000000000eb7d4     OpensslLib:ecx_meth.obj
 0005:00000394       $unwind$EVP_DigestFinalXOF 00000000000eb7d4     OpensslLib:digest.obj
 0005:00000394       $unwind$EVP_DigestInit_ex  00000000000eb7d4     OpensslLib:digest.obj
 0005:00000394       $unwind$EVP_MD_CTX_copy_ex 00000000000eb7d4     OpensslLib:digest.obj
 0005:00000394       $unwind$aes_ccm_init_key   00000000000eb7d4     OpensslLib:e_aes.obj
 0005:00000394       $unwind$EVP_DigestSign     00000000000eb7d4     OpensslLib:m_sigver.obj
 0005:00000394       $unwind$EVP_DigestVerify   00000000000eb7d4     OpensslLib:m_sigver.obj
 0005:00000394       $unwind$EVP_PKEY_assign    00000000000eb7d4     OpensslLib:p_lib.obj
 0005:00000394       $unwind$EVP_PKEY_new_raw_private_key 00000000000eb7d4     OpensslLib:p_lib.obj
 0005:00000394       $unwind$EVP_PKEY_derive    00000000000eb7d4     OpensslLib:pmeth_fn.obj
 0005:00000394       $unwind$EVP_PKEY_CTX_md    00000000000eb7d4     OpensslLib:pmeth_lib.obj
 0005:00000394       $unwind$OPENSSL_init_crypto 00000000000eb7d4     OpensslLib:init.obj
 0005:00000394       $unwind$pkey_hkdf_ctrl_str 00000000000eb7d4     OpensslLib:hkdf.obj
 0005:00000394       $unwind$pkey_tls1_prf_ctrl_str 00000000000eb7d4     OpensslLib:tls1_prf.obj
 0005:00000394       $unwind$OPENSSL_hexstr2buf 00000000000eb7d4     OpensslLib:o_str.obj
 0005:00000394       $unwind$rsa_param_decode   00000000000eb7d4     OpensslLib:rsa_ameth.obj
 0005:00000394       $unwind$pkey_sm2_copy      00000000000eb7d4     OpensslLib:sm2_pmeth.obj
 0005:00000394       $unwind$pkey_sm2_ctrl_str  00000000000eb7d4     OpensslLib:sm2_pmeth.obj
 0005:00000394       $unwind$pkey_sm2_encrypt   00000000000eb7d4     OpensslLib:sm2_pmeth.obj
 0005:00000394       $unwind$X509_STORE_load_locations 00000000000eb7d4     OpensslLib:x509_d2.obj
 0005:00000394       $unwind$X509_STORE_add_lookup 00000000000eb7d4     OpensslLib:x509_lu.obj
 0005:00000394       $unwind$check_policy       00000000000eb7d4     OpensslLib:x509_vfy.obj
 0005:00000394       $unwind$X509_NAME_ENTRY_create_by_OBJ 00000000000eb7d4     OpensslLib:x509name.obj
 0005:00000394       $unwind$x509_pubkey_decode 00000000000eb7d4     OpensslLib:x_pubkey.obj
 0005:00000394       $unwind$i2s_ASN1_ENUMERATED_TABLE 00000000000eb7d4     OpensslLib:v3_enum.obj
 0005:00000394       $unwind$i2r_NAME_CONSTRAINTS 00000000000eb7d4     OpensslLib:v3_ncons.obj
 0005:00000394       $unwind$i2r_pci            00000000000eb7d4     OpensslLib:v3_pci.obj
 0005:00000394       $unwind$bignum_to_string   00000000000eb7d4     OpensslLib:v3_utl.obj
 0005:00000394       $unwind$pitem_new          00000000000eb7d4     OpensslLib:pqueue.obj
 0005:00000394       $unwind$ssl3_setup_read_buffer 00000000000eb7d4     OpensslLib:ssl3_buffer.obj
 0005:00000394       $unwind$ssl3_do_compress   00000000000eb7d4     OpensslLib:ssl3_record.obj
 0005:00000394       $unwind$ssl3_do_uncompress 00000000000eb7d4     OpensslLib:ssl3_record.obj
 0005:00000394       $unwind$ssl_generate_param_group 00000000000eb7d4     OpensslLib:s3_lib.obj
 0005:00000394       $unwind$SSL_COMP_add_compression_method 00000000000eb7d4     OpensslLib:ssl_ciph.obj
 0005:00000394       $unwind$set_ciphersuites   00000000000eb7d4     OpensslLib:ssl_ciph.obj
 0005:00000394       $unwind$SSL_CTX_use_serverinfo_ex 00000000000eb7d4     OpensslLib:ssl_rsa.obj
 0005:00000394       $unwind$ssl_get_new_session 00000000000eb7d4     OpensslLib:ssl_sess.obj
 0005:00000394       $unwind$tls_construct_certificate_authorities 00000000000eb7d4     OpensslLib:extensions.obj
 0005:00000394       $unwind$tls_construct_ctos_alpn 00000000000eb7d4     OpensslLib:extensions_clnt.obj
 0005:00000394       $unwind$tls_construct_ctos_server_name 00000000000eb7d4     OpensslLib:extensions_clnt.obj
 0005:00000394       $unwind$tls_construct_ctos_session_ticket 00000000000eb7d4     OpensslLib:extensions_clnt.obj
 0005:00000394       $unwind$tls_construct_stoc_alpn 00000000000eb7d4     OpensslLib:extensions_srvr.obj
 0005:00000394       $unwind$tls_construct_stoc_early_data 00000000000eb7d4     OpensslLib:extensions_srvr.obj
 0005:00000394       $unwind$tls_construct_stoc_supported_versions 00000000000eb7d4     OpensslLib:extensions_srvr.obj
 0005:00000394       $unwind$tls_construct_stoc_use_srtp 00000000000eb7d4     OpensslLib:extensions_srvr.obj
 0005:00000394       $unwind$ossl_statem_client_write_transition 00000000000eb7d4     OpensslLib:statem_clnt.obj
 0005:00000394       $unwind$set_client_ciphersuite 00000000000eb7d4     OpensslLib:statem_clnt.obj
 0005:00000394       $unwind$ssl3_check_cert_and_algorithm 00000000000eb7d4     OpensslLib:statem_clnt.obj
 0005:00000394       $unwind$tls_construct_client_key_exchange 00000000000eb7d4     OpensslLib:statem_clnt.obj
 0005:00000394       $unwind$dtls1_preprocess_fragment 00000000000eb7d4     OpensslLib:statem_dtls.obj
 0005:00000394       $unwind$ssl3_output_cert_chain 00000000000eb7d4     OpensslLib:statem_lib.obj
 0005:00000394       $unwind$ssl_method_error   00000000000eb7d4     OpensslLib:statem_lib.obj
 0005:00000394       $unwind$tls_construct_finished 00000000000eb7d4     OpensslLib:statem_lib.obj
 0005:00000394       $unwind$tls_process_client_key_exchange 00000000000eb7d4     OpensslLib:statem_srvr.obj
 0005:000003a4       $unwind$ED25519_sign       00000000000eb7e4     OpensslLib:curve25519.obj
 0005:000003a4       $unwind$x509_object_idx_cnt 00000000000eb7e4     OpensslLib:x509_lu.obj
 0005:000003c0       $unwind$X509_STORE_CTX_get1_certs 00000000000eb800     OpensslLib:x509_lu.obj
 0005:000003dc       $unwind$X509_STORE_CTX_get1_crls 00000000000eb81c     OpensslLib:x509_lu.obj
 0005:000003f8       $unwind$X509_OBJECT_retrieve_match 00000000000eb838     OpensslLib:x509_lu.obj
 0005:00000410       $unwind$X509_STORE_CTX_get1_issuer 00000000000eb850     OpensslLib:x509_lu.obj
 0005:0000042c       $unwind$bio_call_callback  00000000000eb86c     OpensslLib:bio_lib.obj
 0005:0000042c       $unwind$aes_cfb8_cipher    00000000000eb86c     OpensslLib:e_aes.obj
 0005:0000042c       $unwind$X509V3_get_value_bool 00000000000eb86c     OpensslLib:v3_utl.obj
 0005:0000042c       $unwind$tls_parse_stoc_ec_pt_formats 00000000000eb86c     OpensslLib:extensions_clnt.obj
 0005:0000042c       $unwind$ossl_statem_client_process_message 00000000000eb86c     OpensslLib:statem_clnt.obj
 0005:0000042c       $unwind$nid_cb             00000000000eb86c     OpensslLib:t1_lib.obj
 0005:0000043c       $unwind$BIO_puts           00000000000eb87c     OpensslLib:bio_lib.obj
 0005:0000043c       $unwind$tls_parse_ctos_use_srtp 00000000000eb87c     OpensslLib:extensions_srvr.obj
 0005:0000043c       $unwind$tls_process_certificate_request 00000000000eb87c     OpensslLib:statem_clnt.obj
 0005:0000044c       $unwind$BIO_gets           00000000000eb88c     OpensslLib:bio_lib.obj
 0005:0000044c       $unwind$pkey_ec_sign       00000000000eb88c     OpensslLib:ec_pmeth.obj
 0005:0000044c       $unwind$pkey_rsa_verifyrecover 00000000000eb88c     OpensslLib:rsa_pmeth.obj
 0005:00000460       $unwind$BIO_callback_ctrl  00000000000eb8a0     OpensslLib:bio_lib.obj
 0005:00000468       $unwind$ASN1_STRING_free   00000000000eb8a8     OpensslLib:asn1_lib.obj
 0005:00000468       $unwind$async_empty_pool   00000000000eb8a8     OpensslLib:async.obj
 0005:00000468       $unwind$BIO_free_all       00000000000eb8a8     OpensslLib:bio_lib.obj
 0005:00000468       $unwind$BN_free            00000000000eb8a8     OpensslLib:bn_lib.obj
 0005:00000468       $unwind$BUF_MEM_free       00000000000eb8a8     OpensslLib:buffer.obj
 0005:00000468       $unwind$EC_ec_pre_comp_free 00000000000eb8a8     OpensslLib:ec_mult.obj
 0005:00000468       $unwind$HMAC_CTX_free      00000000000eb8a8     OpensslLib:hmac.obj
 0005:00000468       $unwind$rand_pool_free     00000000000eb8a8     OpensslLib:rand_lib.obj
 0005:00000468       $unwind$x509_name_ex_free  00000000000eb8a8     OpensslLib:x_name.obj
 0005:00000468       $unwind$i2v_AUTHORITY_KEYID 00000000000eb8a8     OpensslLib:v3_akey.obj
 0005:00000468       $unwind$i2v_ASN1_BIT_STRING 00000000000eb8a8     OpensslLib:v3_bitst.obj
 0005:00000468       $unwind$ssl_cert_clear_certs 00000000000eb8a8     OpensslLib:ssl_cert.obj
 0005:00000468       $unwind$dtls1_hm_fragment_free 00000000000eb8a8     OpensslLib:statem_dtls.obj
 0005:00000474       $unwind$ssl_load_ciphers   00000000000eb8b4     OpensslLib:ssl_ciph.obj
 0005:00000484       $unwind$ssl_cipher_collect_ciphers 00000000000eb8c4     OpensslLib:ssl_ciph.obj
 0005:000004a0       $unwind$ssl_cipher_apply_rule 00000000000eb8e0     OpensslLib:ssl_ciph.obj
 0005:000004b8       $unwind$ssl_cipher_strength_sort 00000000000eb8f8     OpensslLib:ssl_ciph.obj
 0005:000004d0       $unwind$RSA_padding_add_PKCS1_OAEP_mgf1 00000000000eb910     OpensslLib:rsa_oaep.obj
 0005:000004d0       $unwind$ssl_cipher_process_rulestr 00000000000eb910     OpensslLib:ssl_ciph.obj
 0005:000004e8       $unwind$check_suiteb_cipher_list 00000000000eb928     OpensslLib:ssl_ciph.obj
 0005:000004fc       $unwind$ciphersuite_cb     00000000000eb93c     OpensslLib:ssl_ciph.obj
 0005:00000508       $unwind$ssl_create_cipher_list 00000000000eb948     OpensslLib:ssl_ciph.obj
 0005:00000520       $unwind$lookup_sess_in_cache 00000000000eb960     OpensslLib:ssl_sess.obj
 0005:00000538       $unwind$ssl_get_prev_session 00000000000eb978     OpensslLib:ssl_sess.obj
 0005:00000538       $unwind$add_key_share      00000000000eb978     OpensslLib:extensions_clnt.obj
 0005:00000538       $unwind$tls_construct_stoc_key_share 00000000000eb978     OpensslLib:extensions_srvr.obj
 0005:00000550       $unwind$DH_free            00000000000eb990     OpensslLib:dh_lib.obj
 0005:00000550       $unwind$EC_KEY_free        00000000000eb990     OpensslLib:ec_key.obj
 0005:00000550       $unwind$RSA_free           00000000000eb990     OpensslLib:rsa_lib.obj
 0005:00000550       $unwind$ssl_cert_free      00000000000eb990     OpensslLib:ssl_cert.obj
 0005:00000550       $unwind$SSL_SESSION_free   00000000000eb990     OpensslLib:ssl_sess.obj
 0005:00000558       $unwind$EVP_PBE_find       00000000000eb998     OpensslLib:evp_pbe.obj
 0005:00000558       $unwind$SSL_CTX_flush_sessions 00000000000eb998     OpensslLib:ssl_sess.obj
 0005:00000564       $unwind$PACKET_get_length_prefixed_2 00000000000eb9a4     OpensslLib:ssl_rsa.obj
 0005:00000564       $unwind$PACKET_get_length_prefixed_3 00000000000eb9a4     OpensslLib:extensions.obj
 0005:00000564       $unwind$PACKET_get_length_prefixed_1 00000000000eb9a4     OpensslLib:extensions_clnt.obj
 0005:00000564       $unwind$PACKET_as_length_prefixed_1 00000000000eb9a4     OpensslLib:extensions_srvr.obj
 0005:00000564       $unwind$PACKET_get_length_prefixed_1 00000000000eb9a4     OpensslLib:extensions_srvr.obj
 0005:00000564       $unwind$PACKET_get_length_prefixed_1 00000000000eb9a4     OpensslLib:statem_clnt.obj
 0005:00000564       $unwind$PACKET_get_length_prefixed_1 00000000000eb9a4     OpensslLib:statem_srvr.obj
 0005:0000056c       $unwind$bn_to_asn1_string  00000000000eb9ac     OpensslLib:a_int.obj
 0005:0000056c       $unwind$BN_BLINDING_convert_ex 00000000000eb9ac     OpensslLib:bn_blind.obj
 0005:0000056c       $unwind$BN_BLINDING_invert_ex 00000000000eb9ac     OpensslLib:bn_blind.obj
 0005:0000056c       $unwind$BN_BLINDING_update 00000000000eb9ac     OpensslLib:bn_blind.obj
 0005:0000056c       $unwind$BN_STACK_push      00000000000eb9ac     OpensslLib:bn_ctx.obj
 0005:0000056c       $unwind$BN_mod_inverse     00000000000eb9ac     OpensslLib:bn_gcd.obj
 0005:0000056c       $unwind$BN_mod_lshift_quick 00000000000eb9ac     OpensslLib:bn_mod.obj
 0005:0000056c       $unwind$bnrand_range       00000000000eb9ac     OpensslLib:bn_rand.obj
 0005:0000056c       $unwind$pkey_cmac_ctrl_str 00000000000eb9ac     OpensslLib:cm_pmeth.obj
 0005:0000056c       $unwind$module_add         00000000000eb9ac     OpensslLib:conf_mod.obj
 0005:0000056c       $unwind$i2o_ECPublicKey    00000000000eb9ac     OpensslLib:ec_asn1.obj
 0005:0000056c       $unwind$EC_GROUP_check     00000000000eb9ac     OpensslLib:ec_check.obj
 0005:0000056c       $unwind$ec_key_simple_priv2oct 00000000000eb9ac     OpensslLib:ec_key.obj
 0005:0000056c       $unwind$EC_POINT_get_affine_coordinates 00000000000eb9ac     OpensslLib:ec_lib.obj
 0005:0000056c       $unwind$ecx_pub_encode     00000000000eb9ac     OpensslLib:ecx_meth.obj
 0005:0000056c       $unwind$aria_ccm_init_key  00000000000eb9ac     OpensslLib:e_aria.obj
 0005:0000056c       $unwind$aria_gcm_init_key  00000000000eb9ac     OpensslLib:e_aria.obj
 0005:0000056c       $unwind$EVP_EncryptFinal_ex 00000000000eb9ac     OpensslLib:evp_enc.obj
 0005:0000056c       $unwind$EVP_CIPHER_get_asn1_iv 00000000000eb9ac     OpensslLib:evp_lib.obj
 0005:0000056c       $unwind$EVP_PKEY_encrypt   00000000000eb9ac     OpensslLib:pmeth_fn.obj
 0005:0000056c       $unwind$EVP_PKEY_sign      00000000000eb9ac     OpensslLib:pmeth_fn.obj
 0005:0000056c       $unwind$CRYPTO_set_ex_data 00000000000eb9ac     OpensslLib:ex_data.obj
 0005:0000056c       $unwind$OBJ_create         00000000000eb9ac     OpensslLib:obj_dat.obj
 0005:0000056c       $unwind$d2i_ocsp_nonce     00000000000eb9ac     OpensslLib:v3_ocsp.obj
 0005:0000056c       $unwind$load_iv            00000000000eb9ac     OpensslLib:pem_lib.obj
 0005:0000056c       $unwind$RAND_DRBG_set      00000000000eb9ac     OpensslLib:drbg_lib.obj
 0005:0000056c       $unwind$drbg_bytes         00000000000eb9ac     OpensslLib:drbg_lib.obj
 0005:0000056c       $unwind$rand_pool_grow     00000000000eb9ac     OpensslLib:rand_lib.obj
 0005:0000056c       $unwind$pkey_sm2_ctrl      00000000000eb9ac     OpensslLib:sm2_pmeth.obj
 0005:0000056c       $unwind$X509_STORE_CTX_init 00000000000eb9ac     OpensslLib:x509_vfy.obj
 0005:0000056c       $unwind$X509_get_pubkey_parameters 00000000000eb9ac     OpensslLib:x509_vfy.obj
 0005:0000056c       $unwind$policy_data_new    00000000000eb9ac     OpensslLib:pcy_data.obj
 0005:0000056c       $unwind$gnames_from_sectname 00000000000eb9ac     OpensslLib:v3_crld.obj
 0005:0000056c       $unwind$equal_email        00000000000eb9ac     OpensslLib:v3_utl.obj
 0005:0000056c       $unwind$ssl3_write         00000000000eb9ac     OpensslLib:s3_lib.obj
 0005:0000056c       $unwind$cmd_CipherString   00000000000eb9ac     OpensslLib:ssl_conf.obj
 0005:0000056c       $unwind$SSL_CTX_use_PrivateKey_file 00000000000eb9ac     OpensslLib:ssl_rsa.obj
 0005:0000056c       $unwind$SSL_use_PrivateKey_file 00000000000eb9ac     OpensslLib:ssl_rsa.obj
 0005:0000056c       $unwind$ssl_set_pkey       00000000000eb9ac     OpensslLib:ssl_rsa.obj
 0005:0000056c       $unwind$tls_construct_ctos_ec_pt_formats 00000000000eb9ac     OpensslLib:extensions_clnt.obj
 0005:0000056c       $unwind$tls_construct_ctos_psk_kex_modes 00000000000eb9ac     OpensslLib:extensions_clnt.obj
 0005:0000056c       $unwind$tls_construct_stoc_ec_pt_formats 00000000000eb9ac     OpensslLib:extensions_srvr.obj
 0005:0000056c       $unwind$create_ticket_prequel 00000000000eb9ac     OpensslLib:statem_srvr.obj
 0005:0000056c       $unwind$tls_construct_server_certificate 00000000000eb9ac     OpensslLib:statem_srvr.obj
 0005:0000056c       $unwind$ssl_cipher_disabled 00000000000eb9ac     OpensslLib:t1_lib.obj
 0005:0000056c       $unwind$ssl_security_cert_chain 00000000000eb9ac     OpensslLib:t1_lib.obj
 0005:0000056c       $unwind$tls1_check_group_id 00000000000eb9ac     OpensslLib:t1_lib.obj
 0005:0000056c       $unwind$tls13_generate_master_secret 00000000000eb9ac     OpensslLib:tls13_enc.obj
 0005:00000580       $unwind$eckey_param2type   00000000000eb9c0     OpensslLib:ec_ameth.obj
 0005:00000580       $unwind$EC_KEY_priv2buf    00000000000eb9c0     OpensslLib:ec_key.obj
 0005:00000580       $unwind$CRYPTO_gcm128_init 00000000000eb9c0     OpensslLib:gcm128.obj
 0005:00000580       $unwind$ssl_x509_store_ctx_init_ossl_ 00000000000eb9c0     OpensslLib:ssl_cert.obj
 0005:00000580       $unwind$ssl_set_cert       00000000000eb9c0     OpensslLib:ssl_rsa.obj
 0005:00000594       $unwind$EC_GROUP_new_from_ecparameters 00000000000eb9d4     OpensslLib:ec_asn1.obj
 0005:00000594       $unwind$ec_asn1_group2curve 00000000000eb9d4     OpensslLib:ec_asn1.obj
 0005:00000594       $unwind$ec_GFp_mont_group_set_curve 00000000000eb9d4     OpensslLib:ecp_mont.obj
 0005:00000594       $unwind$ec_GFp_simple_group_check_discriminant 00000000000eb9d4     OpensslLib:ecp_smpl.obj
 0005:00000594       $unwind$rand_drbg_restart  00000000000eb9d4     OpensslLib:drbg_lib.obj
 0005:00000594       $unwind$use_certificate_chain_file 00000000000eb9d4     OpensslLib:ssl_rsa.obj
 0005:00000594       $unwind$state_machine      00000000000eb9d4     OpensslLib:statem.obj
 0005:000005b0       $unwind$serverinfo_find_extension 00000000000eb9f0     OpensslLib:ssl_rsa.obj
 0005:000005c4       $unwind$serverinfo_srv_add_cb 00000000000eba04     OpensslLib:ssl_rsa.obj
 0005:000005cc       $unwind$serverinfo_process_buffer 00000000000eba0c     OpensslLib:ssl_rsa.obj
 0005:000005d8       $unwind$tls1_prf_P_hash    00000000000eba18     OpensslLib:tls1_prf.obj
 0005:000005d8       $unwind$SSL_CTX_use_serverinfo_file 00000000000eba18     OpensslLib:ssl_rsa.obj
 0005:000005f4       $unwind$x509_cb            00000000000eba34     OpensslLib:x_x509.obj
 0005:00000608       $unwind$buffer_gets        00000000000eba48     OpensslLib:bf_buff.obj
 0005:00000608       $unwind$X509v3_get_ext_by_OBJ 00000000000eba48     OpensslLib:x509_v3.obj
 0005:00000608       $unwind$X509_NAME_get_index_by_OBJ 00000000000eba48     OpensslLib:x509name.obj
 0005:00000608       $unwind$d2i_X509_AUX       00000000000eba48     OpensslLib:x_x509.obj
 0005:0000061c       $unwind$drbg_ctr_init      00000000000eba5c     OpensslLib:drbg_ctr.obj
 0005:0000061c       $unwind$sk_OPENSSL_STRING_deep_copy 00000000000eba5c     OpensslLib:x509_vpm.obj
 0005:00000634       $unwind$determine_days     00000000000eba74     OpensslLib:a_time.obj
 0005:00000634       $unwind$BN_rshift1         00000000000eba74     OpensslLib:bn_shift.obj
 0005:00000634       $unwind$X509_get_signature_info 00000000000eba74     OpensslLib:x509_set.obj
 0005:00000634       $unwind$int_x509_param_set1 00000000000eba74     OpensslLib:x509_vpm.obj
 0005:00000634       $unwind$pqueue_insert      00000000000eba74     OpensslLib:pqueue.obj
 0005:00000634       $unwind$DTLS_RECORD_LAYER_clear 00000000000eba74     OpensslLib:rec_layer_d1.obj
 0005:00000634       $unwind$SSL_CONF_CTX_finish 00000000000eba74     OpensslLib:ssl_conf.obj
 0005:00000634       $unwind$PACKET_memdup      00000000000eba74     OpensslLib:extensions_srvr.obj
 0005:00000634       $unwind$PACKET_memdup      00000000000eba74     OpensslLib:statem_clnt.obj
 0005:00000648       $unwind$gmtime             00000000000eba88     BaseCryptLib:TimerWrapper.obj
 0005:00000648       $unwind$BN_kronecker       00000000000eba88     OpensslLib:bn_kron.obj
 0005:00000648       $unwind$bn_lshift_fixed_top 00000000000eba88     OpensslLib:bn_shift.obj
 0005:00000648       $unwind$bn_rshift_fixed_top 00000000000eba88     OpensslLib:bn_shift.obj
 0005:00000648       $unwind$aes_gcm_tls_cipher 00000000000eba88     OpensslLib:e_aes.obj
 0005:00000648       $unwind$aria_gcm_tls_cipher 00000000000eba88     OpensslLib:e_aria.obj
 0005:00000648       $unwind$CRYPTO_ctr128_encrypt 00000000000eba88     OpensslLib:ctr128.obj
 0005:00000648       $unwind$CRYPTO_gcm128_aad  00000000000eba88     OpensslLib:gcm128.obj
 0005:00000648       $unwind$rsa_pss_param_print 00000000000eba88     OpensslLib:rsa_ameth.obj
 0005:00000648       $unwind$rsa_get_public_exp 00000000000eba88     OpensslLib:rsa_crpt.obj
 0005:00000648       $unwind$SipHash_Update     00000000000eba88     OpensslLib:siphash.obj
 0005:00000648       $unwind$X509_chain_check_suiteb 00000000000eba88     OpensslLib:x509_cmp.obj
 0005:00000648       $unwind$check_auth_level   00000000000eba88     OpensslLib:x509_vfy.obj
 0005:00000648       $unwind$crl_akid_check     00000000000eba88     OpensslLib:x509_vfy.obj
 0005:00000648       $unwind$X509_VERIFY_PARAM_set1_policies 00000000000eba88     OpensslLib:x509_vpm.obj
 0005:00000648       $unwind$X509V3_get_d2i     00000000000eba88     OpensslLib:v3_lib.obj
 0005:00000648       $unwind$find_sig_alg       00000000000eba88     OpensslLib:t1_lib.obj
 0005:00000664       $unwind$X509_VERIFY_PARAM_lookup 00000000000ebaa4     OpensslLib:x509_vpm.obj
 0005:00000670       $unwind$ERR_STATE_free     00000000000ebab0     OpensslLib:err.obj
 0005:00000670       $unwind$OPENSSL_sk_pop_free 00000000000ebab0     OpensslLib:stack.obj
 0005:00000684       $unwind$bn_mul_normal      00000000000ebac4     OpensslLib:bn_mul.obj
 0005:00000684       $unwind$BN_hex2bn          00000000000ebac4     OpensslLib:bn_print.obj
 0005:00000684       $unwind$ec_GFp_simple_get_Jprojective_coordinates_GFp 00000000000ebac4     OpensslLib:ecp_smpl.obj
 0005:00000684       $unwind$ec_GFp_simple_set_Jprojective_coordinates_GFp 00000000000ebac4     OpensslLib:ecp_smpl.obj
 0005:00000684       $unwind$get_error_values   00000000000ebac4     OpensslLib:err.obj
 0005:00000684       $unwind$CRYPTO_cfb128_encrypt 00000000000ebac4     OpensslLib:cfb128.obj
 0005:00000684       $unwind$CRYPTO_gcm128_finish 00000000000ebac4     OpensslLib:gcm128.obj
 0005:00000684       $unwind$CRYPTO_ofb128_encrypt 00000000000ebac4     OpensslLib:ofb128.obj
 0005:00000684       $unwind$OBJ_bsearch_ex_    00000000000ebac4     OpensslLib:obj_dat.obj
 0005:00000684       $unwind$SHA512_Final       00000000000ebac4     OpensslLib:sha512.obj
 0005:00000684       $unwind$tree_evaluate      00000000000ebac4     OpensslLib:pcy_tree.obj
 0005:00000684       $unwind$set_reasons        00000000000ebac4     OpensslLib:v3_crld.obj
 0005:00000684       $unwind$valid_star         00000000000ebac4     OpensslLib:v3_utl.obj
 0005:00000684       $unwind$add_custom_ext_intern 00000000000ebac4     OpensslLib:extensions_cust.obj
 0005:00000684       $unwind$custom_exts_copy   00000000000ebac4     OpensslLib:extensions_cust.obj
 0005:000006a0       $unwind$ERR_error_string_n 00000000000ebae0     OpensslLib:err.obj
 0005:000006bc       $unwind$ERR_get_state      00000000000ebafc     OpensslLib:err.obj
 0005:000006d0       $unwind$ERR_add_error_data 00000000000ebb10     OpensslLib:err.obj
 0005:000006e4       $unwind$read_state_machine 00000000000ebb24     OpensslLib:statem.obj
 0005:000006fc       $unwind$write_state_machine 00000000000ebb3c     OpensslLib:statem.obj
 0005:00000714       $unwind$evp_EncryptDecryptUpdate 00000000000ebb54     OpensslLib:evp_enc.obj
 0005:00000730       $unwind$ECDH_compute_key   00000000000ebb70     OpensslLib:ec_kmeth.obj
 0005:00000730       $unwind$pkey_set_type      00000000000ebb70     OpensslLib:p_lib.obj
 0005:00000730       $unwind$internal_find      00000000000ebb70     OpensslLib:stack.obj
 0005:0000073c       $unwind$ASN1_get_object    00000000000ebb7c     OpensslLib:asn1_lib.obj
 0005:0000073c       $unwind$asn1_item_embed_new 00000000000ebb7c     OpensslLib:tasn_new.obj
 0005:0000073c       $unwind$DH_check           00000000000ebb7c     OpensslLib:dh_check.obj
 0005:0000073c       $unwind$pkey_dh_paramgen   00000000000ebb7c     OpensslLib:dh_pmeth.obj
 0005:0000073c       $unwind$ec_key_simple_generate_key 00000000000ebb7c     OpensslLib:ec_key.obj
 0005:0000073c       $unwind$EC_POINT_point2buf 00000000000ebb7c     OpensslLib:ec_oct.obj
 0005:0000073c       $unwind$ec_GFp_nist_field_sqr 00000000000ebb7c     OpensslLib:ecp_nist.obj
 0005:0000073c       $unwind$ec_GFp_simple_blind_coordinates 00000000000ebb7c     OpensslLib:ecp_smpl.obj
 0005:0000073c       $unwind$aes_xts_init_key   00000000000ebb7c     OpensslLib:e_aes.obj
 0005:0000073c       $unwind$i2r_ocsp_serviceloc 00000000000ebb7c     OpensslLib:v3_ocsp.obj
 0005:0000073c       $unwind$PKCS12_pbe_crypt   00000000000ebb7c     OpensslLib:p12_decr.obj
 0005:0000073c       $unwind$OPENSSL_asc2uni    00000000000ebb7c     OpensslLib:p12_utl.obj
 0005:0000073c       $unwind$RSA_setup_blinding 00000000000ebb7c     OpensslLib:rsa_crpt.obj
 0005:0000073c       $unwind$pkey_rsa_ctrl      00000000000ebb7c     OpensslLib:rsa_pmeth.obj
 0005:0000073c       $unwind$pkey_rsa_keygen    00000000000ebb7c     OpensslLib:rsa_pmeth.obj
 0005:0000073c       $unwind$general_allocate_string 00000000000ebb7c     OpensslLib:ui_lib.obj
 0005:0000073c       $unwind$copy_email         00000000000ebb7c     OpensslLib:v3_alt.obj
 0005:0000073c       $unwind$do_dirname         00000000000ebb7c     OpensslLib:v3_alt.obj
 0005:0000073c       $unwind$v2i_GENERAL_NAMES  00000000000ebb7c     OpensslLib:v3_alt.obj
 0005:0000073c       $unwind$set_dist_point_name 00000000000ebb7c     OpensslLib:v3_crld.obj
 0005:0000073c       $unwind$sxnet_i2r          00000000000ebb7c     OpensslLib:v3_sxnet.obj
 0005:0000073c       $unwind$X509V3_add_value   00000000000ebb7c     OpensslLib:v3_utl.obj
 0005:0000073c       $unwind$ssl3_setup_write_buffer 00000000000ebb7c     OpensslLib:ssl3_buffer.obj
 0005:0000073c       $unwind$ssl_cert_set0_chain 00000000000ebb7c     OpensslLib:ssl_cert.obj
 0005:0000073c       $unwind$construct_key_exchange_tbs 00000000000ebb7c     OpensslLib:statem_lib.obj
 0005:0000073c       $unwind$tls_process_cke_ecdhe 00000000000ebb7c     OpensslLib:statem_srvr.obj
 0005:0000073c       $unwind$tls1_save_u16      00000000000ebb7c     OpensslLib:t1_lib.obj
 0005:0000073c       $unwind$tls1_set_raw_sigalgs 00000000000ebb7c     OpensslLib:t1_lib.obj
 0005:0000073c       $unwind$tls1_set_sigalgs   00000000000ebb7c     OpensslLib:t1_lib.obj
 0005:00000754       $unwind$xname_cmp          00000000000ebb94     OpensslLib:ssl_cert.obj
 0005:00000768       $unwind$BN_BLINDING_create_param 00000000000ebba8     OpensslLib:bn_blind.obj
 0005:00000768       $unwind$pkey_dh_derive     00000000000ebba8     OpensslLib:dh_pmeth.obj
 0005:00000768       $unwind$aes_wrap_cipher    00000000000ebba8     OpensslLib:e_aes.obj
 0005:00000768       $unwind$RAND_DRBG_reseed   00000000000ebba8     OpensslLib:drbg_lib.obj
 0005:00000768       $unwind$i2d_name_canon     00000000000ebba8     OpensslLib:x_name.obj
 0005:00000768       $unwind$do_check_string    00000000000ebba8     OpensslLib:v3_utl.obj
 0005:00000768       $unwind$SSL_add_file_cert_subjects_to_stack 00000000000ebba8     OpensslLib:ssl_cert.obj
 0005:00000768       $unwind$tls_construct_cke_dhe 00000000000ebba8     OpensslLib:statem_clnt.obj
 0005:00000768       $unwind$tls_construct_cke_ecdhe 00000000000ebba8     OpensslLib:statem_clnt.obj
 0005:00000768       $unwind$tls1_set_server_sigalgs 00000000000ebba8     OpensslLib:t1_lib.obj
 0005:0000077c       $unwind$ssl_build_cert_chain 00000000000ebbbc     OpensslLib:ssl_cert.obj
 0005:00000794       $unwind$pkey_ecd_digestverify448 00000000000ebbd4     OpensslLib:ecx_meth.obj
 0005:00000794       $unwind$pkey_tls1_prf_derive 00000000000ebbd4     OpensslLib:tls1_prf.obj
 0005:00000794       $unwind$ssl_security       00000000000ebbd4     OpensslLib:ssl_cert.obj
 0005:00000794       $unwind$tls_parse_ctos_psk_kex_modes 00000000000ebbd4     OpensslLib:extensions_srvr.obj
 0005:0000079c       $unwind$RECORD_LAYER_clear 00000000000ebbdc     OpensslLib:rec_layer_s3.obj
 0005:000007a8       $unwind$bn_mul_fixed_top   00000000000ebbe8     OpensslLib:bn_mul.obj
 0005:000007a8       $unwind$OPENSSL_utf82uni   00000000000ebbe8     OpensslLib:p12_utl.obj
 0005:000007a8       $unwind$ssl3_read_n        00000000000ebbe8     OpensslLib:rec_layer_s3.obj
 0005:000007c4       $unwind$ssl3_write_bytes   00000000000ebc04     OpensslLib:rec_layer_s3.obj
 0005:000007e0       $unwind$do_ssl3_write      00000000000ebc20     OpensslLib:rec_layer_s3.obj
 0005:000007f8       $unwind$ssl3_write_pending 00000000000ebc38     OpensslLib:rec_layer_s3.obj
 0005:000007f8       $unwind$get_cert_verify_tbs_data 00000000000ebc38     OpensslLib:statem_lib.obj
 0005:000007f8       $unwind$tls_construct_server_hello 00000000000ebc38     OpensslLib:statem_srvr.obj
 0005:0000080c       $unwind$ssl3_read_bytes    00000000000ebc4c     OpensslLib:rec_layer_s3.obj
 0005:00000824       $unwind$ASN1_item_d2i_bio  00000000000ebc64     OpensslLib:a_d2i_fp.obj
 0005:00000824       $unwind$BN_CTX_free        00000000000ebc64     OpensslLib:bn_ctx.obj
 0005:00000824       $unwind$OPENSSL_LH_free    00000000000ebc64     OpensslLib:lhash.obj
 0005:00000834       $unwind$OPENSSL_LH_insert  00000000000ebc74     OpensslLib:lhash.obj
 0005:00000848       $unwind$OPENSSL_LH_delete  00000000000ebc88     OpensslLib:lhash.obj
 0005:00000848       $unwind$cert_crl           00000000000ebc88     OpensslLib:x509_vfy.obj
 0005:00000848       $unwind$check_leaf_suiteb  00000000000ebc88     OpensslLib:x509_vfy.obj
 0005:00000848       $unwind$check_sig_alg_match 00000000000ebc88     OpensslLib:v3_purp.obj
 0005:00000848       $unwind$ssl3_get_req_cert_type 00000000000ebc88     OpensslLib:s3_lib.obj
 0005:00000848       $unwind$ssl_generate_pkey  00000000000ebc88     OpensslLib:s3_lib.obj
 0005:00000858       $unwind$doall_util_fn      00000000000ebc98     OpensslLib:lhash.obj
 0005:00000870       $unwind$bn_mod_sub_fixed_top 00000000000ebcb0     OpensslLib:bn_mod.obj
 0005:00000870       $unwind$idp_check_dp       00000000000ebcb0     OpensslLib:x509_vfy.obj
 0005:00000870       $unwind$tls1_shared_group  00000000000ebcb0     OpensslLib:t1_lib.obj
 0005:00000888       $unwind$tls1_set_groups_list 00000000000ebcc8     OpensslLib:t1_lib.obj
 0005:000008a8       $unwind$tls12_check_peer_sigalg 00000000000ebce8     OpensslLib:t1_lib.obj
 0005:000008bc       $unwind$ssl_module_init    00000000000ebcfc     OpensslLib:conf_ssl.obj
 0005:000008bc       $unwind$tls_decrypt_ticket 00000000000ebcfc     OpensslLib:t1_lib.obj
 0005:000008d4       $unwind$tls12_sigalg_allowed 00000000000ebd14     OpensslLib:t1_lib.obj
 0005:000008ec       $unwind$nc_match           00000000000ebd2c     OpensslLib:v3_ncons.obj
 0005:000008ec       $unwind$tls12_shared_sigalgs 00000000000ebd2c     OpensslLib:t1_lib.obj
 0005:00000904       $unwind$pkey_rsa_sign      00000000000ebd44     OpensslLib:rsa_pmeth.obj
 0005:00000904       $unwind$SXNET_add_id_INTEGER 00000000000ebd44     OpensslLib:v3_sxnet.obj
 0005:00000904       $unwind$tls1_process_sigalgs 00000000000ebd44     OpensslLib:t1_lib.obj
 0005:0000091c       $unwind$sig_cb             00000000000ebd5c     OpensslLib:t1_lib.obj
 0005:00000930       $unwind$tls1_set_sigalgs_list 00000000000ebd70     OpensslLib:t1_lib.obj
 0005:0000093c       $unwind$tls1_check_chain   00000000000ebd7c     OpensslLib:t1_lib.obj
 0005:00000954       $unwind$ssl_security_cert  00000000000ebd94     OpensslLib:t1_lib.obj
 0005:00000964       $unwind$tls_choose_sigalg  00000000000ebda4     OpensslLib:t1_lib.obj
 0005:0000097c       $unwind$X509_NAME_cmp      00000000000ebdbc     OpensslLib:x509_cmp.obj
 0005:0000097c       $unwind$ssl3_finish_mac    00000000000ebdbc     OpensslLib:s3_enc.obj
 0005:00000988       $unwind$ASN1_STRING_TABLE_get 00000000000ebdc8     OpensslLib:a_strnid.obj
 0005:00000988       $unwind$X509_NAME_hash     00000000000ebdc8     OpensslLib:x509_cmp.obj
 0005:00000990       $unwind$int_rsa_verify     00000000000ebdd0     OpensslLib:rsa_sign.obj
 0005:00000990       $unwind$ssl_do_config      00000000000ebdd0     OpensslLib:ssl_mcnf.obj
 0005:000009ac       $unwind$rand_drbg_get_entropy 00000000000ebdec     OpensslLib:rand_lib.obj
 0005:000009c0       $unwind$pkey_ecx_derive25519 00000000000ebe00     OpensslLib:ecx_meth.obj
 0005:000009c0       $unwind$pkey_ecx_derive448 00000000000ebe00     OpensslLib:ecx_meth.obj
 0005:000009c0       $unwind$rsa_pkey_ctrl      00000000000ebe00     OpensslLib:rsa_ameth.obj
 0005:000009c0       $unwind$ssl_check_for_safari 00000000000ebe00     OpensslLib:statem_srvr.obj
 0005:000009cc       $unwind$tls_process_client_hello 00000000000ebe0c     OpensslLib:statem_srvr.obj
 0005:000009e4       $unwind$tls_early_post_process_client_hello 00000000000ebe24     OpensslLib:statem_srvr.obj
 0005:000009fc       $unwind$tls_handle_alpn    00000000000ebe3c     OpensslLib:statem_srvr.obj
 0005:00000a14       $unwind$ec_curve_nid_from_params 00000000000ebe54     OpensslLib:ec_curve.obj
 0005:00000a14       $unwind$tls_construct_server_key_exchange 00000000000ebe54     OpensslLib:statem_srvr.obj
 0005:00000a2c       $unwind$tls_process_cke_psk_preamble 00000000000ebe6c     OpensslLib:statem_srvr.obj
 0005:00000a3c       $unwind$tls_process_cke_rsa 00000000000ebe7c     OpensslLib:statem_srvr.obj
 0005:00000a54       $unwind$tls_process_cke_dhe 00000000000ebe94     OpensslLib:statem_srvr.obj
 0005:00000a6c       $unwind$asn1_collect       00000000000ebeac     OpensslLib:tasn_dec.obj
 0005:00000a6c       $unwind$tls_process_client_certificate 00000000000ebeac     OpensslLib:statem_srvr.obj
 0005:00000a84       $unwind$construct_stateless_ticket 00000000000ebec4     OpensslLib:statem_srvr.obj
 0005:00000a9c       $unwind$tls_construct_new_session_ticket 00000000000ebedc     OpensslLib:statem_srvr.obj
 0005:00000ab0       $unwind$tls_parse_ctos_server_name 00000000000ebef0     OpensslLib:extensions_srvr.obj
 0005:00000ab0       $unwind$tls_process_next_proto 00000000000ebef0     OpensslLib:statem_srvr.obj
 0005:00000abc       $unwind$ECDSA_size         00000000000ebefc     OpensslLib:ec_asn1.obj
 0005:00000abc       $unwind$EC_GROUP_new_by_curve_name 00000000000ebefc     OpensslLib:ec_curve.obj
 0005:00000abc       $unwind$X509_TRUST_get_by_id 00000000000ebefc     OpensslLib:x509_trs.obj
 0005:00000abc       $unwind$X509_PURPOSE_get_by_id 00000000000ebefc     OpensslLib:v3_purp.obj
 0005:00000ac4       $unwind$x509v3_cache_extensions 00000000000ebf04     OpensslLib:v3_purp.obj
 0005:00000adc       $unwind$x509_name_ex_d2i   00000000000ebf1c     OpensslLib:x_name.obj
 0005:00000af8       $unwind$x509_name_encode   00000000000ebf38     OpensslLib:x_name.obj
 0005:00000b10       $unwind$x509_name_canon    00000000000ebf50     OpensslLib:x_name.obj
 0005:00000b28       $unwind$X509_NAME_print    00000000000ebf68     OpensslLib:x_name.obj
 0005:00000b40       $unwind$custom_ext_parse   00000000000ebf80     OpensslLib:extensions_cust.obj
 0005:00000b54       $unwind$ecdh_KDF_X9_63     00000000000ebf94     OpensslLib:ecdh_kdf.obj
 0005:00000b54       $unwind$custom_ext_add     00000000000ebf94     OpensslLib:extensions_cust.obj
 0005:00000b6c       $unwind$add_old_custom_ext 00000000000ebfac     OpensslLib:extensions_cust.obj
 0005:00000b80       $unwind$OBJ_add_object     00000000000ebfc0     OpensslLib:obj_dat.obj
 0005:00000b80       $unwind$ssl3_get_cipher_by_std_name 00000000000ebfc0     OpensslLib:s3_lib.obj
 0005:00000b94       $unwind$OBJ_nid2ln         00000000000ebfd4     OpensslLib:obj_dat.obj
 0005:00000b94       $unwind$OBJ_nid2obj        00000000000ebfd4     OpensslLib:obj_dat.obj
 0005:00000b94       $unwind$OBJ_nid2sn         00000000000ebfd4     OpensslLib:obj_dat.obj
 0005:00000b9c       $unwind$OBJ_obj2nid        00000000000ebfdc     OpensslLib:obj_dat.obj
 0005:00000ba4       $unwind$OBJ_txt2obj        00000000000ebfe4     OpensslLib:obj_dat.obj
 0005:00000ba4       $unwind$sxnet_v2i          00000000000ebfe4     OpensslLib:v3_sxnet.obj
 0005:00000bb8       $unwind$CRYPTO_ccm128_decrypt_ccm64 00000000000ebff8     OpensslLib:ccm128.obj
 0005:00000bb8       $unwind$CRYPTO_ccm128_encrypt_ccm64 00000000000ebff8     OpensslLib:ccm128.obj
 0005:00000bb8       $unwind$OBJ_obj2txt        00000000000ebff8     OpensslLib:obj_dat.obj
 0005:00000bd0       $unwind$OBJ_ln2nid         00000000000ec010     OpensslLib:obj_dat.obj
 0005:00000bd0       $unwind$OBJ_sn2nid         00000000000ec010     OpensslLib:obj_dat.obj
 0005:00000bd8       $unwind$get_and_lock       00000000000ec018     OpensslLib:ex_data.obj
 0005:00000be0       $unwind$CRYPTO_new_ex_data 00000000000ec020     OpensslLib:ex_data.obj
 0005:00000bf8       $unwind$CRYPTO_dup_ex_data 00000000000ec038     OpensslLib:ex_data.obj
 0005:00000c14       $unwind$CRYPTO_free_ex_data 00000000000ec054     OpensslLib:ex_data.obj
 0005:00000c30       $unwind$buffer_read        00000000000ec070     OpensslLib:bf_buff.obj
 0005:00000c30       $unwind$buffer_write       00000000000ec070     OpensslLib:bf_buff.obj
 0005:00000c48       $unwind$buffer_ctrl        00000000000ec088     OpensslLib:bf_buff.obj
 0005:00000c60       $unwind$get_cert_by_subject 00000000000ec0a0     OpensslLib:by_dir.obj
 0005:00000c78       $unwind$tls13_hkdf_expand  00000000000ec0b8     OpensslLib:tls13_enc.obj
 0005:00000c98       $unwind$tls13_generate_secret 00000000000ec0d8     OpensslLib:tls13_enc.obj
 0005:00000cb8       $unwind$tls13_final_finish_mac 00000000000ec0f8     OpensslLib:tls13_enc.obj
 0005:00000cd8       $unwind$OBJ_find_sigid_by_algs 00000000000ec118     OpensslLib:obj_xref.obj
 0005:00000cd8       $unwind$tls13_setup_key_block 00000000000ec118     OpensslLib:tls13_enc.obj
 0005:00000ce0       $unwind$derive_secret_key_and_iv 00000000000ec120     OpensslLib:tls13_enc.obj
 0005:00000d00       $unwind$tls13_change_cipher_state 00000000000ec140     OpensslLib:tls13_enc.obj
 0005:00000d1c       $unwind$table_select       00000000000ec15c     OpensslLib:curve25519.obj
 0005:00000d1c       $unwind$tls13_update_key   00000000000ec15c     OpensslLib:tls13_enc.obj
 0005:00000d3c       $unwind$tls13_export_keying_material 00000000000ec17c     OpensslLib:tls13_enc.obj
 0005:00000d5c       $unwind$ssl3_do_write      00000000000ec19c     OpensslLib:statem_lib.obj
 0005:00000d6c       $unwind$tls_setup_handshake 00000000000ec1ac     OpensslLib:statem_lib.obj
 0005:00000d7c       $unwind$tls_construct_cert_verify 00000000000ec1bc     OpensslLib:statem_lib.obj
 0005:00000d94       $unwind$tls_process_cert_verify 00000000000ec1d4     OpensslLib:statem_lib.obj
 0005:00000db0       $unwind$ssl_add_cert_to_wpacket 00000000000ec1f0     OpensslLib:statem_lib.obj
 0005:00000dc4       $unwind$tls_finish_handshake 00000000000ec204     OpensslLib:statem_lib.obj
 0005:00000de0       $unwind$tls_get_message_header 00000000000ec220     OpensslLib:statem_lib.obj
 0005:00000df4       $unwind$tls_get_message_body 00000000000ec234     OpensslLib:statem_lib.obj
 0005:00000e08       $unwind$ssl_choose_server_version 00000000000ec248     OpensslLib:statem_lib.obj
 0005:00000e1c       $unwind$ssl_choose_client_version 00000000000ec25c     OpensslLib:statem_lib.obj
 0005:00000e2c       $unwind$ssl_get_min_max_version 00000000000ec26c     OpensslLib:statem_lib.obj
 0005:00000e44       $unwind$create_synthetic_message_hash 00000000000ec284     OpensslLib:statem_lib.obj
 0005:00000e54       $unwind$parse_ca_names     00000000000ec294     OpensslLib:statem_lib.obj
 0005:00000e6c       $unwind$compute_key        00000000000ec2ac     OpensslLib:dh_key.obj
 0005:00000e6c       $unwind$tls_construct_ctos_status_request 00000000000ec2ac     OpensslLib:extensions_clnt.obj
 0005:00000e6c       $unwind$construct_ca_names 00000000000ec2ac     OpensslLib:statem_lib.obj
 0005:00000e84       $unwind$ASN1_STRING_set_by_NID 00000000000ec2c4     OpensslLib:a_strnid.obj
 0005:00000e84       $unwind$aes_cfb_cipher     00000000000ec2c4     OpensslLib:e_aes.obj
 0005:00000e84       $unwind$aes_ofb_cipher     00000000000ec2c4     OpensslLib:e_aes.obj
 0005:00000e84       $unwind$aria_ctr_cipher    00000000000ec2c4     OpensslLib:e_aria.obj
 0005:00000e84       $unwind$sm4_ctr_cipher     00000000000ec2c4     OpensslLib:e_sm4.obj
 0005:00000e84       $unwind$tls_construct_stoc_next_proto_neg 00000000000ec2c4     OpensslLib:extensions_srvr.obj
 0005:00000e90       $unwind$ASN1_item_verify   00000000000ec2d0     OpensslLib:a_verify.obj
 0005:00000e90       $unwind$ASN1_bn_print      00000000000ec2d0     OpensslLib:t_pkey.obj
 0005:00000e90       $unwind$aes_cfb1_cipher    00000000000ec2d0     OpensslLib:e_aes.obj
 0005:00000e90       $unwind$aria_128_ofb_cipher 00000000000ec2d0     OpensslLib:e_aria.obj
 0005:00000e90       $unwind$aria_192_ofb_cipher 00000000000ec2d0     OpensslLib:e_aria.obj
 0005:00000e90       $unwind$aria_256_ofb_cipher 00000000000ec2d0     OpensslLib:e_aria.obj
 0005:00000e90       $unwind$sm4_ofb_cipher     00000000000ec2d0     OpensslLib:e_sm4.obj
 0005:00000e90       $unwind$tls1_prf_alg       00000000000ec2d0     OpensslLib:tls1_prf.obj
 0005:00000e90       $unwind$policy_cache_set_mapping 00000000000ec2d0     OpensslLib:pcy_map.obj
 0005:00000e90       $unwind$policy_section     00000000000ec2d0     OpensslLib:v3_cpols.obj
 0005:00000e90       $unwind$r2i_certpol        00000000000ec2d0     OpensslLib:v3_cpols.obj
 0005:00000e90       $unwind$v2i_idp            00000000000ec2d0     OpensslLib:v3_crld.obj
 0005:00000e90       $unwind$v2i_POLICY_MAPPINGS 00000000000ec2d0     OpensslLib:v3_pmaps.obj
 0005:00000e90       $unwind$v2i_TLS_FEATURE    00000000000ec2d0     OpensslLib:v3_tlsf.obj
 0005:00000eac       $unwind$aes_gcm_ctrl       00000000000ec2ec     OpensslLib:e_aes.obj
 0005:00000eac       $unwind$aria_gcm_ctrl      00000000000ec2ec     OpensslLib:e_aria.obj
 0005:00000ec4       $unwind$ctrl               00000000000ec304     OpensslLib:m_sha1.obj
 0005:00000ed4       $unwind$dh_priv_encode     00000000000ec314     OpensslLib:dh_ameth.obj
 0005:00000ed4       $unwind$aria_128_cfb128_cipher 00000000000ec314     OpensslLib:e_aria.obj
 0005:00000ed4       $unwind$aria_192_cfb128_cipher 00000000000ec314     OpensslLib:e_aria.obj
 0005:00000ed4       $unwind$aria_256_cfb128_cipher 00000000000ec314     OpensslLib:e_aria.obj
 0005:00000ed4       $unwind$sm4_cfb128_cipher  00000000000ec314     OpensslLib:e_sm4.obj
 0005:00000ed4       $unwind$v2i_BASIC_CONSTRAINTS 00000000000ec314     OpensslLib:v3_bcons.obj
 0005:00000ed4       $unwind$v2i_POLICY_CONSTRAINTS 00000000000ec314     OpensslLib:v3_pcons.obj
 0005:00000ee8       $unwind$aria_encrypt       00000000000ec328     OpensslLib:aria.obj
 0005:00000ee8       $unwind$bn2binpad          00000000000ec328     OpensslLib:bn_lib.obj
 0005:00000ee8       $unwind$aria_128_cfb1_cipher 00000000000ec328     OpensslLib:e_aria.obj
 0005:00000ee8       $unwind$aria_128_cfb8_cipher 00000000000ec328     OpensslLib:e_aria.obj
 0005:00000ee8       $unwind$aria_192_cfb1_cipher 00000000000ec328     OpensslLib:e_aria.obj
 0005:00000ee8       $unwind$aria_192_cfb8_cipher 00000000000ec328     OpensslLib:e_aria.obj
 0005:00000ee8       $unwind$aria_256_cfb1_cipher 00000000000ec328     OpensslLib:e_aria.obj
 0005:00000ee8       $unwind$aria_256_cfb8_cipher 00000000000ec328     OpensslLib:e_aria.obj
 0005:00000ee8       $unwind$pkey_rsa_encrypt   00000000000ec328     OpensslLib:rsa_pmeth.obj
 0005:00000ee8       $unwind$RSA_sign           00000000000ec328     OpensslLib:rsa_sign.obj
 0005:00000ee8       $unwind$a2i_GENERAL_NAME   00000000000ec328     OpensslLib:v3_alt.obj
 0005:00000ee8       $unwind$v2i_EXTENDED_KEY_USAGE 00000000000ec328     OpensslLib:v3_extku.obj
 0005:00000f00       $unwind$ctrl               00000000000ec340     OpensslLib:m_md5_sha1.obj
 0005:00000f18       $unwind$ossl_init_get_thread_local 00000000000ec358     OpensslLib:init.obj
 0005:00000f20       $unwind$do_dtls1_write     00000000000ec360     OpensslLib:rec_layer_d1.obj
 0005:00000f3c       $unwind$bn_print           00000000000ec37c     OpensslLib:x_bignum.obj
 0005:00000f3c       $unwind$X509V3_parse_list  00000000000ec37c     OpensslLib:v3_utl.obj
 0005:00000f3c       $unwind$ssl3_ctrl          00000000000ec37c     OpensslLib:s3_lib.obj
 0005:00000f54       $unwind$ssl3_ctx_ctrl      00000000000ec394     OpensslLib:s3_lib.obj
 0005:00000f68       $unwind$ssl3_get_cipher_by_id 00000000000ec3a8     OpensslLib:s3_lib.obj
 0005:00000f70       $unwind$ssl3_choose_cipher 00000000000ec3b0     OpensslLib:s3_lib.obj
 0005:00000f70       $unwind$ssl_cipher_list_to_bytes 00000000000ec3b0     OpensslLib:statem_clnt.obj
 0005:00000f88       $unwind$EC_GROUP_cmp       00000000000ec3c8     OpensslLib:ec_lib.obj
 0005:00000f88       $unwind$ssl_generate_master_secret 00000000000ec3c8     OpensslLib:s3_lib.obj
 0005:00000fa0       $unwind$ssl_generate_pkey_group 00000000000ec3e0     OpensslLib:s3_lib.obj
 0005:00000fb4       $unwind$dh_pub_encode      00000000000ec3f4     OpensslLib:dh_ameth.obj
 0005:00000fb4       $unwind$ssl_derive         00000000000ec3f4     OpensslLib:s3_lib.obj
 0005:00000fc8       $unwind$ssl3_dispatch_alert 00000000000ec408     OpensslLib:s3_msg.obj
 0005:00000fd4       $unwind$crl_cb             00000000000ec414     OpensslLib:x_crl.obj
 0005:00000fec       $unwind$def_crl_lookup     00000000000ec42c     OpensslLib:x_crl.obj
 0005:00001004       $unwind$find_issuer        00000000000ec444     OpensslLib:x509_vfy.obj
 0005:0000101c       $unwind$rsa_multip_calc_product 00000000000ec45c     OpensslLib:rsa_mp.obj
 0005:0000101c       $unwind$check_chain_extensions 00000000000ec45c     OpensslLib:x509_vfy.obj
 0005:00001034       $unwind$CRYPTO_gcm128_decrypt 00000000000ec474     OpensslLib:gcm128.obj
 0005:00001034       $unwind$CRYPTO_gcm128_encrypt 00000000000ec474     OpensslLib:gcm128.obj
 0005:00001034       $unwind$CRYPTO_gcm128_setiv 00000000000ec474     OpensslLib:gcm128.obj
 0005:00001034       $unwind$check_dane_pkeys   00000000000ec474     OpensslLib:x509_vfy.obj
 0005:00001034       $unwind$check_trust        00000000000ec474     OpensslLib:x509_vfy.obj
 0005:00001034       $unwind$tree_calculate_authority_set 00000000000ec474     OpensslLib:pcy_tree.obj
 0005:00001034       $unwind$tls_validate_all_contexts 00000000000ec474     OpensslLib:extensions.obj
 0005:00001050       $unwind$check_cert         00000000000ec490     OpensslLib:x509_vfy.obj
 0005:00001064       $unwind$get_crl_sk         00000000000ec4a4     OpensslLib:x509_vfy.obj
 0005:0000107c       $unwind$check_crl_path     00000000000ec4bc     OpensslLib:x509_vfy.obj
 0005:0000108c       $unwind$crl_crldp_check    00000000000ec4cc     OpensslLib:x509_vfy.obj
 0005:000010a4       $unwind$X509_cmp_time      00000000000ec4e4     OpensslLib:x509_vfy.obj
 0005:000010b4       $unwind$bn_mod_add_fixed_top 00000000000ec4f4     OpensslLib:bn_mod.obj
 0005:000010b4       $unwind$dane_match         00000000000ec4f4     OpensslLib:x509_vfy.obj
 0005:000010d0       $unwind$build_chain        00000000000ec510     OpensslLib:x509_vfy.obj
 0005:000010e8       $unwind$EVP_PKEY_asn1_find 00000000000ec528     OpensslLib:ameth_lib.obj
 0005:000010f4       $unwind$i2d_SSL_SESSION    00000000000ec534     OpensslLib:ssl_asn1.obj
 0005:00001108       $unwind$d2i_SSL_SESSION    00000000000ec548     OpensslLib:ssl_asn1.obj
 0005:00001120       $unwind$PEM_ASN1_read_bio  00000000000ec560     OpensslLib:pem_oth.obj
 0005:00001130       $unwind$pem_bytes_read_bio_flags 00000000000ec570     OpensslLib:pem_lib.obj
 0005:0000114c       $unwind$get_header_and_data 00000000000ec58c     OpensslLib:pem_lib.obj
 0005:00001164       $unwind$PEM_read_bio_ex    00000000000ec5a4     OpensslLib:pem_lib.obj
 0005:0000117c       $unwind$BN_is_prime_fasttest_ex 00000000000ec5bc     OpensslLib:bn_prime.obj
 0005:0000117c       $unwind$BN_mod_sqrt        00000000000ec5bc     OpensslLib:bn_sqrt.obj
 0005:0000117c       $unwind$do_x509_check      00000000000ec5bc     OpensslLib:v3_utl.obj
 0005:0000117c       $unwind$tls_collect_extensions 00000000000ec5bc     OpensslLib:extensions.obj
 0005:00001194       $unwind$tls_parse_extension 00000000000ec5d4     OpensslLib:extensions.obj
 0005:000011a8       $unwind$tls_construct_extensions 00000000000ec5e8     OpensslLib:extensions.obj
 0005:000011c4       $unwind$final_server_name  00000000000ec604     OpensslLib:extensions.obj
 0005:000011d8       $unwind$final_key_share    00000000000ec618     OpensslLib:extensions.obj
 0005:000011ec       $unwind$BN_mod_exp_recp    00000000000ec62c     OpensslLib:bn_exp.obj
 0005:000011ec       $unwind$tls_psk_do_binder  00000000000ec62c     OpensslLib:extensions.obj
 0005:00001208       $unwind$uint32_i2c         00000000000ec648     OpensslLib:x_int64.obj
 0005:00001208       $unwind$X509_verify        00000000000ec648     OpensslLib:x_all.obj
 0005:00001208       $unwind$WPACKET_start_sub_packet_len__ 00000000000ec648     OpensslLib:packet.obj
 0005:00001208       $unwind$ssl3_digest_cached_records 00000000000ec648     OpensslLib:s3_enc.obj
 0005:00001208       $unwind$tls_construct_ctos_padding 00000000000ec648     OpensslLib:extensions_clnt.obj
 0005:00001208       $unwind$tls_parse_stoc_alpn 00000000000ec648     OpensslLib:extensions_clnt.obj
 0005:00001208       $unwind$tls_construct_next_proto 00000000000ec648     OpensslLib:statem_clnt.obj
 0005:00001208       $unwind$tls_process_as_hello_retry_request 00000000000ec648     OpensslLib:statem_clnt.obj
 0005:00001218       $unwind$PEM_read_bio_PrivateKey 00000000000ec658     OpensslLib:pem_pkey.obj
 0005:00001234       $unwind$PEM_read_bio_DHparams 00000000000ec674     OpensslLib:pem_pkey.obj
 0005:00001244       $unwind$RSA_new_method     00000000000ec684     OpensslLib:rsa_lib.obj
 0005:00001250       $unwind$d2i_PrivateKey     00000000000ec690     OpensslLib:d2i_pr.obj
 0005:00001264       $unwind$ASN1_STRING_to_UTF8 00000000000ec6a4     OpensslLib:a_strex.obj
 0005:00001264       $unwind$ASN1_item_d2i      00000000000ec6a4     OpensslLib:tasn_dec.obj
 0005:0000126c       $unwind$stbl_module_init   00000000000ec6ac     OpensslLib:asn_mstbl.obj
 0005:0000126c       $unwind$ASN1_item_ex_d2i   00000000000ec6ac     OpensslLib:tasn_dec.obj
 0005:0000126c       $unwind$ctr_BCC_blocks     00000000000ec6ac     OpensslLib:drbg_ctr.obj
 0005:0000127c       $unwind$asn1_item_embed_d2i 00000000000ec6bc     OpensslLib:tasn_dec.obj
 0005:00001294       $unwind$asn1_template_ex_d2i 00000000000ec6d4     OpensslLib:tasn_dec.obj
 0005:000012ac       $unwind$asn1_template_noexp_d2i 00000000000ec6ec     OpensslLib:tasn_dec.obj
 0005:000012c4       $unwind$asn1_d2i_ex_primitive 00000000000ec704     OpensslLib:tasn_dec.obj
 0005:000012e4       $unwind$asn1_ex_c2i        00000000000ec724     OpensslLib:tasn_dec.obj
 0005:000012e4       $unwind$ec_GFp_simple_point2oct 00000000000ec724     OpensslLib:ecp_oct.obj
 0005:000012e4       $unwind$ec_GFp_simple_set_compressed_coordinates 00000000000ec724     OpensslLib:ecp_oct.obj
 0005:000012e4       $unwind$pkey_rsa_print     00000000000ec724     OpensslLib:rsa_ameth.obj
 0005:00001300       $unwind$asn1_find_end      00000000000ec740     OpensslLib:tasn_dec.obj
 0005:00001310       $unwind$asn1_check_tlen    00000000000ec750     OpensslLib:tasn_dec.obj
 0005:00001310       $unwind$sha1_block_data_order 00000000000ec750     OpensslLib:sha1dgst.obj
 0005:0000132c       $unwind$c2i_ASN1_BIT_STRING 00000000000ec76c     OpensslLib:a_bitstr.obj
 0005:0000132c       $unwind$v2i_crld           00000000000ec76c     OpensslLib:v3_crld.obj
 0005:00001348       $unwind$print_distpoint    00000000000ec788     OpensslLib:v3_crld.obj
 0005:00001348       $unwind$tls_parse_ctos_alpn 00000000000ec788     OpensslLib:extensions_srvr.obj
 0005:00001350       $unwind$asn1_primitive_new 00000000000ec790     OpensslLib:tasn_new.obj
 0005:00001364       $unwind$policy_cache_new   00000000000ec7a4     OpensslLib:pcy_cache.obj
 0005:00001378       $unwind$v2i_NAME_CONSTRAINTS 00000000000ec7b8     OpensslLib:v3_ncons.obj
 0005:00001390       $unwind$NAME_CONSTRAINTS_check_CN 00000000000ec7d0     OpensslLib:v3_ncons.obj
 0005:000013a8       $unwind$nc_match_single    00000000000ec7e8     OpensslLib:v3_ncons.obj
 0005:000013b8       $unwind$asn1_item_embed_free 00000000000ec7f8     OpensslLib:tasn_fre.obj
 0005:000013d0       $unwind$asn1_template_free 00000000000ec810     OpensslLib:tasn_fre.obj
 0005:000013e4       $unwind$asn1_item_flags_i2d 00000000000ec824     OpensslLib:tasn_enc.obj
 0005:000013f4       $unwind$ASN1_item_ex_i2d   00000000000ec834     OpensslLib:tasn_enc.obj
 0005:000013f4       $unwind$dtls1_do_write     00000000000ec834     OpensslLib:statem_dtls.obj
 0005:00001410       $unwind$asn1_template_ex_i2d 00000000000ec850     OpensslLib:tasn_enc.obj
 0005:0000142c       $unwind$asn1_set_seq_out   00000000000ec86c     OpensslLib:tasn_enc.obj
 0005:00001448       $unwind$asn1_i2d_ex_primitive 00000000000ec888     OpensslLib:tasn_enc.obj
 0005:00001460       $unwind$a2d_ASN1_OBJECT    00000000000ec8a0     OpensslLib:a_object.obj
 0005:00001478       $unwind$i2a_ASN1_OBJECT    00000000000ec8b8     OpensslLib:a_object.obj
 0005:0000148c       $unwind$d2i_ASN1_OBJECT    00000000000ec8cc     OpensslLib:a_object.obj
 0005:00001494       $unwind$c2i_ASN1_OBJECT    00000000000ec8d4     OpensslLib:a_object.obj
 0005:00001494       $unwind$BN_nist_mod_256    00000000000ec8d4     OpensslLib:bn_nist.obj
 0005:00001494       $unwind$ec_GFp_simple_dbl  00000000000ec8d4     OpensslLib:ecp_smpl.obj
 0005:00001494       $unwind$tree_calculate_user_set 00000000000ec8d4     OpensslLib:pcy_tree.obj
 0005:000014b0       $unwind$s2i_ASN1_INTEGER   00000000000ec8f0     OpensslLib:v3_utl.obj
 0005:000014c0       $unwind$OBJ_find_sigid_algs 00000000000ec900     OpensslLib:obj_xref.obj
 0005:000014c0       $unwind$drbg_ctr_reseed    00000000000ec900     OpensslLib:drbg_ctr.obj
 0005:000014c0       $unwind$X509V3_get_value_int 00000000000ec900     OpensslLib:v3_utl.obj
 0005:000014c0       $unwind$tls_parse_stoc_cookie 00000000000ec900     OpensslLib:extensions_clnt.obj
 0005:000014c0       $unwind$tls_parse_stoc_supported_versions 00000000000ec900     OpensslLib:extensions_clnt.obj
 0005:000014c0       $unwind$tls_parse_ctos_supported_groups 00000000000ec900     OpensslLib:extensions_srvr.obj
 0005:000014cc       $unwind$wildcard_match     00000000000ec90c     OpensslLib:v3_utl.obj
 0005:000014e8       $unwind$ipv4_from_asc      00000000000ec928     OpensslLib:v3_utl.obj
 0005:000014f0       $unwind$ipv6_from_asc      00000000000ec930     OpensslLib:v3_utl.obj
 0005:00001500       $unwind$tls_construct_client_hello 00000000000ec940     OpensslLib:statem_clnt.obj
 0005:00001518       $unwind$asn1_time_to_tm    00000000000ec958     OpensslLib:a_time.obj
 0005:00001518       $unwind$tls_process_server_hello 00000000000ec958     OpensslLib:statem_clnt.obj
 0005:00001530       $unwind$tls_process_server_certificate 00000000000ec970     OpensslLib:statem_clnt.obj
 0005:00001548       $unwind$tls_process_ske_psk_preamble 00000000000ec988     OpensslLib:statem_clnt.obj
 0005:00001558       $unwind$r2i_pci            00000000000ec998     OpensslLib:v3_pci.obj
 0005:00001558       $unwind$tls_process_ske_dhe 00000000000ec998     OpensslLib:statem_clnt.obj
 0005:00001570       $unwind$tls_process_ske_ecdhe 00000000000ec9b0     OpensslLib:statem_clnt.obj
 0005:00001584       $unwind$tls_process_key_exchange 00000000000ec9c4     OpensslLib:statem_clnt.obj
 0005:00001598       $unwind$tls13_enc          00000000000ec9d8     OpensslLib:ssl3_record_tls13.obj
 0005:00001598       $unwind$tls_process_new_session_ticket 00000000000ec9d8     OpensslLib:statem_clnt.obj
 0005:000015b0       $unwind$asn1_string_get_int64 00000000000ec9f0     OpensslLib:a_int.obj
 0005:000015b0       $unwind$ec_pkey_ctrl       00000000000ec9f0     OpensslLib:ec_ameth.obj
 0005:000015b0       $unwind$tls_process_cert_status_body 00000000000ec9f0     OpensslLib:statem_clnt.obj
 0005:000015c0       $unwind$tls_construct_cke_psk_preamble 00000000000eca00     OpensslLib:statem_clnt.obj
 0005:000015e0       $unwind$tls_construct_cke_rsa 00000000000eca20     OpensslLib:statem_clnt.obj
 0005:000015f4       $unwind$tls_prepare_client_certificate 00000000000eca34     OpensslLib:statem_clnt.obj
 0005:0000160c       $unwind$OPENSSL_gmtime_diff 00000000000eca4c     OpensslLib:o_time.obj
 0005:0000160c       $unwind$tls_process_encrypted_extensions 00000000000eca4c     OpensslLib:statem_clnt.obj
 0005:0000161c       $unwind$dtls_get_message   00000000000eca5c     OpensslLib:statem_dtls.obj
 0005:00001630       $unwind$dtls1_reassemble_fragment 00000000000eca70     OpensslLib:statem_dtls.obj
 0005:00001648       $unwind$dtls1_process_out_of_seq_message 00000000000eca88     OpensslLib:statem_dtls.obj
 0005:00001660       $unwind$dtls_get_reassembled_message 00000000000ecaa0     OpensslLib:statem_dtls.obj
 0005:0000167c       $unwind$int_ctx_new        00000000000ecabc     OpensslLib:pmeth_lib.obj
 0005:00001690       $unwind$ssl3_get_record    00000000000ecad0     OpensslLib:ssl3_record.obj
 0005:000016a8       $unwind$tls1_enc           00000000000ecae8     OpensslLib:ssl3_record.obj
 0005:000016c4       $unwind$tls1_mac           00000000000ecb04     OpensslLib:ssl3_record.obj
 0005:000016e0       $unwind$tls1_cbc_remove_padding 00000000000ecb20     OpensslLib:ssl3_record.obj
 0005:000016f0       $unwind$ssl3_cbc_copy_mac  00000000000ecb30     OpensslLib:ssl3_record.obj
 0005:0000170c       $unwind$tls1_change_cipher_state 00000000000ecb4c     OpensslLib:t1_enc.obj
 0005:00001724       $unwind$tls1_setup_key_block 00000000000ecb64     OpensslLib:t1_enc.obj
 0005:00001734       $unwind$tls1_final_finish_mac 00000000000ecb74     OpensslLib:t1_enc.obj
 0005:0000174c       $unwind$tls1_generate_master_secret 00000000000ecb8c     OpensslLib:t1_enc.obj
 0005:00001764       $unwind$tls1_export_keying_material 00000000000ecba4     OpensslLib:t1_enc.obj
 0005:0000177c       $unwind$EC_POINT_mul       00000000000ecbbc     OpensslLib:ec_lib.obj
 0005:00001794       $unwind$HMAC_Init_ex       00000000000ecbd4     OpensslLib:hmac.obj
 0005:000017b4       $unwind$HMAC_Final         00000000000ecbf4     OpensslLib:hmac.obj
 0005:000017c4       $unwind$BN_consttime_swap  00000000000ecc04     OpensslLib:bn_lib.obj
 0005:000017d0       $unwind$ec_group_new_from_data 00000000000ecc10     OpensslLib:ec_curve.obj
 0005:000017e8       $unwind$i2v_AUTHORITY_INFO_ACCESS 00000000000ecc28     OpensslLib:v3_info.obj
 0005:00001804       $unwind$v2i_AUTHORITY_INFO_ACCESS 00000000000ecc44     OpensslLib:v3_info.obj
 0005:00001820       $unwind$X509_NAME_oneline  00000000000ecc60     OpensslLib:x509_obj.obj
 0005:0000183c       $unwind$i2c_ibuf           00000000000ecc7c     OpensslLib:a_int.obj
 0005:0000183c       $unwind$ASN1_put_object    00000000000ecc7c     OpensslLib:asn1_lib.obj
 0005:0000183c       $unwind$make_kn            00000000000ecc7c     OpensslLib:cmac.obj
 0005:0000183c       $unwind$gf_mulw_unsigned   00000000000ecc7c     OpensslLib:f_impl.obj
 0005:0000183c       $unwind$sc_subx            00000000000ecc7c     OpensslLib:scalar.obj
 0005:0000183c       $unwind$gcm_gmult_4bit     00000000000ecc7c     OpensslLib:gcm128.obj
 0005:0000183c       $unwind$julian_to_date     00000000000ecc7c     OpensslLib:o_time.obj
 0005:0000183c       $unwind$SipHash_Final      00000000000ecc7c     OpensslLib:siphash.obj
 0005:0000184c       $unwind$c2i_ASN1_INTEGER   00000000000ecc8c     OpensslLib:a_int.obj
 0005:00001860       $unwind$asn1_time_from_tm  00000000000ecca0     OpensslLib:a_time.obj
 0005:00001878       $unwind$ASN1_TIME_adj      00000000000eccb8     OpensslLib:a_time.obj
 0005:00001880       $unwind$ASN1_TIME_diff     00000000000eccc0     OpensslLib:a_time.obj
 0005:00001894       $unwind$ASN1_TIME_print    00000000000eccd4     OpensslLib:a_time.obj
 0005:000018ac       $unwind$cmd_Groups         00000000000eccec     OpensslLib:ssl_conf.obj
 0005:000018b8       $unwind$SSL_CONF_cmd       00000000000eccf8     OpensslLib:ssl_conf.obj
 0005:000018cc       $unwind$RandGetBytes       00000000000ecd0c     OpensslLib:rand_pool.obj
 0005:000018dc       $unwind$RAND_DRBG_instantiate 00000000000ecd1c     OpensslLib:drbg_lib.obj
 0005:000018f0       $unwind$drbg_add           00000000000ecd30     OpensslLib:drbg_lib.obj
 0005:00001900       $unwind$RAND_DRBG_get0_private 00000000000ecd40     OpensslLib:drbg_lib.obj
 0005:00001910       $unwind$ASN1_TYPE_set      00000000000ecd50     OpensslLib:a_type.obj
 0005:0000191c       $unwind$CMAC_Init          00000000000ecd5c     OpensslLib:cmac.obj
 0005:00001934       $unwind$do_sigver_init     00000000000ecd74     OpensslLib:m_sigver.obj
 0005:00001948       $unwind$EVP_DigestSignFinal 00000000000ecd88     OpensslLib:m_sigver.obj
 0005:00001948       $unwind$EVP_DigestVerifyFinal 00000000000ecd88     OpensslLib:m_sigver.obj
 0005:00001960       $unwind$do_esc_char        00000000000ecda0     OpensslLib:a_strex.obj
 0005:00001968       $unwind$do_buf             00000000000ecda8     OpensslLib:a_strex.obj
 0005:00001980       $unwind$do_hex_dump        00000000000ecdc0     OpensslLib:a_strex.obj
 0005:00001994       $unwind$do_dump            00000000000ecdd4     OpensslLib:a_strex.obj
 0005:000019a4       $unwind$do_print_ex        00000000000ecde4     OpensslLib:a_strex.obj
 0005:000019bc       $unwind$do_indent          00000000000ecdfc     OpensslLib:a_strex.obj
 0005:000019cc       $unwind$do_name_ex         00000000000ece0c     OpensslLib:a_strex.obj
 0005:000019e8       $unwind$BN_dec2bn          00000000000ece28     OpensslLib:bn_print.obj
 0005:00001a00       $unwind$EVP_PBE_CipherInit 00000000000ece40     OpensslLib:evp_pbe.obj
 0005:00001a18       $unwind$CRYPTO_xts128_encrypt 00000000000ece58     OpensslLib:xts128.obj
 0005:00001a34       $unwind$AES_set_encrypt_key 00000000000ece74     OpensslLib:aes_core.obj
 0005:00001a50       $unwind$AES_decrypt        00000000000ece90     OpensslLib:aes_core.obj
 0005:00001a50       $unwind$AES_encrypt        00000000000ece90     OpensslLib:aes_core.obj
 0005:00001a6c       $unwind$CRYPTO_ccm128_encrypt 00000000000eceac     OpensslLib:ccm128.obj
 0005:00001a84       $unwind$CRYPTO_ccm128_decrypt 00000000000ecec4     OpensslLib:ccm128.obj
 0005:00001a84       $unwind$tree_link_any      00000000000ecec4     OpensslLib:pcy_tree.obj
 0005:00001a9c       $unwind$CRYPTO_cbc128_decrypt 00000000000ecedc     OpensslLib:cbc128.obj
 0005:00001ab4       $unwind$CRYPTO_128_wrap    00000000000ecef4     OpensslLib:wrap128.obj
 0005:00001ad0       $unwind$crypto_128_unwrap_raw 00000000000ecf10     OpensslLib:wrap128.obj
 0005:00001ae8       $unwind$CRYPTO_128_unwrap_pad 00000000000ecf28     OpensslLib:wrap128.obj
 0005:00001b00       $unwind$BN_gcd             00000000000ecf40     OpensslLib:bn_gcd.obj
 0005:00001b00       $unwind$ec_GFp_simple_oct2point 00000000000ecf40     OpensslLib:ecp_oct.obj
 0005:00001b00       $unwind$ec_GFp_simple_ladder_pre 00000000000ecf40     OpensslLib:ecp_smpl.obj
 0005:00001b00       $unwind$CRYPTO_ctr128_encrypt_ctr32 00000000000ecf40     OpensslLib:ctr128.obj
 0005:00001b00       $unwind$print_qualifiers   00000000000ecf40     OpensslLib:v3_cpols.obj
 0005:00001b18       $unwind$ge_p2_dbl          00000000000ecf58     OpensslLib:curve25519.obj
 0005:00001b18       $unwind$PKCS5_v2_PBE_keyivgen 00000000000ecf58     OpensslLib:p5_crpt2.obj
 0005:00001b18       $unwind$cfbr_encrypt_block 00000000000ecf58     OpensslLib:cfb128.obj
 0005:00001b30       $unwind$CRYPTO_cfb128_1_encrypt 00000000000ecf70     OpensslLib:cfb128.obj
 0005:00001b48       $unwind$CRYPTO_cfb128_8_encrypt 00000000000ecf88     OpensslLib:cfb128.obj
 0005:00001b64       $unwind$sha256_block_data_order 00000000000ecfa4     OpensslLib:sha256.obj
 0005:00001b7c       $unwind$sha512_block_data_order 00000000000ecfbc     OpensslLib:sha512.obj
 0005:00001b94       $unwind$rotnr              00000000000ecfd4     OpensslLib:aria.obj
 0005:00001ba0       $unwind$FO                 00000000000ecfe0     OpensslLib:aria.obj
 0005:00001ba0       $unwind$rsa_priv_decode    00000000000ecfe0     OpensslLib:rsa_ameth.obj
 0005:00001ba0       $unwind$rsa_pub_decode     00000000000ecfe0     OpensslLib:rsa_ameth.obj
 0005:00001bb0       $unwind$aria_set_encrypt_key 00000000000ecff0     OpensslLib:aria.obj
 0005:00001bd4       $unwind$aria_set_decrypt_key 00000000000ed014     OpensslLib:aria.obj
 0005:00001bec       $unwind$md5_block_data_order 00000000000ed02c     OpensslLib:md5_dgst.obj
 0005:00001c04       $unwind$RSA_check_key_ex   00000000000ed044     OpensslLib:rsa_chk.obj
 0005:00001c04       $unwind$tree_init          00000000000ed044     OpensslLib:pcy_tree.obj
 0005:00001c1c       $unwind$rsa_ossl_public_encrypt 00000000000ed05c     OpensslLib:rsa_ossl.obj
 0005:00001c1c       $unwind$RSA_padding_add_PKCS1_PSS_mgf1 00000000000ed05c     OpensslLib:rsa_pss.obj
 0005:00001c1c       $unwind$tree_link_nodes    00000000000ed05c     OpensslLib:pcy_tree.obj
 0005:00001c34       $unwind$X509_policy_tree_free 00000000000ed074     OpensslLib:pcy_tree.obj
 0005:00001c44       $unwind$X509_policy_check  00000000000ed084     OpensslLib:pcy_tree.obj
 0005:00001c5c       $unwind$ecx_key_op         00000000000ed09c     OpensslLib:ecx_meth.obj
 0005:00001c7c       $unwind$ecx_priv_decode    00000000000ed0bc     OpensslLib:ecx_meth.obj
 0005:00001c8c       $unwind$ecx_priv_encode    00000000000ed0cc     OpensslLib:ecx_meth.obj
 0005:00001c9c       $unwind$dh_pub_decode      00000000000ed0dc     OpensslLib:dh_ameth.obj
 0005:00001c9c       $unwind$eckey_pub_encode   00000000000ed0dc     OpensslLib:ec_ameth.obj
 0005:00001c9c       $unwind$rsa_pub_encode     00000000000ed0dc     OpensslLib:rsa_ameth.obj
 0005:00001cac       $unwind$eckey_priv_decode  00000000000ed0ec     OpensslLib:ec_ameth.obj
 0005:00001cac       $unwind$eckey_pub_decode   00000000000ed0ec     OpensslLib:ec_ameth.obj
 0005:00001cc4       $unwind$eckey_priv_encode  00000000000ed104     OpensslLib:ec_ameth.obj
 0005:00001cd8       $unwind$do_EC_KEY_print    00000000000ed118     OpensslLib:ec_ameth.obj
 0005:00001cf4       $unwind$PKCS8_decrypt      00000000000ed134     OpensslLib:p12_p8d.obj
 0005:00001cf4       $unwind$rsa_priv_encode    00000000000ed134     OpensslLib:rsa_ameth.obj
 0005:00001d04       $unwind$rsa_sig_print      00000000000ed144     OpensslLib:rsa_ameth.obj
 0005:00001d18       $unwind$rsa_md_to_mgf1     00000000000ed158     OpensslLib:rsa_ameth.obj
 0005:00001d28       $unwind$rsa_ctx_to_pss_string 00000000000ed168     OpensslLib:rsa_ameth.obj
 0005:00001d38       $unwind$rsa_pss_to_ctx     00000000000ed178     OpensslLib:rsa_ameth.obj
 0005:00001d50       $unwind$rsa_pss_get_param  00000000000ed190     OpensslLib:rsa_ameth.obj
 0005:00001d68       $unwind$rsa_item_sign      00000000000ed1a8     OpensslLib:rsa_ameth.obj
 0005:00001d78       $unwind$rsa_sig_info_set   00000000000ed1b8     OpensslLib:rsa_ameth.obj
 0005:00001d88       $unwind$dh_priv_decode     00000000000ed1c8     OpensslLib:dh_ameth.obj
 0005:00001d9c       $unwind$do_dh_print        00000000000ed1dc     OpensslLib:dh_ameth.obj
 0005:00001db4       $unwind$uint64_c2i         00000000000ed1f4     OpensslLib:x_int64.obj
 0005:00001dc4       $unwind$uint32_c2i         00000000000ed204     OpensslLib:x_int64.obj
 0005:00001dd8       $unwind$EVP_DecodeUpdate   00000000000ed218     OpensslLib:encode.obj
 0005:00001dec       $unwind$fe_tobytes         00000000000ed22c     OpensslLib:curve25519.obj
 0005:00001dec       $unwind$evp_decodeblock_int 00000000000ed22c     OpensslLib:encode.obj
 0005:00001e08       $unwind$EVP_read_pw_string_min 00000000000ed248     OpensslLib:evp_key.obj
 0005:00001e24       $unwind$EVP_BytesToKey     00000000000ed264     OpensslLib:evp_key.obj
 0005:00001e3c       $unwind$tls_construct_ctos_supported_groups 00000000000ed27c     OpensslLib:extensions_clnt.obj
 0005:00001e54       $unwind$tls_construct_ctos_sig_algs 00000000000ed294     OpensslLib:extensions_clnt.obj
 0005:00001e64       $unwind$tls_construct_ctos_supported_versions 00000000000ed2a4     OpensslLib:extensions_clnt.obj
 0005:00001e74       $unwind$tls_construct_ctos_key_share 00000000000ed2b4     OpensslLib:extensions_clnt.obj
 0005:00001e8c       $unwind$tls_construct_ctos_cookie 00000000000ed2cc     OpensslLib:extensions_clnt.obj
 0005:00001e9c       $unwind$tls_construct_ctos_early_data 00000000000ed2dc     OpensslLib:extensions_clnt.obj
 0005:00001eb8       $unwind$tls_construct_ctos_psk 00000000000ed2f8     OpensslLib:extensions_clnt.obj
 0005:00001ed4       $unwind$tls_parse_stoc_npn 00000000000ed314     OpensslLib:extensions_clnt.obj
 0005:00001ee0       $unwind$tls_parse_stoc_key_share 00000000000ed320     OpensslLib:extensions_clnt.obj
 0005:00001ef0       $unwind$tls_parse_ctos_status_request 00000000000ed330     OpensslLib:extensions_srvr.obj
 0005:00001f08       $unwind$tls_parse_ctos_key_share 00000000000ed348     OpensslLib:extensions_srvr.obj
 0005:00001f20       $unwind$tls_parse_ctos_cookie 00000000000ed360     OpensslLib:extensions_srvr.obj
 0005:00001f40       $unwind$tls_parse_ctos_psk 00000000000ed380     OpensslLib:extensions_srvr.obj
 0005:00001f5c       $unwind$tls_construct_stoc_supported_groups 00000000000ed39c     OpensslLib:extensions_srvr.obj
 0005:00001f74       $unwind$tls_construct_stoc_cookie 00000000000ed3b4     OpensslLib:extensions_srvr.obj
 0005:00001f90       $unwind$tls_construct_stoc_cryptopro_bug 00000000000ed3d0     OpensslLib:extensions_srvr.obj
 0005:00001f9c       $unwind$tls_construct_stoc_psk 00000000000ed3dc     OpensslLib:extensions_srvr.obj
 0005:00001fa8       $unwind$bn_compute_wNAF    00000000000ed3e8     OpensslLib:bn_intern.obj
 0005:00001fc0       $unwind$bnrand             00000000000ed400     OpensslLib:bn_rand.obj
 0005:00001fdc       $unwind$BN_generate_dsa_nonce 00000000000ed41c     OpensslLib:bn_rand.obj
 0005:00001ffc       $unwind$asn1_d2i_read_bio  00000000000ed43c     OpensslLib:a_d2i_fp.obj
 0005:00002014       $unwind$EVP_PKCS82PKEY     00000000000ed454     OpensslLib:evp_pkey.obj
 0005:00002024       $unwind$EC_GROUP_get_ecparameters 00000000000ed464     OpensslLib:ec_asn1.obj
 0005:00002034       $unwind$d2i_ECPKParameters 00000000000ed474     OpensslLib:ec_asn1.obj
 0005:00002034       $unwind$d2i_ECPrivateKey   00000000000ed474     OpensslLib:ec_asn1.obj
 0005:00002044       $unwind$i2d_ECPrivateKey   00000000000ed484     OpensslLib:ec_asn1.obj
 0005:0000205c       $unwind$i2d_DHxparams      00000000000ed49c     OpensslLib:dh_asn1.obj
 0005:00002064       $unwind$BN_generate_prime_ex 00000000000ed4a4     OpensslLib:bn_prime.obj
 0005:00002064       $unwind$rsa_ossl_private_encrypt 00000000000ed4a4     OpensslLib:rsa_ossl.obj
 0005:0000207c       $unwind$rsa_ossl_private_decrypt 00000000000ed4bc     OpensslLib:rsa_ossl.obj
 0005:00002094       $unwind$rsa_ossl_public_decrypt 00000000000ed4d4     OpensslLib:rsa_ossl.obj
 0005:000020ac       $unwind$rsa_ossl_mod_exp   00000000000ed4ec     OpensslLib:rsa_ossl.obj
 0005:000020c8       $unwind$i2v_GENERAL_NAME   00000000000ed508     OpensslLib:v3_alt.obj
 0005:000020d8       $unwind$bn_div_fixed_top   00000000000ed518     OpensslLib:bn_div.obj
 0005:000020d8       $unwind$notice_section     00000000000ed518     OpensslLib:v3_cpols.obj
 0005:000020f0       $unwind$BIO_dump_indent_cb 00000000000ed530     OpensslLib:b_dump.obj
 0005:0000210c       $unwind$X509V3_EXT_get_nid 00000000000ed54c     OpensslLib:v3_lib.obj
 0005:00002118       $unwind$pkey_dh_ctrl_str   00000000000ed558     OpensslLib:dh_pmeth.obj
 0005:0000212c       $unwind$pkey_rsa_verify    00000000000ed56c     OpensslLib:rsa_pmeth.obj
 0005:00002140       $unwind$pkey_rsa_ctrl_str  00000000000ed580     OpensslLib:rsa_pmeth.obj
 0005:00002158       $unwind$pkey_pss_init      00000000000ed598     OpensslLib:rsa_pmeth.obj
 0005:00002168       $unwind$pkey_hkdf_derive   00000000000ed5a8     OpensslLib:hkdf.obj
 0005:00002180       $unwind$HKDF_Extract       00000000000ed5c0     OpensslLib:hkdf.obj
 0005:00002198       $unwind$HKDF_Expand        00000000000ed5d8     OpensslLib:hkdf.obj
 0005:000021b0       $unwind$pkey_sm2_verify    00000000000ed5f0     OpensslLib:sm2_pmeth.obj
 0005:000021c4       $unwind$pkey_sm2_digest_custom 00000000000ed604     OpensslLib:sm2_pmeth.obj
 0005:000021dc       $unwind$ssl3_cbc_digest_record 00000000000ed61c     OpensslLib:s3_cbc.obj
 0005:000021f4       $unwind$BN_mod_mul         00000000000ed634     OpensslLib:bn_mod.obj
 0005:000021f4       $unwind$bn_mul_mont_fixed_top 00000000000ed634     OpensslLib:bn_mont.obj
 0005:0000220c       $unwind$bn_from_montgomery_word 00000000000ed64c     OpensslLib:bn_mont.obj
 0005:00002224       $unwind$BN_MONT_CTX_set    00000000000ed664     OpensslLib:bn_mont.obj
 0005:00002240       $unwind$ec_scalar_mul_ladder 00000000000ed680     OpensslLib:ec_mult.obj
 0005:00002240       $unwind$ec_GFp_simple_ladder_post 00000000000ed680     OpensslLib:ecp_smpl.obj
 0005:00002240       $unwind$ec_GFp_simple_points_make_affine 00000000000ed680     OpensslLib:ecp_smpl.obj
 0005:00002258       $unwind$ec_wNAF_mul        00000000000ed698     OpensslLib:ec_mult.obj
 0005:00002274       $unwind$BN_mod_exp_mont    00000000000ed6b4     OpensslLib:bn_exp.obj
 0005:00002294       $unwind$MOD_EXP_CTIME_COPY_FROM_PREBUF 00000000000ed6d4     OpensslLib:bn_exp.obj
 0005:000022ac       $unwind$BN_mod_exp_mont_consttime 00000000000ed6ec     OpensslLib:bn_exp.obj
 0005:000022ac       $unwind$bn_mod_inverse_no_branch 00000000000ed6ec     OpensslLib:bn_gcd.obj
 0005:000022c4       $unwind$BN_mod_exp_mont_word 00000000000ed704     OpensslLib:bn_exp.obj
 0005:000022c4       $unwind$ec_GFp_simple_ladder_step 00000000000ed704     OpensslLib:ecp_smpl.obj
 0005:000022dc       $unwind$int_bn_mod_inverse 00000000000ed71c     OpensslLib:bn_gcd.obj
 0005:000022dc       $unwind$ossl_ecdsa_sign_sig 00000000000ed71c     OpensslLib:ecdsa_ossl.obj
 0005:000022f4       $unwind$OPENSSL_gmtime_adj 00000000000ed734     OpensslLib:o_time.obj
 0005:000022fc       $unwind$bn_sub_words       00000000000ed73c     OpensslLib:bn_asm.obj
 0005:000022fc       $unwind$curve448_scalar_halve 00000000000ed73c     OpensslLib:scalar.obj
 0005:000022fc       $unwind$julian_adj         00000000000ed73c     OpensslLib:o_time.obj
 0005:00002308       $unwind$ctr_df             00000000000ed748     OpensslLib:drbg_ctr.obj
 0005:00002320       $unwind$ctr_update         00000000000ed760     OpensslLib:drbg_ctr.obj
 0005:00002340       $unwind$ASN1_mbstring_ncopy 00000000000ed780     OpensslLib:a_mbstr.obj
 0005:00002358       $unwind$traverse_string    00000000000ed798     OpensslLib:a_mbstr.obj
 0005:0000236c       $unwind$bn_mul_add_words   00000000000ed7ac     OpensslLib:bn_asm.obj
 0005:0000236c       $unwind$gf_deserialize     00000000000ed7ac     OpensslLib:f_generic.obj
 0005:00002380       $unwind$bn_mul_words       00000000000ed7c0     OpensslLib:bn_asm.obj
 0005:00002398       $unwind$PKCS5_PBE_keyivgen 00000000000ed7d8     OpensslLib:p5_crpt.obj
 0005:000023b4       $unwind$PKCS5_PBKDF2_HMAC  00000000000ed7f4     OpensslLib:p5_crpt2.obj
 0005:000023cc       $unwind$PKCS5_v2_PBKDF2_keyivgen 00000000000ed80c     OpensslLib:p5_crpt2.obj
 0005:000023e4       $unwind$PKCS12_PBE_keyivgen 00000000000ed824     OpensslLib:p12_crpt.obj
 0005:00002404       $unwind$ASN1_STRING_print  00000000000ed844     OpensslLib:a_print.obj
 0005:00002418       $unwind$hash_init_with_dom 00000000000ed858     OpensslLib:eddsa.obj
 0005:00002418       $unwind$ossl_ecdsa_sign    00000000000ed858     OpensslLib:ecdsa_ossl.obj
 0005:00002420       $unwind$c448_ed448_sign    00000000000ed860     OpensslLib:eddsa.obj
 0005:00002440       $unwind$c448_ed448_verify  00000000000ed880     OpensslLib:eddsa.obj
 0005:00002460       $unwind$ED448_public_from_private 00000000000ed8a0     OpensslLib:eddsa.obj
 0005:0000247c       $unwind$fe_frombytes       00000000000ed8bc     OpensslLib:curve25519.obj
 0005:00002494       $unwind$fe_mul             00000000000ed8d4     OpensslLib:curve25519.obj
 0005:000024ac       $unwind$fe_sq              00000000000ed8ec     OpensslLib:curve25519.obj
 0005:000024ac       $unwind$fe_sq2             00000000000ed8ec     OpensslLib:curve25519.obj
 0005:000024c4       $unwind$fe_invert          00000000000ed904     OpensslLib:curve25519.obj
 0005:000024e0       $unwind$fe_pow22523        00000000000ed920     OpensslLib:curve25519.obj
 0005:000024fc       $unwind$ge_p3_tobytes      00000000000ed93c     OpensslLib:curve25519.obj
 0005:0000250c       $unwind$ge_frombytes_vartime 00000000000ed94c     OpensslLib:curve25519.obj
 0005:00002528       $unwind$ge_p3_dbl          00000000000ed968     OpensslLib:curve25519.obj
 0005:0000253c       $unwind$ge_add             00000000000ed97c     OpensslLib:curve25519.obj
 0005:0000253c       $unwind$ge_madd            00000000000ed97c     OpensslLib:curve25519.obj
 0005:00002558       $unwind$ge_scalarmult_base 00000000000ed998     OpensslLib:curve25519.obj
 0005:00002574       $unwind$x25519_scalar_mult_generic 00000000000ed9b4     OpensslLib:curve25519.obj
 0005:00002590       $unwind$slide              00000000000ed9d0     OpensslLib:curve25519.obj
 0005:000025a8       $unwind$ge_double_scalarmult_vartime 00000000000ed9e8     OpensslLib:curve25519.obj
 0005:000025c8       $unwind$x25519_sc_reduce   00000000000eda08     OpensslLib:curve25519.obj
 0005:000025e0       $unwind$sc_muladd          00000000000eda20     OpensslLib:curve25519.obj
 0005:000025f8       $unwind$ED25519_verify     00000000000eda38     OpensslLib:curve25519.obj
 0005:00002618       $unwind$X25519_public_from_private 00000000000eda58     OpensslLib:curve25519.obj
 0005:00002628       $unwind$ASN1_buf_print     00000000000eda68     OpensslLib:t_pkey.obj
 0005:0000263c       $unwind$gf_invert          00000000000eda7c     OpensslLib:curve448.obj
 0005:00002650       $unwind$point_double_internal 00000000000eda90     OpensslLib:curve448.obj
 0005:00002670       $unwind$add_niels_to_pt    00000000000edab0     OpensslLib:curve448.obj
 0005:00002670       $unwind$sub_niels_from_pt  00000000000edab0     OpensslLib:curve448.obj
 0005:00002690       $unwind$curve448_precomputed_scalarmul 00000000000edad0     OpensslLib:curve448.obj
 0005:000026ac       $unwind$curve448_point_mul_by_ratio_and_encode_like_eddsa 00000000000edaec     OpensslLib:curve448.obj
 0005:000026c0       $unwind$curve448_point_decode_like_eddsa_and_mul_by_ratio 00000000000edb00     OpensslLib:curve448.obj
 0005:000026e0       $unwind$x448_int           00000000000edb20     OpensslLib:curve448.obj
 0005:00002700       $unwind$recode_wnaf        00000000000edb40     OpensslLib:curve448.obj
 0005:0000271c       $unwind$curve448_base_double_scalarmul_non_secret 00000000000edb5c     OpensslLib:curve448.obj
 0005:0000273c       $unwind$X448_public_from_private 00000000000edb7c     OpensslLib:curve448.obj
 0005:00002754       $unwind$ECPKParameters_print 00000000000edb94     OpensslLib:eck_prn.obj
 0005:0000276c       $unwind$print_bin          00000000000edbac     OpensslLib:eck_prn.obj
 0005:00002788       $unwind$X509_signature_dump 00000000000edbc8     OpensslLib:t_x509.obj
 0005:000027a4       $unwind$i2a_ASN1_INTEGER   00000000000edbe4     OpensslLib:f_int.obj
 0005:000027b8       $unwind$print_error        00000000000edbf8     OpensslLib:ui_lib.obj
 0005:000027c4       $unwind$ecdsa_sign_setup   00000000000edc04     OpensslLib:ecdsa_ossl.obj
 0005:000027dc       $unwind$ossl_ecdsa_verify_sig 00000000000edc1c     OpensslLib:ecdsa_ossl.obj
 0005:000027f4       $unwind$ecdh_simple_compute_key 00000000000edc34     OpensslLib:ecdh_ossl.obj
 0005:0000280c       $unwind$RSA_padding_check_PKCS1_type_2 00000000000edc4c     OpensslLib:rsa_pk1.obj
 0005:00002828       $unwind$RSA_padding_check_SSLv23 00000000000edc68     OpensslLib:rsa_ssl.obj
 0005:00002844       $unwind$RSA_padding_check_PKCS1_OAEP_mgf1 00000000000edc84     OpensslLib:rsa_oaep.obj
 0005:00002860       $unwind$PKCS1_MGF1         00000000000edca0     OpensslLib:rsa_oaep.obj
 0005:00002878       $unwind$generate_v3        00000000000edcb8     OpensslLib:asn1_gen.obj
 0005:00002898       $unwind$asn1_cb            00000000000edcd8     OpensslLib:asn1_gen.obj
 0005:000028b0       $unwind$asn1_str2type      00000000000edcf0     OpensslLib:asn1_gen.obj
 0005:000028c4       $unwind$i2v_POLICY_MAPPINGS 00000000000edd04     OpensslLib:v3_pmaps.obj
 0005:000028dc       $unwind$i2v_EXTENDED_KEY_USAGE 00000000000edd1c     OpensslLib:v3_extku.obj
 0005:000028ec       $unwind$v2i_ASN1_BIT_STRING 00000000000edd2c     OpensslLib:v3_bitst.obj
 0005:00002908       $unwind$i2r_ocsp_crlid     00000000000edd48     OpensslLib:v3_ocsp.obj
 0005:0000291c       $unwind$v2i_AUTHORITY_KEYID 00000000000edd5c     OpensslLib:v3_akey.obj
 0005:00002934       $unwind$i2r_NAMING_AUTHORITY 00000000000edd74     OpensslLib:v3_admis.obj
 0005:00002950       $unwind$i2r_ADMISSION_SYNTAX 00000000000edd90     OpensslLib:v3_admis.obj
 0005:00002970       $unwind$s2i_skey_id        00000000000eddb0     OpensslLib:v3_skey.obj
 0005:00002980       $unwind$process_pci_value  00000000000eddc0     OpensslLib:v3_pci.obj
 0005:0000299c       $unwind$i2v_TLS_FEATURE    00000000000edddc     OpensslLib:v3_tlsf.obj
 0005:000029b0       $unwind$probable_prime_dh  00000000000eddf0     OpensslLib:bn_prime.obj
 0005:000029c8       $unwind$dh_builtin_genparams 00000000000ede08     OpensslLib:dh_gen.obj
 0005:000029e4       $unwind$RSA_sign_ASN1_OCTET_STRING 00000000000ede24     OpensslLib:rsa_saos.obj
 0005:000029fc       $unwind$rsa_builtin_keygen 00000000000ede3c     OpensslLib:rsa_gen.obj
 0005:00002a18       $unwind$encode_pkcs1       00000000000ede58     OpensslLib:rsa_sign.obj
 0005:00002a2c       $unwind$RSA_verify_PKCS1_PSS_mgf1 00000000000ede6c     OpensslLib:rsa_pss.obj
 0005:00002a48       $unwind$sm2_compute_z_digest 00000000000ede88     OpensslLib:sm2_sign.obj
 0005:00002a64       $unwind$sm2_sig_gen        00000000000edea4     OpensslLib:sm2_sign.obj
 0005:00002a7c       $unwind$sm2_sign           00000000000edebc     OpensslLib:sm2_sign.obj
 0005:00002a90       $unwind$sm2_encrypt        00000000000eded0     OpensslLib:sm2_crypt.obj
 0005:00002aac       $unwind$sm2_decrypt        00000000000edeec     OpensslLib:sm2_crypt.obj
 0005:00002ac8       $unwind$bn_sqr_fixed_top   00000000000edf08     OpensslLib:bn_sqr.obj
 0005:00002ae8       $unwind$bn_sqr_normal      00000000000edf28     OpensslLib:bn_sqr.obj
 0005:00002b00       $unwind$BN_div_recp        00000000000edf40     OpensslLib:bn_recp.obj
 0005:00002b18       $unwind$BN_nist_mod_224    00000000000edf58     OpensslLib:bn_nist.obj
 0005:00002b34       $unwind$BN_nist_mod_384    00000000000edf74     OpensslLib:bn_nist.obj
 0005:00002b4c       $unwind$BN_nist_mod_521    00000000000edf8c     OpensslLib:bn_nist.obj
 0005:00002b68       $unwind$PKCS12_key_gen_utf8 00000000000edfa8     OpensslLib:p12_key.obj
 0005:00002b7c       $unwind$PKCS12_key_gen_uni 00000000000edfbc     OpensslLib:p12_key.obj
 0005:00002b94       $unwind$SM4_set_key        00000000000edfd4     OpensslLib:sm4.obj
 0005:00002ba4       $unwind$alg_module_init    00000000000edfe4     OpensslLib:evp_cnf.obj
 0005:00002bb8       $unwind$do_tcreate         00000000000edff8     OpensslLib:asn_mstbl.obj
 0005:00002bd0       $unwind$oid_module_init    00000000000ee010     OpensslLib:asn_moid.obj
 0005:00002bd0       $unwind$ec_GFp_simple_is_on_curve 00000000000ee010     OpensslLib:ecp_smpl.obj
 0005:00002bd0       $unwind$ec_GFp_simple_point_get_affine_coordinates 00000000000ee010     OpensslLib:ecp_smpl.obj
 0005:00002bec       $unwind$Round              00000000000ee02c     OpensslLib:keccak1600.obj
 0005:00002c04       $unwind$KeccakF1600        00000000000ee044     OpensslLib:keccak1600.obj
 0005:00002c14       $unwind$sm3_block_data_order 00000000000ee054     OpensslLib:sm3.obj
 0005:00002c2c       $unwind$sc_montmul         00000000000ee06c     OpensslLib:scalar.obj
 0005:00002c44       $unwind$curve448_scalar_decode_long 00000000000ee084     OpensslLib:scalar.obj
 0005:00002c60       $unwind$gf_eq              00000000000ee0a0     OpensslLib:f_generic.obj
 0005:00002c68       $unwind$gf_isr             00000000000ee0a8     OpensslLib:f_generic.obj
 0005:00002c7c       $unwind$gf_mul             00000000000ee0bc     OpensslLib:f_impl.obj
 0005:00002c94       $unwind$ERR_print_errors_cb 00000000000ee0d4     OpensslLib:err_prn.obj
 0005:00002ca4       $unwind$i2a_ASN1_STRING    00000000000ee0e4     OpensslLib:f_string.obj
 0005:00002cb8       $unwind$ec_GFp_simple_add  00000000000ee0f8     OpensslLib:ecp_smpl.obj
 0005:00002cd0       $unwind$ec_GFp_simple_cmp  00000000000ee110     OpensslLib:ecp_smpl.obj
 0005:00002cec       $unwind$inet_pton4         00000000000ee12c     BaseCryptLib:inet_pton.obj
 0005:00002d04       $unwind$inet_pton6         00000000000ee144     BaseCryptLib:inet_pton.obj
 0005:00002d1c       $unwind$QuickSortWorker    00000000000ee15c     BaseCryptLib:CrtWrapper.obj
