 VariableRuntimeDxe

 Timestamp is 62b57375 (Fri Jun 24 16:19:01 2022)

 Preferred load address is 0000000000000000

 Start         Length     Name                   Class
 0001:00000000 000001a8H .text                   CODE
 0001:000001a8 00072379H .text$mn                CODE
 0002:00000000 0003f0e4H .rdata                  DATA
 0002:0003f0e4 0000057cH .rdata$voltmd           DATA
 0002:0003f660 0000015cH .rdata$zzzdbg           DATA
 0003:00000000 00001840H .data                   DATA
 0003:00001840 00000cd0H .bss                    DATA
 0004:00000000 0000411cH .pdata                  DATA
 0005:00000000 000023b4H .xdata                  DATA

  Address         Publics by Value              Rva+Base               Lib:Object

 0000:00000000       __dynamic_value_reloc_table 0000000000000000     <absolute>
 0000:00000000       __guard_iat_count          0000000000000000     <absolute>
 0000:00000000       __hybrid_auxiliary_iat     0000000000000000     <absolute>
 0000:00000000       __guard_iat_table          0000000000000000     <absolute>
 0000:00000000       __hybrid_auxiliary_iat_copy 0000000000000000     <absolute>
 0000:00000000       __arm64x_redirection_metadata 0000000000000000     <absolute>
 0000:00000000       __x64_code_ranges_to_entry_points_count 0000000000000000     <absolute>
 0000:00000000       __AbsoluteZero             0000000000000000     <absolute>
 0000:00000000       __guard_check_icall_a64n_fptr 0000000000000000     <absolute>
 0000:00000000       __guard_longjmp_count      0000000000000000     <absolute>
 0000:00000000       __guard_longjmp_table      0000000000000000     <absolute>
 0000:00000000       __x64_code_ranges_to_entry_points 0000000000000000     <absolute>
 0000:00000000       __guard_fids_table         0000000000000000     <absolute>
 0000:00000000       __guard_fids_count         0000000000000000     <absolute>
 0000:00000000       __arm64x_extra_rfe_table   0000000000000000     <absolute>
 0000:00000000       __hybrid_code_map          0000000000000000     <absolute>
 0000:00000000       __arm64x_extra_rfe_table_size 0000000000000000     <absolute>
 0000:00000000       __arm64x_redirection_metadata_count 0000000000000000     <absolute>
 0000:00000000       __enclave_config           0000000000000000     <absolute>
 0000:00000000       __guard_eh_cont_table      0000000000000000     <absolute>
 0000:00000000       __arm64x_native_entrypoint 0000000000000000     <absolute>
 0000:00000000       __guard_flags              0000000000000000     <absolute>
 0000:00000000       __guard_eh_cont_count      0000000000000000     <absolute>
 0000:00000000       __hybrid_code_map_count    0000000000000000     <absolute>
 0000:00000000       __ImageBase                0000000000000000     <linker-defined>
 0001:00000000       InternalMemCopyMem         00000000000002c0     BaseMemoryLibRepStr:CopyMem.obj
 0001:00000040       InternalMemZeroMem         0000000000000300     BaseMemoryLibRepStr:ZeroMem.obj
 0001:00000060       InternalMemCompareMem      0000000000000320     BaseMemoryLibRepStr:CompareMem.obj
 0001:00000080       InternalMemSetMem          0000000000000340     BaseMemoryLibRepStr:SetMem.obj
 0001:000000a0       InternalMemSetMem64        0000000000000360     BaseMemoryLibRepStr:SetMem64.obj
 0001:000000c0       InternalMemSetMem32        0000000000000380     BaseMemoryLibRepStr:SetMem32.obj
 0001:000000e0       CpuPause                   00000000000003a0     BaseLib:CpuPause.obj
 0001:000000f0       AsmCpuid                   00000000000003b0     BaseLib:CpuId.obj
 0001:00000120       EnableInterrupts           00000000000003e0     BaseLib:EnableInterrupts.obj
 0001:00000130       DisableInterrupts          00000000000003f0     BaseLib:DisableInterrupts.obj
 0001:00000140       AsmReadEflags              0000000000000400     BaseLib:ReadEflags.obj
 0001:00000150       InternalMemScanMem8        0000000000000410     BaseMemoryLibRepStr:ScanMem8.obj
 0001:00000170       InternalMemScanMem64       0000000000000430     BaseMemoryLibRepStr:ScanMem64.obj
 0001:00000190       InternalMemScanMem32       0000000000000450     BaseMemoryLibRepStr:ScanMem32.obj
 0001:000001a8       _ModuleEntryPoint          0000000000000468 f   UefiDriverEntryPoint:DriverEntryPoint.obj
 0001:000001d4       ProcessLibraryConstructorList 0000000000000494 f   VariableRuntimeDxe:AutoGen.obj
 0001:000007c4       ProcessLibraryDestructorList 0000000000000a84 f   VariableRuntimeDxe:AutoGen.obj
 0001:000008b0       AcquireLockOnlyAtBootTime  0000000000000b70 f   VariableRuntimeDxe:VariableDxe.obj
 0001:0000091c       ReleaseLockOnlyAtBootTime  0000000000000bdc f   VariableRuntimeDxe:VariableDxe.obj
 0001:00000984       VariableClassAddressChangeEvent 0000000000000c44 f   VariableRuntimeDxe:VariableDxe.obj
 0001:00000bcc       OnReadyToBoot              0000000000000e8c f   VariableRuntimeDxe:VariableDxe.obj
 0001:00000c58       OnEndOfDxe                 0000000000000f18 f   VariableRuntimeDxe:VariableDxe.obj
 0001:00000ce8       VariableWriteServiceInitializeDxe 0000000000000fa8 f   VariableRuntimeDxe:VariableDxe.obj
 0001:00000da8       FtwNotificationEvent       0000000000001068 f   VariableRuntimeDxe:VariableDxe.obj
 0001:00000f2c       ProtocolIsVariablePolicyEnabled 00000000000011ec f   VariableRuntimeDxe:VariableDxe.obj
 0001:00000f48       VariableServiceInitialize  0000000000001208 f   VariableRuntimeDxe:VariableDxe.obj
 0001:000012dc       UpdateVariableStore        000000000000159c f   VariableRuntimeDxe:Variable.obj
 0001:00001504       RecordVarErrorFlag         00000000000017c4 f   VariableRuntimeDxe:Variable.obj
 0001:000016b4       InitializeVarErrorFlag     0000000000001974 f   VariableRuntimeDxe:Variable.obj
 0001:00001788       IsUserVariable             0000000000001a48 f   VariableRuntimeDxe:Variable.obj
 0001:000017fc       CalculateCommonUserVariableTotalSize 0000000000001abc f   VariableRuntimeDxe:Variable.obj
 0001:0000191c       Reclaim                    0000000000001bdc f   VariableRuntimeDxe:Variable.obj
 0001:000020f0       FindVariable               00000000000023b0 f   VariableRuntimeDxe:Variable.obj
 0001:000021e4       GetIndexFromSupportedLangCodes 00000000000024a4 f   VariableRuntimeDxe:Variable.obj
 0001:000022f0       GetLangFromSupportedLangCodes 00000000000025b0 f   VariableRuntimeDxe:Variable.obj
 0001:000023c8       VariableGetBestLanguage    0000000000002688 f   VariableRuntimeDxe:Variable.obj
 0001:00002500       CheckRemainingSpaceForConsistencyInternal 00000000000027c0 f   VariableRuntimeDxe:Variable.obj
 0001:00002690       VariableExLibCheckRemainingSpaceForConsistency 0000000000002950 f   VariableRuntimeDxe:VariableExLib.obj
 0001:00002690       CheckRemainingSpaceForConsistency 0000000000002950 f   VariableRuntimeDxe:Variable.obj
 0001:000026b4       AutoUpdateLangVariable     0000000000002974 f   VariableRuntimeDxe:Variable.obj
 0001:00002bb8       UpdateVariable             0000000000002e78 f   VariableRuntimeDxe:Variable.obj
 0001:000037e0       VariableServiceGetVariable 0000000000003aa0 f   VariableRuntimeDxe:Variable.obj
 0001:0000396c       VariableServiceGetNextVariableName 0000000000003c2c f   VariableRuntimeDxe:Variable.obj
 0001:00003ae0       VariableServiceSetVariable 0000000000003da0 f   VariableRuntimeDxe:Variable.obj
 0001:00004018       VariableServiceQueryVariableInfoInternal 00000000000042d8 f   VariableRuntimeDxe:Variable.obj
 0001:00004290       VariableServiceQueryVariableInfo 0000000000004550 f   VariableRuntimeDxe:Variable.obj
 0001:0000436c       ReclaimForOS               000000000000462c f   VariableRuntimeDxe:Variable.obj
 0001:00004414       FlushHobVariableToFlash    00000000000046d4 f   VariableRuntimeDxe:Variable.obj
 0001:000046d8       VariableWriteServiceInitialize 0000000000004998 f   VariableRuntimeDxe:Variable.obj
 0001:00004980       ConvertNormalVarStorageToAuthVarStorage 0000000000004c40 f   VariableRuntimeDxe:Variable.obj
 0001:00004bd0       GetHobVariableStore        0000000000004e90 f   VariableRuntimeDxe:Variable.obj
 0001:00004d6c       VariableCommonInitialize   000000000000502c f   VariableRuntimeDxe:Variable.obj
 0001:00004f30       GetFvbInfoByAddress        00000000000051f0 f   VariableRuntimeDxe:Variable.obj
 0001:000050a0       VarCheckRegisterSetVariableCheckHandler 0000000000005360 f   VariableRuntimeDxe:VarCheck.obj
 0001:000050e0       VarCheckVariablePropertySet 00000000000053a0 f   VariableRuntimeDxe:VarCheck.obj
 0001:0000513c       VarCheckVariablePropertyGet 00000000000053fc f   VariableRuntimeDxe:VarCheck.obj
 0001:00005198       VariableLockRequestToLock  0000000000005458 f   VariableRuntimeDxe:VariableLockRequestToLock.obj
 0001:000052dc       MorLockInitAtEndOfDxe      000000000000559c f   VariableRuntimeDxe:TcgMorLockDxe.obj
 0001:000053ac       MeasureVariable            000000000000566c f   VariableRuntimeDxe:Measurement.obj
 0001:000054ec       InternalGetVariable        00000000000057ac f   VariableRuntimeDxe:Measurement.obj
 0001:000055dc       SecureBootHook             000000000000589c f   VariableRuntimeDxe:Measurement.obj
 0001:00005880       GetVariableStoreStatus     0000000000005b40 f   VariableRuntimeDxe:VariableParsing.obj
 0001:000058f8       NameSizeOfVariable         0000000000005bb8 f   VariableRuntimeDxe:VariableParsing.obj
 0001:00005930       DataSizeOfVariable         0000000000005bf0 f   VariableRuntimeDxe:VariableParsing.obj
 0001:00005968       FindVariableEx             0000000000005c28 f   VariableRuntimeDxe:VariableParsing.obj
 0001:00005b00       VariableServiceGetNextVariableInternal 0000000000005dc0 f   VariableRuntimeDxe:VariableParsing.obj
 0001:00005e64       InitRealNonVolatileVariableStore 0000000000006124 f   VariableRuntimeDxe:VariableNonVolatile.obj
 0001:0000613c       InitNonVolatileVariableStore 00000000000063fc f   VariableRuntimeDxe:VariableNonVolatile.obj
 0001:00006268       GetLbaAndOffsetByAddress   0000000000006528 f   VariableRuntimeDxe:Reclaim.obj
 0001:0000631c       FtwVariableSpace           00000000000065dc f   VariableRuntimeDxe:Reclaim.obj
 0001:000063f0       VariableExLibFindVariable  00000000000066b0 f   VariableRuntimeDxe:VariableExLib.obj
 0001:000064d4       VariableExLibFindNextVariable 0000000000006794 f   VariableRuntimeDxe:VariableExLib.obj
 0001:0000661c       VariableExLibUpdateVariable 00000000000068dc f   VariableRuntimeDxe:VariableExLib.obj
 0001:00006688       VariableExLibGetScratchBuffer 0000000000006948 f   VariableRuntimeDxe:VariableExLib.obj
 0001:000066c4       VariableExLibAtRuntime     0000000000006984 f   VariableRuntimeDxe:VariableExLib.obj
 0001:000066cc       FlushPendingRuntimeVariableCacheUpdates 000000000000698c f   VariableRuntimeDxe:VariableRuntimeCache.obj
 0001:0000679c       SynchronizeRuntimeVariableCache 0000000000006a5c f   VariableRuntimeDxe:VariableRuntimeCache.obj
 0001:00006824       GetPcdProtocol             0000000000006ae4 f   DxePcdLib:DxePcdLib.obj
 0001:000068b0       CopyGuid                   0000000000006b70 f   BaseMemoryLibRepStr:MemLibGuid.obj
 0001:00006960       CompareGuid                0000000000006c20 f   BaseMemoryLibRepStr:MemLibGuid.obj
 0001:00006a24       CopyMem                    0000000000006ce4 f   BaseMemoryLibRepStr:CopyMemWrapper.obj
 0001:00006ac0       ZeroMem                    0000000000006d80 f   BaseMemoryLibRepStr:ZeroMemWrapper.obj
 0001:00006b30       CompareMem                 0000000000006df0 f   BaseMemoryLibRepStr:CompareMemWrapper.obj
 0001:00006c08       SetMem                     0000000000006ec8 f   BaseMemoryLibRepStr:SetMemWrapper.obj
 0001:00006c6c       StrLen                     0000000000006f2c f   BaseLib:String.obj
 0001:00006cf4       StrCmp                     0000000000006fb4 f   BaseLib:String.obj
 0001:00006d9c       StrnCmp                    000000000000705c f   BaseLib:String.obj
 0001:00006e84       AsciiStrLen                0000000000007144 f   BaseLib:String.obj
 0001:00006ef0       AsciiStrCmp                00000000000071b0 f   BaseLib:String.obj
 0001:00006f7c       AsciiStriCmp               000000000000723c f   BaseLib:String.obj
 0001:00007068       AsciiStrnCmp               0000000000007328 f   BaseLib:String.obj
 0001:00007134       StrnLenS                   00000000000073f4 f   BaseLib:SafeString.obj
 0001:0000719c       StrCpyS                    000000000000745c f   BaseLib:SafeString.obj
 0001:00007340       AsciiStrCpyS               0000000000007600 f   BaseLib:SafeString.obj
 0001:0000745c       AsciiStrnCpyS              000000000000771c f   BaseLib:SafeString.obj
 0001:000075ac       AsciiStrCatS               000000000000786c f   BaseLib:SafeString.obj
 0001:00007720       AsciiStrDecimalToUintnS    00000000000079e0 f   BaseLib:SafeString.obj
 0001:00007838       DebugPrint                 0000000000007af8 f   BaseDebugLibSerialPort:DebugLib.obj
 0001:0000785c       DebugPrintMarker           0000000000007b1c f   BaseDebugLibSerialPort:DebugLib.obj
 0001:0000790c       DebugAssert                0000000000007bcc f   BaseDebugLibSerialPort:DebugLib.obj
 0001:00007984       AllocatePool               0000000000007c44 f   UefiMemoryAllocationLib:MemoryAllocationLib.obj
 0001:000079b8       AllocateRuntimePool        0000000000007c78 f   UefiMemoryAllocationLib:MemoryAllocationLib.obj
 0001:000079ec       InternalAllocateZeroPool   0000000000007cac f   UefiMemoryAllocationLib:MemoryAllocationLib.obj
 0001:00007a30       InternalAllocateCopyPool   0000000000007cf0 f   UefiMemoryAllocationLib:MemoryAllocationLib.obj
 0001:00007ad8       InternalReallocatePool     0000000000007d98 f   UefiMemoryAllocationLib:MemoryAllocationLib.obj
 0001:00007b44       FreePool                   0000000000007e04 f   UefiMemoryAllocationLib:MemoryAllocationLib.obj
 0001:00007b88       IsDevicePathValid          0000000000007e48 f   UefiDevicePathLibDevicePathProtocol:UefiDevicePathLib.obj
 0001:00007cdc       NextDevicePathNode         0000000000007f9c f   UefiDevicePathLibDevicePathProtocol:UefiDevicePathLib.obj
 0001:00007d4c       EfiGetSystemConfigurationTable 000000000000800c f   UefiLib:UefiLib.obj
 0001:00007e10       EfiCreateProtocolNotifyEvent 00000000000080d0 f   UefiLib:UefiLib.obj
 0001:00007edc       EfiCreateEventReadyToBootEx 000000000000819c f   UefiLib:UefiNotTiano.obj
 0001:00007f80       RuntimeAllocateMem         0000000000008240 f   RuntimeCryptLib:RuntimeMemAllocation.obj
 0001:00008100       RuntimeFreeMem             00000000000083c0 f   RuntimeCryptLib:RuntimeMemAllocation.obj
 0001:00008188       RuntimeCryptLibAddressChangeEvent 0000000000008448 f   RuntimeCryptLib:RuntimeMemAllocation.obj
 0001:000081bc       realloc                    000000000000847c f   RuntimeCryptLib:RuntimeMemAllocation.obj
 0001:00008488       RegisterVariablePolicy     0000000000008748 f   VariablePolicyLibRuntimeDxe:VariablePolicyLib.obj
 0001:00008600       ValidateSetVariable        00000000000088c0 f   VariablePolicyLibRuntimeDxe:VariablePolicyLib.obj
 0001:00008808       DisableVariablePolicy      0000000000008ac8 f   VariablePolicyLibRuntimeDxe:VariablePolicyLib.obj
 0001:0000883c       DumpVariablePolicy         0000000000008afc f   VariablePolicyLibRuntimeDxe:VariablePolicyLib.obj
 0001:000088b0       LockVariablePolicy         0000000000008b70 f   VariablePolicyLibRuntimeDxe:VariablePolicyLib.obj
 0001:00008914       VariablePropertyGetFunction 0000000000008bd4 f   VarCheckLib:VarCheckLib.obj
 0001:00008adc       VarCheckAddTableEntry      0000000000008d9c f   VarCheckLib:VarCheckLib.obj
 0001:00008b58       VarCheckLibInitializeAtEndOfDxe 0000000000008e18 f   VarCheckLib:VarCheckLib.obj
 0001:00008d18       VarCheckLibRegisterSetVariableCheckHandler 0000000000008fd8 f   VarCheckLib:VarCheckLib.obj
 0001:00008d90       VarCheckLibVariablePropertySet 0000000000009050 f   VarCheckLib:VarCheckLib.obj
 0001:00008ee4       VarCheckLibVariablePropertyGet 00000000000091a4 f   VarCheckLib:VarCheckLib.obj
 0001:00008f50       VarCheckLibSetVariableCheck 0000000000009210 f   VarCheckLib:VarCheckLib.obj
 0001:0000910c       RuntimeLibExitBootServicesEvent 00000000000093cc f   UefiRuntimeLib:RuntimeLib.obj
 0001:00009114       RuntimeLibVirtualNotifyEvent 00000000000093d4 f   UefiRuntimeLib:RuntimeLib.obj
 0001:00009128       GetHobList                 00000000000093e8 f   DxeHobLib:HobLib.obj
 0001:000091ac       GetNextGuidHob             000000000000946c f   DxeHobLib:HobLib.obj
 0001:000094c8       TpmMeasureAndLogData       0000000000009788 f   DxeTpmMeasurementLib:DxeTpmMeasurementLib.obj
 0001:00009584       AuthVariableLibInitialize  0000000000009844 f   AuthVariableLib:AuthVariableLib.obj
 0001:000099e8       AuthVariableLibProcessVariable 0000000000009ca8 f   AuthVariableLib:AuthVariableLib.obj
 0001:00009b44       AuthServiceInternalFindVariable 0000000000009e04 f   AuthVariableLib:AuthService.obj
 0001:00009bb0       AuthServiceInternalUpdateVariable 0000000000009e70 f   AuthVariableLib:AuthService.obj
 0001:00009c24       AuthServiceInternalUpdateVariableWithTimeStamp 0000000000009ee4 f   AuthVariableLib:AuthService.obj
 0001:00009d48       UpdatePlatformMode         000000000000a008 f   AuthVariableLib:AuthService.obj
 0001:00009e8c       CheckSignatureListFormat   000000000000a14c f   AuthVariableLib:AuthService.obj
 0001:0000a0dc       VendorKeyIsModified        000000000000a39c f   AuthVariableLib:AuthService.obj
 0001:0000a150       ProcessVarWithPk           000000000000a410 f   AuthVariableLib:AuthService.obj
 0001:0000a300       ProcessVarWithKek          000000000000a5c0 f   AuthVariableLib:AuthService.obj
 0001:0000a408       ProcessVariable            000000000000a6c8 f   AuthVariableLib:AuthService.obj
 0001:0000a5ac       FilterSignatureList        000000000000a86c f   AuthVariableLib:AuthService.obj
 0001:0000a7d8       CalculatePrivAuthVarSignChainSHA256Digest 000000000000aa98 f   AuthVariableLib:AuthService.obj
 0001:0000a984       FindCertsFromDb            000000000000ac44 f   AuthVariableLib:AuthService.obj
 0001:0000ab50       GetCertsFromDb             000000000000ae10 f   AuthVariableLib:AuthService.obj
 0001:0000ac64       DeleteCertsFromDb          000000000000af24 f   AuthVariableLib:AuthService.obj
 0001:0000ae14       CleanCertsFromDb           000000000000b0d4 f   AuthVariableLib:AuthService.obj
 0001:0000afec       VerifyTimeBasedPayload     000000000000b2ac f   AuthVariableLib:AuthService.obj
 0001:0000c5f8       VerifyTimeBasedPayloadAndUpdate 000000000000c8b8 f   AuthVariableLib:AuthService.obj
 0001:0000c734       CreateBasicVariablePolicy  000000000000c9f4 f   VariablePolicyHelperLib:VariablePolicyHelperLib.obj
 0001:0000c850       RegisterBasicVariablePolicy 000000000000cb10 f   VariablePolicyHelperLib:VariablePolicyHelperLib.obj
 0001:0000c8c0       InternalVarCheckLoadOption 000000000000cb80 f   VarCheckUefiLib:VarCheckUefiLibNullClass.obj
 0001:0000c920       InternalVarCheckKeyOption  000000000000cbe0 f   VarCheckUefiLib:VarCheckUefiLibNullClass.obj
 0001:0000c93c       InternalVarCheckDevicePath 000000000000cbfc f   VarCheckUefiLib:VarCheckUefiLibNullClass.obj
 0001:0000c964       InternalVarCheckAsciiString 000000000000cc24 f   VarCheckUefiLib:VarCheckUefiLibNullClass.obj
 0001:0000c9a0       InternalVarCheckSizeArray  000000000000cc60 f   VarCheckUefiLib:VarCheckUefiLibNullClass.obj
 0001:0000c9c0       IsHwErrRecVariable         000000000000cc80 f   VarCheckUefiLib:VarCheckUefiLibNullClass.obj
 0001:0000cab8       GetUefiDefinedVarCheckFunction 000000000000cd78 f   VarCheckUefiLib:VarCheckUefiLibNullClass.obj
 0001:0000cc5c       SetVariableCheckHandlerUefiDefined 000000000000cf1c f   VarCheckUefiLib:VarCheckUefiLibNullClass.obj
 0001:0000cd80       IoRead32                   000000000000d040 f   BaseIoLibIntrinsicSev:IoLibMsc.obj
 0001:0000cdb4       AsciiSPrint                000000000000d074 f   BasePrintLib:PrintLib.obj
 0001:0000cde0       BasePrintLibFillBuffer     000000000000d0a0 f   BasePrintLib:PrintLibInternal.obj
 0001:0000ce14       BasePrintLibValueToString  000000000000d0d4 f   BasePrintLib:PrintLibInternal.obj
 0001:0000ce64       BasePrintLibSPrintMarker   000000000000d124 f   BasePrintLib:PrintLibInternal.obj
 0001:0000dd7c       BasePrintLibSPrint         000000000000e03c f   BasePrintLib:PrintLibInternal.obj
 0001:0000dda0       PciExpressRead32           000000000000e060 f   BasePciExpressLib:PciExpressLib.obj
 0001:0000ddf0       PciCf8Read32               000000000000e0b0 f   BasePciCf8Lib:PciCf8Lib.obj
 0001:0000de90       InternalAcpiDelay          000000000000e150 f   DxeAcpiTimerLib:AcpiTimerLib.obj
 0001:0000def4       X509ConstructCertificate   000000000000e1b4 f   RuntimeCryptLib:CryptX509.obj
 0001:0000e098       RsaGetPublicKeyFromX509    000000000000e358 f   RuntimeCryptLib:CryptX509.obj
 0001:0000e1c0       WrapPkcs7Data              000000000000e480 f   RuntimeCryptLib:CryptPkcs7VerifyCommon.obj
 0001:0000e2cc       X509PopCertificate         000000000000e58c f   RuntimeCryptLib:CryptPkcs7VerifyCommon.obj
 0001:0000e3dc       Pkcs7GetSigners            000000000000e69c f   RuntimeCryptLib:CryptPkcs7VerifyCommon.obj
 0001:0000e694       DivU64x32Remainder         000000000000e954 f   BaseLib:DivU64x32Remainder.obj
 0001:0000e6f4       SaveAndDisableInterrupts   000000000000e9b4 f   BaseLib:Cpu.obj
 0001:0000e718       MmioRead32                 000000000000e9d8 f   BaseIoLibIntrinsicSev:IoLib.obj
 0001:0000e748       SHA224_Init                000000000000ea08 f   OpensslLib:sha256.obj
 0001:0000e7a8       SHA256_Init                000000000000ea68 f   OpensslLib:sha256.obj
 0001:0000e808       SHA256_Update              000000000000eac8 f   OpensslLib:sha256.obj
 0001:0000e91c       SHA256_Final               000000000000ebdc f   OpensslLib:sha256.obj
 0001:0000f090       X509_verify_cert           000000000000f350 f   OpensslLib:x509_vfy.obj
 0001:00011340       x509_check_cert_time       0000000000011600 f   OpensslLib:x509_vfy.obj
 0001:000116e8       X509_cmp_time              00000000000119a8 f   OpensslLib:x509_vfy.obj
 0001:000117e4       X509_get_pubkey_parameters 0000000000011aa4 f   OpensslLib:x509_vfy.obj
 0001:000118dc       X509_STORE_CTX_init        0000000000011b9c f   OpensslLib:x509_vfy.obj
 0001:00011b94       X509_STORE_CTX_cleanup     0000000000011e54 f   OpensslLib:x509_vfy.obj
 0001:00013050       X509_free                  0000000000013310 f   OpensslLib:x_x509.obj
 0001:00013074       OPENSSL_sk_dup             0000000000013334 f   OpensslLib:stack.obj
 0001:000131f8       OPENSSL_sk_new_reserve     00000000000134b8 f   OpensslLib:stack.obj
 0001:0001326c       OPENSSL_sk_insert          000000000001352c f   OpensslLib:stack.obj
 0001:00013418       OPENSSL_sk_pop_free        00000000000136d8 f   OpensslLib:stack.obj
 0001:00013484       OPENSSL_sk_sort            0000000000013744 f   OpensslLib:stack.obj
 0001:00013790       EVP_PKEY_copy_parameters   0000000000013a50 f   OpensslLib:p_lib.obj
 0001:0001387c       EVP_PKEY_new               0000000000013b3c f   OpensslLib:p_lib.obj
 0001:000139a0       EVP_PKEY_assign            0000000000013c60 f   OpensslLib:p_lib.obj
 0001:000139e8       EVP_PKEY_get0_EC_KEY       0000000000013ca8 f   OpensslLib:p_lib.obj
 0001:00013a14       EVP_PKEY_free              0000000000013cd4 f   OpensslLib:p_lib.obj
 0001:00013a78       EVP_add_cipher             0000000000013d38 f   OpensslLib:names.obj
 0001:00013ac8       EVP_add_digest             0000000000013d88 f   OpensslLib:names.obj
 0001:00013b5c       EVP_get_cipherbyname       0000000000013e1c f   OpensslLib:names.obj
 0001:00013b90       EVP_get_digestbyname       0000000000013e50 f   OpensslLib:names.obj
 0001:00013bc4       X509_NAME_ENTRY_free       0000000000013e84 f   OpensslLib:x_name.obj
 0001:00013be8       i2d_X509_NAME              0000000000013ea8 f   OpensslLib:x_name.obj
 0001:000145e8       X509_NAME_print            00000000000148a8 f   OpensslLib:x_name.obj
 0001:00014718       CRYPTO_zalloc              00000000000149d8 f   OpensslLib:mem.obj
 0001:00014760       CRYPTO_clear_realloc       0000000000014a20 f   OpensslLib:mem.obj
 0001:0001483c       X509_NAME_get_index_by_NID 0000000000014afc f   OpensslLib:x509name.obj
 0001:00014878       X509_NAME_get_index_by_OBJ 0000000000014b38 f   OpensslLib:x509name.obj
 0001:00014914       X509_NAME_get_entry        0000000000014bd4 f   OpensslLib:x509name.obj
 0001:0001494c       X509_NAME_delete_entry     0000000000014c0c f   OpensslLib:x509name.obj
 0001:00014a5c       X509_NAME_add_entry        0000000000014d1c f   OpensslLib:x509name.obj
 0001:00014bc4       X509_NAME_ENTRY_create_by_OBJ 0000000000014e84 f   OpensslLib:x509name.obj
 0001:00014cc8       X509_cmp                   0000000000014f88 f   OpensslLib:x509_cmp.obj
 0001:00014d60       X509_NAME_cmp              0000000000015020 f   OpensslLib:x509_cmp.obj
 0001:00014dd0       X509_find_by_issuer_and_serial 0000000000015090 f   OpensslLib:x509_cmp.obj
 0001:00014f14       X509_chain_check_suiteb    00000000000151d4 f   OpensslLib:x509_cmp.obj
 0001:000150f8       X509_STORE_new             00000000000153b8 f   OpensslLib:x509_lu.obj
 0001:00015248       X509_STORE_free            0000000000015508 f   OpensslLib:x509_lu.obj
 0001:00015370       X509_STORE_CTX_get_by_subject 0000000000015630 f   OpensslLib:x509_lu.obj
 0001:0001556c       X509_OBJECT_new            000000000001582c f   OpensslLib:x509_lu.obj
 0001:0001559c       X509_OBJECT_free           000000000001585c f   OpensslLib:x509_lu.obj
 0001:000156d0       X509_STORE_CTX_get1_certs  0000000000015990 f   OpensslLib:x509_lu.obj
 0001:0001594c       X509_STORE_CTX_get1_crls   0000000000015c0c f   OpensslLib:x509_lu.obj
 0001:00015b24       X509_OBJECT_retrieve_match 0000000000015de4 f   OpensslLib:x509_lu.obj
 0001:00015c2c       X509_STORE_CTX_get1_issuer 0000000000015eec f   OpensslLib:x509_lu.obj
 0001:00015e0c       ASN1_get_object            00000000000160cc f   OpensslLib:asn1_lib.obj
 0001:00015fa0       ASN1_put_object            0000000000016260 f   OpensslLib:asn1_lib.obj
 0001:00016098       ASN1_object_size           0000000000016358 f   OpensslLib:asn1_lib.obj
 0001:000160ec       ASN1_STRING_copy           00000000000163ac f   OpensslLib:asn1_lib.obj
 0001:0001613c       ASN1_STRING_dup            00000000000163fc f   OpensslLib:asn1_lib.obj
 0001:0001618c       ASN1_STRING_set            000000000001644c f   OpensslLib:asn1_lib.obj
 0001:000162a4       ASN1_STRING_type_new       0000000000016564 f   OpensslLib:asn1_lib.obj
 0001:000162dc       ASN1_STRING_free           000000000001659c f   OpensslLib:asn1_lib.obj
 0001:0001631c       ASN1_STRING_clear_free     00000000000165dc f   OpensslLib:asn1_lib.obj
 0001:00016354       ASN1_STRING_cmp            0000000000016614 f   OpensslLib:asn1_lib.obj
 0001:00016f48       ASN1_STRING_to_UTF8        0000000000017208 f   OpensslLib:a_strex.obj
 0001:00017064       BIO_new_mem_buf            0000000000017324 f   OpensslLib:bss_mem.obj
 0001:00017714       BIO_new                    00000000000179d4 f   OpensslLib:bio_lib.obj
 0001:00017820       BIO_free                   0000000000017ae0 f   OpensslLib:bio_lib.obj
 0001:00017afc       BIO_puts                   0000000000017dbc f   OpensslLib:bio_lib.obj
 0001:00017c30       BIO_indent                 0000000000017ef0 f   OpensslLib:bio_lib.obj
 0001:00017c7c       BIO_ctrl                   0000000000017f3c f   OpensslLib:bio_lib.obj
 0001:00017d64       BIO_callback_ctrl          0000000000018024 f   OpensslLib:bio_lib.obj
 0001:00017e48       BIO_push                   0000000000018108 f   OpensslLib:bio_lib.obj
 0001:00017e94       BIO_pop                    0000000000018154 f   OpensslLib:bio_lib.obj
 0001:00017ef8       BIO_free_all               00000000000181b8 f   OpensslLib:bio_lib.obj
 0001:00017f30       PKCS7_verify               00000000000181f0 f   OpensslLib:pk7_smime.obj
 0001:000182c8       PKCS7_get0_signers         0000000000018588 f   OpensslLib:pk7_smime.obj
 0001:00018594       OBJ_NAME_get               0000000000018854 f   OpensslLib:o_names.obj
 0001:0001864c       OBJ_NAME_add               000000000001890c f   OpensslLib:o_names.obj
 0001:00018744       X509_verify                0000000000018a04 f   OpensslLib:x_all.obj
 0001:00018970       OBJ_add_object             0000000000018c30 f   OpensslLib:obj_dat.obj
 0001:00018aec       OBJ_nid2obj                0000000000018dac f   OpensslLib:obj_dat.obj
 0001:00018b78       OBJ_nid2sn                 0000000000018e38 f   OpensslLib:obj_dat.obj
 0001:00018c08       OBJ_nid2ln                 0000000000018ec8 f   OpensslLib:obj_dat.obj
 0001:00018cd4       OBJ_obj2nid                0000000000018f94 f   OpensslLib:obj_dat.obj
 0001:00018d70       OBJ_txt2obj                0000000000019030 f   OpensslLib:obj_dat.obj
 0001:00018e74       OBJ_obj2txt                0000000000019134 f   OpensslLib:obj_dat.obj
 0001:00019198       OBJ_ln2nid                 0000000000019458 f   OpensslLib:obj_dat.obj
 0001:0001922c       OBJ_sn2nid                 00000000000194ec f   OpensslLib:obj_dat.obj
 0001:000192c0       OBJ_bsearch_ex_            0000000000019580 f   OpensslLib:obj_dat.obj
 0001:00019398       OBJ_create                 0000000000019658 f   OpensslLib:obj_dat.obj
 0001:0001947c       BN_num_bits_word           000000000001973c f   OpensslLib:bn_lib.obj
 0001:00019554       BN_num_bits                0000000000019814 f   OpensslLib:bn_lib.obj
 0001:00019670       BN_clear_free              0000000000019930 f   OpensslLib:bn_lib.obj
 0001:000196bc       BN_free                    000000000001997c f   OpensslLib:bn_lib.obj
 0001:00019720       BN_new                     00000000000199e0 f   OpensslLib:bn_lib.obj
 0001:0001975c       bn_expand2                 0000000000019a1c f   OpensslLib:bn_lib.obj
 0001:00019810       BN_dup                     0000000000019ad0 f   OpensslLib:bn_lib.obj
 0001:00019874       BN_copy                    0000000000019b34 f   OpensslLib:bn_lib.obj
 0001:000198ec       BN_set_word                0000000000019bac f   OpensslLib:bn_lib.obj
 0001:00019938       BN_bin2bn                  0000000000019bf8 f   OpensslLib:bn_lib.obj
 0001:00019b60       BN_ucmp                    0000000000019e20 f   OpensslLib:bn_lib.obj
 0001:00019ba8       BN_cmp                     0000000000019e68 f   OpensslLib:bn_lib.obj
 0001:00019c2c       BN_set_bit                 0000000000019eec f   OpensslLib:bn_lib.obj
 0001:00019cbc       BN_is_bit_set              0000000000019f7c f   OpensslLib:bn_lib.obj
 0001:00019cec       BN_consttime_swap          0000000000019fac f   OpensslLib:bn_lib.obj
 0001:00019d90       BN_security_bits           000000000001a050 f   OpensslLib:bn_lib.obj
 0001:00019df8       BN_is_word                 000000000001a0b8 f   OpensslLib:bn_lib.obj
 0001:00019e28       bn_correct_top             000000000001a0e8 f   OpensslLib:bn_lib.obj
 0001:00019e58       RSA_new_method             000000000001a118 f   OpensslLib:rsa_lib.obj
 0001:0001a020       RSA_free                   000000000001a2e0 f   OpensslLib:rsa_lib.obj
 0001:0001a124       RSA_pkey_ctx_ctrl          000000000001a3e4 f   OpensslLib:rsa_lib.obj
 0001:0001a248       RSA_sign                   000000000001a508 f   OpensslLib:rsa_sign.obj
 0001:0001a390       int_rsa_verify             000000000001a650 f   OpensslLib:rsa_sign.obj
 0001:0001a860       asn1_time_to_tm            000000000001ab20 f   OpensslLib:a_time.obj
 0001:0001ac20       asn1_time_from_tm          000000000001aee0 f   OpensslLib:a_time.obj
 0001:0001ad38       ASN1_TIME_adj              000000000001aff8 f   OpensslLib:a_time.obj
 0001:0001ad8c       ASN1_TIME_diff             000000000001b04c f   OpensslLib:a_time.obj
 0001:0001ae80       ASN1_TIME_print            000000000001b140 f   OpensslLib:a_time.obj
 0001:0001b008       X509V3_add_value           000000000001b2c8 f   OpensslLib:v3_utl.obj
 0001:0001b130       X509V3_conf_free           000000000001b3f0 f   OpensslLib:v3_utl.obj
 0001:0001b27c       i2s_ASN1_INTEGER           000000000001b53c f   OpensslLib:v3_utl.obj
 0001:0001b2e0       s2i_ASN1_INTEGER           000000000001b5a0 f   OpensslLib:v3_utl.obj
 0001:0001b3e4       X509V3_add_value_int       000000000001b6a4 f   OpensslLib:v3_utl.obj
 0001:0001b440       X509V3_get_value_bool      000000000001b700 f   OpensslLib:v3_utl.obj
 0001:0001b5d0       X509V3_get_value_int       000000000001b890 f   OpensslLib:v3_utl.obj
 0001:0001b640       X509V3_parse_list          000000000001b900 f   OpensslLib:v3_utl.obj
 0001:0001b894       name_cmp                   000000000001bb54 f   OpensslLib:v3_utl.obj
 0001:0001c0f0       a2i_IPADDRESS_NC           000000000001c3b0 f   OpensslLib:v3_utl.obj
 0001:0001c1c0       a2i_ipadd                  000000000001c480 f   OpensslLib:v3_utl.obj
 0001:0001c454       X509V3_NAME_from_section   000000000001c714 f   OpensslLib:v3_utl.obj
 0001:0001c5f8       ERR_put_error              000000000001c8b8 f   OpensslLib:err.obj
 0001:0001c700       ERR_clear_error            000000000001c9c0 f   OpensslLib:err.obj
 0001:0001c968       ERR_get_state              000000000001cc28 f   OpensslLib:err.obj
 0001:0001cab8       ERR_add_error_data         000000000001cd78 f   OpensslLib:err.obj
 0001:0001cbe0       ERR_set_mark               000000000001cea0 f   OpensslLib:err.obj
 0001:0001cc10       ERR_pop_to_mark            000000000001ced0 f   OpensslLib:err.obj
 0001:0001cd08       err_clear_last_constant_time 000000000001cfc8 f   OpensslLib:err.obj
 0001:0001cd54       X509v3_get_ext_by_NID      000000000001d014 f   OpensslLib:x509_v3.obj
 0001:0001cd90       X509v3_get_ext_by_OBJ      000000000001d050 f   OpensslLib:x509_v3.obj
 0001:0001ce1c       X509_check_purpose         000000000001d0dc f   OpensslLib:v3_purp.obj
 0001:0001ce98       X509_PURPOSE_get_by_id     000000000001d158 f   OpensslLib:v3_purp.obj
 0001:0001da08       x509_likely_issued         000000000001dcc8 f   OpensslLib:v3_purp.obj
 0001:0001da90       X509_check_akid            000000000001dd50 f   OpensslLib:v3_purp.obj
 0001:0001e218       X509_CRL_free              000000000001e4d8 f   OpensslLib:x_crl.obj
 0001:0001e420       GENERAL_NAME_free          000000000001e6e0 f   OpensslLib:v3_genn.obj
 0001:0001e444       GENERAL_NAMES_free         000000000001e704 f   OpensslLib:v3_genn.obj
 0001:0001e5f4       X509_VERIFY_PARAM_free     000000000001e8b4 f   OpensslLib:x509_vpm.obj
 0001:0001e65c       X509_VERIFY_PARAM_inherit  000000000001e91c f   OpensslLib:x509_vpm.obj
 0001:0001e8c8       X509_VERIFY_PARAM_set1_policies 000000000001eb88 f   OpensslLib:x509_vpm.obj
 0001:0001ea20       X509_VERIFY_PARAM_lookup   000000000001ece0 f   OpensslLib:x509_vpm.obj
 0001:0001f774       X509_policy_tree_free      000000000001fa34 f   OpensslLib:pcy_tree.obj
 0001:0001f830       X509_policy_check          000000000001faf0 f   OpensslLib:pcy_tree.obj
 0001:0001fc50       X509_PUBKEY_get0           000000000001ff10 f   OpensslLib:x_pubkey.obj
 0001:0001fcfc       X509_PUBKEY_set0_param     000000000001ffbc f   OpensslLib:x_pubkey.obj
 0001:0001fd5c       X509_check_trust           000000000002001c f   OpensslLib:x509_trs.obj
 0001:0001fde0       X509_TRUST_get_by_id       00000000000200a0 f   OpensslLib:x509_trs.obj
 0001:0001ff98       EVP_MD_CTX_reset           0000000000020258 f   OpensslLib:digest.obj
 0001:00020034       EVP_DigestInit_ex          00000000000202f4 f   OpensslLib:digest.obj
 0001:00020124       EVP_DigestFinal_ex         00000000000203e4 f   OpensslLib:digest.obj
 0001:00020190       EVP_DigestFinalXOF         0000000000020450 f   OpensslLib:digest.obj
 0001:00020228       EVP_MD_CTX_copy_ex         00000000000204e8 f   OpensslLib:digest.obj
 0001:00020344       EVP_Digest                 0000000000020604 f   OpensslLib:digest.obj
 0001:000204a0       CRYPTO_new_ex_data         0000000000020760 f   OpensslLib:ex_data.obj
 0001:00020604       CRYPTO_dup_ex_data         00000000000208c4 f   OpensslLib:ex_data.obj
 0001:000207f0       CRYPTO_free_ex_data        0000000000020ab0 f   OpensslLib:ex_data.obj
 0001:00020980       CRYPTO_set_ex_data         0000000000020c40 f   OpensslLib:ex_data.obj
 0001:00020d9c       NAME_CONSTRAINTS_check     000000000002105c f   OpensslLib:v3_ncons.obj
 0001:00020f64       NAME_CONSTRAINTS_check_CN  0000000000021224 f   OpensslLib:v3_ncons.obj
 0001:00021598       EC_KEY_free                0000000000021858 f   OpensslLib:ec_key.obj
 0001:00021644       EC_KEY_copy                0000000000021904 f   OpensslLib:ec_key.obj
 0001:000217e8       EC_KEY_dup                 0000000000021aa8 f   OpensslLib:ec_key.obj
 0001:00021830       ossl_ec_key_gen            0000000000021af0 f   OpensslLib:ec_key.obj
 0001:00021840       ec_key_simple_generate_key 0000000000021b00 f   OpensslLib:ec_key.obj
 0001:00021930       ec_key_simple_generate_public_key 0000000000021bf0 f   OpensslLib:ec_key.obj
 0001:0002195c       EC_KEY_check_key           0000000000021c1c f   OpensslLib:ec_key.obj
 0001:000219b0       ec_key_simple_check_key    0000000000021c70 f   OpensslLib:ec_key.obj
 0001:00021b54       EC_KEY_set_group           0000000000021e14 f   OpensslLib:ec_key.obj
 0001:00021bac       EC_KEY_oct2key             0000000000021e6c f   OpensslLib:ec_key.obj
 0001:00021c30       ec_key_simple_priv2oct     0000000000021ef0 f   OpensslLib:ec_key.obj
 0001:00021cbc       ec_key_simple_oct2priv     0000000000021f7c f   OpensslLib:ec_key.obj
 0001:00021d3c       EC_KEY_priv2buf            0000000000021ffc f   OpensslLib:ec_key.obj
 0001:00021e28       ossl_tolower               00000000000220e8 f   OpensslLib:ctype.obj
 0001:00021e54       ASN1_INTEGER_cmp           0000000000022114 f   OpensslLib:a_int.obj
 0001:000220d4       c2i_ASN1_INTEGER           0000000000022394 f   OpensslLib:a_int.obj
 0001:00022428       ASN1_INTEGER_get           00000000000226e8 f   OpensslLib:a_int.obj
 0001:0002246c       ASN1_ENUMERATED_get        000000000002272c f   OpensslLib:a_int.obj
 0001:000224c0       c2i_uint64_int             0000000000022780 f   OpensslLib:a_int.obj
 0001:00022558       ASN1_INTEGER_free          0000000000022818 f   OpensslLib:tasn_typ.obj
 0001:00022560       ASN1_TYPE_free             0000000000022820 f   OpensslLib:tasn_typ.obj
 0001:00022584       ASN1_item_dup              0000000000022844 f   OpensslLib:a_dup.obj
 0001:00022604       ASN1_item_d2i              00000000000228c4 f   OpensslLib:tasn_dec.obj
 0001:00022654       ASN1_item_ex_d2i           0000000000022914 f   OpensslLib:tasn_dec.obj
 0001:00023c14       X509_ALGOR_free            0000000000023ed4 f   OpensslLib:x_algor.obj
 0001:00023c38       X509_ALGOR_set0            0000000000023ef8 f   OpensslLib:x_algor.obj
 0001:00024410       DIST_POINT_free            00000000000246d0 f   OpensslLib:v3_crld.obj
 0001:000247d4       DIST_POINT_set_dpname      0000000000024a94 f   OpensslLib:v3_crld.obj
 0001:000248b4       ASN1_item_new              0000000000024b74 f   OpensslLib:tasn_new.obj
 0001:000250f4       asn1_item_embed_free       00000000000253b4 f   OpensslLib:tasn_fre.obj
 0001:000252f0       asn1_template_free         00000000000255b0 f   OpensslLib:tasn_fre.obj
 0001:000253b0       asn1_primitive_free        0000000000025670 f   OpensslLib:tasn_fre.obj
 0001:0002555c       ASN1_item_ex_i2d           000000000002581c f   OpensslLib:tasn_enc.obj
 0001:000260b0       SHA384_Init                0000000000026370 f   OpensslLib:sha512.obj
 0001:00026140       SHA512_Init                0000000000026400 f   OpensslLib:sha512.obj
 0001:000261d0       SHA512_Final               0000000000026490 f   OpensslLib:sha512.obj
 0001:00026510       SHA512_Update              00000000000267d0 f   OpensslLib:sha512.obj
 0001:00026a7c       SHA1_Update                0000000000026d3c f   OpensslLib:sha1dgst.obj
 0001:00026b90       SHA1_Final                 0000000000026e50 f   OpensslLib:sha1dgst.obj
 0001:00026cdc       SHA1_Init                  0000000000026f9c f   OpensslLib:sha1dgst.obj
 0001:00026ff4       EVP_CIPHER_param_to_asn1   00000000000272b4 f   OpensslLib:evp_lib.obj
 0001:000270a4       EVP_CIPHER_get_asn1_iv     0000000000027364 f   OpensslLib:evp_lib.obj
 0001:00027144       EVP_CIPHER_set_asn1_iv     0000000000027404 f   OpensslLib:evp_lib.obj
 0001:000271d4       EVP_CIPHER_type            0000000000027494 f   OpensslLib:evp_lib.obj
 0001:000272c4       EVP_CIPHER_CTX_iv_length   0000000000027584 f   OpensslLib:evp_lib.obj
 0001:000272fc       DH_new                     00000000000275bc f   OpensslLib:dh_lib.obj
 0001:0002747c       DH_free                    000000000002773c f   OpensslLib:dh_lib.obj
 0001:00027540       EVP_PKEY_asn1_find         0000000000027800 f   OpensslLib:ameth_lib.obj
 0001:000275d4       X509_ATTRIBUTE_free        0000000000027894 f   OpensslLib:x_attrib.obj
 0001:000275f8       X509_ATTRIBUTE_create      00000000000278b8 f   OpensslLib:x_attrib.obj
 0001:00027720       CMAC_CTX_new               00000000000279e0 f   OpensslLib:cmac.obj
 0001:00027780       CMAC_CTX_free              0000000000027a40 f   OpensslLib:cmac.obj
 0001:00027820       CMAC_CTX_copy              0000000000027ae0 f   OpensslLib:cmac.obj
 0001:000278bc       CMAC_Init                  0000000000027b7c f   OpensslLib:cmac.obj
 0001:00027d38       ossl_init_thread_start     0000000000027ff8 f   OpensslLib:init.obj
 0001:00027d80       OPENSSL_init_crypto        0000000000028040 f   OpensslLib:init.obj
 0001:00028014       OBJ_find_sigid_algs        00000000000282d4 f   OpensslLib:obj_xref.obj
 0001:000280bc       OBJ_find_sigid_by_algs     000000000002837c f   OpensslLib:obj_xref.obj
 0001:000282a0       EVP_PKEY_CTX_dup           0000000000028560 f   OpensslLib:pmeth_lib.obj
 0001:00028370       EVP_PKEY_CTX_free          0000000000028630 f   OpensslLib:pmeth_lib.obj
 0001:000283b0       EVP_PKEY_CTX_ctrl          0000000000028670 f   OpensslLib:pmeth_lib.obj
 0001:00028470       EVP_PKEY_CTX_str2ctrl      0000000000028730 f   OpensslLib:pmeth_lib.obj
 0001:000284b0       EVP_PKEY_CTX_hex2ctrl      0000000000028770 f   OpensslLib:pmeth_lib.obj
 0001:00028510       EVP_PKEY_CTX_md            00000000000287d0 f   OpensslLib:pmeth_lib.obj
 0001:0002857c       X509_NAME_oneline          000000000002883c f   OpensslLib:x509_obj.obj
 0001:00028908       BUF_MEM_new                0000000000028bc8 f   OpensslLib:buffer.obj
 0001:00028934       BUF_MEM_free               0000000000028bf4 f   OpensslLib:buffer.obj
 0001:00028a08       BUF_MEM_grow               0000000000028cc8 f   OpensslLib:buffer.obj
 0001:00028b18       BUF_MEM_grow_clean         0000000000028dd8 f   OpensslLib:buffer.obj
 0001:00028c0c       OBJ_dup                    0000000000028ecc f   OpensslLib:obj_lib.obj
 0001:00028cfc       a2d_ASN1_OBJECT            0000000000028fbc f   OpensslLib:a_object.obj
 0001:00029090       i2a_ASN1_OBJECT            0000000000029350 f   OpensslLib:a_object.obj
 0001:000291d4       d2i_ASN1_OBJECT            0000000000029494 f   OpensslLib:a_object.obj
 0001:0002925c       c2i_ASN1_OBJECT            000000000002951c f   OpensslLib:a_object.obj
 0001:0002942c       ASN1_OBJECT_free           00000000000296ec f   OpensslLib:a_object.obj
 0001:000294a0       ASN1_STRING_set_by_NID     0000000000029760 f   OpensslLib:a_strnid.obj
 0001:00029530       ASN1_STRING_TABLE_get      00000000000297f0 f   OpensslLib:a_strnid.obj
 0001:000295bc       ASN1_STRING_print          000000000002987c f   OpensslLib:a_print.obj
 0001:00029698       MD5_Update                 0000000000029958 f   OpensslLib:md5_dgst.obj
 0001:000297ac       MD5_Final                  0000000000029a6c f   OpensslLib:md5_dgst.obj
 0001:00029938       md5_block_data_order       0000000000029bf8 f   OpensslLib:md5_dgst.obj
 0001:0002a3e0       EC_GROUP_new               000000000002a6a0 f   OpensslLib:ec_lib.obj
 0001:0002a4a0       EC_GROUP_free              000000000002a760 f   OpensslLib:ec_lib.obj
 0001:0002a51c       EC_GROUP_clear_free        000000000002a7dc f   OpensslLib:ec_lib.obj
 0001:0002a5dc       EC_GROUP_copy              000000000002a89c f   OpensslLib:ec_lib.obj
 0001:0002a7e8       EC_GROUP_dup               000000000002aaa8 f   OpensslLib:ec_lib.obj
 0001:0002aa1c       EC_GROUP_set_generator     000000000002acdc f   OpensslLib:ec_lib.obj
 0001:0002aba8       EC_GROUP_set_seed          000000000002ae68 f   OpensslLib:ec_lib.obj
 0001:0002ac3c       EC_GROUP_cmp               000000000002aefc f   OpensslLib:ec_lib.obj
 0001:0002adf4       EC_POINT_new               000000000002b0b4 f   OpensslLib:ec_lib.obj
 0001:0002ae74       EC_POINT_free              000000000002b134 f   OpensslLib:ec_lib.obj
 0001:0002aea0       EC_POINT_clear_free        000000000002b160 f   OpensslLib:ec_lib.obj
 0001:0002aee8       EC_POINT_copy              000000000002b1a8 f   OpensslLib:ec_lib.obj
 0001:0002af44       EC_POINT_set_to_infinity   000000000002b204 f   OpensslLib:ec_lib.obj
 0001:0002af84       EC_POINT_set_affine_coordinates 000000000002b244 f   OpensslLib:ec_lib.obj
 0001:0002b020       EC_POINT_get_affine_coordinates 000000000002b2e0 f   OpensslLib:ec_lib.obj
 0001:0002b0cc       EC_POINT_add               000000000002b38c f   OpensslLib:ec_lib.obj
 0001:0002b14c       EC_POINT_dbl               000000000002b40c f   OpensslLib:ec_lib.obj
 0001:0002b1b4       EC_POINT_invert            000000000002b474 f   OpensslLib:ec_lib.obj
 0001:0002b208       EC_POINT_is_at_infinity    000000000002b4c8 f   OpensslLib:ec_lib.obj
 0001:0002b25c       EC_POINT_is_on_curve       000000000002b51c f   OpensslLib:ec_lib.obj
 0001:0002b2b0       EC_POINT_cmp               000000000002b570 f   OpensslLib:ec_lib.obj
 0001:0002b318       EC_POINTs_make_affine      000000000002b5d8 f   OpensslLib:ec_lib.obj
 0001:0002b398       EC_POINT_mul               000000000002b658 f   OpensslLib:ec_lib.obj
 0001:0002b5b4       ec_group_simple_order_bits 000000000002b874 f   OpensslLib:ec_lib.obj
 0001:0002b6c0       ASN1_tag2str               000000000002b980 f   OpensslLib:asn1_par.obj
 0001:0002b6f0       UTF8_getc                  000000000002b9b0 f   OpensslLib:a_utf8.obj
 0001:0002b9e0       UTF8_putc                  000000000002bca0 f   OpensslLib:a_utf8.obj
 0001:0002bba0       ASN1_mbstring_ncopy        000000000002be60 f   OpensslLib:a_mbstr.obj
 0001:0002c168       rsa_multip_info_free       000000000002c428 f   OpensslLib:rsa_mp.obj
 0001:0002c1a4       rsa_multip_info_new        000000000002c464 f   OpensslLib:rsa_mp.obj
 0001:0002c264       rsa_multip_calc_product    000000000002c524 f   OpensslLib:rsa_mp.obj
 0001:0002c8b4       bwrite_conv                000000000002cb74 f   OpensslLib:bio_meth.obj
 0001:0002c8f0       bread_conv                 000000000002cbb0 f   OpensslLib:bio_meth.obj
 0001:0002c92c       PKCS7_ctrl                 000000000002cbec f   OpensslLib:pk7_lib.obj
 0001:0002c97c       PKCS7_get_signer_info      000000000002cc3c f   OpensslLib:pk7_lib.obj
 0001:0002c9c0       PKCS7_stream               000000000002cc80 f   OpensslLib:pk7_lib.obj
 0001:0002ca7c       PKCS7_add1_attrib_digest   000000000002cd3c f   OpensslLib:pk7_attr.obj
 0001:0002cfd8       PKCS7_dataInit             000000000002d298 f   OpensslLib:pk7_doit.obj
 0001:0002d550       PKCS7_dataFinal            000000000002d810 f   OpensslLib:pk7_doit.obj
 0001:0002d990       PKCS7_SIGNER_INFO_sign     000000000002dc50 f   OpensslLib:pk7_doit.obj
 0001:0002dc68       PKCS7_signatureVerify      000000000002df28 f   OpensslLib:pk7_doit.obj
 0001:0002e080       X509_verify_cert_error_string 000000000002e340 f   OpensslLib:x509_txt.obj
 0001:0002e4bc       OPENSSL_LH_new             000000000002e77c f   OpensslLib:lhash.obj
 0001:0002e55c       OPENSSL_LH_insert          000000000002e81c f   OpensslLib:lhash.obj
 0001:0002e60c       OPENSSL_LH_retrieve        000000000002e8cc f   OpensslLib:lhash.obj
 0001:0002e7fc       OPENSSL_LH_strhash         000000000002eabc f   OpensslLib:lhash.obj
 0001:0002e84c       openssl_lh_strcasehash     000000000002eb0c f   OpensslLib:lhash.obj
 0001:0002e8a8       PKCS8_pkey_set0            000000000002eb68 f   OpensslLib:p8_pkey.obj
 0001:0002eccc       EC_GROUP_get_ecparameters  000000000002ef8c f   OpensslLib:ec_asn1.obj
 0001:0002ee4c       EC_GROUP_get_ecpkparameters 000000000002f10c f   OpensslLib:ec_asn1.obj
 0001:0002ef48       EC_GROUP_new_from_ecparameters 000000000002f208 f   OpensslLib:ec_asn1.obj
 0001:0002f35c       EC_GROUP_new_from_ecpkparameters 000000000002f61c f   OpensslLib:ec_asn1.obj
 0001:0002f3d8       d2i_ECPKParameters         000000000002f698 f   OpensslLib:ec_asn1.obj
 0001:0002f4b4       d2i_ECPrivateKey           000000000002f774 f   OpensslLib:ec_asn1.obj
 0001:0002f698       i2d_ECPrivateKey           000000000002f958 f   OpensslLib:ec_asn1.obj
 0001:0002f8dc       i2d_ECParameters           000000000002fb9c f   OpensslLib:ec_asn1.obj
 0001:0002f9a8       d2i_ECParameters           000000000002fc68 f   OpensslLib:ec_asn1.obj
 0001:0002fa34       i2o_ECPublicKey            000000000002fcf4 f   OpensslLib:ec_asn1.obj
 0001:0002fb3c       ECDSA_SIG_new              000000000002fdfc f   OpensslLib:ec_asn1.obj
 0001:0002fb70       ECDSA_size                 000000000002fe30 f   OpensslLib:ec_asn1.obj
 0001:0002fbf8       ASN1_item_digest           000000000002feb8 f   OpensslLib:a_digest.obj
 0001:0002fc74       ASN1_item_verify           000000000002ff34 f   OpensslLib:a_verify.obj
 0001:0002ff10       ASN1_item_i2d_bio          00000000000301d0 f   OpensslLib:a_i2d_fp.obj
 0001:0002ffb8       BN_bn2hex                  0000000000030278 f   OpensslLib:bn_print.obj
 0001:00030094       BN_bn2dec                  0000000000030354 f   OpensslLib:bn_print.obj
 0001:0003026c       BN_hex2bn                  000000000003052c f   OpensslLib:bn_print.obj
 0001:00030428       BN_dec2bn                  00000000000306e8 f   OpensslLib:bn_print.obj
 0001:0003069c       CRYPTO_strdup              000000000003095c f   OpensslLib:o_str.obj
 0001:00030704       CRYPTO_strndup             00000000000309c4 f   OpensslLib:o_str.obj
 0001:00030780       CRYPTO_memdup              0000000000030a40 f   OpensslLib:o_str.obj
 0001:000307ec       OPENSSL_strlcpy            0000000000030aac f   OpensslLib:o_str.obj
 0001:00030840       OPENSSL_hexchar2int        0000000000030b00 f   OpensslLib:o_str.obj
 0001:00030900       OPENSSL_hexstr2buf         0000000000030bc0 f   OpensslLib:o_str.obj
 0001:00030a04       OPENSSL_buf2hexstr         0000000000030cc4 f   OpensslLib:o_str.obj
 0001:00030aa4       BN_mod_word                0000000000030d64 f   OpensslLib:bn_word.obj
 0001:00030b48       BN_div_word                0000000000030e08 f   OpensslLib:bn_word.obj
 0001:00030c34       BN_add_word                0000000000030ef4 f   OpensslLib:bn_word.obj
 0001:00030d08       BN_sub_word                0000000000030fc8 f   OpensslLib:bn_word.obj
 0001:00030dd8       BN_mul_word                0000000000031098 f   OpensslLib:bn_word.obj
 0001:00030ee4       BN_lshift1                 00000000000311a4 f   OpensslLib:bn_shift.obj
 0001:00030f8c       BN_rshift1                 000000000003124c f   OpensslLib:bn_shift.obj
 0001:00031060       BN_lshift                  0000000000031320 f   OpensslLib:bn_shift.obj
 0001:000310a4       bn_lshift_fixed_top        0000000000031364 f   OpensslLib:bn_shift.obj
 0001:000311dc       BN_rshift                  000000000003149c f   OpensslLib:bn_shift.obj
 0001:00031218       bn_rshift_fixed_top        00000000000314d8 f   OpensslLib:bn_shift.obj
 0001:00031320       bn_mul_mont_fixed_top      00000000000315e0 f   OpensslLib:bn_mont.obj
 0001:00031574       bn_from_mont_fixed_top     0000000000031834 f   OpensslLib:bn_mont.obj
 0001:000315f8       BN_MONT_CTX_new            00000000000318b8 f   OpensslLib:bn_mont.obj
 0001:0003166c       BN_MONT_CTX_free           000000000003192c f   OpensslLib:bn_mont.obj
 0001:000316a8       BN_MONT_CTX_set            0000000000031968 f   OpensslLib:bn_mont.obj
 0001:0003196c       BN_MONT_CTX_copy           0000000000031c2c f   OpensslLib:bn_mont.obj
 0001:000319ec       BN_MONT_CTX_set_locked     0000000000031cac f   OpensslLib:bn_mont.obj
 0001:00033440       BN_BLINDING_new            0000000000033700 f   OpensslLib:bn_blind.obj
 0001:000334e4       BN_BLINDING_free           00000000000337a4 f   OpensslLib:bn_blind.obj
 0001:00033534       BN_BLINDING_update         00000000000337f4 f   OpensslLib:bn_blind.obj
 0001:00033640       BN_BLINDING_convert_ex     0000000000033900 f   OpensslLib:bn_blind.obj
 0001:00033700       BN_BLINDING_invert_ex      00000000000339c0 f   OpensslLib:bn_blind.obj
 0001:000337e8       BN_BLINDING_create_param   0000000000033aa8 f   OpensslLib:bn_blind.obj
 0001:00033aa4       RSA_setup_blinding         0000000000033d64 f   OpensslLib:rsa_crpt.obj
 0001:00033c04       OPENSSL_gmtime_adj         0000000000033ec4 f   OpensslLib:o_time.obj
 0001:00033cd8       OPENSSL_gmtime_diff        0000000000033f98 f   OpensslLib:o_time.obj
 0001:00033fa8       ACCESS_DESCRIPTION_free    0000000000034268 f   OpensslLib:v3_info.obj
 0001:00034408       CONF_parse_list            00000000000346c8 f   OpensslLib:conf_mod.obj
 0001:00034504       X509V3_EXT_get_nid         00000000000347c4 f   OpensslLib:v3_lib.obj
 0001:00034598       X509V3_EXT_d2i             0000000000034858 f   OpensslLib:v3_lib.obj
 0001:000345fc       X509V3_get_d2i             00000000000348bc f   OpensslLib:v3_lib.obj
 0001:00034858       ASN1_TYPE_set              0000000000034b18 f   OpensslLib:a_type.obj
 0001:000348bc       ASN1_TYPE_cmp              0000000000034b7c f   OpensslLib:a_type.obj
 0001:00034930       ASN1_TYPE_unpack_sequence  0000000000034bf0 f   OpensslLib:a_type.obj
 0001:000349c4       level_add_node             0000000000034c84 f   OpensslLib:pcy_node.obj
 0001:00034ae8       policy_node_free           0000000000034da8 f   OpensslLib:pcy_node.obj
 0001:00034afc       policy_data_free           0000000000034dbc f   OpensslLib:pcy_data.obj
 0001:00034b48       policy_data_new            0000000000034e08 f   OpensslLib:pcy_data.obj
 0001:00034c3c       i2v_GENERAL_NAMES          0000000000034efc f   OpensslLib:v3_alt.obj
 0001:00034cec       i2v_GENERAL_NAME           0000000000034fac f   OpensslLib:v3_alt.obj
 0001:00034e7c       GENERAL_NAME_print         000000000003513c f   OpensslLib:v3_alt.obj
 0001:00035434       v2i_GENERAL_NAMES          00000000000356f4 f   OpensslLib:v3_alt.obj
 0001:00035500       a2i_GENERAL_NAME           00000000000357c0 f   OpensslLib:v3_alt.obj
 0001:00035734       v2i_GENERAL_NAME_ex        00000000000359f4 f   OpensslLib:v3_alt.obj
 0001:00035a14       BN_CTX_new                 0000000000035cd4 f   OpensslLib:bn_ctx.obj
 0001:00035a58       BN_CTX_free                0000000000035d18 f   OpensslLib:bn_ctx.obj
 0001:00035adc       BN_CTX_start               0000000000035d9c f   OpensslLib:bn_ctx.obj
 0001:00035b24       BN_CTX_end                 0000000000035de4 f   OpensslLib:bn_ctx.obj
 0001:00035b9c       BN_CTX_get                 0000000000035e5c f   OpensslLib:bn_ctx.obj
 0001:000360e4       EC_GROUP_new_by_curve_name 00000000000363a4 f   OpensslLib:ec_curve.obj
 0001:00036150       EC_curve_nist2nid          0000000000036410 f   OpensslLib:ec_curve.obj
 0001:000361b0       ec_curve_nid_from_params   0000000000036470 f   OpensslLib:ec_curve.obj
 0001:00036444       bn_compute_wNAF            0000000000036704 f   OpensslLib:bn_intern.obj
 0001:000365f8       EC_POINT_set_compressed_coordinates 00000000000368b8 f   OpensslLib:ec_oct.obj
 0001:0003667c       EC_POINT_point2oct         000000000003693c f   OpensslLib:ec_oct.obj
 0001:000366fc       EC_POINT_oct2point         00000000000369bc f   OpensslLib:ec_oct.obj
 0001:00036784       EC_POINT_point2buf         0000000000036a44 f   OpensslLib:ec_oct.obj
 0001:0003683c       EC_KEY_new_method          0000000000036afc f   OpensslLib:ec_kmeth.obj
 0001:000369a4       ECDH_compute_key           0000000000036c64 f   OpensslLib:ec_kmeth.obj
 0001:00036d40       BN_generate_dsa_nonce      0000000000037000 f   OpensslLib:bn_rand.obj
 0001:00036f10       i2c_ASN1_BIT_STRING        00000000000371d0 f   OpensslLib:a_bitstr.obj
 0001:00037028       c2i_ASN1_BIT_STRING        00000000000372e8 f   OpensslLib:a_bitstr.obj
 0001:00037180       ASN1_BIT_STRING_set_bit    0000000000037440 f   OpensslLib:a_bitstr.obj
 0001:00037288       asn1_do_lock               0000000000037548 f   OpensslLib:tasn_utl.obj
 0001:00037328       asn1_do_adb                00000000000375e8 f   OpensslLib:tasn_utl.obj
 0001:000373dc       X509V3_get_section         000000000003769c f   OpensslLib:v3_conf.obj
 0001:000375b8       POLICYINFO_free            0000000000037878 f   OpensslLib:v3_cpols.obj
 0001:000375dc       POLICYQUALINFO_free        000000000003789c f   OpensslLib:v3_cpols.obj
 0001:00038280       policy_cache_set_mapping   0000000000038540 f   OpensslLib:pcy_map.obj
 0001:00038410       EVP_CIPHER_CTX_reset       00000000000386d0 f   OpensslLib:evp_enc.obj
 0001:00038480       EVP_CipherInit_ex          0000000000038740 f   OpensslLib:evp_enc.obj
 0001:00038918       EVP_EncryptFinal_ex        0000000000038bd8 f   OpensslLib:evp_enc.obj
 0001:000389e4       EVP_DecryptUpdate          0000000000038ca4 f   OpensslLib:evp_enc.obj
 0001:00038c20       EVP_DecryptFinal_ex        0000000000038ee0 f   OpensslLib:evp_enc.obj
 0001:00038d30       EVP_CIPHER_CTX_set_key_length 0000000000038ff0 f   OpensslLib:evp_enc.obj
 0001:00038d88       EVP_CIPHER_CTX_ctrl        0000000000039048 f   OpensslLib:evp_enc.obj
 0001:00038dd0       EVP_CIPHER_CTX_copy        0000000000039090 f   OpensslLib:evp_enc.obj
 0001:0003c1a8       rsa_pss_params_create      000000000003c468 f   OpensslLib:rsa_ameth.obj
 0001:0003c6c0       rsa_pss_get_param          000000000003c980 f   OpensslLib:rsa_ameth.obj
 0001:0003d84c       openssl_add_all_ciphers_int 000000000003db0c f   OpensslLib:c_allc.obj
 0001:0003dce8       RAND_DRBG_set              000000000003dfa8 f   OpensslLib:drbg_lib.obj
 0001:0003debc       RAND_DRBG_free             000000000003e17c f   OpensslLib:drbg_lib.obj
 0001:0003df2c       RAND_DRBG_instantiate      000000000003e1ec f   OpensslLib:drbg_lib.obj
 0001:0003e158       RAND_DRBG_reseed           000000000003e418 f   OpensslLib:drbg_lib.obj
 0001:0003e2c4       rand_drbg_restart          000000000003e584 f   OpensslLib:drbg_lib.obj
 0001:0003e5ec       RAND_DRBG_generate         000000000003e8ac f   OpensslLib:drbg_lib.obj
 0001:0003e760       RAND_DRBG_bytes            000000000003ea20 f   OpensslLib:drbg_lib.obj
 0001:0003ec6c       RAND_DRBG_get0_master      000000000003ef2c f   OpensslLib:drbg_lib.obj
 0001:0003eca0       RAND_DRBG_get0_private     000000000003ef60 f   OpensslLib:drbg_lib.obj
 0001:0003edd4       rand_drbg_get_entropy      000000000003f094 f   OpensslLib:rand_lib.obj
 0001:0003ef38       rand_drbg_cleanup_entropy  000000000003f1f8 f   OpensslLib:rand_lib.obj
 0001:0003ef74       rand_drbg_get_nonce        000000000003f234 f   OpensslLib:rand_lib.obj
 0001:0003f038       rand_drbg_cleanup_nonce    000000000003f2f8 f   OpensslLib:rand_lib.obj
 0001:0003f0d4       rand_pool_new              000000000003f394 f   OpensslLib:rand_lib.obj
 0001:0003f1a8       rand_pool_free             000000000003f468 f   OpensslLib:rand_lib.obj
 0001:0003f304       rand_pool_bytes_needed     000000000003f5c4 f   OpensslLib:rand_lib.obj
 0001:0003f38c       rand_pool_add              000000000003f64c f   OpensslLib:rand_lib.obj
 0001:0003f420       rand_pool_add_begin        000000000003f6e0 f   OpensslLib:rand_lib.obj
 0001:0003f478       rand_pool_add_end          000000000003f738 f   OpensslLib:rand_lib.obj
 0001:0003f4bc       RAND_get_rand_method       000000000003f77c f   OpensslLib:rand_lib.obj
 0001:0003f508       RAND_priv_bytes            000000000003f7c8 f   OpensslLib:rand_lib.obj
 0001:0003f560       RAND_bytes                 000000000003f820 f   OpensslLib:rand_lib.obj
 0001:000440cc       BIO_dump_indent_cb         000000000004438c f   OpensslLib:b_dump.obj
 0001:00044290       BN_add                     0000000000044550 f   OpensslLib:bn_add.obj
 0001:00044300       BN_sub                     00000000000445c0 f   OpensslLib:bn_add.obj
 0001:00044378       BN_uadd                    0000000000044638 f   OpensslLib:bn_add.obj
 0001:00044444       BN_usub                    0000000000044704 f   OpensslLib:bn_add.obj
 0001:00044534       EC_ec_pre_comp_free        00000000000447f4 f   OpensslLib:ec_mult.obj
 0001:000445ac       ec_scalar_mul_ladder       000000000004486c f   OpensslLib:ec_mult.obj
 0001:00044bb0       ec_wNAF_mul                0000000000044e70 f   OpensslLib:ec_mult.obj
 0001:00045694       BN_div                     0000000000045954 f   OpensslLib:bn_div.obj
 0001:0004571c       bn_div_fixed_top           00000000000459dc f   OpensslLib:bn_div.obj
 0001:00045b20       BN_mod_exp                 0000000000045de0 f   OpensslLib:bn_exp.obj
 0001:00045b90       BN_mod_exp_recp            0000000000045e50 f   OpensslLib:bn_exp.obj
 0001:00045f64       BN_mod_exp_mont            0000000000046224 f   OpensslLib:bn_exp.obj
 0001:00046748       BN_mod_exp_mont_consttime  0000000000046a08 f   OpensslLib:bn_exp.obj
 0001:00046c2c       BN_mod_exp_mont_word       0000000000046eec f   OpensslLib:bn_exp.obj
 0001:00047064       bn_mul_fixed_top           0000000000047324 f   OpensslLib:bn_mul.obj
 0001:00047168       bn_mul_normal              0000000000047428 f   OpensslLib:bn_mul.obj
 0001:00047bd0       EVP_DigestSignFinal        0000000000047e90 f   OpensslLib:m_sigver.obj
 0001:00047db0       EVP_DigestVerifyFinal      0000000000048070 f   OpensslLib:m_sigver.obj
 0001:000481f8       EVP_SignFinal              00000000000484b8 f   OpensslLib:p_sign.obj
 0001:000483d0       EVP_PKEY_sign_init         0000000000048690 f   OpensslLib:pmeth_fn.obj
 0001:0004842c       EVP_PKEY_sign              00000000000486ec f   OpensslLib:pmeth_fn.obj
 0001:0004853c       EVP_PKEY_verify_init       00000000000487fc f   OpensslLib:pmeth_fn.obj
 0001:00048598       EVP_PKEY_verify            0000000000048858 f   OpensslLib:pmeth_fn.obj
 0001:000485f4       X509at_get_attr_by_OBJ     00000000000488b4 f   OpensslLib:x509_att.obj
 0001:00048678       EVP_VerifyFinal            0000000000048938 f   OpensslLib:p_verify.obj
 0001:000487b4       EC_GROUP_new_curve_GFp     0000000000048a74 f   OpensslLib:ec_cvt.obj
 0001:000488f0       bn_mul_add_words           0000000000048bb0 f   OpensslLib:bn_asm.obj
 0001:000489c0       bn_mul_words               0000000000048c80 f   OpensslLib:bn_asm.obj
 0001:00048a80       bn_div_words               0000000000048d40 f   OpensslLib:bn_asm.obj
 0001:00048be4       bn_add_words               0000000000048ea4 f   OpensslLib:bn_asm.obj
 0001:00048c3c       bn_sub_words               0000000000048efc f   OpensslLib:bn_asm.obj
 0001:00049010       int_bn_mod_inverse         00000000000492d0 f   OpensslLib:bn_gcd.obj
 0001:000496c0       BN_mod_inverse             0000000000049980 f   OpensslLib:bn_gcd.obj
 0001:00049760       BN_gcd                     0000000000049a20 f   OpensslLib:bn_gcd.obj
 0001:00049a24       bn_sqr_fixed_top           0000000000049ce4 f   OpensslLib:bn_sqr.obj
 0001:00049b50       bn_sqr_normal              0000000000049e10 f   OpensslLib:bn_sqr.obj
 0001:00049c88       RSA_X931_hash_id           0000000000049f48 f   OpensslLib:rsa_x931.obj
 0001:00049cbc       RSA_padding_check_PKCS1_type_1 0000000000049f7c f   OpensslLib:rsa_pk1.obj
 0001:00049d8c       RSA_padding_add_PKCS1_type_2 000000000004a04c f   OpensslLib:rsa_pk1.obj
 0001:00049e44       RSA_padding_check_PKCS1_type_2 000000000004a104 f   OpensslLib:rsa_pk1.obj
 0001:0004a154       RSA_padding_add_SSLv23     000000000004a414 f   OpensslLib:rsa_ssl.obj
 0001:0004a220       RSA_padding_check_SSLv23   000000000004a4e0 f   OpensslLib:rsa_ssl.obj
 0001:0004a60c       BN_nnmod                   000000000004a8cc f   OpensslLib:bn_mod.obj
 0001:0004a670       bn_mod_add_fixed_top       000000000004a930 f   OpensslLib:bn_mod.obj
 0001:0004a81c       bn_mod_sub_fixed_top       000000000004aadc f   OpensslLib:bn_mod.obj
 0001:0004a99c       BN_mod_sub_quick           000000000004ac5c f   OpensslLib:bn_mod.obj
 0001:0004a9dc       BN_mod_mul                 000000000004ac9c f   OpensslLib:bn_mod.obj
 0001:0004aa94       BN_mod_sqr                 000000000004ad54 f   OpensslLib:bn_mod.obj
 0001:0004aaec       BN_mod_lshift1_quick       000000000004adac f   OpensslLib:bn_mod.obj
 0001:0004ab34       BN_mod_lshift_quick        000000000004adf4 f   OpensslLib:bn_mod.obj
 0001:0004abf4       RSA_padding_add_PKCS1_OAEP_mgf1 000000000004aeb4 f   OpensslLib:rsa_oaep.obj
 0001:0004ae7c       RSA_padding_check_PKCS1_OAEP_mgf1 000000000004b13c f   OpensslLib:rsa_oaep.obj
 0001:0004b3a4       PKCS1_MGF1                 000000000004b664 f   OpensslLib:rsa_oaep.obj
 0001:0004b6dc       i2v_ASN1_BIT_STRING        000000000004b99c f   OpensslLib:v3_bitst.obj
 0001:0004b770       v2i_ASN1_BIT_STRING        000000000004ba30 f   OpensslLib:v3_bitst.obj
 0001:0004c0dc       i2s_ASN1_IA5STRING         000000000004c39c f   OpensslLib:v3_ia5.obj
 0001:0004c14c       s2i_ASN1_IA5STRING         000000000004c40c f   OpensslLib:v3_ia5.obj
 0001:0004c7b8       i2s_ASN1_OCTET_STRING      000000000004ca78 f   OpensslLib:v3_skey.obj
 0001:0004c914       i2s_ASN1_ENUMERATED_TABLE  000000000004cbd4 f   OpensslLib:v3_enum.obj
 0001:0004ca58       POLICY_MAPPING_free        000000000004cd18 f   OpensslLib:v3_pmaps.obj
 0001:0004ce88       SXNET_add_id_INTEGER       000000000004d148 f   OpensslLib:v3_sxnet.obj
 0001:0004d050       SXNET_get_id_INTEGER       000000000004d310 f   OpensslLib:v3_sxnet.obj
 0001:0004dc10       ASN1_item_pack             000000000004ded0 f   OpensslLib:asn_pack.obj
 0001:0004dcf4       ASN1_generate_v3           000000000004dfb4 f   OpensslLib:asn1_gen.obj
 0001:0004ea78       ec_GFp_simple_set_compressed_coordinates 000000000004ed38 f   OpensslLib:ecp_oct.obj
 0001:0004ee08       ec_GFp_simple_point2oct    000000000004f0c8 f   OpensslLib:ecp_oct.obj
 0001:0004f098       ec_GFp_simple_oct2point    000000000004f358 f   OpensslLib:ecp_oct.obj
 0001:0004f294       ossl_ecdsa_sign            000000000004f554 f   OpensslLib:ecdsa_ossl.obj
 0001:0004f5f0       ossl_ecdsa_sign_setup      000000000004f8b0 f   OpensslLib:ecdsa_ossl.obj
 0001:0004f60c       ossl_ecdsa_sign_sig        000000000004f8cc f   OpensslLib:ecdsa_ossl.obj
 0001:0004f988       ossl_ecdsa_verify          000000000004fc48 f   OpensslLib:ecdsa_ossl.obj
 0001:0004fa98       ossl_ecdsa_verify_sig      000000000004fd58 f   OpensslLib:ecdsa_ossl.obj
 0001:0004fdcc       ossl_ecdh_compute_key      000000000005008c f   OpensslLib:ecdh_ossl.obj
 0001:0004fe04       ecdh_simple_compute_key    00000000000500c4 f   OpensslLib:ecdh_ossl.obj
 0001:00050040       DH_check_params            0000000000050300 f   OpensslLib:dh_check.obj
 0001:00050124       DH_check                   00000000000503e4 f   OpensslLib:dh_check.obj
 0001:000502e8       DH_check_pub_key           00000000000505a8 f   OpensslLib:dh_check.obj
 0001:00050540       c448_ed448_sign            0000000000050800 f   OpensslLib:eddsa.obj
 0001:000508a8       c448_ed448_verify          0000000000050b68 f   OpensslLib:eddsa.obj
 0001:00050ac0       ED448_public_from_private  0000000000050d80 f   OpensslLib:eddsa.obj
 0001:00056bc8       ED25519_sign               0000000000056e88 f   OpensslLib:curve25519.obj
 0001:00056d64       ED25519_verify             0000000000057024 f   OpensslLib:curve25519.obj
 0001:00056f90       X25519_public_from_private 0000000000057250 f   OpensslLib:curve25519.obj
 0001:00057054       ASN1_buf_print             0000000000057314 f   OpensslLib:t_pkey.obj
 0001:0005713c       ASN1_bn_print              00000000000573fc f   OpensslLib:t_pkey.obj
 0001:00057bc4       curve448_precomputed_scalarmul 0000000000057e84 f   OpensslLib:curve448.obj
 0001:00057dd4       curve448_point_mul_by_ratio_and_encode_like_eddsa 0000000000058094 f   OpensslLib:curve448.obj
 0001:00058060       curve448_point_decode_like_eddsa_and_mul_by_ratio 0000000000058320 f   OpensslLib:curve448.obj
 0001:00058330       x448_int                   00000000000585f0 f   OpensslLib:curve448.obj
 0001:0005896c       curve448_base_double_scalarmul_non_secret 0000000000058c2c f   OpensslLib:curve448.obj
 0001:00058d38       X448_public_from_private   0000000000058ff8 f   OpensslLib:curve448.obj
 0001:00058e94       ECPKParameters_print       0000000000059154 f   OpensslLib:eck_prn.obj
 0001:000597cc       EC_GROUP_check             0000000000059a8c f   OpensslLib:ec_check.obj
 0001:00059904       RSA_check_key_ex           0000000000059bc4 f   OpensslLib:rsa_chk.obj
 0001:0005a04c       X509_signature_dump        000000000005a30c f   OpensslLib:t_x509.obj
 0001:0005a158       i2a_ASN1_INTEGER           000000000005a418 f   OpensslLib:f_int.obj
 0001:0005a2f4       d2i_DHxparams              000000000005a5b4 f   OpensslLib:dh_asn1.obj
 0001:0005a3d4       HMAC_Init_ex               000000000005a694 f   OpensslLib:hmac.obj
 0001:0005a5f4       HMAC_Final                 000000000005a8b4 f   OpensslLib:hmac.obj
 0001:0005a684       HMAC_CTX_new               000000000005a944 f   OpensslLib:hmac.obj
 0001:0005a700       HMAC_CTX_free              000000000005a9c0 f   OpensslLib:hmac.obj
 0001:0005a7ec       HMAC_CTX_copy              000000000005aaac f   OpensslLib:hmac.obj
 0001:0005e248       drbg_ctr_init              000000000005e508 f   OpensslLib:drbg_ctr.obj
 0001:0005eb10       rand_pool_acquire_entropy  000000000005edd0 f   OpensslLib:rand_pool.obj
 0001:0005ebe0       DH_new_by_nid              000000000005eea0 f   OpensslLib:dh_rfc7919.obj
 0001:0005ee18       RSA_sign_ASN1_OCTET_STRING 000000000005f0d8 f   OpensslLib:rsa_saos.obj
 0001:0005f8f4       RSA_verify_PKCS1_PSS_mgf1  000000000005fbb4 f   OpensslLib:rsa_pss.obj
 0001:0005fc08       RSA_padding_add_PKCS1_PSS_mgf1 000000000005fec8 f   OpensslLib:rsa_pss.obj
 0001:0005fef0       sm2_compute_z_digest       00000000000601b0 f   OpensslLib:sm2_sign.obj
 0001:000608bc       sm2_sign                   0000000000060b7c f   OpensslLib:sm2_sign.obj
 0001:00060a48       sm2_encrypt                0000000000060d08 f   OpensslLib:sm2_crypt.obj
 0001:00060ef8       sm2_decrypt                00000000000611b8 f   OpensslLib:sm2_crypt.obj
 0001:00061378       SipHash_Init               0000000000061638 f   OpensslLib:siphash.obj
 0001:000614b4       SipHash_Update             0000000000061774 f   OpensslLib:siphash.obj
 0001:000616d0       SipHash_Final              0000000000061990 f   OpensslLib:siphash.obj
 0001:00061914       ecdh_KDF_X9_63             0000000000061bd4 f   OpensslLib:ecdh_kdf.obj
 0001:00061af8       BN_mod_mul_reciprocal      0000000000061db8 f   OpensslLib:bn_recp.obj
 0001:00061bb8       BN_div_recp                0000000000061e78 f   OpensslLib:bn_recp.obj
 0001:00062034       ec_GFp_nist_group_copy     00000000000622f4 f   OpensslLib:ecp_nist.obj
 0001:00062048       ec_GFp_nist_group_set_curve 0000000000062308 f   OpensslLib:ecp_nist.obj
 0001:0006218c       ec_GFp_nist_field_mul      000000000006244c f   OpensslLib:ecp_nist.obj
 0001:00062260       ec_GFp_nist_field_sqr      0000000000062520 f   OpensslLib:ecp_nist.obj
 0001:0006236c       BN_nist_mod_192            000000000006262c f   OpensslLib:bn_nist.obj
 0001:000625b8       BN_nist_mod_224            0000000000062878 f   OpensslLib:bn_nist.obj
 0001:0006290c       BN_nist_mod_256            0000000000062bcc f   OpensslLib:bn_nist.obj
 0001:00062c5c       BN_nist_mod_384            0000000000062f1c f   OpensslLib:bn_nist.obj
 0001:00063020       BN_nist_mod_521            00000000000632e0 f   OpensslLib:bn_nist.obj
 0001:000631f4       ec_GFp_mont_group_init     00000000000634b4 f   OpensslLib:ecp_mont.obj
 0001:00063218       ec_GFp_mont_group_finish   00000000000634d8 f   OpensslLib:ecp_mont.obj
 0001:00063250       ec_GFp_mont_group_clear_finish 0000000000063510 f   OpensslLib:ecp_mont.obj
 0001:00063288       ec_GFp_mont_group_copy     0000000000063548 f   OpensslLib:ecp_mont.obj
 0001:00063358       ec_GFp_mont_group_set_curve 0000000000063618 f   OpensslLib:ecp_mont.obj
 0001:00063540       ec_GFp_mont_field_mul      0000000000063800 f   OpensslLib:ecp_mont.obj
 0001:00063598       ec_GFp_mont_field_sqr      0000000000063858 f   OpensslLib:ecp_mont.obj
 0001:000635e4       ec_GFp_mont_field_inv      00000000000638a4 f   OpensslLib:ecp_mont.obj
 0001:000636f4       ec_GFp_mont_field_encode   00000000000639b4 f   OpensslLib:ecp_mont.obj
 0001:00063748       ec_GFp_mont_field_decode   0000000000063a08 f   OpensslLib:ecp_mont.obj
 0001:00063790       ec_GFp_mont_field_set_to_one 0000000000063a50 f   OpensslLib:ecp_mont.obj
 0001:000637d4       i2a_ASN1_STRING            0000000000063a94 f   OpensslLib:f_string.obj
 0001:000638f4       BN_mod_sqrt                0000000000063bb4 f   OpensslLib:bn_sqrt.obj
 0001:00064020       BN_kronecker               00000000000642e0 f   OpensslLib:bn_kron.obj
 0001:000642a8       BN_GENCB_call              0000000000064568 f   OpensslLib:bn_prime.obj
 0001:000642fc       BN_generate_prime_ex       00000000000645bc f   OpensslLib:bn_prime.obj
 0001:00064564       BN_is_prime_fasttest_ex    0000000000064824 f   OpensslLib:bn_prime.obj
 0001:00064f68       curve448_scalar_add        0000000000065228 f   OpensslLib:scalar.obj
 0001:00064fbc       curve448_scalar_decode_long 000000000006527c f   OpensslLib:scalar.obj
 0001:00065180       curve448_scalar_halve      0000000000065440 f   OpensslLib:scalar.obj
 0001:00065294       gf_serialize               0000000000065554 f   OpensslLib:f_generic.obj
 0001:00065324       gf_deserialize             00000000000655e4 f   OpensslLib:f_generic.obj
 0001:000653f0       gf_strong_reduce           00000000000656b0 f   OpensslLib:f_generic.obj
 0001:00065474       gf_sub                     0000000000065734 f   OpensslLib:f_generic.obj
 0001:000654c4       gf_add                     0000000000065784 f   OpensslLib:f_generic.obj
 0001:000654f0       gf_eq                      00000000000657b0 f   OpensslLib:f_generic.obj
 0001:00065560       gf_isr                     0000000000065820 f   OpensslLib:f_generic.obj
 0001:00065784       gf_mul                     0000000000065a44 f   OpensslLib:f_impl.obj
 0001:0006599c       gf_mulw_unsigned           0000000000065c5c f   OpensslLib:f_impl.obj
 0001:00065ab0       SM4_set_key                0000000000065d70 f   OpensslLib:sm4.obj
 0001:00065c6c       SM4_encrypt                0000000000065f2c f   OpensslLib:sm4.obj
 0001:0006651c       SM4_decrypt                00000000000667dc f   OpensslLib:sm4.obj
 0001:00066dcc       CRYPTO_cbc128_encrypt      000000000006708c f   OpensslLib:cbc128.obj
 0001:00066e98       CRYPTO_cbc128_decrypt      0000000000067158 f   OpensslLib:cbc128.obj
 0001:00066f58       CRYPTO_ofb128_encrypt      0000000000067218 f   OpensslLib:ofb128.obj
 0001:00066fe0       CRYPTO_ctr128_encrypt      00000000000672a0 f   OpensslLib:ctr128.obj
 0001:00067090       CRYPTO_ctr128_encrypt_ctr32 0000000000067350 f   OpensslLib:ctr128.obj
 0001:00067288       CRYPTO_cfb128_encrypt      0000000000067548 f   OpensslLib:cfb128.obj
 0001:00067488       CRYPTO_cfb128_1_encrypt    0000000000067748 f   OpensslLib:cfb128.obj
 0001:0006757c       CRYPTO_cfb128_8_encrypt    000000000006783c f   OpensslLib:cfb128.obj
 0001:00067780       CRYPTO_gcm128_init         0000000000067a40 f   OpensslLib:gcm128.obj
 0001:0006795c       CRYPTO_gcm128_setiv        0000000000067c1c f   OpensslLib:gcm128.obj
 0001:00067b20       CRYPTO_gcm128_aad          0000000000067de0 f   OpensslLib:gcm128.obj
 0001:00067c5c       CRYPTO_gcm128_encrypt      0000000000067f1c f   OpensslLib:gcm128.obj
 0001:00067da4       CRYPTO_gcm128_decrypt      0000000000068064 f   OpensslLib:gcm128.obj
 0001:00067eec       CRYPTO_gcm128_finish       00000000000681ac f   OpensslLib:gcm128.obj
 0001:00068074       CRYPTO_gcm128_tag          0000000000068334 f   OpensslLib:gcm128.obj
 0001:000680ac       CRYPTO_ccm128_init         000000000006836c f   OpensslLib:ccm128.obj
 0001:00068114       CRYPTO_ccm128_setiv        00000000000683d4 f   OpensslLib:ccm128.obj
 0001:000681a8       CRYPTO_ccm128_aad          0000000000068468 f   OpensslLib:ccm128.obj
 0001:00068324       CRYPTO_ccm128_encrypt      00000000000685e4 f   OpensslLib:ccm128.obj
 0001:000685d8       CRYPTO_ccm128_decrypt      0000000000068898 f   OpensslLib:ccm128.obj
 0001:000687d4       CRYPTO_ccm128_encrypt_ccm64 0000000000068a94 f   OpensslLib:ccm128.obj
 0001:00068a1c       CRYPTO_ccm128_decrypt_ccm64 0000000000068cdc f   OpensslLib:ccm128.obj
 0001:00068c14       CRYPTO_ccm128_tag          0000000000068ed4 f   OpensslLib:ccm128.obj
 0001:00068fac       aria_encrypt               000000000006926c f   OpensslLib:aria.obj
 0001:000690a0       aria_set_encrypt_key       0000000000069360 f   OpensslLib:aria.obj
 0001:000693cc       aria_set_decrypt_key       000000000006968c f   OpensslLib:aria.obj
 0001:00069480       CRYPTO_xts128_encrypt      0000000000069740 f   OpensslLib:xts128.obj
 0001:00069720       AES_set_encrypt_key        00000000000699e0 f   OpensslLib:aes_core.obj
 0001:00069d08       AES_set_decrypt_key        0000000000069fc8 f   OpensslLib:aes_core.obj
 0001:00069f44       AES_encrypt                000000000006a204 f   OpensslLib:aes_core.obj
 0001:0006a588       AES_decrypt                000000000006a848 f   OpensslLib:aes_core.obj
 0001:0006abb8       CRYPTO_128_wrap            000000000006ae78 f   OpensslLib:wrap128.obj
 0001:0006ae38       CRYPTO_128_wrap_pad        000000000006b0f8 f   OpensslLib:wrap128.obj
 0001:0006af64       CRYPTO_128_unwrap_pad      000000000006b224 f   OpensslLib:wrap128.obj
 0001:0006b108       AES_cbc_encrypt            000000000006b3c8 f   OpensslLib:aes_cbc.obj
 0001:0006c0d0       SHA3_absorb                000000000006c390 f   OpensslLib:keccak1600.obj
 0001:0006c198       SHA3_squeeze               000000000006c458 f   OpensslLib:keccak1600.obj
 0001:0006c274       sm3_final                  000000000006c534 f   OpensslLib:sm3.obj
 0001:0006c4a4       sm3_block_data_order       000000000006c764 f   OpensslLib:sm3.obj
 0001:0006eb7c       ec_GFp_simple_group_init   000000000006ee3c f   OpensslLib:ecp_smpl.obj
 0001:0006ebe0       ec_GFp_simple_group_finish 000000000006eea0 f   OpensslLib:ecp_smpl.obj
 0001:0006ec0c       ec_GFp_simple_group_clear_finish 000000000006eecc f   OpensslLib:ecp_smpl.obj
 0001:0006ec38       ec_GFp_simple_group_copy   000000000006eef8 f   OpensslLib:ecp_smpl.obj
 0001:0006ec98       ec_GFp_simple_group_set_curve 000000000006ef58 f   OpensslLib:ecp_smpl.obj
 0001:0006ee3c       ec_GFp_simple_group_get_curve 000000000006f0fc f   OpensslLib:ecp_smpl.obj
 0001:0006ef48       ec_GFp_simple_group_get_degree 000000000006f208 f   OpensslLib:ecp_smpl.obj
 0001:0006ef54       ec_GFp_simple_group_check_discriminant 000000000006f214 f   OpensslLib:ecp_smpl.obj
 0001:0006f15c       ec_GFp_simple_point_init   000000000006f41c f   OpensslLib:ecp_smpl.obj
 0001:0006f1c0       ec_GFp_simple_point_finish 000000000006f480 f   OpensslLib:ecp_smpl.obj
 0001:0006f1ec       ec_GFp_simple_point_clear_finish 000000000006f4ac f   OpensslLib:ecp_smpl.obj
 0001:0006f21c       ec_GFp_simple_point_copy   000000000006f4dc f   OpensslLib:ecp_smpl.obj
 0001:0006f284       ec_GFp_simple_point_set_to_infinity 000000000006f544 f   OpensslLib:ecp_smpl.obj
 0001:0006f298       ec_GFp_simple_set_Jprojective_coordinates_GFp 000000000006f558 f   OpensslLib:ecp_smpl.obj
 0001:0006f41c       ec_GFp_simple_get_Jprojective_coordinates_GFp 000000000006f6dc f   OpensslLib:ecp_smpl.obj
 0001:0006f550       ec_GFp_simple_point_set_affine_coordinates 000000000006f810 f   OpensslLib:ecp_smpl.obj
 0001:0006f5dc       ec_GFp_simple_point_get_affine_coordinates 000000000006f89c f   OpensslLib:ecp_smpl.obj
 0001:0006f894       ec_GFp_simple_add          000000000006fb54 f   OpensslLib:ecp_smpl.obj
 0001:0006fe08       ec_GFp_simple_dbl          00000000000700c8 f   OpensslLib:ecp_smpl.obj
 0001:0007023c       ec_GFp_simple_invert       00000000000704fc f   OpensslLib:ecp_smpl.obj
 0001:0007027c       ec_GFp_simple_is_at_infinity 000000000007053c f   OpensslLib:ecp_smpl.obj
 0001:0007028c       ec_GFp_simple_is_on_curve  000000000007054c f   OpensslLib:ecp_smpl.obj
 0001:00070560       ec_GFp_simple_cmp          0000000000070820 f   OpensslLib:ecp_smpl.obj
 0001:000707f4       ec_GFp_simple_make_affine  0000000000070ab4 f   OpensslLib:ecp_smpl.obj
 0001:000708fc       ec_GFp_simple_points_make_affine 0000000000070bbc f   OpensslLib:ecp_smpl.obj
 0001:00070d28       ec_GFp_simple_field_inv    0000000000070fe8 f   OpensslLib:ecp_smpl.obj
 0001:00070e4c       ec_GFp_simple_blind_coordinates 000000000007110c f   OpensslLib:ecp_smpl.obj
 0001:00070fb4       ec_GFp_simple_ladder_pre   0000000000071274 f   OpensslLib:ecp_smpl.obj
 0001:00071258       ec_GFp_simple_ladder_step  0000000000071518 f   OpensslLib:ecp_smpl.obj
 0001:000717e4       ec_GFp_simple_ladder_post  0000000000071aa4 f   OpensslLib:ecp_smpl.obj
 0001:00071cd4       time                       0000000000071f94 f   RuntimeCryptLib:TimerWrapper.obj
 0001:00071e30       gmtime                     00000000000720f0 f   RuntimeCryptLib:TimerWrapper.obj
 0001:00072268       strchr                     0000000000072528 f   RuntimeCryptLib:CrtWrapper.obj
 0001:00072298       strncasecmp                0000000000072558 f   RuntimeCryptLib:CrtWrapper.obj
 0001:00072340       sscanf                     0000000000072600 f   RuntimeCryptLib:CrtWrapper.obj
 0001:00072340       BIO_printf                 0000000000072600 f   RuntimeCryptLib:CrtWrapper.obj
 0001:00072350       qsort                      0000000000072610 f   RuntimeCryptLib:CrtWrapper.obj
 0001:00072418       BIO_snprintf               00000000000726d8 f   RuntimeCryptLib:CrtWrapper.obj
 0001:00072420       ScanMem8                   00000000000726e0 f   BaseMemoryLibRepStr:ScanMem8Wrapper.obj
 0001:000724a4       GetRandomNumber64          0000000000072764 f   BaseRngLibTimerLib:RngLibTimer.obj
 0001:00072504       memset                     00000000000727c4 f   BaseIntrinsicLib:MemoryIntrinsics.obj
 0001:0007251c       strcmp                     00000000000727dc f   BaseIntrinsicLib:MemoryIntrinsics.obj
 0002:00000000       ??_C@_0CB@DMEJJJHA@?6ASSERT_EFI_ERROR?5?$CIStatus?5?$DN?5?$CFr?$CJ@ 0000000000072800     UefiDriverEntryPoint:DriverEntryPoint.obj
 0002:00000028       ??_C@_0CH@BBNBJKHK@?$CB?$CI?$CI?$CIINTN?$CJ?$CIRETURN_STATUS?$CJ?$CIStatus@ 0000000000072828     UefiDriverEntryPoint:DriverEntryPoint.obj
 0002:00000050       ??_C@_0BD@CJAFIPEF@VariableRuntimeDxe@ 0000000000072850     VariableRuntimeDxe:AutoGen.obj
 0002:00000068       ??_C@_0CE@IBFOBMLB@?6ASSERT_RETURN_ERROR?5?$CIStatus?5?$DN?5@ 0000000000072868     VariableRuntimeDxe:AutoGen.obj
 0002:00000090       ??_C@_0HK@CEBLGCFF@d?3?2edk2?2edk2?2Build?2OvmfX64?2DEBU@ 0000000000072890     VariableRuntimeDxe:AutoGen.obj
 0002:00000110       ??_C@_0EG@BKMDFBBC@d?3?2edk2?2edk2?2MdeModulePkg?2Unive@ 0000000000072910     VariableRuntimeDxe:VariableDxe.obj
 0002:00000158       ??_C@_0CC@CHCOCDIO@?$FLVariable?$FNEND_OF_DXE?5is?5signale@ 0000000000072958     VariableRuntimeDxe:VariableDxe.obj
 0002:00000180       ??_C@_0DL@MOMKHMLG@Variable?5write?5service?5initiali@ 0000000000072980     VariableRuntimeDxe:VariableDxe.obj
 0002:000001c0       ??_C@_0EE@LDOMMNMG@_gPcd_FixedAtBuild_PcdFlashNvSt@ 00000000000729c0     VariableRuntimeDxe:VariableDxe.obj
 0002:00000208       ??_C@_0DH@BMPDDGKB@Variable?5driver?5failed?5to?5get?5f@ 0000000000072a08     VariableRuntimeDxe:VariableDxe.obj
 0002:00000240       ??_C@_0EG@EILDOFIE@Variable?5driver?5failed?5to?5add?5E@ 0000000000072a40     VariableRuntimeDxe:VariableDxe.obj
 0002:00000288       ??_C@_1BK@HEJFBPFA@?$AAV?$AAa?$AAr?$AAE?$AAr?$AAr?$AAo?$AAr?$AAF?$AAl?$AAa?$AAg@ 0000000000072a88     VariableRuntimeDxe:Variable.obj
 0002:000002b0       ??_C@_0ED@OLGONAJD@d?3?2edk2?2edk2?2MdeModulePkg?2Unive@ 0000000000072ab0     VariableRuntimeDxe:Variable.obj
 0002:000002f8       ??_C@_0DD@HNKMGDLP@RecordVarErrorFlag?5?$CI0x?$CF02x?$CJ?5?$CFs?3@ 0000000000072af8     VariableRuntimeDxe:Variable.obj
 0002:00000330       ??_C@_0EE@MDIAOIDD@CommonRuntimeVariableSpace?5?$DN?50x@ 0000000000072b30     VariableRuntimeDxe:Variable.obj
 0002:00000378       ??_C@_0DN@PGDPNKGJ@CommonVariableSpace?5?$DN?50x?$CFx?5?9?5Co@ 0000000000072b78     VariableRuntimeDxe:Variable.obj
 0002:000003c0       ??_C@_0EI@OPJCBAKK@CommonMaxUserVariableSpace?5?$DN?50x@ 0000000000072bc0     VariableRuntimeDxe:Variable.obj
 0002:00000408       ??_C@_0CH@LFODLFDP@Initialize?5variable?5error?5flag?5@ 0000000000072c08     VariableRuntimeDxe:Variable.obj
 0002:00000430       ??_C@_0CL@OFPOKHAJ@?$CB?$CI?$CI?$CIINTN?$CJ?$CIRETURN_STATUS?$CJ?$CIDoneSt@ 0000000000072c30     VariableRuntimeDxe:Variable.obj
 0002:00000460       ??_C@_0BC@FEDIJHFF@?$CI?$CIBOOLEAN?$CJ?$CI0?$DN?$DN1?$CJ?$CJ@ 0000000000072c60     VariableRuntimeDxe:Variable.obj
 0002:00000478       ??_C@_1CE@GLBFGNOF@?$AAP?$AAl?$AAa?$AAt?$AAf?$AAo?$AAr?$AAm?$AAL?$AAa?$AAn?$AAg?$AAC?$AAo?$AAd@ 0000000000072c78     VariableRuntimeDxe:Variable.obj
 0002:000004a0       ??_C@_0DJ@JOLPIBDA@mVariableModuleGlobal?9?$DOPlatform@ 0000000000072ca0     VariableRuntimeDxe:Variable.obj
 0002:000004e0       ??_C@_0DE@IHKKGFED@mVariableModuleGlobal?9?$DOPlatform@ 0000000000072ce0     VariableRuntimeDxe:Variable.obj
 0002:00000518       ??_C@_1BE@PMKNNMNM@?$AAL?$AAa?$AAn?$AAg?$AAC?$AAo?$AAd?$AAe?$AAs@ 0000000000072d18     VariableRuntimeDxe:Variable.obj
 0002:00000530       ??_C@_0DB@DANJMHI@mVariableModuleGlobal?9?$DOLangCode@ 0000000000072d30     VariableRuntimeDxe:Variable.obj
 0002:00000568       ??_C@_1BK@GGGENMOA@?$AAP?$AAl?$AAa?$AAt?$AAf?$AAo?$AAr?$AAm?$AAL?$AAa?$AAn?$AAg@ 0000000000072d68     VariableRuntimeDxe:Variable.obj
 0002:00000588       ??_C@_19BALNHBBC@?$AAL?$AAa?$AAn?$AAg@ 0000000000072d88     VariableRuntimeDxe:Variable.obj
 0002:000005a0       ??_C@_0EP@JAIEHPHA@Variable?5Driver?5Auto?5Update?5Pla@ 0000000000072da0     VariableRuntimeDxe:Variable.obj
 0002:000005f0       ??_C@_0EH@EPBEDH@Variable?5Driver?5Auto?5Update?5Lan@ 0000000000072df0     VariableRuntimeDxe:Variable.obj
 0002:00000640       ??_C@_0EH@KLDHFENI@Update?5NV?5variable?5before?5EFI_V@ 0000000000072e40     VariableRuntimeDxe:Variable.obj
 0002:00000690       ??_C@_0EJ@PIJKKBKC@Update?5AUTH?5variable?5before?5EFI@ 0000000000072e90     VariableRuntimeDxe:Variable.obj
 0002:000006e0       ??_C@_0DG@HGNGOLDN@CacheVariable?9?$DOInDeletedTransit@ 0000000000072ee0     VariableRuntimeDxe:Variable.obj
 0002:00000718       ??_C@_0BB@IHBMANOJ@VarDataSize?5?$CB?$DN?50@ 0000000000072f18     VariableRuntimeDxe:Variable.obj
 0002:00000730       ??_C@_0BB@HEEDHDJN@VarNameSize?5?$CB?$DN?50@ 0000000000072f30     VariableRuntimeDxe:Variable.obj
 0002:00000748       ??_C@_0BL@EELNHLCI@VariableServiceSetVariable@ 0000000000072f48     VariableRuntimeDxe:Variable.obj
 0002:00000768       ??_C@_0CO@BJEGLAME@?$CFa?3?5Failed?5to?5set?5variable?5?8?$CFs?8@ 0000000000072f68     VariableRuntimeDxe:Variable.obj
 0002:000007a0       ??_C@_0FD@ODLBILOG@NameSize?$CI0x?$CFx?$CJ?5?$CL?5PayloadSize?$CI0x@ 0000000000072fa0     VariableRuntimeDxe:Variable.obj
 0002:00000800       ??_C@_0EP@PIAAPIMM@NameSize?$CI0x?$CFx?$CJ?5?$CL?5PayloadSize?$CI0x@ 0000000000073000     VariableRuntimeDxe:Variable.obj
 0002:00000850       ??_C@_0FH@GOMLIAIB@NameSize?$CI0x?$CFx?$CJ?5?$CL?5PayloadSize?$CI0x@ 0000000000073050     VariableRuntimeDxe:Variable.obj
 0002:000008b0       ??_C@_0GA@LEJLHOIJ@?$FLVariable?$FN?3?5Rewritten?5a?5preexis@ 00000000000730b0     VariableRuntimeDxe:Variable.obj
 0002:00000910       ??_C@_0CJ@JLKAPOHL@?$CIVariable?9?$DOAttributes?5?$CG?50x00000@ 0000000000073110     VariableRuntimeDxe:Variable.obj
 0002:00000940       ??_C@_0DL@LMHNPCMN@Variable?5driver?5flush?5the?5HOB?5v@ 0000000000073140     VariableRuntimeDxe:Variable.obj
 0002:00000980       ??_C@_0EH@GNLIFIG@Variable?5driver?5set?5the?5HOB?5var@ 0000000000073180     VariableRuntimeDxe:Variable.obj
 0002:000009d0       ??_C@_0EA@JNHAIEDK@Variable?5driver?3?5all?5HOB?5variab@ 00000000000731d0     VariableRuntimeDxe:Variable.obj
 0002:00000a10       ??_C@_0DH@HFIICOHI@Variable?5driver?5will?5work?5with?5@ 0000000000073210     VariableRuntimeDxe:Variable.obj
 0002:00000a48       ??_C@_0DC@OOENMNLB@NOTICE?5?9?5AuthVariableLibInitial@ 0000000000073248     VariableRuntimeDxe:Variable.obj
 0002:00000a80       ??_C@_0EG@DKPIPHJP@Variable?5driver?5will?5continue?5t@ 0000000000073280     VariableRuntimeDxe:Variable.obj
 0002:00000ac8       ??_C@_0BP@IMEEEHNN@AuthVarStorage?5?$CB?$DN?5?$CI?$CIvoid?5?$CK?$CJ?50?$CJ@ 00000000000732c8     VariableRuntimeDxe:Variable.obj
 0002:00000ae8       ??_C@_0CL@KLIAEIPG@AuthVarStorage?9?$DOSize?5?$DM?$DN?5AuthVar@ 00000000000732e8     VariableRuntimeDxe:Variable.obj
 0002:00000b18       ??_C@_0CF@HLANNKA@ERROR?3?5Found?5two?5Auth?5Variable?5@ 0000000000073318     VariableRuntimeDxe:Variable.obj
 0002:00000b40       ??_C@_0DC@OLGEBAOD@ERROR?3?5Found?5one?5Auth?5?$CL?5one?5Nor@ 0000000000073340     VariableRuntimeDxe:Variable.obj
 0002:00000b78       ??_C@_0CH@BEPNCMEL@ERROR?3?5Found?5two?5Normal?5Variabl@ 0000000000073378     VariableRuntimeDxe:Variable.obj
 0002:00000ba0       ??_C@_0CJ@BMMLFEEO@HOB?5Variable?5Store?5header?5is?5co@ 00000000000733a0     VariableRuntimeDxe:Variable.obj
 0002:00000bd0       ??_C@_0DG@KHPPNHOC@Variable?5driver?5will?5work?5with?5@ 00000000000733d0     VariableRuntimeDxe:Variable.obj
 0002:00000c08       ??_C@_0DK@BOBGNLGH@Variable?5driver?5will?5work?5witho@ 0000000000073408     VariableRuntimeDxe:Variable.obj
 0002:00000c48       ??_C@_0BK@IGDNCAKI@VariableLockRequestToLock@ 0000000000073448     VariableRuntimeDxe:VariableLockRequestToLock.obj
 0002:00000c68       ??_C@_0DG@NDNNKNAG@?$CB?$CB?$CB?5DEPRECATED?5INTERFACE?5?$CB?$CB?$CB?5?$CFa@ 0000000000073468     VariableRuntimeDxe:VariableLockRequestToLock.obj
 0002:00000ca0       ??_C@_0EC@EGNGNAAB@?$CB?$CB?$CB?5DEPRECATED?5INTERFACE?5?$CB?$CB?$CB?5Pl@ 00000000000734a0     VariableRuntimeDxe:VariableLockRequestToLock.obj
 0002:00000ce8       ??_C@_0CO@HIJFCGIJ@?$CB?$CB?$CB?5DEPRECATED?5INTERFACE?5?$CB?$CB?$CB?5Va@ 00000000000734e8     VariableRuntimeDxe:VariableLockRequestToLock.obj
 0002:00000d18       ??_C@_0CG@DJOKNLBE@?5?5Variable?3?5?$CFg?5?$CFs?5is?5already?5lo@ 0000000000073518     VariableRuntimeDxe:VariableLockRequestToLock.obj
 0002:00000d40       ??_C@_0CG@JPPCCEHH@?5?5Variable?3?5?$CFg?5?$CFs?5can?5not?5be?5lo@ 0000000000073540     VariableRuntimeDxe:VariableLockRequestToLock.obj
 0002:00000d68       ??_C@_0CF@PHFHFINJ@?$CFa?5?9?5Failed?5to?5lock?5variable?5?$CFs@ 0000000000073568     VariableRuntimeDxe:VariableLockRequestToLock.obj
 0002:00000d90       ??_C@_1EE@GADHGNAI@?$AAM?$AAe?$AAm?$AAo?$AAr?$AAy?$AAO?$AAv?$AAe?$AAr?$AAw?$AAr?$AAi?$AAt?$AAe@ 0000000000073590     VariableRuntimeDxe:TcgMorLockDxe.obj
 0002:00000de0       ??_C@_1DM@KHNCPJJB@?$AAM?$AAe?$AAm?$AAo?$AAr?$AAy?$AAO?$AAv?$AAe?$AAr?$AAw?$AAr?$AAi?$AAt?$AAe@ 00000000000735e0     VariableRuntimeDxe:TcgMorLockDxe.obj
 0002:00000e20       ??_C@_0BG@JHIMLMCE@MorLockInitAtEndOfDxe@ 0000000000073620     VariableRuntimeDxe:TcgMorLockDxe.obj
 0002:00000e38       ??_C@_0DD@CCHMGNPO@?$CFa?5?9?5Could?5not?5locate?5VariableP@ 0000000000073638     VariableRuntimeDxe:TcgMorLockDxe.obj
 0002:00000e70       ??_C@_0CF@EHICJPFG@?$CFa?5?9?5Could?5not?5lock?5variable?5?$CFs@ 0000000000073670     VariableRuntimeDxe:TcgMorLockDxe.obj
 0002:00000e98       ??_C@_1BG@JEGAFCNI@?$AAS?$AAe?$AAc?$AAu?$AAr?$AAe?$AAB?$AAo?$AAo?$AAt@ 0000000000073698     VariableRuntimeDxe:Measurement.obj
 0002:00000eb0       ??_C@_15OKGIJJH@?$AAP?$AAK@ 00000000000736b0     VariableRuntimeDxe:Measurement.obj
 0002:00000eb8       ??_C@_17PNKKLKMO@?$AAK?$AAE?$AAK@ 00000000000736b8     VariableRuntimeDxe:Measurement.obj
 0002:00000ec0       ??_C@_15EMHHCMJI@?$AAd?$AAb@ 00000000000736c0     VariableRuntimeDxe:Measurement.obj
 0002:00000ec8       ??_C@_17CFMLKIPF@?$AAd?$AAb?$AAx@ 00000000000736c8     VariableRuntimeDxe:Measurement.obj
 0002:00000ed0       ??_C@_17GPBNBHEN@?$AAd?$AAb?$AAt@ 00000000000736d0     VariableRuntimeDxe:Measurement.obj
 0002:00000ee0       ??_C@_0FH@PEFAEJFG@?$CIVarSize?5?$DN?$DN?50?5?$CG?$CG?5VarData?5?$DN?$DN?5?$CI?$CIv@ 00000000000736e0     VariableRuntimeDxe:Measurement.obj
 0002:00000f40       ??_C@_0EG@KBPPCNKC@d?3?2edk2?2edk2?2MdeModulePkg?2Unive@ 0000000000073740     VariableRuntimeDxe:Measurement.obj
 0002:00000f88       ??_C@_0DJ@HIMFALHC@VariableDxe?3?5MeasureVariable?5?$CIP@ 0000000000073788     VariableRuntimeDxe:Measurement.obj
 0002:00000fc8       ??_C@_0CF@EJGGIPIO@VariableName?5?9?5?$CFs?0?5VendorGuid?5?9@ 00000000000737c8     VariableRuntimeDxe:Measurement.obj
 0002:00000ff0       ??_C@_0BH@FMEOEIBC@?$CKValue?5?$CB?$DN?5?$CI?$CIvoid?5?$CK?$CJ?50?$CJ@ 00000000000737f0     VariableRuntimeDxe:Measurement.obj
 0002:00001008       ??_C@_0CP@NIENIDEM@Skip?5measuring?5variable?5?$CFs?5sinc@ 0000000000073808     VariableRuntimeDxe:Measurement.obj
 0002:00001038       ??_C@_0CA@GAMOOMNI@MeasureBootPolicyVariable?5?9?5?$CFr?6@ 0000000000073838     VariableRuntimeDxe:Measurement.obj
 0002:00001058       ??_C@_0CD@FLADNDEG@mSecureBootVarData?5?$CB?$DN?5?$CI?$CIvoid?5?$CK?$CJ@ 0000000000073858     VariableRuntimeDxe:Measurement.obj
 0002:00001080       ??_C@_0EC@EJICPJCB@?$CFs?5variable?5updated?5according?5t@ 0000000000073880     VariableRuntimeDxe:Measurement.obj
 0002:000010c8       ??_C@_0DI@JPCCADGN@RecordSecureBootPolicyVarData?5G@ 00000000000738c8     VariableRuntimeDxe:Measurement.obj
 0002:00001100       ??_C@_0DI@IAABAODH@NameSizeOfVariable?5?$CIPtrTrack?9?$DOC@ 0000000000073900     VariableRuntimeDxe:VariableParsing.obj
 0002:00001140       ??_C@_0EK@MNOKLFOH@d?3?2edk2?2edk2?2MdeModulePkg?2Unive@ 0000000000073940     VariableRuntimeDxe:VariableParsing.obj
 0002:00001190       ??_C@_0CB@EOGGIOIC@StoreType?5?$DM?5VariableStoreTypeMa@ 0000000000073990     VariableRuntimeDxe:VariableParsing.obj
 0002:000011b8       ??_C@_0DG@KEDFAIFP@sizeof?5?$CIVARIABLE_STORE_HEADER?$CJ?5@ 00000000000739b8     VariableRuntimeDxe:VariableNonVolatile.obj
 0002:000011f0       ??_C@_0EO@IPOPAMIP@d?3?2edk2?2edk2?2MdeModulePkg?2Unive@ 00000000000739f0     VariableRuntimeDxe:VariableNonVolatile.obj
 0002:00001240       ??_C@_0EK@HHLNPIC@HwErrStorageSize?5?$DM?5?$CIVariableSto@ 0000000000073a40     VariableRuntimeDxe:VariableNonVolatile.obj
 0002:00001290       ??_C@_0BD@KOJGBFGG@NvStorageBase?5?$CB?$DN?50@ 0000000000073a90     VariableRuntimeDxe:VariableNonVolatile.obj
 0002:000012a8       ??_C@_0DI@NDEFKFNA@Variable?3?5NV?5storage?5is?5backed?5@ 0000000000073aa8     VariableRuntimeDxe:VariableNonVolatile.obj
 0002:000012e0       ??_C@_0FF@HIICAOID@Variable?3?5High?5partial?5NV?5stora@ 0000000000073ae0     VariableRuntimeDxe:VariableNonVolatile.obj
 0002:00001338       ??_C@_0DB@CGGLGCCM@Firmware?5Volume?5for?5Variable?5St@ 0000000000073b38     VariableRuntimeDxe:VariableNonVolatile.obj
 0002:00001370       ??_C@_0CL@KMBJJFJE@VariableStore?9?$DOSize?5?$DN?$DN?5Variable@ 0000000000073b70     VariableRuntimeDxe:VariableNonVolatile.obj
 0002:000013a0       ??_C@_0CE@PHEIGJIC@Variable?5Store?5header?5is?5corrup@ 0000000000073ba0     VariableRuntimeDxe:VariableNonVolatile.obj
 0002:000013d0       ??_C@_0GH@PGGCLDAP@MaxUserNvVariableSpaceSize?5?$DM?5?$CIV@ 0000000000073bd0     VariableRuntimeDxe:VariableNonVolatile.obj
 0002:00001440       ??_C@_0HA@NDNGHFDK@BoottimeReservedNvVariableSpace@ 0000000000073c40     VariableRuntimeDxe:VariableNonVolatile.obj
 0002:000014b0       ??_C@_0CO@MDLKCL@Variable?5driver?5common?5space?3?50@ 0000000000073cb0     VariableRuntimeDxe:VariableNonVolatile.obj
 0002:000014e0       ??_C@_0FK@OGCNODHE@GetNonVolatileMaxVariableSize?5?$CI@ 0000000000073ce0     VariableRuntimeDxe:VariableNonVolatile.obj
 0002:00001540       ??_C@_0CG@OAPIFIMI@FtwBufferSize?5?$DN?$DN?5VariableBuffer@ 0000000000073d40     VariableRuntimeDxe:Reclaim.obj
 0002:00001570       ??_C@_0EC@PEAHHGFO@d?3?2edk2?2edk2?2MdeModulePkg?2Unive@ 0000000000073d70     VariableRuntimeDxe:Reclaim.obj
 0002:000015b8       ??_C@_0DC@FABBJIGJ@d?3?2edk2?2edk2?2MdePkg?2Library?2Dxe@ 0000000000073db8     DxePcdLib:DxePcdLib.obj
 0002:000015f0       ??_C@_0BF@OOKDELHM@mPcd?5?$CB?$DN?5?$CI?$CIvoid?5?$CK?$CJ?50?$CJ@ 0000000000073df0     DxePcdLib:DxePcdLib.obj
 0002:00001608       ??_C@_0BH@IACGKAP@Buffer?5?$CB?$DN?5?$CI?$CIvoid?5?$CK?$CJ?50?$CJ@ 0000000000073e08     DxePcdLib:DxePcdLib.obj
 0002:00001620       ??_C@_0DG@EEENIGGL@Length?5?$DM?$DN?5?$CI0xFFFFFFFFFFFFFFFFUL@ 0000000000073e20     BaseMemoryLibRepStr:MemLibGuid.obj
 0002:00001660       ??_C@_0ED@MKGCMJG@?$CILength?5?9?51?$CJ?5?$DM?$DN?5?$CI0xFFFFFFFFFFFF@ 0000000000073e60     BaseMemoryLibRepStr:CopyMemWrapper.obj
 0002:000016b0       ??_C@_0EB@LOHEEPCE@d?3?2edk2?2edk2?2MdePkg?2Library?2Bas@ 0000000000073eb0     BaseMemoryLibRepStr:CopyMemWrapper.obj
 0002:000016f8       ??_C@_0DO@MAOBOFEG@?$CILength?5?9?51?$CJ?5?$DM?$DN?5?$CI0xFFFFFFFFFFFF@ 0000000000073ef8     BaseMemoryLibRepStr:CopyMemWrapper.obj
 0002:00001740       ??_C@_0EB@KNGCOOD@d?3?2edk2?2edk2?2MdePkg?2Library?2Bas@ 0000000000073f40     BaseMemoryLibRepStr:ZeroMemWrapper.obj
 0002:00001788       ??_C@_0CC@JOEHDGKB@DestinationBuffer?5?$CB?$DN?5?$CI?$CIvoid?5?$CK?$CJ?5@ 0000000000073f88     BaseMemoryLibRepStr:CompareMemWrapper.obj
 0002:000017b0       ??_C@_0EE@JHMFOHJP@d?3?2edk2?2edk2?2MdePkg?2Library?2Bas@ 0000000000073fb0     BaseMemoryLibRepStr:CompareMemWrapper.obj
 0002:000017f8       ??_C@_0BN@MDMCNBCC@SourceBuffer?5?$CB?$DN?5?$CI?$CIvoid?5?$CK?$CJ?50?$CJ@ 0000000000073ff8     BaseMemoryLibRepStr:CompareMemWrapper.obj
 0002:00001818       ??_C@_0DI@DAGDPLPG@?$CILength?5?9?51?$CJ?5?$DM?$DN?5?$CI0xFFFFFFFFFFFF@ 0000000000074018     BaseMemoryLibRepStr:SetMemWrapper.obj
 0002:00001850       ??_C@_0EA@JBMLOGBO@d?3?2edk2?2edk2?2MdePkg?2Library?2Bas@ 0000000000074050     BaseMemoryLibRepStr:SetMemWrapper.obj
 0002:00001890       ??_C@_0BH@MAAHKCPC@String?5?$CB?$DN?5?$CI?$CIvoid?5?$CK?$CJ?50?$CJ@ 0000000000074090     BaseLib:String.obj
 0002:000018a8       ??_C@_0CN@LHBFELAO@d?3?2edk2?2edk2?2MdePkg?2Library?2Bas@ 00000000000740a8     BaseLib:String.obj
 0002:000018d8       ??_C@_0CC@GFNLNIOC@?$CI?$CIUINTN?$CJString?5?$CG?50x00000001?$CJ?5?$DN?$DN@ 00000000000740d8     BaseLib:String.obj
 0002:00001900       ??_C@_0DK@EOJCOAME@Length?5?$DM?5_gPcd_FixedAtBuild_Pcd@ 0000000000074100     BaseLib:String.obj
 0002:00001940       ??_C@_0BL@JAAMOCAJ@StrSize?5?$CIFirstString?$CJ?5?$CB?$DN?50@ 0000000000074140     BaseLib:String.obj
 0002:00001960       ??_C@_0BM@DALBOILC@StrSize?5?$CISecondString?$CJ?5?$CB?$DN?50@ 0000000000074160     BaseLib:String.obj
 0002:00001980       ??_C@_0DL@LFIMEMJP@Length?5?$DM?$DN?5_gPcd_FixedAtBuild_Pc@ 0000000000074180     BaseLib:String.obj
 0002:000019c0       ??_C@_0DI@MDIKFADO@Length?5?$DM?5_gPcd_FixedAtBuild_Pcd@ 00000000000741c0     BaseLib:String.obj
 0002:000019f8       ??_C@_0BL@IKFBNFIL@AsciiStrSize?5?$CIFirstString?$CJ@ 00000000000741f8     BaseLib:String.obj
 0002:00001a18       ??_C@_0BM@EDNOKLLE@AsciiStrSize?5?$CISecondString?$CJ@ 0000000000074218     BaseLib:String.obj
 0002:00001a38       ??_C@_0DJ@JJHGIFMP@Length?5?$DM?$DN?5_gPcd_FixedAtBuild_Pc@ 0000000000074238     BaseLib:String.obj
 0002:00001a78       ??_C@_0DB@PKFMPMPC@d?3?2edk2?2edk2?2MdePkg?2Library?2Bas@ 0000000000074278     BaseLib:SafeString.obj
 0002:00001ab0       ??_C@_0CH@LALFPBMC@?$CI?$CIUINTN?$CJDestination?5?$CG?50x0000000@ 00000000000742b0     BaseLib:SafeString.obj
 0002:00001ad8       ??_C@_0CC@HEBCMBPF@?$CI?$CIUINTN?$CJSource?5?$CG?50x00000001?$CJ?5?$DN?$DN@ 00000000000742d8     BaseLib:SafeString.obj
 0002:00001b00       ??_C@_0BO@ECNIOIHG@?$CIDestination?5?$CB?$DN?5?$CI?$CIvoid?5?$CK?$CJ?50?$CJ?$CJ@ 0000000000074300     BaseLib:SafeString.obj
 0002:00001b20       ??_C@_07KBGDFDAM@StrCpyS@  0000000000074320     BaseLib:SafeString.obj
 0002:00001b30       ??_C@_0EA@PDPDJJNN@?$CFa?$CI?$CFd?$CJ?5?$CFa?3?5SAFE_STRING_CONSTRAI@ 0000000000074330     BaseLib:SafeString.obj
 0002:00001b70       ??_C@_0BJ@EAEEJIP@?$CISource?5?$CB?$DN?5?$CI?$CIvoid?5?$CK?$CJ?50?$CJ?$CJ@ 0000000000074370     BaseLib:SafeString.obj
 0002:00001b90       ??_C@_0EA@BBALOHPI@?$CIDestMax?5?$DM?$DN?5?$CI_gPcd_FixedAtBuild@ 0000000000074390     BaseLib:SafeString.obj
 0002:00001bd0       ??_C@_0P@PMIMLIHM@?$CIDestMax?5?$CB?$DN?50?$CJ@ 00000000000743d0     BaseLib:SafeString.obj
 0002:00001be0       ??_C@_0BG@EEGIIOKH@?$CIDestMax?5?$DO?5SourceLen?$CJ@ 00000000000743e0     BaseLib:SafeString.obj
 0002:00001c00       ??_C@_0FH@PPBLBDBJ@InternalSafeStringNoStrOverlap?5@ 0000000000074400     BaseLib:SafeString.obj
 0002:00001c58       ??_C@_0P@BHOOOJPD@?$CICopyLen?5?$CB?$DN?50?$CJ@ 0000000000074458     BaseLib:SafeString.obj
 0002:00001c68       ??_C@_0BG@BPGICNPK@?$CICopyLen?5?$DO?5SourceLen?$CJ@ 0000000000074468     BaseLib:SafeString.obj
 0002:00001c80       ??_C@_0BJ@MBBOBCLN@?$CIString?5?$CB?$DN?5?$CI?$CIvoid?5?$CK?$CJ?50?$CJ?$CJ@ 0000000000074480     BaseLib:SafeString.obj
 0002:00001ca0       ??_C@_0BH@JPMEDPAI@?$CIData?5?$CB?$DN?5?$CI?$CIvoid?5?$CK?$CJ?50?$CJ?$CJ@ 00000000000744a0     BaseLib:SafeString.obj
 0002:00001cb8       ??_C@_0BJ@CNKJJNE@?$CIBuffer?5?$CB?$DN?5?$CI?$CIvoid?5?$CK?$CJ?50?$CJ?$CJ@ 00000000000744b8     BaseLib:SafeString.obj
 0002:00001cd8       ??_C@_0N@OMPODJLB@AsciiStrCpyS@ 00000000000744d8     BaseLib:SafeString.obj
 0002:00001cf0       ??_C@_0FL@CDANCHFO@InternalSafeStringNoAsciiStrOve@ 00000000000744f0     BaseLib:SafeString.obj
 0002:00001d50       ??_C@_0O@DIHNCLLG@AsciiStrnCpyS@ 0000000000074550     BaseLib:SafeString.obj
 0002:00001d60       ??_C@_0DN@DLAADCJE@?$CILength?5?$DM?$DN?5?$CI_gPcd_FixedAtBuild_@ 0000000000074560     BaseLib:SafeString.obj
 0002:00001da0       ??_C@_0N@MIDJKBI@AsciiStrCatS@ 00000000000745a0     BaseLib:SafeString.obj
 0002:00001db0       ??_C@_0BI@GIIHIIN@AsciiStrDecimalToUintnS@ 00000000000745b0     BaseLib:SafeString.obj
 0002:00001dd0       ??_C@_0ID@JMCCGBLD@?$CIAsciiStrnLenS?5?$CIString?0?5?$CI_gPcd_@ 00000000000745d0     BaseLib:SafeString.obj
 0002:00001e58       ??_C@_0DA@BDDONMJM@d?3?2edk2?2edk2?2MdePkg?2Library?2Bas@ 0000000000074658     BaseLib:Unaligned.obj
 0002:00001e88       ??_C@_0N@KGHEHMDL@Divisor?5?$CB?$DN?50@ 0000000000074688     BaseLib:DivU64x32.obj
 0002:00001e98       ??_C@_0BH@LKMBFCBF@Format?5?$CB?$DN?5?$CI?$CIvoid?5?$CK?$CJ?50?$CJ@ 0000000000074698     BaseDebugLibSerialPort:DebugLib.obj
 0002:00001eb0       ??_C@_0DO@CKBIDOOL@d?3?2edk2?2edk2?2MdePkg?2Library?2Bas@ 00000000000746b0     BaseDebugLibSerialPort:DebugLib.obj
 0002:00001ef0       ??_C@_0BI@NOCKJDBJ@ASSERT?5?$FL?$CFa?$FN?5?$CFa?$CI?$CFd?$CJ?3?5?$CFa?6@ 00000000000746f0     BaseDebugLibSerialPort:DebugLib.obj
 0002:00001f08       ??_C@_0BN@COECPDCC@gImageHandle?5?$CB?$DN?5?$CI?$CIvoid?5?$CK?$CJ?50?$CJ@ 0000000000074708     UefiBootServicesTableLib:UefiBootServicesTableLib.obj
 0002:00001f30       ??_C@_0FA@FOIHGFBE@d?3?2edk2?2edk2?2MdePkg?2Library?2Uef@ 0000000000074730     UefiBootServicesTableLib:UefiBootServicesTableLib.obj
 0002:00001f80       ??_C@_0BE@DGNHAHIL@gST?5?$CB?$DN?5?$CI?$CIvoid?5?$CK?$CJ?50?$CJ@ 0000000000074780     UefiBootServicesTableLib:UefiBootServicesTableLib.obj
 0002:00001f98       ??_C@_0BE@BDFJLGLN@gBS?5?$CB?$DN?5?$CI?$CIvoid?5?$CK?$CJ?50?$CJ@ 0000000000074798     UefiBootServicesTableLib:UefiBootServicesTableLib.obj
 0002:00001fb0       ??_C@_0BI@HAGPDMHJ@AcpiTimerLibConstructor@ 00000000000747b0     DxeAcpiTimerLib:DxeAcpiTimerLib.obj
 0002:00001fc8       ??_C@_0CL@DGCOIACG@?$CFa?3?5Unknown?5Host?5Bridge?5Device?5@ 00000000000747c8     DxeAcpiTimerLib:DxeAcpiTimerLib.obj
 0002:00001ff8       ??_C@_0DM@NIEBGAOD@d?3?2edk2?2edk2?2OvmfPkg?2Library?2Ac@ 00000000000747f8     DxeAcpiTimerLib:DxeAcpiTimerLib.obj
 0002:00002040       ??_C@_0EK@GCCICMAJ@d?3?2edk2?2edk2?2MdePkg?2Library?2Uef@ 0000000000074840     UefiMemoryAllocationLib:MemoryAllocationLib.obj
 0002:00002090       ??_C@_0DO@GEEICOOO@AllocationSize?5?$DM?$DN?5?$CI0xFFFFFFFFFF@ 0000000000074890     UefiMemoryAllocationLib:MemoryAllocationLib.obj
 0002:000020d0       ??_C@_0BE@OBDFIHND@gRT?5?$CB?$DN?5?$CI?$CIvoid?5?$CK?$CJ?50?$CJ@ 00000000000748d0     UefiRuntimeServicesTableLib:UefiRuntimeServicesTableLib.obj
 0002:000020f0       ??_C@_0FG@JGJCMPKB@d?3?2edk2?2edk2?2MdePkg?2Library?2Uef@ 00000000000748f0     UefiRuntimeServicesTableLib:UefiRuntimeServicesTableLib.obj
 0002:00002150       ??_C@_0FE@ELFDCAAP@d?3?2edk2?2edk2?2MdePkg?2Library?2Uef@ 0000000000074950     UefiDevicePathLibDevicePathProtocol:UefiDevicePathLib.obj
 0002:000021a8       ??_C@_0DC@CNNBPJA@mDevicePathLibDevicePathUtiliti@ 00000000000749a8     UefiDevicePathLibDevicePathProtocol:UefiDevicePathLib.obj
 0002:000021e0       ??_C@_0BL@JFODOCGB@DevicePath?5?$CB?$DN?5?$CI?$CIvoid?5?$CK?$CJ?50?$CJ@ 00000000000749e0     UefiDevicePathLibDevicePathProtocol:UefiDevicePathLib.obj
 0002:00002200       ??_C@_0BF@CBLMFKOC@Node?5?$CB?$DN?5?$CI?$CIvoid?5?$CK?$CJ?50?$CJ@ 0000000000074a00     UefiDevicePathLibDevicePathProtocol:UefiDevicePathLib.obj
 0002:00002218       ??_C@_0BK@PPOBBAMB@TableGuid?5?$CB?$DN?5?$CI?$CIvoid?5?$CK?$CJ?50?$CJ@ 0000000000074a18     UefiLib:UefiLib.obj
 0002:00002238       ??_C@_0CO@NOFBMBBJ@d?3?2edk2?2edk2?2MdePkg?2Library?2Uef@ 0000000000074a38     UefiLib:UefiLib.obj
 0002:00002268       ??_C@_0BG@JDKEGFNB@Table?5?$CB?$DN?5?$CI?$CIvoid?5?$CK?$CJ?50?$CJ@ 0000000000074a68     UefiLib:UefiLib.obj
 0002:00002280       ??_C@_0BF@JGGLMCFN@Lock?5?$CB?$DN?5?$CI?$CIvoid?5?$CK?$CJ?50?$CJ@ 0000000000074a80     UefiLib:UefiLib.obj
 0002:00002298       ??_C@_0BO@IJOPPPFL@Lock?9?$DOLock?5?$DN?$DN?5EfiLockReleased@ 0000000000074a98     UefiLib:UefiLib.obj
 0002:000022b8       ??_C@_0BO@FHNOFLFJ@Lock?9?$DOLock?5?$DN?$DN?5EfiLockAcquired@ 0000000000074ab8     UefiLib:UefiLib.obj
 0002:000022d8       ??_C@_0DD@DIGAFBOF@d?3?2edk2?2edk2?2MdePkg?2Library?2Uef@ 0000000000074ad8     UefiLib:UefiNotTiano.obj
 0002:00002310       ??_C@_0CB@LNNMJOKK@ReadyToBootEvent?5?$CB?$DN?5?$CI?$CIvoid?5?$CK?$CJ?50@ 0000000000074b10     UefiLib:UefiNotTiano.obj
 0002:00002338       ??_C@_0CH@LOBIJKLE@EFI1?41?5can?8t?5support?5ReadyToBoo@ 0000000000074b38     UefiLib:UefiNotTiano.obj
 0002:00002360       ??_C@_0EL@NJDEPFLB@d?3?2edk2?2edk2?2CryptoPkg?2Library?2@ 0000000000074b60     RuntimeCryptLib:RuntimeMemAllocation.obj
 0002:000023b0       ??_C@_0BE@LCGJNMJP@ValidateSetVariable@ 0000000000074bb0     VariablePolicyLibRuntimeDxe:VariablePolicyLib.obj
 0002:000023c8       ??_C@_0CC@CAJNPIIF@?$CFa?5?9?5Bad?5Size?4?50x?$CFX?5?$DM?$DO?50x?$CFX?90x?$CF@ 0000000000074bc8     VariablePolicyLibRuntimeDxe:VariablePolicyLib.obj
 0002:000023f0       ??_C@_0CI@LNNCMHNF@?$CFa?5?9?5Bad?5Attributes?4?50x?$CFX?5?$DM?$DO?50x@ 0000000000074bf0     VariablePolicyLibRuntimeDxe:VariablePolicyLib.obj
 0002:00002418       ??_C@_0CF@HGPICMLO@?$CFa?5?9?5Variable?5?$CI?$CFg?3?$CFs?$CJ?5returning@ 0000000000074c18     VariablePolicyLibRuntimeDxe:VariablePolicyLib.obj
 0002:00002440       ??_C@_1BC@INDPOKJG@?$AAB?$AAo?$AAo?$AAt?$AA?$CD?$AA?$CD?$AA?$CD?$AA?$CD@ 0000000000074c40     VarCheckLib:VarCheckLib.obj
 0002:00002458       ??_C@_1BG@HHCJINCN@?$AAD?$AAr?$AAi?$AAv?$AAe?$AAr?$AA?$CD?$AA?$CD?$AA?$CD?$AA?$CD@ 0000000000074c58     VarCheckLib:VarCheckLib.obj
 0002:00002470       ??_C@_1BI@HIEBMGJE@?$AAS?$AAy?$AAs?$AAP?$AAr?$AAe?$AAp?$AA?$CD?$AA?$CD?$AA?$CD?$AA?$CD@ 0000000000074c70     VarCheckLib:VarCheckLib.obj
 0002:00002488       ??_C@_1BA@DGFAJJOC@?$AAK?$AAe?$AAy?$AA?$CD?$AA?$CD?$AA?$CD?$AA?$CD@ 0000000000074c88     VarCheckLib:VarCheckLib.obj
 0002:00002498       ??_C@_1CK@MLEAPEAI@?$AAP?$AAl?$AAa?$AAt?$AAf?$AAo?$AAr?$AAm?$AAR?$AAe?$AAc?$AAo?$AAv?$AAe?$AAr@ 0000000000074c98     VarCheckLib:VarCheckLib.obj
 0002:000024c8       ??_C@_1BK@OHIJFJDK@?$AAH?$AAw?$AAE?$AAr?$AAr?$AAR?$AAe?$AAc?$AA?$CD?$AA?$CD?$AA?$CD?$AA?$CD@ 0000000000074cc8     VarCheckLib:VarCheckLib.obj
 0002:000024e8       ??_C@_0CO@GDCJKCHC@mVarCheckLibAddressPointerCount@ 0000000000074ce8     VarCheckLib:VarCheckLib.obj
 0002:00002518       ??_C@_0DM@HHLGIKCE@d?3?2edk2?2edk2?2MdeModulePkg?2Libra@ 0000000000074d18     VarCheckLib:VarCheckLib.obj
 0002:00002558       ??_C@_0DG@BGONGNBL@VarCheckLibRegisterSetVariableC@ 0000000000074d58     VarCheckLib:VarCheckLib.obj
 0002:00002590       ??_C@_0DC@DJLHHOEM@Variable?5Check?5ReadOnly?5variabl@ 0000000000074d90     VarCheckLib:VarCheckLib.obj
 0002:000025c8       ??_C@_0DN@NFPHFBDA@Variable?5Check?5Attributes?$CI0x?$CF08@ 0000000000074dc8     VarCheckLib:VarCheckLib.obj
 0002:00002610       ??_C@_0EC@OPGFOCPA@Variable?5Check?5DataSize?5fail?$CI0x@ 0000000000074e10     VarCheckLib:VarCheckLib.obj
 0002:00002658       ??_C@_0CI@HMFENEED@Variable?5Check?5handler?5fail?5?$CFr?5@ 0000000000074e58     VarCheckLib:VarCheckLib.obj
 0002:00002680       ??_C@_0EI@HFGCNAO@d?3?2edk2?2edk2?2MdePkg?2Library?2Bas@ 0000000000074e80     BaseSynchronizationLib:SynchronizationMsc.obj
 0002:000026c8       ??_C@_0BG@GJANEBOB@Value?5?$CB?$DN?5?$CI?$CIvoid?5?$CK?$CJ?50?$CJ@ 0000000000074ec8     BaseSynchronizationLib:SynchronizationMsc.obj
 0002:000026e0       ??_C@_0DI@MDMFFEFN@d?3?2edk2?2edk2?2MdePkg?2Library?2Uef@ 0000000000074ee0     UefiRuntimeLib:RuntimeLib.obj
 0002:00002720       ??_C@_0EG@LCOBMMJG@d?3?2edk2?2edk2?2MdePkg?2Library?2Dxe@ 0000000000074f20     DxeServicesTableLib:DxeServicesTableLib.obj
 0002:00002768       ??_C@_0BE@IOIFLNKO@gDS?5?$CB?$DN?5?$CI?$CIvoid?5?$CK?$CJ?50?$CJ@ 0000000000074f68     DxeServicesTableLib:DxeServicesTableLib.obj
 0002:00002780       ??_C@_0CP@MFMKIIGP@d?3?2edk2?2edk2?2MdePkg?2Library?2Dxe@ 0000000000074f80     DxeHobLib:HobLib.obj
 0002:000027b0       ??_C@_0BJ@OBFMLLDO@mHobList?5?$CB?$DN?5?$CI?$CIvoid?5?$CK?$CJ?50?$CJ@ 0000000000074fb0     DxeHobLib:HobLib.obj
 0002:000027d0       ??_C@_0BJ@NOLLDKJB@HobStart?5?$CB?$DN?5?$CI?$CIvoid?5?$CK?$CJ?50?$CJ@ 0000000000074fd0     DxeHobLib:HobLib.obj
 0002:000027f0       ??_C@_1CC@OHKABGKH@?$AAS?$AAe?$AAc?$AAu?$AAr?$AAe?$AAB?$AAo?$AAo?$AAt?$AAE?$AAn?$AAa?$AAb?$AAl@ 0000000000074ff0     AuthVariableLib:AuthVariableLib.obj
 0002:00002818       ??_C@_1BG@PJLHNPEI@?$AAC?$AAu?$AAs?$AAt?$AAo?$AAm?$AAM?$AAo?$AAd?$AAe@ 0000000000075018     AuthVariableLib:AuthVariableLib.obj
 0002:00002830       ??_C@_1BK@HNGBAIGL@?$AAV?$AAe?$AAn?$AAd?$AAo?$AAr?$AAK?$AAe?$AAy?$AAs?$AAN?$AAv@ 0000000000075030     AuthVariableLib:AuthVariableLib.obj
 0002:00002850       ??_C@_1O@LGOFIPNJ@?$AAc?$AAe?$AAr?$AAt?$AAd?$AAb@ 0000000000075050     AuthVariableLib:AuthVariableLib.obj
 0002:00002860       ??_C@_1BA@GDKJKJEC@?$AAc?$AAe?$AAr?$AAt?$AAd?$AAb?$AAv@ 0000000000075060     AuthVariableLib:AuthVariableLib.obj
 0002:00002870       ??_C@_0BN@EMGHPMIM@Variable?5?$CFs?5does?5not?5exist?4?6@ 0000000000075070     AuthVariableLib:AuthVariableLib.obj
 0002:00002890       ??_C@_0BF@LHEJMHNB@Variable?5?$CFs?5exists?4?6@ 0000000000075090     AuthVariableLib:AuthVariableLib.obj
 0002:000028a8       ??_C@_1BE@DFEPFMAE@?$AAS?$AAe?$AAt?$AAu?$AAp?$AAM?$AAo?$AAd?$AAe@ 00000000000750a8     AuthVariableLib:AuthVariableLib.obj
 0002:000028c0       ??_C@_1CC@BAFCPNPB@?$AAS?$AAi?$AAg?$AAn?$AAa?$AAt?$AAu?$AAr?$AAe?$AAS?$AAu?$AAp?$AAp?$AAo?$AAr@ 00000000000750c0     AuthVariableLib:AuthVariableLib.obj
 0002:000028e8       ??_C@_0BD@HCIMOJPJ@Variable?5?$CFs?5is?5?$CFx?6@ 00000000000750e8     AuthVariableLib:AuthVariableLib.obj
 0002:00002900       ??_C@_0CB@IAEFFIDF@Clean?5up?5CertDB?5fail?$CB?5Status?5?$CFx@ 0000000000075100     AuthVariableLib:AuthVariableLib.obj
 0002:00002928       ??_C@_1BG@OIEIGDIF@?$AAV?$AAe?$AAn?$AAd?$AAo?$AAr?$AAK?$AAe?$AAy?$AAs@ 0000000000075128     AuthVariableLib:AuthVariableLib.obj
 0002:00002940       ??_C@_0FD@PIFJICMH@VariableName?5?$CB?$DN?5?$CI?$CIvoid?5?$CK?$CJ?50?$CJ?5?$CG?$CG@ 0000000000075140     AuthVariableLib:AuthService.obj
 0002:00002998       ??_C@_0DP@HAACBJKN@d?3?2edk2?2edk2?2SecurityPkg?2Librar@ 0000000000075198     AuthVariableLib:AuthService.obj
 0002:000029d8       ??_C@_0CK@IMOFCGIA@CalculatePrivAuthVarSignChainSH@ 00000000000751d8     AuthVariableLib:AuthService.obj
 0002:00002a08       ??_C@_0DE@MCACLHNK@?$CFa?5Get?5SignerCert?5CommonName?5fa@ 0000000000075208     AuthVariableLib:AuthService.obj
 0002:00002a40       ??_C@_0CO@FPALBEKC@?$CFa?5Get?5Top?9level?5Cert?5tbsCertif@ 0000000000075240     AuthVariableLib:AuthService.obj
 0002:00002a70       ??_C@_0EJ@MGCCJDGH@Recovery?$CB?$CB?5Cert?5for?5Auth?5Variab@ 0000000000075270     AuthVariableLib:AuthService.obj
 0002:00002ac0       mSha256OidValue            00000000000752c0     AuthVariableLib:AuthService.obj
 0002:00002ad0       ??_C@_0BO@DIMHDDCF@TotalSize?5?$DM?$DN?5?$CI?$CIUINT16?$CJ0xFFFF?$CJ@ 00000000000752d0     VariablePolicyHelperLib:VariablePolicyHelperLib.obj
 0002:00002af0       ??_C@_0FE@CFMFILBB@d?3?2edk2?2edk2?2MdeModulePkg?2Libra@ 00000000000752f0     VariablePolicyHelperLib:VariablePolicyHelperLib.obj
 0002:00002b48       ??_C@_1BA@BKONPLFM@?$AAT?$AAi?$AAm?$AAe?$AAo?$AAu?$AAt@ 0000000000075348     VarCheckUefiLib:VarCheckUefiLibNullClass.obj
 0002:00002b58       ??_C@_1M@NFPEGKHA@?$AAC?$AAo?$AAn?$AAI?$AAn@ 0000000000075358     VarCheckUefiLib:VarCheckUefiLibNullClass.obj
 0002:00002b68       ??_C@_1O@MJHLOIFA@?$AAC?$AAo?$AAn?$AAO?$AAu?$AAt@ 0000000000075368     VarCheckUefiLib:VarCheckUefiLibNullClass.obj
 0002:00002b78       ??_C@_1O@JOJMCOJC@?$AAE?$AAr?$AAr?$AAO?$AAu?$AAt@ 0000000000075378     VarCheckUefiLib:VarCheckUefiLibNullClass.obj
 0002:00002b88       ??_C@_1BC@OBFMLJLI@?$AAC?$AAo?$AAn?$AAI?$AAn?$AAD?$AAe?$AAv@ 0000000000075388     VarCheckUefiLib:VarCheckUefiLibNullClass.obj
 0002:00002ba0       ??_C@_1BE@INNAKDAF@?$AAC?$AAo?$AAn?$AAO?$AAu?$AAt?$AAD?$AAe?$AAv@ 00000000000753a0     VarCheckUefiLib:VarCheckUefiLibNullClass.obj
 0002:00002bb8       ??_C@_1BE@JFPOEAHF@?$AAE?$AAr?$AAr?$AAO?$AAu?$AAt?$AAD?$AAe?$AAv@ 00000000000753b8     VarCheckUefiLib:VarCheckUefiLibNullClass.obj
 0002:00002bd0       ??_C@_1BE@CHCFCNKI@?$AAB?$AAo?$AAo?$AAt?$AAO?$AAr?$AAd?$AAe?$AAr@ 00000000000753d0     VarCheckUefiLib:VarCheckUefiLibNullClass.obj
 0002:00002be8       ??_C@_1BC@HGEHGBBD@?$AAB?$AAo?$AAo?$AAt?$AAN?$AAe?$AAx?$AAt@ 00000000000753e8     VarCheckUefiLib:VarCheckUefiLibNullClass.obj
 0002:00002c00       ??_C@_1BI@LBNGELID@?$AAB?$AAo?$AAo?$AAt?$AAC?$AAu?$AAr?$AAr?$AAe?$AAn?$AAt@ 0000000000075400     VarCheckUefiLib:VarCheckUefiLibNullClass.obj
 0002:00002c18       ??_C@_1CE@BKEAGEIL@?$AAB?$AAo?$AAo?$AAt?$AAO?$AAp?$AAt?$AAi?$AAo?$AAn?$AAS?$AAu?$AAp?$AAp?$AAo@ 0000000000075418     VarCheckUefiLib:VarCheckUefiLibNullClass.obj
 0002:00002c40       ??_C@_1BI@PDMCFEDG@?$AAD?$AAr?$AAi?$AAv?$AAe?$AAr?$AAO?$AAr?$AAd?$AAe?$AAr@ 0000000000075440     VarCheckUefiLib:VarCheckUefiLibNullClass.obj
 0002:00002c58       ??_C@_1BK@CHMLNGLH@?$AAS?$AAy?$AAs?$AAP?$AAr?$AAe?$AAp?$AAO?$AAr?$AAd?$AAe?$AAr@ 0000000000075458     VarCheckUefiLib:VarCheckUefiLibNullClass.obj
 0002:00002c78       ??_C@_1CA@BOALBJHG@?$AAH?$AAw?$AAE?$AAr?$AAr?$AAR?$AAe?$AAc?$AAS?$AAu?$AAp?$AAp?$AAo?$AAr?$AAt@ 0000000000075478     VarCheckUefiLib:VarCheckUefiLibNullClass.obj
 0002:00002c98       ??_C@_1BG@DACLAPBO@?$AAK?$AAE?$AAK?$AAD?$AAe?$AAf?$AAa?$AAu?$AAl?$AAt@ 0000000000075498     VarCheckUefiLib:VarCheckUefiLibNullClass.obj
 0002:00002cb0       ??_C@_1BE@BGOOPGMO@?$AAP?$AAK?$AAD?$AAe?$AAf?$AAa?$AAu?$AAl?$AAt@ 00000000000754b0     VarCheckUefiLib:VarCheckUefiLibNullClass.obj
 0002:00002cc8       ??_C@_1BE@HHMEGGE@?$AAd?$AAb?$AAD?$AAe?$AAf?$AAa?$AAu?$AAl?$AAt@ 00000000000754c8     VarCheckUefiLib:VarCheckUefiLibNullClass.obj
 0002:00002ce0       ??_C@_1BG@GPFEKEP@?$AAd?$AAb?$AAx?$AAD?$AAe?$AAf?$AAa?$AAu?$AAl?$AAt@ 00000000000754e0     VarCheckUefiLib:VarCheckUefiLibNullClass.obj
 0002:00002cf8       ??_C@_1BG@BKAMDDEF@?$AAd?$AAb?$AAt?$AAD?$AAe?$AAf?$AAa?$AAu?$AAl?$AAt@ 00000000000754f8     VarCheckUefiLib:VarCheckUefiLibNullClass.obj
 0002:00002d10       ??_C@_1CO@MENFEBKM@?$AAO?$AAs?$AAI?$AAn?$AAd?$AAi?$AAc?$AAa?$AAt?$AAi?$AAo?$AAn?$AAs?$AAS?$AAu@ 0000000000075510     VarCheckUefiLib:VarCheckUefiLibNullClass.obj
 0002:00002d40       ??_C@_1BM@MDLAABPK@?$AAO?$AAs?$AAI?$AAn?$AAd?$AAi?$AAc?$AAa?$AAt?$AAi?$AAo?$AAn?$AAs@ 0000000000075540     VarCheckUefiLib:VarCheckUefiLibNullClass.obj
 0002:00002d60       ??_C@_1BC@IONJEEFP@?$AAH?$AAw?$AAE?$AAr?$AAr?$AAR?$AAe?$AAc@ 0000000000075560     VarCheckUefiLib:VarCheckUefiLibNullClass.obj
 0002:00002d78       ??_C@_0DG@BHHBAHFJ@UEFI?5Variable?5Check?5fail?5?$CFr?5?9?5?$CF@ 0000000000075578     VarCheckUefiLib:VarCheckUefiLibNullClass.obj
 0002:00002db0       ??_C@_0CO@BPBHJICJ@UEFI?5Variable?5Check?5function?5fa@ 00000000000755b0     VarCheckUefiLib:VarCheckUefiLibNullClass.obj
 0002:00002de0       mUefiDefinedGuid           00000000000755e0     VarCheckUefiLib:VarCheckUefiLibNullClass.obj
 0002:00002df8       ??_C@_0DK@HAPDFBOC@d?3?2edk2?2edk2?2MdePkg?2Library?2Bas@ 00000000000755f8     BaseIoLibIntrinsicSev:IoLibMsc.obj
 0002:00002e38       ??_C@_0BA@HCECIDGN@?$CIPort?5?$CG?53?$CJ?5?$DN?$DN?50@ 0000000000075638     BaseIoLibIntrinsicSev:IoLibMsc.obj
 0002:00002e48       ??_C@_0DM@OAJIKNNG@d?3?2edk2?2edk2?2MdePkg?2Library?2Bas@ 0000000000075648     BasePrintLib:PrintLibInternal.obj
 0002:00002e90       ??_C@_0EB@HDGIDCIO@?$CIBufferSize?5?$DM?$DN?5?$CI_gPcd_FixedAtBu@ 0000000000075690     BasePrintLib:PrintLibInternal.obj
 0002:00002ed8       ??_C@_0BJ@PPAKKDJG@?$CIFormat?5?$CB?$DN?5?$CI?$CIvoid?5?$CK?$CJ?50?$CJ?$CJ@ 00000000000756d8     BasePrintLib:PrintLibInternal.obj
 0002:00002f00       ??_C@_0ED@LPDDCECB@?$CIBufferSize?5?$DM?$DN?5?$CI_gPcd_FixedAtBu@ 0000000000075700     BasePrintLib:PrintLibInternal.obj
 0002:00002f50       ??_C@_0IM@BFJJFLGB@?$CIStrnLenS?5?$CI?$CICHAR16?5?$CK?$CJFormat?0?5?$CI_@ 0000000000075750     BasePrintLib:PrintLibInternal.obj
 0002:00002fe0       ??_C@_0ID@PLGJGION@?$CIAsciiStrnLenS?5?$CIFormat?0?5?$CI_gPcd_@ 00000000000757e0     BasePrintLib:PrintLibInternal.obj
 0002:00003068       ??_C@_0O@MLOLIMFM@?$DMnull?5string?$DO@ 0000000000075868     BasePrintLib:PrintLibInternal.obj
 0002:00003078       ??_C@_0M@BJJDNPHK@?$DMnull?5guid?$DO@ 0000000000075878     BasePrintLib:PrintLibInternal.obj
 0002:00003088       ??_C@_0DB@PMLHLBMO@?$CF08x?9?$CF04x?9?$CF04x?9?$CF02x?$CF02x?9?$CF02x?$CF02@ 0000000000075888     BasePrintLib:PrintLibInternal.obj
 0002:000030c0       ??_C@_0M@LHGBCIKM@?$DMnull?5time?$DO@ 00000000000758c0     BasePrintLib:PrintLibInternal.obj
 0002:000030d0       ??_C@_0BK@FCPKCIDD@?$CF02d?1?$CF02d?1?$CF04d?5?5?$CF02d?3?$CF02d@ 00000000000758d0     BasePrintLib:PrintLibInternal.obj
 0002:000030ec       ??_C@_04JIMNDDED@?$CF08X@  00000000000758ec     BasePrintLib:PrintLibInternal.obj
 0002:000030f4       ??_C@_02PCIJFNDE@?$AN?6@   00000000000758f4     BasePrintLib:PrintLibInternal.obj
 0002:000030f8       ??_C@_01LIIJDEN@?$AN@      00000000000758f8     BasePrintLib:PrintLibInternal.obj
 0002:00003100       mWarningString             0000000000075900     BasePrintLib:PrintLibInternal.obj
 0002:000031a0       mErrorString               00000000000759a0     BasePrintLib:PrintLibInternal.obj
 0002:00003460       mHexStr                    0000000000075c60     BasePrintLib:PrintLibInternal.obj
 0002:00003470       ??_C@_0BO@BAKALPJK@?$CI?$CIAddress?$CJ?5?$CG?5?$HO0xfffffff?$CJ?5?$DN?$DN?50@ 0000000000075c70     BasePciExpressLib:PciExpressLib.obj
 0002:00003490       ??_C@_0DO@IIAFMEOI@d?3?2edk2?2edk2?2MdePkg?2Library?2Bas@ 0000000000075c90     BasePciExpressLib:PciExpressLib.obj
 0002:000034d0       ??_C@_0DG@KOAEBPEO@d?3?2edk2?2edk2?2MdePkg?2Library?2Bas@ 0000000000075cd0     BasePciCf8Lib:PciCf8Lib.obj
 0002:00003508       ??_C@_0CG@EDKLCMBO@?$CI?$CIAddress?$CJ?5?$CG?5?$CI?$HO0xffff0ff?5?$HM?5?$CI3?$CJ?$CJ@ 0000000000075d08     BasePciCf8Lib:PciCf8Lib.obj
 0002:0000352e       ??_C@_00CNPNBAHC@@         0000000000075d2e     RuntimeCryptLib:CryptX509.obj
 0002:00003530       ??_C@_08FBKDDLCN@RSA?9SHA1@ 0000000000075d30     RuntimeCryptLib:CryptPkcs7VerifyCommon.obj
 0002:00003540       ??_C@_0L@EMMEGDKK@RSA?9SHA1?92@ 0000000000075d40     RuntimeCryptLib:CryptPkcs7VerifyCommon.obj
 0002:00003550       ??_C@_0DJ@FHIMIJAH@d?3?2edk2?2edk2?2MdePkg?2Library?2Bas@ 0000000000075d50     BaseLib:DivU64x32Remainder.obj
 0002:00003590       ??_C@_0DH@FEKOHHMP@d?3?2edk2?2edk2?2MdePkg?2Library?2Bas@ 0000000000075d90     BaseIoLibIntrinsicSev:IoLib.obj
 0002:000035c8       ??_C@_0BD@OMMAJMCK@?$CIAddress?5?$CG?53?$CJ?5?$DN?$DN?50@ 0000000000075dc8     BaseIoLibIntrinsicSev:IoLib.obj
 0002:000036e0       ??_C@_07DLHCIBDH@default@  0000000000075ee0     OpensslLib:x509_vfy.obj
 0002:00003700       ??_C@_07CPCPJPKL@version@  0000000000075f00     OpensslLib:x_x509.obj
 0002:00003708       ??_C@_0N@OMOHFKCJ@serialNumber@ 0000000000075f08     OpensslLib:x_x509.obj
 0002:00003718       ??_C@_09CMIIOJHF@signature@ 0000000000075f18     OpensslLib:x_x509.obj
 0002:00003724       ??_C@_06EAINIONG@issuer@   0000000000075f24     OpensslLib:x_x509.obj
 0002:00003730       ??_C@_08GCHKOCBP@validity@ 0000000000075f30     OpensslLib:x_x509.obj
 0002:00003740       ??_C@_07JNNGEGGO@subject@  0000000000075f40     OpensslLib:x_x509.obj
 0002:00003748       ??_C@_03ICHNJLJF@key@      0000000000075f48     OpensslLib:x_x509.obj
 0002:00003750       ??_C@_09KIIAMAEE@issuerUID@ 0000000000075f50     OpensslLib:x_x509.obj
 0002:00003760       ??_C@_0L@JMFHLKAL@subjectUID@ 0000000000075f60     OpensslLib:x_x509.obj
 0002:00003770       ??_C@_0L@ICCCPLKC@extensions@ 0000000000075f70     OpensslLib:x_x509.obj
 0002:00003780       ??_C@_09LCJGKABB@X509_CINF@ 0000000000075f80     OpensslLib:x_x509.obj
 0002:00003790       ??_C@_09NKDPGBBA@cert_info@ 0000000000075f90     OpensslLib:x_x509.obj
 0002:000037a0       ??_C@_07OBHFIHGJ@sig_alg@  0000000000075fa0     OpensslLib:x_x509.obj
 0002:000037a8       ??_C@_04NMKEOMFB@X509@     0000000000075fa8     OpensslLib:x_x509.obj
 0002:00003950       X509_it                    0000000000076150     OpensslLib:x_x509.obj
 0002:000039d0       X509_CINF_it               00000000000761d0     OpensslLib:x_x509.obj
 0002:00003c28       X509_NAME_it               0000000000076428     OpensslLib:x_name.obj
 0002:00003c58       ??_C@_06IEOJBDIK@object@   0000000000076458     OpensslLib:x_name.obj
 0002:00003c60       ??_C@_05MFEJDJP@value@     0000000000076460     OpensslLib:x_name.obj
 0002:00003c68       ??_C@_0BA@KEPIIMOE@X509_NAME_ENTRY@ 0000000000076468     OpensslLib:x_name.obj
 0002:00003c78       ??_C@_04IEOKPFHO@RDNS@     0000000000076478     OpensslLib:x_name.obj
 0002:00003c80       ??_C@_0BC@GJMCELDI@X509_NAME_ENTRIES@ 0000000000076480     OpensslLib:x_name.obj
 0002:00003c94       ??_C@_04FABLJDN@Name@      0000000000076494     OpensslLib:x_name.obj
 0002:00003ca0       ??_C@_0BD@FDNDONGH@X509_NAME_INTERNAL@ 00000000000764a0     OpensslLib:x_name.obj
 0002:00003cb8       ??_C@_09KGNJKBNF@X509_NAME@ 00000000000764b8     OpensslLib:x_name.obj
 0002:00003cc4       ??_C@_02KEGNLNML@?0?5@     00000000000764c4     OpensslLib:x_name.obj
 0002:00003d30       X509_NAME_ENTRY_it         0000000000076530     OpensslLib:x_name.obj
 0002:00003e18       ??_C@_05DFCJAACA@name?$DN@ 0000000000076618     OpensslLib:x509name.obj
 0002:00003e68       ??_C@_01KICIPPFI@?2@       0000000000076668     OpensslLib:a_strex.obj
 0002:00003e6c       ??_C@_02HDBGODGB@?2?2@     000000000007666c     OpensslLib:a_strex.obj
 0002:00003e70       ??_C@_01IPJKGB@?$CD@       0000000000076670     OpensslLib:a_strex.obj
 0002:00003e74       ??_C@_01JLIPDDHJ@?3@       0000000000076674     OpensslLib:a_strex.obj
 0002:00003e78       ??_C@_01BJJEKLCA@?$CC@     0000000000076678     OpensslLib:a_strex.obj
 0002:00003e7c       ??_C@_01CLKCMJKC@?5@       000000000007667c     OpensslLib:a_strex.obj
 0002:00003e80       ??_C@_01EEMJAFIK@?6@       0000000000076680     OpensslLib:a_strex.obj
 0002:00003e84       ??_C@_03NPBFACHO@?5?$CL?5@ 0000000000076684     OpensslLib:a_strex.obj
 0002:00003e88       ??_C@_01IHBHIGKO@?0@       0000000000076688     OpensslLib:a_strex.obj
 0002:00003e8c       ??_C@_01MIFGBAGJ@?$CL@     000000000007668c     OpensslLib:a_strex.obj
 0002:00003e90       ??_C@_02LNAEAIDO@?$DL?5@   0000000000076690     OpensslLib:a_strex.obj
 0002:00003e94       ??_C@_03MHLONNLM@?5?$DN?5@ 0000000000076694     OpensslLib:a_strex.obj
 0002:00003e98       ??_C@_01NEMOKFLO@?$DN@     0000000000076698     OpensslLib:a_strex.obj
 0002:00003fc0       ??_C@_0BB@JGGOGLEG@0123456789ABCDEF@ 00000000000767c0     OpensslLib:f_int.obj
 0002:00003fd4       ??_C@_01KDCPPGHE@r@        00000000000767d4     OpensslLib:rsa_asn1.obj
 0002:00003fd8       ??_C@_01LPLHEDKD@d@        00000000000767d8     OpensslLib:rsa_asn1.obj
 0002:00003fdc       ??_C@_01PFHFFBPC@t@        00000000000767dc     OpensslLib:rsa_asn1.obj
 0002:00003fe0       ??_C@_0P@LIGOHEON@RSA_PRIME_INFO@ 00000000000767e0     OpensslLib:rsa_asn1.obj
 0002:00003ff0       ??_C@_01EFFIKLCJ@n@        00000000000767f0     OpensslLib:rsa_asn1.obj
 0002:00003ff4       ??_C@_01KGKMHCOC@e@        00000000000767f4     OpensslLib:rsa_asn1.obj
 0002:00003ff8       ??_C@_01JBBJJEPG@p@        00000000000767f8     OpensslLib:rsa_asn1.obj
 0002:00003ffc       ??_C@_01IIACKFLH@q@        00000000000767fc     OpensslLib:rsa_asn1.obj
 0002:00004000       ??_C@_04OIPJJFD@dmp1@      0000000000076800     OpensslLib:rsa_asn1.obj
 0002:00004008       ??_C@_04PENPDGE@dmq1@      0000000000076808     OpensslLib:rsa_asn1.obj
 0002:00004010       ??_C@_04BBEMPLKC@iqmp@     0000000000076810     OpensslLib:rsa_asn1.obj
 0002:00004018       ??_C@_0M@JLELLENH@prime_infos@ 0000000000076818     OpensslLib:rsa_asn1.obj
 0002:00004028       ??_C@_0O@PHAOOKLC@RSAPrivateKey@ 0000000000076828     OpensslLib:rsa_asn1.obj
 0002:00004038       ??_C@_0N@BFBLLDFG@RSAPublicKey@ 0000000000076838     OpensslLib:rsa_asn1.obj
 0002:00004048       ??_C@_0O@DHJLLKEK@hashAlgorithm@ 0000000000076848     OpensslLib:rsa_asn1.obj
 0002:00004058       ??_C@_0BB@KKPGFJED@maskGenAlgorithm@ 0000000000076858     OpensslLib:rsa_asn1.obj
 0002:00004070       ??_C@_0L@PKGNFOCE@saltLength@ 0000000000076870     OpensslLib:rsa_asn1.obj
 0002:00004080       ??_C@_0N@KGDDKMLA@trailerField@ 0000000000076880     OpensslLib:rsa_asn1.obj
 0002:00004090       ??_C@_0P@PJJHDFJB@RSA_PSS_PARAMS@ 0000000000076890     OpensslLib:rsa_asn1.obj
 0002:00004278       RSA_PRIME_INFO_it          0000000000076a78     OpensslLib:rsa_asn1.obj
 0002:00004350       RSA_PSS_PARAMS_it          0000000000076b50     OpensslLib:rsa_asn1.obj
 0002:00004380       RSAPublicKey_it            0000000000076b80     OpensslLib:rsa_asn1.obj
 0002:00004410       RSAPrivateKey_it           0000000000076c10     OpensslLib:rsa_asn1.obj
 0002:00004440       ??_C@_0O@DIEIKEFB@memory?5buffer@ 0000000000076c40     OpensslLib:bss_mem.obj
 0002:000044b0       ??_C@_0L@GGDBHMO@smime_sign@ 0000000000076cb0     OpensslLib:pk7_smime.obj
 0002:000044c0       ??_C@_0O@HFNJECFC@Verify?5error?3@ 0000000000076cc0     OpensslLib:pk7_smime.obj
 0002:000044d0       ??_C@_07JIJPKMF@d?4other@  0000000000076cd0     OpensslLib:pk7_asn1.obj
 0002:000044d8       ??_C@_06OAPKPHLA@d?4data@  0000000000076cd8     OpensslLib:pk7_asn1.obj
 0002:000044e0       ??_C@_06GOHGJFCL@d?4sign@  0000000000076ce0     OpensslLib:pk7_asn1.obj
 0002:000044e8       ??_C@_0M@CLKMIMCI@d?4enveloped@ 0000000000076ce8     OpensslLib:pk7_asn1.obj
 0002:000044f8       ??_C@_0BH@FHPJHCLF@d?4signed_and_enveloped@ 0000000000076cf8     OpensslLib:pk7_asn1.obj
 0002:00004510       ??_C@_08JOIJLLGO@d?4digest@ 0000000000076d10     OpensslLib:pk7_asn1.obj
 0002:00004520       ??_C@_0M@IDEHBFAL@d?4encrypted@ 0000000000076d20     OpensslLib:pk7_asn1.obj
 0002:0000452c       ??_C@_04GPMDFGEJ@type@     0000000000076d2c     OpensslLib:pk7_asn1.obj
 0002:00004534       ??_C@_05BKMMPIPN@PKCS7@    0000000000076d34     OpensslLib:pk7_asn1.obj
 0002:00004540       ??_C@_07MPDKKGPO@md_algs@  0000000000076d40     OpensslLib:pk7_asn1.obj
 0002:00004548       ??_C@_08ODCIAOPM@contents@ 0000000000076d48     OpensslLib:pk7_asn1.obj
 0002:00004554       ??_C@_04PHJBACIC@cert@     0000000000076d54     OpensslLib:pk7_asn1.obj
 0002:0000455c       ??_C@_03GJBFOAJL@crl@      0000000000076d5c     OpensslLib:pk7_asn1.obj
 0002:00004560       ??_C@_0M@KEDNAHBP@signer_info@ 0000000000076d60     OpensslLib:pk7_asn1.obj
 0002:00004570       ??_C@_0N@CKBJFFNF@PKCS7_SIGNED@ 0000000000076d70     OpensslLib:pk7_asn1.obj
 0002:00004580       ??_C@_0BC@PMGLGNPO@issuer_and_serial@ 0000000000076d80     OpensslLib:pk7_asn1.obj
 0002:00004598       ??_C@_0L@OGBFEEJI@digest_alg@ 0000000000076d98     OpensslLib:pk7_asn1.obj
 0002:000045a8       ??_C@_09PLABOLFJ@auth_attr@ 0000000000076da8     OpensslLib:pk7_asn1.obj
 0002:000045b8       ??_C@_0P@KLFHBHJD@digest_enc_alg@ 0000000000076db8     OpensslLib:pk7_asn1.obj
 0002:000045c8       ??_C@_0L@PJDBOMFC@enc_digest@ 0000000000076dc8     OpensslLib:pk7_asn1.obj
 0002:000045d8       ??_C@_0M@NNBFAOJK@unauth_attr@ 0000000000076dd8     OpensslLib:pk7_asn1.obj
 0002:000045e8       ??_C@_0BC@BFFCPPDG@PKCS7_SIGNER_INFO@ 0000000000076de8     OpensslLib:pk7_asn1.obj
 0002:000045fc       ??_C@_06KCELPKEE@serial@   0000000000076dfc     OpensslLib:pk7_asn1.obj
 0002:00004608       ??_C@_0BI@POAIONGK@PKCS7_ISSUER_AND_SERIAL@ 0000000000076e08     OpensslLib:pk7_asn1.obj
 0002:00004620       ??_C@_0O@HGJALPPJ@recipientinfo@ 0000000000076e20     OpensslLib:pk7_asn1.obj
 0002:00004630       ??_C@_08ENNDKKOI@enc_data@ 0000000000076e30     OpensslLib:pk7_asn1.obj
 0002:00004640       ??_C@_0P@KCJMJLOD@PKCS7_ENVELOPE@ 0000000000076e40     OpensslLib:pk7_asn1.obj
 0002:00004650       ??_C@_0O@ODFHHMFC@key_enc_algor@ 0000000000076e50     OpensslLib:pk7_asn1.obj
 0002:00004660       ??_C@_07LBLKCHGJ@enc_key@  0000000000076e60     OpensslLib:pk7_asn1.obj
 0002:00004668       ??_C@_0BB@MGPEFENK@PKCS7_RECIP_INFO@ 0000000000076e68     OpensslLib:pk7_asn1.obj
 0002:00004680       ??_C@_0N@IEAAACJL@content_type@ 0000000000076e80     OpensslLib:pk7_asn1.obj
 0002:00004690       ??_C@_09JPNFBOJG@algorithm@ 0000000000076e90     OpensslLib:pk7_asn1.obj
 0002:000046a0       ??_C@_0BC@INKEDPEG@PKCS7_ENC_CONTENT@ 0000000000076ea0     OpensslLib:pk7_asn1.obj
 0002:000046b8       ??_C@_0BE@LMHBPFDD@PKCS7_SIGN_ENVELOPE@ 0000000000076eb8     OpensslLib:pk7_asn1.obj
 0002:000046d0       ??_C@_0O@GIFGHKGC@PKCS7_ENCRYPT@ 0000000000076ed0     OpensslLib:pk7_asn1.obj
 0002:000046e0       ??_C@_02EBCANADN@md@       0000000000076ee0     OpensslLib:pk7_asn1.obj
 0002:000046e4       ??_C@_06IJPNAHC@digest@    0000000000076ee4     OpensslLib:pk7_asn1.obj
 0002:000046f0       ??_C@_0N@NAILNAH@PKCS7_DIGEST@ 0000000000076ef0     OpensslLib:pk7_asn1.obj
 0002:00004700       ??_C@_0BB@ODHHPICH@PKCS7_ATTRIBUTES@ 0000000000076f00     OpensslLib:pk7_asn1.obj
 0002:00004718       ??_C@_0BA@IJMFEGLH@PKCS7_ATTR_SIGN@ 0000000000076f18     OpensslLib:pk7_asn1.obj
 0002:00004728       ??_C@_0BC@DLHIINOH@PKCS7_ATTR_VERIFY@ 0000000000076f28     OpensslLib:pk7_asn1.obj
 0002:000047a0       PKCS7_ENCRYPT_it           0000000000076fa0     OpensslLib:pk7_asn1.obj
 0002:000047d0       PKCS7_RECIP_INFO_it        0000000000076fd0     OpensslLib:pk7_asn1.obj
 0002:00004800       PKCS7_SIGNED_it            0000000000077000     OpensslLib:pk7_asn1.obj
 0002:00004970       PKCS7_DIGEST_it            0000000000077170     OpensslLib:pk7_asn1.obj
 0002:000049a0       PKCS7_ENC_CONTENT_it       00000000000771a0     OpensslLib:pk7_asn1.obj
 0002:00004a30       PKCS7_it                   0000000000077230     OpensslLib:pk7_asn1.obj
 0002:00004a60       PKCS7_SIGNER_INFO_it       0000000000077260     OpensslLib:pk7_asn1.obj
 0002:00004b80       PKCS7_ATTR_VERIFY_it       0000000000077380     OpensslLib:pk7_asn1.obj
 0002:00004bd8       PKCS7_ISSUER_AND_SERIAL_it 00000000000773d8     OpensslLib:pk7_asn1.obj
 0002:00004dd0       PKCS7_SIGN_ENVELOPE_it     00000000000775d0     OpensslLib:pk7_asn1.obj
 0002:00004e28       PKCS7_ATTR_SIGN_it         0000000000077628     OpensslLib:pk7_asn1.obj
 0002:00004fc0       PKCS7_ENVELOPE_it          00000000000777c0     OpensslLib:pk7_asn1.obj
 0002:00005090       ??_C@_05DBLJEJPC@UNDEF@    0000000000077890     OpensslLib:obj_dat.obj
 0002:00005098       ??_C@_09MLGAJAED@undefined@ 0000000000077898     OpensslLib:obj_dat.obj
 0002:000050a4       ??_C@_06GGEMKGKC@rsadsi@   00000000000778a4     OpensslLib:obj_dat.obj
 0002:000050b0       ??_C@_0BI@MPBNCOIB@RSA?5Data?5Security?0?5Inc?4@ 00000000000778b0     OpensslLib:obj_dat.obj
 0002:000050c8       ??_C@_04GCKLMHGD@pkcs@     00000000000778c8     OpensslLib:obj_dat.obj
 0002:000050d0       ??_C@_0BN@EBHJCEC@RSA?5Data?5Security?0?5Inc?4?5PKCS@ 00000000000778d0     OpensslLib:obj_dat.obj
 0002:000050f0       ??_C@_03CNCGNBGO@MD2@      00000000000778f0     OpensslLib:obj_dat.obj
 0002:000050f4       ??_C@_03LFFJDILA@md2@      00000000000778f4     OpensslLib:obj_dat.obj
 0002:000050f8       ??_C@_03GCGHEHKJ@MD5@      00000000000778f8     OpensslLib:obj_dat.obj
 0002:000050fc       ??_C@_03PKBIKOHH@md5@      00000000000778fc     OpensslLib:obj_dat.obj
 0002:00005100       ??_C@_03HGEJCHKE@RC4@      0000000000077900     OpensslLib:obj_dat.obj
 0002:00005104       ??_C@_03OODGMOHK@rc4@      0000000000077904     OpensslLib:obj_dat.obj
 0002:00005108       ??_C@_0O@PCHNMHJE@rsaEncryption@ 0000000000077908     OpensslLib:obj_dat.obj
 0002:00005118       ??_C@_07JBCLOEPG@RSA?9MD2@ 0000000000077918     OpensslLib:obj_dat.obj
 0002:00005120       ??_C@_0BF@ODJKGOJ@md2WithRSAEncryption@ 0000000000077920     OpensslLib:obj_dat.obj
 0002:00005138       ??_C@_07NOGKHCDB@RSA?9MD5@ 0000000000077938     OpensslLib:obj_dat.obj
 0002:00005140       ??_C@_0BF@EEAHCNKC@md5WithRSAEncryption@ 0000000000077940     OpensslLib:obj_dat.obj
 0002:00005158       ??_C@_0M@LMNGCPDB@PBE?9MD2?9DES@ 0000000000077958     OpensslLib:obj_dat.obj
 0002:00005168       ??_C@_0BF@EEAPBBEF@pbeWithMD2AndDES?9CBC@ 0000000000077968     OpensslLib:obj_dat.obj
 0002:00005180       ??_C@_0M@KBNDBPIJ@PBE?9MD5?9DES@ 0000000000077980     OpensslLib:obj_dat.obj
 0002:00005190       ??_C@_0BF@DAJHPIMK@pbeWithMD5AndDES?9CBC@ 0000000000077990     OpensslLib:obj_dat.obj
 0002:000051a8       ??_C@_04NGGFHBI@X500@      00000000000779a8     OpensslLib:obj_dat.obj
 0002:000051b0       ??_C@_0BL@NJHHPHOL@directory?5services?5?$CIX?4500?$CJ@ 00000000000779b0     OpensslLib:obj_dat.obj
 0002:000051cc       ??_C@_02BMJIHHPP@CN@       00000000000779cc     OpensslLib:obj_dat.obj
 0002:000051d0       ??_C@_0L@OILMNBLH@commonName@ 00000000000779d0     OpensslLib:obj_dat.obj
 0002:000051dc       ??_C@_01GFHCPBMG@C@        00000000000779dc     OpensslLib:obj_dat.obj
 0002:000051e0       ??_C@_0M@NPBHECMC@countryName@ 00000000000779e0     OpensslLib:obj_dat.obj
 0002:000051ec       ??_C@_01OCOKONAJ@L@        00000000000779ec     OpensslLib:obj_dat.obj
 0002:000051f0       ??_C@_0N@LEDCGGBI@localityName@ 00000000000779f0     OpensslLib:obj_dat.obj
 0002:00005200       ??_C@_02LAJDCOFE@ST@       0000000000077a00     OpensslLib:obj_dat.obj
 0002:00005208       ??_C@_0BE@NKDCJFMD@stateOrProvinceName@ 0000000000077a08     OpensslLib:obj_dat.obj
 0002:0000521c       ??_C@_01MJMHLOMK@O@        0000000000077a1c     OpensslLib:obj_dat.obj
 0002:00005220       ??_C@_0BB@GBCNPHLL@organizationName@ 0000000000077a20     OpensslLib:obj_dat.obj
 0002:00005234       ??_C@_02LMLEEFAB@OU@       0000000000077a34     OpensslLib:obj_dat.obj
 0002:00005238       ??_C@_0BH@LAMMAAM@organizationalUnitName@ 0000000000077a38     OpensslLib:obj_dat.obj
 0002:00005250       ??_C@_03DICHAJGH@RSA@      0000000000077a50     OpensslLib:obj_dat.obj
 0002:00005254       ??_C@_03DFNMMEBL@rsa@      0000000000077a54     OpensslLib:obj_dat.obj
 0002:00005258       ??_C@_05EENODLBB@pkcs7@    0000000000077a58     OpensslLib:obj_dat.obj
 0002:00005260       ??_C@_0L@BCKMJOMA@pkcs7?9data@ 0000000000077a60     OpensslLib:obj_dat.obj
 0002:00005270       ??_C@_0BB@PEKKHBEJ@pkcs7?9signedData@ 0000000000077a70     OpensslLib:obj_dat.obj
 0002:00005288       ??_C@_0BE@FAIIHMP@pkcs7?9envelopedData@ 0000000000077a88     OpensslLib:obj_dat.obj
 0002:000052a0       ??_C@_0BN@LMEEMCPG@pkcs7?9signedAndEnvelopedData@ 0000000000077aa0     OpensslLib:obj_dat.obj
 0002:000052c0       ??_C@_0BB@CJNFBHDI@pkcs7?9digestData@ 0000000000077ac0     OpensslLib:obj_dat.obj
 0002:000052d8       ??_C@_0BE@CAMKAFJN@pkcs7?9encryptedData@ 0000000000077ad8     OpensslLib:obj_dat.obj
 0002:000052ec       ??_C@_05CALCPOBF@pkcs3@    0000000000077aec     OpensslLib:obj_dat.obj
 0002:000052f8       ??_C@_0P@HCMIBBEB@dhKeyAgreement@ 0000000000077af8     OpensslLib:obj_dat.obj
 0002:00005308       ??_C@_07IOCLJBKC@DES?9ECB@ 0000000000077b08     OpensslLib:obj_dat.obj
 0002:00005310       ??_C@_07LCLHACCC@des?9ecb@ 0000000000077b10     OpensslLib:obj_dat.obj
 0002:00005318       ??_C@_07KNILAMJF@DES?9CFB@ 0000000000077b18     OpensslLib:obj_dat.obj
 0002:00005320       ??_C@_07JBBHJPBF@des?9cfb@ 0000000000077b20     OpensslLib:obj_dat.obj
 0002:00005328       ??_C@_07LDJJJFAI@DES?9CBC@ 0000000000077b28     OpensslLib:obj_dat.obj
 0002:00005330       ??_C@_07IPAFAGII@des?9cbc@ 0000000000077b30     OpensslLib:obj_dat.obj
 0002:00005338       ??_C@_07MECFBBOA@DES?9EDE@ 0000000000077b38     OpensslLib:obj_dat.obj
 0002:00005340       ??_C@_07PILJICGA@des?9ede@ 0000000000077b40     OpensslLib:obj_dat.obj
 0002:00005348       ??_C@_08FEKFKCFJ@DES?9EDE3@ 0000000000077b48     OpensslLib:obj_dat.obj
 0002:00005358       ??_C@_08LJCBLNOK@des?9ede3@ 0000000000077b58     OpensslLib:obj_dat.obj
 0002:00005368       ??_C@_08MJNEIAD@IDEA?9CBC@ 0000000000077b68     OpensslLib:obj_dat.obj
 0002:00005378       ??_C@_08LCPAFJCA@idea?9cbc@ 0000000000077b78     OpensslLib:obj_dat.obj
 0002:00005388       ??_C@_08BCIPNBJO@IDEA?9CFB@ 0000000000077b88     OpensslLib:obj_dat.obj
 0002:00005398       ??_C@_08KMOCMALN@idea?9cfb@ 0000000000077b98     OpensslLib:obj_dat.obj
 0002:000053a8       ??_C@_08DBCPEMKJ@IDEA?9ECB@ 0000000000077ba8     OpensslLib:obj_dat.obj
 0002:000053b8       ??_C@_08IPECFNIK@idea?9ecb@ 0000000000077bb8     OpensslLib:obj_dat.obj
 0002:000053c8       ??_C@_07KJDFEEGB@RC2?9CBC@ 0000000000077bc8     OpensslLib:obj_dat.obj
 0002:000053d0       ??_C@_07JCAFNCNH@rc2?9cbc@ 0000000000077bd0     OpensslLib:obj_dat.obj
 0002:000053d8       ??_C@_07JEIHEAML@RC2?9ECB@ 0000000000077bd8     OpensslLib:obj_dat.obj
 0002:000053e0       ??_C@_07KPLHNGHN@rc2?9ecb@ 0000000000077be0     OpensslLib:obj_dat.obj
 0002:000053e8       ??_C@_07LHCHNNPM@RC2?9CFB@ 0000000000077be8     OpensslLib:obj_dat.obj
 0002:000053f0       ??_C@_07IMBHELEK@rc2?9cfb@ 0000000000077bf0     OpensslLib:obj_dat.obj
 0002:000053f8       ??_C@_07PNPBGCEE@RC2?9OFB@ 0000000000077bf8     OpensslLib:obj_dat.obj
 0002:00005400       ??_C@_07MGMBPEPC@rc2?9ofb@ 0000000000077c00     OpensslLib:obj_dat.obj
 0002:00005408       ??_C@_03JAOICCJD@SHA@      0000000000077c08     OpensslLib:obj_dat.obj
 0002:0000540c       ??_C@_03JNBDOPOP@sha@      0000000000077c0c     OpensslLib:obj_dat.obj
 0002:00005410       ??_C@_07CMOFBHAL@RSA?9SHA@ 0000000000077c10     OpensslLib:obj_dat.obj
 0002:00005418       ??_C@_0BF@LIDINENF@shaWithRSAEncryption@ 0000000000077c18     OpensslLib:obj_dat.obj
 0002:00005430       ??_C@_0M@KHNLAHDP@DES?9EDE?9CBC@ 0000000000077c30     OpensslLib:obj_dat.obj
 0002:00005440       ??_C@_0M@EKLHMDEA@des?9ede?9cbc@ 0000000000077c40     OpensslLib:obj_dat.obj
 0002:00005450       ??_C@_0N@MLDFENGJ@DES?9EDE3?9CBC@ 0000000000077c50     OpensslLib:obj_dat.obj
 0002:00005460       ??_C@_0N@FPCHEGKG@des?9ede3?9cbc@ 0000000000077c60     OpensslLib:obj_dat.obj
 0002:00005470       ??_C@_07OHFNLDCN@DES?9OFB@ 0000000000077c70     OpensslLib:obj_dat.obj
 0002:00005478       ??_C@_07NLMBCAKN@des?9ofb@ 0000000000077c78     OpensslLib:obj_dat.obj
 0002:00005480       ??_C@_08FIFJGOCG@IDEA?9OFB@ 0000000000077c80     OpensslLib:obj_dat.obj
 0002:00005490       ??_C@_08OGDEHPAF@idea?9ofb@ 0000000000077c90     OpensslLib:obj_dat.obj
 0002:0000549c       ??_C@_05NKFNBGJP@pkcs9@    0000000000077c9c     OpensslLib:obj_dat.obj
 0002:000054a8       ??_C@_0N@IHLBAGEP@emailAddress@ 0000000000077ca8     OpensslLib:obj_dat.obj
 0002:000054b8       ??_C@_0BB@CJIILOEM@unstructuredName@ 0000000000077cb8     OpensslLib:obj_dat.obj
 0002:000054d0       ??_C@_0M@DOEFOEJD@contentType@ 0000000000077cd0     OpensslLib:obj_dat.obj
 0002:000054e0       ??_C@_0O@JDGJDGC@messageDigest@ 0000000000077ce0     OpensslLib:obj_dat.obj
 0002:000054f0       ??_C@_0M@IJBJCCMP@signingTime@ 0000000000077cf0     OpensslLib:obj_dat.obj
 0002:00005500       ??_C@_0BB@IPFGMODP@countersignature@ 0000000000077d00     OpensslLib:obj_dat.obj
 0002:00005518       ??_C@_0BC@OKHONEEM@challengePassword@ 0000000000077d18     OpensslLib:obj_dat.obj
 0002:00005530       ??_C@_0BE@MACPCAPF@unstructuredAddress@ 0000000000077d30     OpensslLib:obj_dat.obj
 0002:00005548       ??_C@_0BO@LDCCNBPE@extendedCertificateAttributes@ 0000000000077d48     OpensslLib:obj_dat.obj
 0002:00005568       ??_C@_08BDEPHMAF@Netscape@ 0000000000077d68     OpensslLib:obj_dat.obj
 0002:00005578       ??_C@_0BO@IAIBEBGO@Netscape?5Communications?5Corp?4@ 0000000000077d78     OpensslLib:obj_dat.obj
 0002:00005598       ??_C@_09JDCKDNMG@nsCertExt@ 0000000000077d98     OpensslLib:obj_dat.obj
 0002:000055a8       ??_C@_0BP@LHPGKGFM@Netscape?5Certificate?5Extension@ 0000000000077da8     OpensslLib:obj_dat.obj
 0002:000055c8       ??_C@_0L@FIMLGGPA@nsDataType@ 0000000000077dc8     OpensslLib:obj_dat.obj
 0002:000055d8       ??_C@_0BD@JJEILMNP@Netscape?5Data?5Type@ 0000000000077dd8     OpensslLib:obj_dat.obj
 0002:000055f0       ??_C@_0M@LJMJJOKC@DES?9EDE?9CFB@ 0000000000077df0     OpensslLib:obj_dat.obj
 0002:00005600       ??_C@_0M@FEKFFKNN@des?9ede?9cfb@ 0000000000077e00     OpensslLib:obj_dat.obj
 0002:00005610       ??_C@_0N@NFCHNEPE@DES?9EDE3?9CFB@ 0000000000077e10     OpensslLib:obj_dat.obj
 0002:00005620       ??_C@_0N@EBDFNPDL@des?9ede3?9cfb@ 0000000000077e20     OpensslLib:obj_dat.obj
 0002:00005630       ??_C@_0M@PDBPCBBK@DES?9EDE?9OFB@ 0000000000077e30     OpensslLib:obj_dat.obj
 0002:00005640       ??_C@_0M@BOHDOFGF@des?9ede?9ofb@ 0000000000077e40     OpensslLib:obj_dat.obj
 0002:00005650       ??_C@_0N@JPPBGLEM@DES?9EDE3?9OFB@ 0000000000077e50     OpensslLib:obj_dat.obj
 0002:00005660       ??_C@_0N@LODGAID@des?9ede3?9ofb@ 0000000000077e60     OpensslLib:obj_dat.obj
 0002:00005670       ??_C@_04KPMLCNGO@SHA1@     0000000000077e70     OpensslLib:obj_dat.obj
 0002:00005678       ??_C@_04PGHFOLLE@sha1@     0000000000077e78     OpensslLib:obj_dat.obj
 0002:00005680       ??_C@_0BG@DALFFFBE@sha1WithRSAEncryption@ 0000000000077e80     OpensslLib:obj_dat.obj
 0002:00005698       ??_C@_07JGDBCPKH@DSA?9SHA@ 0000000000077e98     OpensslLib:obj_dat.obj
 0002:000056a0       ??_C@_0L@BEHMICBH@dsaWithSHA@ 0000000000077ea0     OpensslLib:obj_dat.obj
 0002:000056b0       ??_C@_07PLHLFGGF@DSA?9old@ 0000000000077eb0     OpensslLib:obj_dat.obj
 0002:000056b8       ??_C@_0BC@FFHHBCCH@dsaEncryption?9old@ 0000000000077eb8     OpensslLib:obj_dat.obj
 0002:000056d0       ??_C@_0BA@KKPEMNGH@PBE?9SHA1?9RC2?964@ 0000000000077ed0     OpensslLib:obj_dat.obj
 0002:000056e0       ??_C@_0BG@IBNNJING@pbeWithSHA1AndRC2?9CBC@ 0000000000077ee0     OpensslLib:obj_dat.obj
 0002:000056f8       ??_C@_06KBOEGBGA@PBKDF2@   0000000000077ef8     OpensslLib:obj_dat.obj
 0002:00005700       ??_C@_0N@ONIKBKNK@DSA?9SHA1?9old@ 0000000000077f00     OpensslLib:obj_dat.obj
 0002:00005710       ??_C@_0BA@DDLLDHEM@dsaWithSHA1?9old@ 0000000000077f10     OpensslLib:obj_dat.obj
 0002:00005720       ??_C@_0L@IICLKDNB@nsCertType@ 0000000000077f20     OpensslLib:obj_dat.obj
 0002:00005730       ??_C@_0BD@NFPBEMEE@Netscape?5Cert?5Type@ 0000000000077f30     OpensslLib:obj_dat.obj
 0002:00005748       ??_C@_09OCIGDOMM@nsBaseUrl@ 0000000000077f48     OpensslLib:obj_dat.obj
 0002:00005758       ??_C@_0BC@DIHCABP@Netscape?5Base?5Url@ 0000000000077f58     OpensslLib:obj_dat.obj
 0002:00005770       ??_C@_0BA@DKPGPAKK@nsRevocationUrl@ 0000000000077f70     OpensslLib:obj_dat.obj
 0002:00005780       ??_C@_0BI@BCDINENC@Netscape?5Revocation?5Url@ 0000000000077f80     OpensslLib:obj_dat.obj
 0002:00005798       ??_C@_0BC@IKAPCMGG@nsCaRevocationUrl@ 0000000000077f98     OpensslLib:obj_dat.obj
 0002:000057b0       ??_C@_0BL@EMOMOFDB@Netscape?5CA?5Revocation?5Url@ 0000000000077fb0     OpensslLib:obj_dat.obj
 0002:000057d0       ??_C@_0N@JILHKMLM@nsRenewalUrl@ 0000000000077fd0     OpensslLib:obj_dat.obj
 0002:000057e0       ??_C@_0BF@FKENIIHB@Netscape?5Renewal?5Url@ 0000000000077fe0     OpensslLib:obj_dat.obj
 0002:000057f8       ??_C@_0O@DHDIMJD@nsCaPolicyUrl@ 0000000000077ff8     OpensslLib:obj_dat.obj
 0002:00005808       ??_C@_0BH@EMEFHLC@Netscape?5CA?5Policy?5Url@ 0000000000078008     OpensslLib:obj_dat.obj
 0002:00005820       ??_C@_0BA@KNOKNJNE@nsSslServerName@ 0000000000078020     OpensslLib:obj_dat.obj
 0002:00005830       ??_C@_0BJ@GMBLEMAL@Netscape?5SSL?5Server?5Name@ 0000000000078030     OpensslLib:obj_dat.obj
 0002:00005850       ??_C@_09BALDFHMJ@nsComment@ 0000000000078050     OpensslLib:obj_dat.obj
 0002:00005860       ??_C@_0BB@DCFBGIOA@Netscape?5Comment@ 0000000000078060     OpensslLib:obj_dat.obj
 0002:00005878       ??_C@_0P@OCCBBJKK@nsCertSequence@ 0000000000078078     OpensslLib:obj_dat.obj
 0002:00005888       ??_C@_0BO@KKKBMKBD@Netscape?5Certificate?5Sequence@ 0000000000078088     OpensslLib:obj_dat.obj
 0002:000058a8       ??_C@_08BBKPFFGN@DESX?9CBC@ 00000000000780a8     OpensslLib:obj_dat.obj
 0002:000058b8       ??_C@_08KPMCEEEO@desx?9cbc@ 00000000000780b8     OpensslLib:obj_dat.obj
 0002:000058c4       ??_C@_05NDHEMDL@id?9ce@    00000000000780c4     OpensslLib:obj_dat.obj
 0002:000058d0       ??_C@_0BF@MOEDIMBI@subjectKeyIdentifier@ 00000000000780d0     OpensslLib:obj_dat.obj
 0002:000058e8       ??_C@_0BO@ILPNOINJ@X509v3?5Subject?5Key?5Identifier@ 00000000000780e8     OpensslLib:obj_dat.obj
 0002:00005908       ??_C@_08BCICBOHF@keyUsage@ 0000000000078108     OpensslLib:obj_dat.obj
 0002:00005918       ??_C@_0BB@BPPOKNBO@X509v3?5Key?5Usage@ 0000000000078118     OpensslLib:obj_dat.obj
 0002:00005930       ??_C@_0BG@JOIAJOMN@privateKeyUsagePeriod@ 0000000000078130     OpensslLib:obj_dat.obj
 0002:00005948       ??_C@_0CA@CLGHAMIP@X509v3?5Private?5Key?5Usage?5Period@ 0000000000078148     OpensslLib:obj_dat.obj
 0002:00005968       ??_C@_0P@EOFJHHKD@subjectAltName@ 0000000000078168     OpensslLib:obj_dat.obj
 0002:00005978       ??_C@_0CA@OPCJJLNF@X509v3?5Subject?5Alternative?5Name@ 0000000000078178     OpensslLib:obj_dat.obj
 0002:00005998       ??_C@_0O@DLIFHFCD@issuerAltName@ 0000000000078198     OpensslLib:obj_dat.obj
 0002:000059a8       ??_C@_0BP@FMJCGPCG@X509v3?5Issuer?5Alternative?5Name@ 00000000000781a8     OpensslLib:obj_dat.obj
 0002:000059c8       ??_C@_0BB@IKNGJCLO@basicConstraints@ 00000000000781c8     OpensslLib:obj_dat.obj
 0002:000059e0       ??_C@_0BJ@FBHDAJML@X509v3?5Basic?5Constraints@ 00000000000781e0     OpensslLib:obj_dat.obj
 0002:00005a00       ??_C@_09JDPHHKMA@crlNumber@ 0000000000078200     OpensslLib:obj_dat.obj
 0002:00005a10       ??_C@_0BC@PCPNBDDJ@X509v3?5CRL?5Number@ 0000000000078210     OpensslLib:obj_dat.obj
 0002:00005a28       ??_C@_0BE@OLMJNPEP@certificatePolicies@ 0000000000078228     OpensslLib:obj_dat.obj
 0002:00005a40       ??_C@_0BM@OOFGKLPK@X509v3?5Certificate?5Policies@ 0000000000078240     OpensslLib:obj_dat.obj
 0002:00005a60       ??_C@_0BH@ICHFALGD@authorityKeyIdentifier@ 0000000000078260     OpensslLib:obj_dat.obj
 0002:00005a78       ??_C@_0CA@GODCHEHD@X509v3?5Authority?5Key?5Identifier@ 0000000000078278     OpensslLib:obj_dat.obj
 0002:00005a98       ??_C@_06HALMPEKO@BF?9CBC@  0000000000078298     OpensslLib:obj_dat.obj
 0002:00005aa0       ??_C@_06LFFGAFHI@bf?9cbc@  00000000000782a0     OpensslLib:obj_dat.obj
 0002:00005aa8       ??_C@_06ENAOPAAE@BF?9ECB@  00000000000782a8     OpensslLib:obj_dat.obj
 0002:00005ab0       ??_C@_06IIOEABNC@bf?9ecb@  00000000000782b0     OpensslLib:obj_dat.obj
 0002:00005ab8       ??_C@_06GOKOGNDD@BF?9CFB@  00000000000782b8     OpensslLib:obj_dat.obj
 0002:00005ac0       ??_C@_06KLEEJMOF@bf?9cfb@  00000000000782c0     OpensslLib:obj_dat.obj
 0002:00005ac8       ??_C@_06CEHINCIL@BF?9OFB@  00000000000782c8     OpensslLib:obj_dat.obj
 0002:00005ad0       ??_C@_06OBJCCDFN@bf?9ofb@  00000000000782d0     OpensslLib:obj_dat.obj
 0002:00005ad8       ??_C@_04BCGEDMJI@MDC2@     00000000000782d8     OpensslLib:obj_dat.obj
 0002:00005ae0       ??_C@_04ELNKPKEC@mdc2@     00000000000782e0     OpensslLib:obj_dat.obj
 0002:00005ae8       ??_C@_08OMAMCKNL@RSA?9MDC2@ 00000000000782e8     OpensslLib:obj_dat.obj
 0002:00005af8       ??_C@_0M@HGGNEPNN@mdc2WithRSA@ 00000000000782f8     OpensslLib:obj_dat.obj
 0002:00005b04       ??_C@_06KFMILCMH@RC4?940@  0000000000078304     OpensslLib:obj_dat.obj
 0002:00005b0c       ??_C@_06GNNJIOGN@rc4?940@  000000000007830c     OpensslLib:obj_dat.obj
 0002:00005b18       ??_C@_0L@ODHPNGGE@RC2?940?9CBC@ 0000000000078318     OpensslLib:obj_dat.obj
 0002:00005b28       ??_C@_0L@CHEFJHBP@rc2?940?9cbc@ 0000000000078328     OpensslLib:obj_dat.obj
 0002:00005b34       ??_C@_02BLJBNPCD@GN@       0000000000078334     OpensslLib:obj_dat.obj
 0002:00005b38       ??_C@_09GCBNJLNP@givenName@ 0000000000078338     OpensslLib:obj_dat.obj
 0002:00005b44       ??_C@_02LONEIP@SN@         0000000000078344     OpensslLib:obj_dat.obj
 0002:00005b48       ??_C@_07LNKFHLHI@surname@  0000000000078348     OpensslLib:obj_dat.obj
 0002:00005b50       ??_C@_08PAKNLFON@initials@ 0000000000078350     OpensslLib:obj_dat.obj
 0002:00005b5c       ??_C@_03MEMNCOEB@uid@      000000000007835c     OpensslLib:obj_dat.obj
 0002:00005b60       ??_C@_0BB@HJMGPENC@uniqueIdentifier@ 0000000000078360     OpensslLib:obj_dat.obj
 0002:00005b78       ??_C@_0BG@CCHGOEBE@crlDistributionPoints@ 0000000000078378     OpensslLib:obj_dat.obj
 0002:00005b90       ??_C@_0BP@EGHJGANM@X509v3?5CRL?5Distribution?5Points@ 0000000000078390     OpensslLib:obj_dat.obj
 0002:00005bb0       ??_C@_0L@NACEPNFC@RSA?9NP?9MD5@ 00000000000783b0     OpensslLib:obj_dat.obj
 0002:00005bc0       ??_C@_0L@CNDCBNIN@md5WithRSA@ 00000000000783c0     OpensslLib:obj_dat.obj
 0002:00005bcc       ??_C@_05PHLGJONK@title@    00000000000783cc     OpensslLib:obj_dat.obj
 0002:00005bd8       ??_C@_0M@PPJNHBMP@description@ 00000000000783d8     OpensslLib:obj_dat.obj
 0002:00005be8       ??_C@_09OACPMKPP@CAST5?9CBC@ 00000000000783e8     OpensslLib:obj_dat.obj
 0002:00005bf8       ??_C@_09BGLDNNDK@cast5?9cbc@ 00000000000783f8     OpensslLib:obj_dat.obj
 0002:00005c08       ??_C@_09NNJNMOFF@CAST5?9ECB@ 0000000000078408     OpensslLib:obj_dat.obj
 0002:00005c18       ??_C@_09CLABNJJA@cast5?9ecb@ 0000000000078418     OpensslLib:obj_dat.obj
 0002:00005c28       ??_C@_09PODNFDGC@CAST5?9CFB@ 0000000000078428     OpensslLib:obj_dat.obj
 0002:00005c38       ??_C@_09IKBEEKH@cast5?9cfb@ 0000000000078438     OpensslLib:obj_dat.obj
 0002:00005c48       ??_C@_09LEOLOMNK@CAST5?9OFB@ 0000000000078448     OpensslLib:obj_dat.obj
 0002:00005c58       ??_C@_09ECHHPLBP@cast5?9ofb@ 0000000000078458     OpensslLib:obj_dat.obj
 0002:00005c68       ??_C@_0BG@JCFINJGL@pbeWithMD5AndCast5CBC@ 0000000000078468     OpensslLib:obj_dat.obj
 0002:00005c80       ??_C@_08IOHJAANG@DSA?9SHA1@ 0000000000078480     OpensslLib:obj_dat.obj
 0002:00005c90       ??_C@_0M@EFJKPOPH@dsaWithSHA1@ 0000000000078490     OpensslLib:obj_dat.obj
 0002:00005ca0       ??_C@_08EMIDHKIH@MD5?9SHA1@ 00000000000784a0     OpensslLib:obj_dat.obj
 0002:00005cb0       ??_C@_08GOLKFMKI@md5?9sha1@ 00000000000784b0     OpensslLib:obj_dat.obj
 0002:00005cc0       ??_C@_0M@KECGAPAA@sha1WithRSA@ 00000000000784c0     OpensslLib:obj_dat.obj
 0002:00005ccc       ??_C@_03ENFFABCE@DSA@      00000000000784cc     OpensslLib:obj_dat.obj
 0002:00005cd0       ??_C@_0O@GMANLAEO@dsaEncryption@ 00000000000784d0     OpensslLib:obj_dat.obj
 0002:00005ce0       ??_C@_09DJDCAKJG@RIPEMD160@ 00000000000784e0     OpensslLib:obj_dat.obj
 0002:00005cf0       ??_C@_09EDIPKBN@ripemd160@ 00000000000784f0     OpensslLib:obj_dat.obj
 0002:00005d00       ??_C@_0O@JPOIHGOH@RSA?9RIPEMD160@ 0000000000078500     OpensslLib:obj_dat.obj
 0002:00005d10       ??_C@_0BB@DCJDAKFH@ripemd160WithRSA@ 0000000000078510     OpensslLib:obj_dat.obj
 0002:00005d28       ??_C@_07LEDAHENJ@RC5?9CBC@ 0000000000078528     OpensslLib:obj_dat.obj
 0002:00005d30       ??_C@_07IPAAOCGP@rc5?9cbc@ 0000000000078530     OpensslLib:obj_dat.obj
 0002:00005d38       ??_C@_07IJICHAHD@RC5?9ECB@ 0000000000078538     OpensslLib:obj_dat.obj
 0002:00005d40       ??_C@_07LCLCOGMF@rc5?9ecb@ 0000000000078540     OpensslLib:obj_dat.obj
 0002:00005d48       ??_C@_07KKCCONEE@RC5?9CFB@ 0000000000078548     OpensslLib:obj_dat.obj
 0002:00005d50       ??_C@_07JBBCHLPC@rc5?9cfb@ 0000000000078550     OpensslLib:obj_dat.obj
 0002:00005d58       ??_C@_07OAPEFCPM@RC5?9OFB@ 0000000000078558     OpensslLib:obj_dat.obj
 0002:00005d60       ??_C@_07NLMEMEEK@rc5?9ofb@ 0000000000078560     OpensslLib:obj_dat.obj
 0002:00005d68       ??_C@_04CHLIKDMF@ZLIB@     0000000000078568     OpensslLib:obj_dat.obj
 0002:00005d70       ??_C@_0BB@KGNEOBKL@zlib?5compression@ 0000000000078570     OpensslLib:obj_dat.obj
 0002:00005d88       ??_C@_0BB@DGDLKPHD@extendedKeyUsage@ 0000000000078588     OpensslLib:obj_dat.obj
 0002:00005da0       ??_C@_0BK@KFMGFBEG@X509v3?5Extended?5Key?5Usage@ 00000000000785a0     OpensslLib:obj_dat.obj
 0002:00005dbc       ??_C@_04EAPCHJAG@PKIX@     00000000000785bc     OpensslLib:obj_dat.obj
 0002:00005dc4       ??_C@_05DEJBPLJH@id?9kp@   00000000000785c4     OpensslLib:obj_dat.obj
 0002:00005dd0       ??_C@_0L@CINGAJGN@serverAuth@ 00000000000785d0     OpensslLib:obj_dat.obj
 0002:00005de0       ??_C@_0BO@HPFOJNNE@TLS?5Web?5Server?5Authentication@ 00000000000785e0     OpensslLib:obj_dat.obj
 0002:00005e00       ??_C@_0L@HCMKLLOP@clientAuth@ 0000000000078600     OpensslLib:obj_dat.obj
 0002:00005e10       ??_C@_0BO@FEMCBEOF@TLS?5Web?5Client?5Authentication@ 0000000000078610     OpensslLib:obj_dat.obj
 0002:00005e30       ??_C@_0M@OJNCNGJ@codeSigning@ 0000000000078630     OpensslLib:obj_dat.obj
 0002:00005e40       ??_C@_0N@CHJHLHFC@Code?5Signing@ 0000000000078640     OpensslLib:obj_dat.obj
 0002:00005e50       ??_C@_0BA@NPCFDPCO@emailProtection@ 0000000000078650     OpensslLib:obj_dat.obj
 0002:00005e60       ??_C@_0BC@BLBGFKKG@E?9mail?5Protection@ 0000000000078660     OpensslLib:obj_dat.obj
 0002:00005e78       ??_C@_0N@LONEBHPN@timeStamping@ 0000000000078678     OpensslLib:obj_dat.obj
 0002:00005e88       ??_C@_0O@GMMBLMEE@Time?5Stamping@ 0000000000078688     OpensslLib:obj_dat.obj
 0002:00005e98       ??_C@_09EMNNPEBE@msCodeInd@ 0000000000078698     OpensslLib:obj_dat.obj
 0002:00005ea8       ??_C@_0CC@NDDHKAMP@Microsoft?5Individual?5Code?5Signi@ 00000000000786a8     OpensslLib:obj_dat.obj
 0002:00005ed0       ??_C@_09PDGAMFAO@msCodeCom@ 00000000000786d0     OpensslLib:obj_dat.obj
 0002:00005ee0       ??_C@_0CC@GKFNEBFA@Microsoft?5Commercial?5Code?5Signi@ 00000000000786e0     OpensslLib:obj_dat.obj
 0002:00005f08       ??_C@_09HGCLLDPK@msCTLSign@ 0000000000078708     OpensslLib:obj_dat.obj
 0002:00005f18       ??_C@_0BN@GNMCHNOI@Microsoft?5Trust?5List?5Signing@ 0000000000078718     OpensslLib:obj_dat.obj
 0002:00005f38       ??_C@_05DDBMPPAI@msSGC@    0000000000078738     OpensslLib:obj_dat.obj
 0002:00005f40       ??_C@_0BO@FBDDCLK@Microsoft?5Server?5Gated?5Crypto@ 0000000000078740     OpensslLib:obj_dat.obj
 0002:00005f60       ??_C@_05NGOIPCN@msEFS@     0000000000078760     OpensslLib:obj_dat.obj
 0002:00005f68       ??_C@_0CA@IJODBCMB@Microsoft?5Encrypted?5File?5System@ 0000000000078768     OpensslLib:obj_dat.obj
 0002:00005f88       ??_C@_05LFIIINKG@nsSGC@    0000000000078788     OpensslLib:obj_dat.obj
 0002:00005f90       ??_C@_0BN@MDNLHLBL@Netscape?5Server?5Gated?5Crypto@ 0000000000078790     OpensslLib:obj_dat.obj
 0002:00005fb0       ??_C@_08ECNAKPJJ@deltaCRL@ 00000000000787b0     OpensslLib:obj_dat.obj
 0002:00005fc0       ??_C@_0BL@HLNLPBHP@X509v3?5Delta?5CRL?5Indicator@ 00000000000787c0     OpensslLib:obj_dat.obj
 0002:00005fe0       ??_C@_09MCDAGILE@CRLReason@ 00000000000787e0     OpensslLib:obj_dat.obj
 0002:00005ff0       ??_C@_0BH@GODIEFKG@X509v3?5CRL?5Reason?5Code@ 00000000000787f0     OpensslLib:obj_dat.obj
 0002:00006008       ??_C@_0P@BKEGCOMO@invalidityDate@ 0000000000078808     OpensslLib:obj_dat.obj
 0002:00006018       ??_C@_0BA@JDBEMONE@Invalidity?5Date@ 0000000000078818     OpensslLib:obj_dat.obj
 0002:00006028       ??_C@_07DKMNOLMH@SXNetID@  0000000000078828     OpensslLib:obj_dat.obj
 0002:00006030       ??_C@_0BD@PNDCMCDK@Strong?5Extranet?5ID@ 0000000000078830     OpensslLib:obj_dat.obj
 0002:00006048       ??_C@_0BB@ILOABLNL@PBE?9SHA1?9RC4?9128@ 0000000000078848     OpensslLib:obj_dat.obj
 0002:00006060       ??_C@_0BI@LBIFCLPB@pbeWithSHA1And128BitRC4@ 0000000000078860     OpensslLib:obj_dat.obj
 0002:00006078       ??_C@_0BA@ECFMCJKN@PBE?9SHA1?9RC4?940@ 0000000000078878     OpensslLib:obj_dat.obj
 0002:00006088       ??_C@_0BH@OCAEJMIL@pbeWithSHA1And40BitRC4@ 0000000000078888     OpensslLib:obj_dat.obj
 0002:000060a0       ??_C@_0O@EDBOMBNM@PBE?9SHA1?93DES@ 00000000000788a0     OpensslLib:obj_dat.obj
 0002:000060b0       ??_C@_0CB@FCNCEDP@pbeWithSHA1And3?9KeyTripleDES?9CB@ 00000000000788b0     OpensslLib:obj_dat.obj
 0002:000060d8       ??_C@_0O@HOHOOIGM@PBE?9SHA1?92DES@ 00000000000788d8     OpensslLib:obj_dat.obj
 0002:000060e8       ??_C@_0CB@NCMPKEGH@pbeWithSHA1And2?9KeyTripleDES?9CB@ 00000000000788e8     OpensslLib:obj_dat.obj
 0002:00006110       ??_C@_0BB@FNLJPIMG@PBE?9SHA1?9RC2?9128@ 0000000000078910     OpensslLib:obj_dat.obj
 0002:00006128       ??_C@_0BM@DOLDINME@pbeWithSHA1And128BitRC2?9CBC@ 0000000000078928     OpensslLib:obj_dat.obj
 0002:00006148       ??_C@_0BA@MNBMNMAN@PBE?9SHA1?9RC2?940@ 0000000000078948     OpensslLib:obj_dat.obj
 0002:00006158       ??_C@_0BL@CKNKIMON@pbeWithSHA1And40BitRC2?9CBC@ 0000000000078958     OpensslLib:obj_dat.obj
 0002:00006174       ??_C@_06BFGNOIAI@keyBag@   0000000000078974     OpensslLib:obj_dat.obj
 0002:00006180       ??_C@_0BE@ELJKIANF@pkcs8ShroudedKeyBag@ 0000000000078980     OpensslLib:obj_dat.obj
 0002:00006198       ??_C@_07FDLMCII@certBag@   0000000000078998     OpensslLib:obj_dat.obj
 0002:000061a0       ??_C@_06JAFBIMLO@crlBag@   00000000000789a0     OpensslLib:obj_dat.obj
 0002:000061a8       ??_C@_09DELDBPIE@secretBag@ 00000000000789a8     OpensslLib:obj_dat.obj
 0002:000061b8       ??_C@_0BA@KAKLKBBC@safeContentsBag@ 00000000000789b8     OpensslLib:obj_dat.obj
 0002:000061c8       ??_C@_0N@BGFMPLCM@friendlyName@ 00000000000789c8     OpensslLib:obj_dat.obj
 0002:000061d8       ??_C@_0L@BCMHPPAO@localKeyID@ 00000000000789d8     OpensslLib:obj_dat.obj
 0002:000061e8       ??_C@_0BA@EMOFOCJL@x509Certificate@ 00000000000789e8     OpensslLib:obj_dat.obj
 0002:000061f8       ??_C@_0BA@BFAOBDKH@sdsiCertificate@ 00000000000789f8     OpensslLib:obj_dat.obj
 0002:00006208       ??_C@_07KAOEJCFK@x509Crl@  0000000000078a08     OpensslLib:obj_dat.obj
 0002:00006210       ??_C@_05EPMADBBF@PBES2@    0000000000078a10     OpensslLib:obj_dat.obj
 0002:00006218       ??_C@_06DEJMPFNK@PBMAC1@   0000000000078a18     OpensslLib:obj_dat.obj
 0002:00006220       ??_C@_0N@KANOAIP@hmacWithSHA1@ 0000000000078a20     OpensslLib:obj_dat.obj
 0002:00006230       ??_C@_09MIPGHKGJ@id?9qt?9cps@ 0000000000078a30     OpensslLib:obj_dat.obj
 0002:00006240       ??_C@_0BF@HPKIKKPI@Policy?5Qualifier?5CPS@ 0000000000078a40     OpensslLib:obj_dat.obj
 0002:00006258       ??_C@_0O@CJFHFAHE@id?9qt?9unotice@ 0000000000078a58     OpensslLib:obj_dat.obj
 0002:00006268       ??_C@_0BN@KPMBKEE@Policy?5Qualifier?5User?5Notice@ 0000000000078a68     OpensslLib:obj_dat.obj
 0002:00006288       ??_C@_0L@OPHBIFFL@RC2?964?9CBC@ 0000000000078a88     OpensslLib:obj_dat.obj
 0002:00006298       ??_C@_0L@CLELMECA@rc2?964?9cbc@ 0000000000078a98     OpensslLib:obj_dat.obj
 0002:000062a8       ??_C@_0L@LCBJGKJG@SMIME?9CAPS@ 0000000000078aa8     OpensslLib:obj_dat.obj
 0002:000062b8       ??_C@_0BE@CEEFMCAI@S?1MIME?5Capabilities@ 0000000000078ab8     OpensslLib:obj_dat.obj
 0002:000062d0       ??_C@_0P@OHJEMJLF@PBE?9MD2?9RC2?964@ 0000000000078ad0     OpensslLib:obj_dat.obj
 0002:000062e0       ??_C@_0BF@FOKDMACM@pbeWithMD2AndRC2?9CBC@ 0000000000078ae0     OpensslLib:obj_dat.obj
 0002:000062f8       ??_C@_0P@IDPFKEHM@PBE?9MD5?9RC2?964@ 0000000000078af8     OpensslLib:obj_dat.obj
 0002:00006308       ??_C@_0BF@CKDLCJKD@pbeWithMD5AndRC2?9CBC@ 0000000000078b08     OpensslLib:obj_dat.obj
 0002:00006320       ??_C@_0N@GOPIPBOD@PBE?9SHA1?9DES@ 0000000000078b20     OpensslLib:obj_dat.obj
 0002:00006330       ??_C@_0BG@JLHBEJLP@pbeWithSHA1AndDES?9CBC@ 0000000000078b30     OpensslLib:obj_dat.obj
 0002:00006348       ??_C@_08HCCJAOPJ@msExtReq@ 0000000000078b48     OpensslLib:obj_dat.obj
 0002:00006358       ??_C@_0BM@MEJAMAEO@Microsoft?5Extension?5Request@ 0000000000078b58     OpensslLib:obj_dat.obj
 0002:00006374       ??_C@_06EJACAMDF@extReq@   0000000000078b74     OpensslLib:obj_dat.obj
 0002:00006380       ??_C@_0BC@GLHEKHCC@Extension?5Request@ 0000000000078b80     OpensslLib:obj_dat.obj
 0002:00006394       ??_C@_04MEMAJGDJ@name@     0000000000078b94     OpensslLib:obj_dat.obj
 0002:000063a0       ??_C@_0M@DNNLEIMI@dnQualifier@ 0000000000078ba0     OpensslLib:obj_dat.obj
 0002:000063ac       ??_C@_05BDFHFBBC@id?9pe@   0000000000078bac     OpensslLib:obj_dat.obj
 0002:000063b4       ??_C@_05BHKIKJBE@id?9ad@   0000000000078bb4     OpensslLib:obj_dat.obj
 0002:000063c0       ??_C@_0BE@PLCGCINM@authorityInfoAccess@ 0000000000078bc0     OpensslLib:obj_dat.obj
 0002:000063d8       ??_C@_0BN@EILCOJAN@Authority?5Information?5Access@ 0000000000078bd8     OpensslLib:obj_dat.obj
 0002:000063f8       ??_C@_04LOJOPNBE@OCSP@     0000000000078bf8     OpensslLib:obj_dat.obj
 0002:00006400       ??_C@_09GFPECPIH@caIssuers@ 0000000000078c00     OpensslLib:obj_dat.obj
 0002:00006410       ??_C@_0L@CABCENFK@CA?5Issuers@ 0000000000078c10     OpensslLib:obj_dat.obj
 0002:00006420       ??_C@_0M@HBKJLKNM@OCSPSigning@ 0000000000078c20     OpensslLib:obj_dat.obj
 0002:00006430       ??_C@_0N@CPJNIPDD@OCSP?5Signing@ 0000000000078c30     OpensslLib:obj_dat.obj
 0002:00006440       ??_C@_03CBLMPEHH@ISO@      0000000000078c40     OpensslLib:obj_dat.obj
 0002:00006444       ??_C@_03CMEHDJAL@iso@      0000000000078c44     OpensslLib:obj_dat.obj
 0002:00006448       ??_C@_0M@CMICFDOA@member?9body@ 0000000000078c48     OpensslLib:obj_dat.obj
 0002:00006458       ??_C@_0BA@BGDAEHGF@ISO?5Member?5Body@ 0000000000078c58     OpensslLib:obj_dat.obj
 0002:00006468       ??_C@_06EKAADAMF@ISO?9US@  0000000000078c68     OpensslLib:obj_dat.obj
 0002:00006470       ??_C@_0BD@NMCDOJHL@ISO?5US?5Member?5Body@ 0000000000078c70     OpensslLib:obj_dat.obj
 0002:00006484       ??_C@_05OCCOPOJN@X9?957@   0000000000078c84     OpensslLib:obj_dat.obj
 0002:0000648c       ??_C@_05PAJLFBHD@X9?457@   0000000000078c8c     OpensslLib:obj_dat.obj
 0002:00006494       ??_C@_04CGFPFLFA@X9cm@     0000000000078c94     OpensslLib:obj_dat.obj
 0002:000064a0       ??_C@_0L@DJCLIPOH@X9?457?5CM?5?$DP@ 0000000000078ca0     OpensslLib:obj_dat.obj
 0002:000064ac       ??_C@_05BCIEJMJH@pkcs1@    0000000000078cac     OpensslLib:obj_dat.obj
 0002:000064b4       ??_C@_05HGOIFJJD@pkcs5@    0000000000078cb4     OpensslLib:obj_dat.obj
 0002:000064bc       ??_C@_05HHBEAKJJ@SMIME@    0000000000078cbc     OpensslLib:obj_dat.obj
 0002:000064c4       ??_C@_06DFGHEKNE@S?1MIME@  0000000000078cc4     OpensslLib:obj_dat.obj
 0002:000064d0       ??_C@_0N@GABIEKIN@id?9smime?9mod@ 0000000000078cd0     OpensslLib:obj_dat.obj
 0002:000064e0       ??_C@_0M@EBLDBLEO@id?9smime?9ct@ 0000000000078ce0     OpensslLib:obj_dat.obj
 0002:000064f0       ??_C@_0M@HFICCJDE@id?9smime?9aa@ 0000000000078cf0     OpensslLib:obj_dat.obj
 0002:00006500       ??_C@_0N@DKFBIKP@id?9smime?9alg@ 0000000000078d00     OpensslLib:obj_dat.obj
 0002:00006510       ??_C@_0M@LHBAJBP@id?9smime?9cd@ 0000000000078d10     OpensslLib:obj_dat.obj
 0002:00006520       ??_C@_0N@PABBGIHI@id?9smime?9spq@ 0000000000078d20     OpensslLib:obj_dat.obj
 0002:00006530       ??_C@_0N@CFBKAPGC@id?9smime?9cti@ 0000000000078d30     OpensslLib:obj_dat.obj
 0002:00006540       ??_C@_0BB@PJEIFOOP@id?9smime?9mod?9cms@ 0000000000078d40     OpensslLib:obj_dat.obj
 0002:00006558       ??_C@_0BB@MKJLIPEJ@id?9smime?9mod?9ess@ 0000000000078d58     OpensslLib:obj_dat.obj
 0002:00006570       ??_C@_0BB@LBBEMNBN@id?9smime?9mod?9oid@ 0000000000078d70     OpensslLib:obj_dat.obj
 0002:00006588       ??_C@_0BE@PEENABNJ@id?9smime?9mod?9msg?9v3@ 0000000000078d88     OpensslLib:obj_dat.obj
 0002:000065a0       ??_C@_0BP@HIDGBPHA@id?9smime?9mod?9ets?9eSignature?988@ 0000000000078da0     OpensslLib:obj_dat.obj
 0002:000065c0       ??_C@_0BP@POGMGJII@id?9smime?9mod?9ets?9eSignature?997@ 0000000000078dc0     OpensslLib:obj_dat.obj
 0002:000065e0       ??_C@_0BP@KEHEABPA@id?9smime?9mod?9ets?9eSigPolicy?988@ 0000000000078de0     OpensslLib:obj_dat.obj
 0002:00006600       ??_C@_0BP@CCCOHHAI@id?9smime?9mod?9ets?9eSigPolicy?997@ 0000000000078e00     OpensslLib:obj_dat.obj
 0002:00006620       ??_C@_0BE@GCHIHBHA@id?9smime?9ct?9receipt@ 0000000000078e20     OpensslLib:obj_dat.obj
 0002:00006638       ??_C@_0BF@KGEHGOF@id?9smime?9ct?9authData@ 0000000000078e38     OpensslLib:obj_dat.obj
 0002:00006650       ??_C@_0BI@DBILCLFJ@id?9smime?9ct?9publishCert@ 0000000000078e50     OpensslLib:obj_dat.obj
 0002:00006668       ??_C@_0BE@KHNGFDDI@id?9smime?9ct?9TSTInfo@ 0000000000078e68     OpensslLib:obj_dat.obj
 0002:00006680       ??_C@_0BE@FKPPBHI@id?9smime?9ct?9TDTInfo@ 0000000000078e80     OpensslLib:obj_dat.obj
 0002:00006698       ??_C@_0BI@BGKPNMK@id?9smime?9ct?9contentInfo@ 0000000000078e98     OpensslLib:obj_dat.obj
 0002:000066b0       ??_C@_0BM@MFKPCEGN@id?9smime?9ct?9DVCSRequestData@ 0000000000078eb0     OpensslLib:obj_dat.obj
 0002:000066d0       ??_C@_0BN@POKJLKJJ@id?9smime?9ct?9DVCSResponseData@ 0000000000078ed0     OpensslLib:obj_dat.obj
 0002:000066f0       ??_C@_0BL@LMGNMPFD@id?9smime?9aa?9receiptRequest@ 0000000000078ef0     OpensslLib:obj_dat.obj
 0002:00006710       ??_C@_0BK@DNJNJILO@id?9smime?9aa?9securityLabel@ 0000000000078f10     OpensslLib:obj_dat.obj
 0002:00006730       ??_C@_0BM@OEKGBMLE@id?9smime?9aa?9mlExpandHistory@ 0000000000078f30     OpensslLib:obj_dat.obj
 0002:00006750       ??_C@_0BI@EMGPJFHB@id?9smime?9aa?9contentHint@ 0000000000078f50     OpensslLib:obj_dat.obj
 0002:00006768       ??_C@_0BJ@LJLDKMDH@id?9smime?9aa?9msgSigDigest@ 0000000000078f68     OpensslLib:obj_dat.obj
 0002:00006788       ??_C@_0BN@GCCNOJCG@id?9smime?9aa?9encapContentType@ 0000000000078f88     OpensslLib:obj_dat.obj
 0002:000067a8       ??_C@_0BO@KMJGIAMK@id?9smime?9aa?9contentIdentifier@ 0000000000078fa8     OpensslLib:obj_dat.obj
 0002:000067c8       ??_C@_0BF@CFNHFPDB@id?9smime?9aa?9macValue@ 0000000000078fc8     OpensslLib:obj_dat.obj
 0002:000067e0       ??_C@_0BN@NFAAOKEA@id?9smime?9aa?9equivalentLabels@ 0000000000078fe0     OpensslLib:obj_dat.obj
 0002:00006800       ??_C@_0BN@LEFAEFL@id?9smime?9aa?9contentReference@ 0000000000079000     OpensslLib:obj_dat.obj
 0002:00006820       ??_C@_0BK@LAPEFMP@id?9smime?9aa?9encrypKeyPref@ 0000000000079020     OpensslLib:obj_dat.obj
 0002:00006840       ??_C@_0BP@LHGJLGIB@id?9smime?9aa?9signingCertificate@ 0000000000079040     OpensslLib:obj_dat.obj
 0002:00006860       ??_C@_0BO@CEEOANBD@id?9smime?9aa?9smimeEncryptCerts@ 0000000000079060     OpensslLib:obj_dat.obj
 0002:00006880       ??_C@_0BL@DHJOIJNE@id?9smime?9aa?9timeStampToken@ 0000000000079080     OpensslLib:obj_dat.obj
 0002:000068a0       ??_C@_0BM@GKFMJCFL@id?9smime?9aa?9ets?9sigPolicyId@ 00000000000790a0     OpensslLib:obj_dat.obj
 0002:000068c0       ??_C@_0BP@OLIFPEIM@id?9smime?9aa?9ets?9commitmentType@ 00000000000790c0     OpensslLib:obj_dat.obj
 0002:000068e0       ??_C@_0BP@EODAELPO@id?9smime?9aa?9ets?9signerLocation@ 00000000000790e0     OpensslLib:obj_dat.obj
 0002:00006900       ??_C@_0BL@KDJDAGDC@id?9smime?9aa?9ets?9signerAttr@ 0000000000079100     OpensslLib:obj_dat.obj
 0002:00006920       ??_C@_0BN@JFIFOPBH@id?9smime?9aa?9ets?9otherSigCert@ 0000000000079120     OpensslLib:obj_dat.obj
 0002:00006940       ??_C@_0CB@GHKINGOH@id?9smime?9aa?9ets?9contentTimestam@ 0000000000079140     OpensslLib:obj_dat.obj
 0002:00006968       ??_C@_0CA@NKIOCHLG@id?9smime?9aa?9ets?9CertificateRefs@ 0000000000079168     OpensslLib:obj_dat.obj
 0002:00006988       ??_C@_0BP@BCHJHNFO@id?9smime?9aa?9ets?9RevocationRefs@ 0000000000079188     OpensslLib:obj_dat.obj
 0002:000069a8       ??_C@_0BL@IFKOLDIG@id?9smime?9aa?9ets?9certValues@ 00000000000791a8     OpensslLib:obj_dat.obj
 0002:000069c8       ??_C@_0CB@GOCEFPFO@id?9smime?9aa?9ets?9revocationValue@ 00000000000791c8     OpensslLib:obj_dat.obj
 0002:000069f0       ??_C@_0BN@HGLOGOFI@id?9smime?9aa?9ets?9escTimeStamp@ 00000000000791f0     OpensslLib:obj_dat.obj
 0002:00006a10       ??_C@_0CB@CJNBPJE@id?9smime?9aa?9ets?9certCRLTimestam@ 0000000000079210     OpensslLib:obj_dat.obj
 0002:00006a38       ??_C@_0CB@BEMKNJGO@id?9smime?9aa?9ets?9archiveTimeStam@ 0000000000079238     OpensslLib:obj_dat.obj
 0002:00006a60       ??_C@_0BK@HDBIPLFI@id?9smime?9aa?9signatureType@ 0000000000079260     OpensslLib:obj_dat.obj
 0002:00006a80       ??_C@_0BF@KEMAMBKF@id?9smime?9aa?9dvcs?9dvc@ 0000000000079280     OpensslLib:obj_dat.obj
 0002:00006a98       ??_C@_0BK@JNJOCCCB@id?9smime?9alg?9ESDHwith3DES@ 0000000000079298     OpensslLib:obj_dat.obj
 0002:00006ab8       ??_C@_0BJ@FIJMOHBJ@id?9smime?9alg?9ESDHwithRC2@ 00000000000792b8     OpensslLib:obj_dat.obj
 0002:00006ad8       ??_C@_0BG@HHELPNAK@id?9smime?9alg?93DESwrap@ 00000000000792d8     OpensslLib:obj_dat.obj
 0002:00006af0       ??_C@_0BF@JNCPAJCA@id?9smime?9alg?9RC2wrap@ 00000000000792f0     OpensslLib:obj_dat.obj
 0002:00006b08       ??_C@_0BC@COOODKPD@id?9smime?9alg?9ESDH@ 0000000000079308     OpensslLib:obj_dat.obj
 0002:00006b20       ??_C@_0BJ@FOFHEIDB@id?9smime?9alg?9CMS3DESwrap@ 0000000000079320     OpensslLib:obj_dat.obj
 0002:00006b40       ??_C@_0BI@FIFDKKFJ@id?9smime?9alg?9CMSRC2wrap@ 0000000000079340     OpensslLib:obj_dat.obj
 0002:00006b58       ??_C@_0BB@BMOBKAGE@id?9smime?9cd?9ldap@ 0000000000079358     OpensslLib:obj_dat.obj
 0002:00006b70       ??_C@_0BJ@IMNKDGEG@id?9smime?9spq?9ets?9sqt?9uri@ 0000000000079370     OpensslLib:obj_dat.obj
 0002:00006b90       ??_C@_0BN@GPAAHNOH@id?9smime?9spq?9ets?9sqt?9unotice@ 0000000000079390     OpensslLib:obj_dat.obj
 0002:00006bb0       ??_C@_0BP@BCHFEGHC@id?9smime?9cti?9ets?9proofOfOrigin@ 00000000000793b0     OpensslLib:obj_dat.obj
 0002:00006bd0       ??_C@_0CA@HNGOKBGC@id?9smime?9cti?9ets?9proofOfReceipt@ 00000000000793d0     OpensslLib:obj_dat.obj
 0002:00006bf0       ??_C@_0CB@ICJGPMEP@id?9smime?9cti?9ets?9proofOfDeliver@ 00000000000793f0     OpensslLib:obj_dat.obj
 0002:00006c18       ??_C@_0BP@ODCAFFCM@id?9smime?9cti?9ets?9proofOfSender@ 0000000000079418     OpensslLib:obj_dat.obj
 0002:00006c38       ??_C@_0CB@DDLMHEBC@id?9smime?9cti?9ets?9proofOfApprova@ 0000000000079438     OpensslLib:obj_dat.obj
 0002:00006c60       ??_C@_0CB@MICJDGGH@id?9smime?9cti?9ets?9proofOfCreatio@ 0000000000079460     OpensslLib:obj_dat.obj
 0002:00006c84       ??_C@_03HLHMHGOI@MD4@      0000000000079484     OpensslLib:obj_dat.obj
 0002:00006c88       ??_C@_03ODADJPDG@md4@      0000000000079488     OpensslLib:obj_dat.obj
 0002:00006c90       ??_C@_0M@FNAFBNKE@id?9pkix?9mod@ 0000000000079490     OpensslLib:obj_dat.obj
 0002:00006c9c       ??_C@_05EBEMBIDF@id?9qt@   000000000007949c     OpensslLib:obj_dat.obj
 0002:00006ca4       ??_C@_05FDHJOKPN@id?9it@   00000000000794a4     OpensslLib:obj_dat.obj
 0002:00006cb0       ??_C@_07OMHOPMIM@id?9pkip@ 00000000000794b0     OpensslLib:obj_dat.obj
 0002:00006cb8       ??_C@_06DOGCNAAM@id?9alg@  00000000000794b8     OpensslLib:obj_dat.obj
 0002:00006cc0       ??_C@_06PBMFLHLE@id?9cmc@  00000000000794c0     OpensslLib:obj_dat.obj
 0002:00006cc8       ??_C@_05OHNJGMJE@id?9on@   00000000000794c8     OpensslLib:obj_dat.obj
 0002:00006cd0       ??_C@_06IOIOBGMI@id?9pda@  00000000000794d0     OpensslLib:obj_dat.obj
 0002:00006cd8       ??_C@_06GDGEDALH@id?9aca@  00000000000794d8     OpensslLib:obj_dat.obj
 0002:00006ce0       ??_C@_06ELIJBHPL@id?9qcs@  00000000000794e0     OpensslLib:obj_dat.obj
 0002:00006ce8       ??_C@_06PONIBOCI@id?9cct@  00000000000794e8     OpensslLib:obj_dat.obj
 0002:00006cf0       ??_C@_0BF@HGDNDMHO@id?9pkix1?9explicit?988@ 00000000000794f0     OpensslLib:obj_dat.obj
 0002:00006d08       ??_C@_0BF@KMJGBJHG@id?9pkix1?9implicit?988@ 0000000000079508     OpensslLib:obj_dat.obj
 0002:00006d20       ??_C@_0BF@JEALIPIC@id?9pkix1?9explicit?993@ 0000000000079520     OpensslLib:obj_dat.obj
 0002:00006d38       ??_C@_0BF@EOKAKKIK@id?9pkix1?9implicit?993@ 0000000000079538     OpensslLib:obj_dat.obj
 0002:00006d50       ??_C@_0M@GHFPFJPB@id?9mod?9crmf@ 0000000000079550     OpensslLib:obj_dat.obj
 0002:00006d60       ??_C@_0L@KPDLDADF@id?9mod?9cmc@ 0000000000079560     OpensslLib:obj_dat.obj
 0002:00006d70       ??_C@_0BG@DCGANCKA@id?9mod?9kea?9profile?988@ 0000000000079570     OpensslLib:obj_dat.obj
 0002:00006d88       ??_C@_0BG@NAFGGBFM@id?9mod?9kea?9profile?993@ 0000000000079588     OpensslLib:obj_dat.obj
 0002:00006da0       ??_C@_0L@MONEHBKH@id?9mod?9cmp@ 00000000000795a0     OpensslLib:obj_dat.obj
 0002:00006db0       ??_C@_0BJ@GENFLKHG@id?9mod?9qualified?9cert?988@ 00000000000795b0     OpensslLib:obj_dat.obj
 0002:00006dd0       ??_C@_0BJ@IGODAJIK@id?9mod?9qualified?9cert?993@ 00000000000795d0     OpensslLib:obj_dat.obj
 0002:00006df0       ??_C@_0BG@EPPFBJNH@id?9mod?9attribute?9cert@ 00000000000795f0     OpensslLib:obj_dat.obj
 0002:00006e08       ??_C@_0BK@GAJOODEK@id?9mod?9timestamp?9protocol@ 0000000000079608     OpensslLib:obj_dat.obj
 0002:00006e28       ??_C@_0M@EACKLPKH@id?9mod?9ocsp@ 0000000000079628     OpensslLib:obj_dat.obj
 0002:00006e38       ??_C@_0M@GHDGNJKI@id?9mod?9dvcs@ 0000000000079638     OpensslLib:obj_dat.obj
 0002:00006e48       ??_C@_0P@MMOAAMFD@id?9mod?9cmp2000@ 0000000000079648     OpensslLib:obj_dat.obj
 0002:00006e58       ??_C@_0O@MPIIPAHM@biometricInfo@ 0000000000079658     OpensslLib:obj_dat.obj
 0002:00006e68       ??_C@_0P@KFKDECPH@Biometric?5Info@ 0000000000079668     OpensslLib:obj_dat.obj
 0002:00006e78       ??_C@_0N@FPMNLLM@qcStatements@ 0000000000079678     OpensslLib:obj_dat.obj
 0002:00006e88       ??_C@_0P@CIOHPJGC@ac?9auditEntity@ 0000000000079688     OpensslLib:obj_dat.obj
 0002:00006e98       ??_C@_0N@FPEEOJCI@ac?9targeting@ 0000000000079698     OpensslLib:obj_dat.obj
 0002:00006ea8       ??_C@_0L@DLGBNBJE@aaControls@ 00000000000796a8     OpensslLib:obj_dat.obj
 0002:00006eb8       ??_C@_0BB@NNCKCHBC@sbgp?9ipAddrBlock@ 00000000000796b8     OpensslLib:obj_dat.obj
 0002:00006ed0       ??_C@_0BG@OJEHJDKA@sbgp?9autonomousSysNum@ 00000000000796d0     OpensslLib:obj_dat.obj
 0002:00006ee8       ??_C@_0BG@JCJJBMAI@sbgp?9routerIdentifier@ 00000000000796e8     OpensslLib:obj_dat.obj
 0002:00006f00       ??_C@_0L@HLNNPJEH@textNotice@ 0000000000079700     OpensslLib:obj_dat.obj
 0002:00006f10       ??_C@_0P@MKBFMAPP@ipsecEndSystem@ 0000000000079710     OpensslLib:obj_dat.obj
 0002:00006f20       ??_C@_0BB@JEJDAICO@IPSec?5End?5System@ 0000000000079720     OpensslLib:obj_dat.obj
 0002:00006f38       ??_C@_0M@GMMHFFHI@ipsecTunnel@ 0000000000079738     OpensslLib:obj_dat.obj
 0002:00006f48       ??_C@_0N@EKDIOGLO@IPSec?5Tunnel@ 0000000000079748     OpensslLib:obj_dat.obj
 0002:00006f58       ??_C@_09GOHJKOFF@ipsecUser@ 0000000000079758     OpensslLib:obj_dat.obj
 0002:00006f68       ??_C@_0L@DECDDCGF@IPSec?5User@ 0000000000079768     OpensslLib:obj_dat.obj
 0002:00006f74       ??_C@_04JJICJLBL@DVCS@     0000000000079774     OpensslLib:obj_dat.obj
 0002:00006f7c       ??_C@_04FFLIHJGD@dvcs@     000000000007977c     OpensslLib:obj_dat.obj
 0002:00006f88       ??_C@_0BE@GJACIPND@id?9it?9caProtEncCert@ 0000000000079788     OpensslLib:obj_dat.obj
 0002:00006fa0       ??_C@_0BH@POCENFBA@id?9it?9signKeyPairTypes@ 00000000000797a0     OpensslLib:obj_dat.obj
 0002:00006fb8       ??_C@_0BG@FKIDIODL@id?9it?9encKeyPairTypes@ 00000000000797b8     OpensslLib:obj_dat.obj
 0002:00006fd0       ??_C@_0BH@JFBOPDCH@id?9it?9preferredSymmAlg@ 00000000000797d0     OpensslLib:obj_dat.obj
 0002:00006fe8       ??_C@_0BG@OAKEHPLC@id?9it?9caKeyUpdateInfo@ 00000000000797e8     OpensslLib:obj_dat.obj
 0002:00007000       ??_C@_0BB@NHKBGJFG@id?9it?9currentCRL@ 0000000000079800     OpensslLib:obj_dat.obj
 0002:00007018       ??_C@_0BG@BPLKDJPD@id?9it?9unsupportedOIDs@ 0000000000079818     OpensslLib:obj_dat.obj
 0002:00007030       ??_C@_0BK@MKGCMKGI@id?9it?9subscriptionRequest@ 0000000000079830     OpensslLib:obj_dat.obj
 0002:00007050       ??_C@_0BL@HBPHBFLO@id?9it?9subscriptionResponse@ 0000000000079850     OpensslLib:obj_dat.obj
 0002:00007070       ??_C@_0BG@LGJDGAPG@id?9it?9keyPairParamReq@ 0000000000079870     OpensslLib:obj_dat.obj
 0002:00007088       ??_C@_0BG@KPIIFBLH@id?9it?9keyPairParamRep@ 0000000000079888     OpensslLib:obj_dat.obj
 0002:000070a0       ??_C@_0BE@FOOOCPMH@id?9it?9revPassphrase@ 00000000000798a0     OpensslLib:obj_dat.obj
 0002:000070b8       ??_C@_0BG@MKDHCJKF@id?9it?9implicitConfirm@ 00000000000798b8     OpensslLib:obj_dat.obj
 0002:000070d0       ??_C@_0BG@KCBHNMIK@id?9it?9confirmWaitTime@ 00000000000798d0     OpensslLib:obj_dat.obj
 0002:000070e8       ??_C@_0BF@CLCJJGFI@id?9it?9origPKIMessage@ 00000000000798e8     OpensslLib:obj_dat.obj
 0002:00007100       ??_C@_0L@FDGKGANK@id?9regCtrl@ 0000000000079900     OpensslLib:obj_dat.obj
 0002:00007110       ??_C@_0L@BGHMJHOP@id?9regInfo@ 0000000000079910     OpensslLib:obj_dat.obj
 0002:00007120       ??_C@_0BE@JDMKCIPE@id?9regCtrl?9regToken@ 0000000000079920     OpensslLib:obj_dat.obj
 0002:00007138       ??_C@_0BJ@FBKKLLKP@id?9regCtrl?9authenticator@ 0000000000079938     OpensslLib:obj_dat.obj
 0002:00007158       ??_C@_0BO@GJKPPLPL@id?9regCtrl?9pkiPublicationInfo@ 0000000000079958     OpensslLib:obj_dat.obj
 0002:00007178       ??_C@_0BN@ONKHMAOP@id?9regCtrl?9pkiArchiveOptions@ 0000000000079978     OpensslLib:obj_dat.obj
 0002:00007198       ??_C@_0BF@GFJPNJIG@id?9regCtrl?9oldCertID@ 0000000000079998     OpensslLib:obj_dat.obj
 0002:000071b0       ??_C@_0BL@GHBPLPHM@id?9regCtrl?9protocolEncrKey@ 00000000000799b0     OpensslLib:obj_dat.obj
 0002:000071d0       ??_C@_0BF@FHFGHAHE@id?9regInfo?9utf8Pairs@ 00000000000799d0     OpensslLib:obj_dat.obj
 0002:000071e8       ??_C@_0BD@EEAPBNJJ@id?9regInfo?9certReq@ 00000000000799e8     OpensslLib:obj_dat.obj
 0002:00007200       ??_C@_0N@KIJONBNA@id?9alg?9des40@ 0000000000079a00     OpensslLib:obj_dat.obj
 0002:00007210       ??_C@_0BD@LAAJOBHI@id?9alg?9noSignature@ 0000000000079a10     OpensslLib:obj_dat.obj
 0002:00007228       ??_C@_0BI@KIODNBCM@id?9alg?9dh?9sig?9hmac?9sha1@ 0000000000079a28     OpensslLib:obj_dat.obj
 0002:00007240       ??_C@_0O@OBGPPBGA@id?9alg?9dh?9pop@ 0000000000079a40     OpensslLib:obj_dat.obj
 0002:00007250       ??_C@_0BC@CMNEPEAI@id?9cmc?9statusInfo@ 0000000000079a50     OpensslLib:obj_dat.obj
 0002:00007268       ??_C@_0BG@PPIINOMK@id?9cmc?9identification@ 0000000000079a68     OpensslLib:obj_dat.obj
 0002:00007280       ??_C@_0BF@IDAHNDCK@id?9cmc?9identityProof@ 0000000000079a80     OpensslLib:obj_dat.obj
 0002:00007298       ??_C@_0BC@LLJKCHEN@id?9cmc?9dataReturn@ 0000000000079a98     OpensslLib:obj_dat.obj
 0002:000072b0       ??_C@_0BF@GEJAHBF@id?9cmc?9transactionId@ 0000000000079ab0     OpensslLib:obj_dat.obj
 0002:000072c8       ??_C@_0BD@BCMJDDMP@id?9cmc?9senderNonce@ 0000000000079ac8     OpensslLib:obj_dat.obj
 0002:000072e0       ??_C@_0BG@JLHHNNCH@id?9cmc?9recipientNonce@ 0000000000079ae0     OpensslLib:obj_dat.obj
 0002:000072f8       ??_C@_0BF@HLOCACJF@id?9cmc?9addExtensions@ 0000000000079af8     OpensslLib:obj_dat.obj
 0002:00007310       ??_C@_0BE@NILMJFN@id?9cmc?9encryptedPOP@ 0000000000079b10     OpensslLib:obj_dat.obj
 0002:00007328       ??_C@_0BE@KBIPLENG@id?9cmc?9decryptedPOP@ 0000000000079b28     OpensslLib:obj_dat.obj
 0002:00007340       ??_C@_0BF@BMODAINP@id?9cmc?9lraPOPWitness@ 0000000000079b40     OpensslLib:obj_dat.obj
 0002:00007358       ??_C@_0P@GMDPJKDO@id?9cmc?9getCert@ 0000000000079b58     OpensslLib:obj_dat.obj
 0002:00007368       ??_C@_0O@OIGIOBJ@id?9cmc?9getCRL@ 0000000000079b68     OpensslLib:obj_dat.obj
 0002:00007378       ??_C@_0BF@BOEAJJNI@id?9cmc?9revokeRequest@ 0000000000079b78     OpensslLib:obj_dat.obj
 0002:00007390       ??_C@_0P@PCIOIKNC@id?9cmc?9regInfo@ 0000000000079b90     OpensslLib:obj_dat.obj
 0002:000073a0       ??_C@_0BE@CKMFMMDP@id?9cmc?9responseInfo@ 0000000000079ba0     OpensslLib:obj_dat.obj
 0002:000073b8       ??_C@_0BE@JKLJLIIH@id?9cmc?9queryPending@ 0000000000079bb8     OpensslLib:obj_dat.obj
 0002:000073d0       ??_C@_0BF@GGLCNKGO@id?9cmc?9popLinkRandom@ 0000000000079bd0     OpensslLib:obj_dat.obj
 0002:000073e8       ??_C@_0BG@EEIJMDPB@id?9cmc?9popLinkWitness@ 0000000000079be8     OpensslLib:obj_dat.obj
 0002:00007400       ??_C@_0BN@MIGHDJON@id?9cmc?9confirmCertAcceptance@ 0000000000079c00     OpensslLib:obj_dat.obj
 0002:00007420       ??_C@_0BD@IGLADCFL@id?9on?9personalData@ 0000000000079c20     OpensslLib:obj_dat.obj
 0002:00007438       ??_C@_0BD@BADJMIPF@id?9pda?9dateOfBirth@ 0000000000079c38     OpensslLib:obj_dat.obj
 0002:00007450       ??_C@_0BE@NIFFDBPJ@id?9pda?9placeOfBirth@ 0000000000079c50     OpensslLib:obj_dat.obj
 0002:00007468       ??_C@_0O@JMCFNPFD@id?9pda?9gender@ 0000000000079c68     OpensslLib:obj_dat.obj
 0002:00007478       ??_C@_0BM@KMGEGNAB@id?9pda?9countryOfCitizenship@ 0000000000079c78     OpensslLib:obj_dat.obj
 0002:00007498       ??_C@_0BK@BJMNIGCJ@id?9pda?9countryOfResidence@ 0000000000079c98     OpensslLib:obj_dat.obj
 0002:000074b8       ??_C@_0BK@OFEDAOCA@id?9aca?9authenticationInfo@ 0000000000079cb8     OpensslLib:obj_dat.obj
 0002:000074d8       ??_C@_0BG@GFJCFEAI@id?9aca?9accessIdentity@ 0000000000079cd8     OpensslLib:obj_dat.obj
 0002:000074f0       ??_C@_0BI@IDHFJBKH@id?9aca?9chargingIdentity@ 0000000000079cf0     OpensslLib:obj_dat.obj
 0002:00007508       ??_C@_0N@HOPCGOGP@id?9aca?9group@ 0000000000079d08     OpensslLib:obj_dat.obj
 0002:00007518       ??_C@_0M@FBOAJIIJ@id?9aca?9role@ 0000000000079d18     OpensslLib:obj_dat.obj
 0002:00007528       ??_C@_0BH@DJONLBHI@id?9qcs?9pkixQCSyntax?9v1@ 0000000000079d28     OpensslLib:obj_dat.obj
 0002:00007540       ??_C@_0L@CDHPLMPE@id?9cct?9crs@ 0000000000079d40     OpensslLib:obj_dat.obj
 0002:00007550       ??_C@_0P@FNCPPGJO@id?9cct?9PKIData@ 0000000000079d50     OpensslLib:obj_dat.obj
 0002:00007560       ??_C@_0BD@DDALHPCH@id?9cct?9PKIResponse@ 0000000000079d60     OpensslLib:obj_dat.obj
 0002:00007578       ??_C@_0BA@PBBONLHE@ad_timestamping@ 0000000000079d78     OpensslLib:obj_dat.obj
 0002:00007588       ??_C@_0BB@NMPPBOGK@AD?5Time?5Stamping@ 0000000000079d88     OpensslLib:obj_dat.obj
 0002:000075a0       ??_C@_07JCCJJKFE@AD_DVCS@  0000000000079da0     OpensslLib:obj_dat.obj
 0002:000075a8       ??_C@_07JCKMJMPC@ad?5dvcs@ 0000000000079da8     OpensslLib:obj_dat.obj
 0002:000075b0       ??_C@_0BC@KFAFMFFF@basicOCSPResponse@ 0000000000079db0     OpensslLib:obj_dat.obj
 0002:000075c8       ??_C@_0BE@ONEEPEOL@Basic?5OCSP?5Response@ 0000000000079dc8     OpensslLib:obj_dat.obj
 0002:000075dc       ??_C@_05OJOPLPHH@Nonce@    0000000000079ddc     OpensslLib:obj_dat.obj
 0002:000075e8       ??_C@_0L@NCNDEJFL@OCSP?5Nonce@ 0000000000079de8     OpensslLib:obj_dat.obj
 0002:000075f4       ??_C@_05NOENOBME@CrlID@    0000000000079df4     OpensslLib:obj_dat.obj
 0002:00007600       ??_C@_0M@LCLKJALE@OCSP?5CRL?5ID@ 0000000000079e00     OpensslLib:obj_dat.obj
 0002:00007610       ??_C@_0BE@FBPDIHIK@acceptableResponses@ 0000000000079e10     OpensslLib:obj_dat.obj
 0002:00007628       ??_C@_0BK@JKKLNLEI@Acceptable?5OCSP?5Responses@ 0000000000079e28     OpensslLib:obj_dat.obj
 0002:00007648       ??_C@_07MCKMCKHJ@noCheck@  0000000000079e48     OpensslLib:obj_dat.obj
 0002:00007650       ??_C@_0O@HFOALJCG@OCSP?5No?5Check@ 0000000000079e50     OpensslLib:obj_dat.obj
 0002:00007660       ??_C@_0O@FIEDPKGI@archiveCutoff@ 0000000000079e60     OpensslLib:obj_dat.obj
 0002:00007670       ??_C@_0BE@JAFPABJB@OCSP?5Archive?5Cutoff@ 0000000000079e70     OpensslLib:obj_dat.obj
 0002:00007688       ??_C@_0P@LCDAPLHC@serviceLocator@ 0000000000079e88     OpensslLib:obj_dat.obj
 0002:00007698       ??_C@_0BF@CEIKAD@OCSP?5Service?5Locator@ 0000000000079e98     OpensslLib:obj_dat.obj
 0002:000076b0       ??_C@_0P@EGENIBNC@extendedStatus@ 0000000000079eb0     OpensslLib:obj_dat.obj
 0002:000076c0       ??_C@_0BF@MPEDLKDP@Extended?5OCSP?5Status@ 0000000000079ec0     OpensslLib:obj_dat.obj
 0002:000076d8       ??_C@_05HDPIMK@valid@      0000000000079ed8     OpensslLib:obj_dat.obj
 0002:000076e0       ??_C@_04LNEJFJGI@path@     0000000000079ee0     OpensslLib:obj_dat.obj
 0002:000076e8       ??_C@_09LNEPAILM@trustRoot@ 0000000000079ee8     OpensslLib:obj_dat.obj
 0002:000076f8       ??_C@_0L@INBPOG@Trust?5Root@ 0000000000079ef8     OpensslLib:obj_dat.obj
 0002:00007708       ??_C@_0N@JHANBHGC@rsaSignature@ 0000000000079f08     OpensslLib:obj_dat.obj
 0002:00007718       ??_C@_0P@NMIAKCBG@X500algorithms@ 0000000000079f18     OpensslLib:obj_dat.obj
 0002:00007728       ??_C@_0CA@FIOIBJEO@directory?5services?5?9?5algorithms@ 0000000000079f28     OpensslLib:obj_dat.obj
 0002:00007748       ??_C@_03MNMMELJE@ORG@      0000000000079f48     OpensslLib:obj_dat.obj
 0002:0000774c       ??_C@_03MADHIGOI@org@      0000000000079f4c     OpensslLib:obj_dat.obj
 0002:00007750       ??_C@_03CFBOKPHF@DOD@      0000000000079f50     OpensslLib:obj_dat.obj
 0002:00007754       ??_C@_03CIOFGCAJ@dod@      0000000000079f54     OpensslLib:obj_dat.obj
 0002:00007758       ??_C@_04NMPANDAM@IANA@     0000000000079f58     OpensslLib:obj_dat.obj
 0002:00007760       ??_C@_04BAMKDBHE@iana@     0000000000079f60     OpensslLib:obj_dat.obj
 0002:00007768       ??_C@_09ELLNFDPM@directory@ 0000000000079f68     OpensslLib:obj_dat.obj
 0002:00007778       ??_C@_09EOAFACM@Directory@ 0000000000079f78     OpensslLib:obj_dat.obj
 0002:00007784       ??_C@_04PFNCJACF@mgmt@     0000000000079f84     OpensslLib:obj_dat.obj
 0002:00007790       ??_C@_0L@ENAJINDB@Management@ 0000000000079f90     OpensslLib:obj_dat.obj
 0002:000077a0       ??_C@_0N@OJFGCCKJ@experimental@ 0000000000079fa0     OpensslLib:obj_dat.obj
 0002:000077b0       ??_C@_0N@FKCIGJFM@Experimental@ 0000000000079fb0     OpensslLib:obj_dat.obj
 0002:000077c0       ??_C@_07NMPLPEPB@private@  0000000000079fc0     OpensslLib:obj_dat.obj
 0002:000077c8       ??_C@_07CFINJGKH@Private@  0000000000079fc8     OpensslLib:obj_dat.obj
 0002:000077d0       ??_C@_08MBFLHJIB@security@ 0000000000079fd0     OpensslLib:obj_dat.obj
 0002:000077e0       ??_C@_08EDKKPLCC@Security@ 0000000000079fe0     OpensslLib:obj_dat.obj
 0002:000077ec       ??_C@_06DKHMNHOO@snmpv2@   0000000000079fec     OpensslLib:obj_dat.obj
 0002:000077f4       ??_C@_06JDJOGLHO@SNMPv2@   0000000000079ff4     OpensslLib:obj_dat.obj
 0002:000077fc       ??_C@_04JEGKNAHI@Mail@     0000000000079ffc     OpensslLib:obj_dat.obj
 0002:00007808       ??_C@_0M@DMHOKNAD@enterprises@ 000000000007a008     OpensslLib:obj_dat.obj
 0002:00007818       ??_C@_0M@CEEPHGPL@Enterprises@ 000000000007a018     OpensslLib:obj_dat.obj
 0002:00007828       ??_C@_08KAGHKPKK@dcobject@ 000000000007a028     OpensslLib:obj_dat.obj
 0002:00007838       ??_C@_08GPNKJGDG@dcObject@ 000000000007a038     OpensslLib:obj_dat.obj
 0002:00007844       ??_C@_02KMHJBPDH@DC@       000000000007a044     OpensslLib:obj_dat.obj
 0002:00007848       ??_C@_0BA@DMAKFKAH@domainComponent@ 000000000007a048     OpensslLib:obj_dat.obj
 0002:00007858       ??_C@_06LKIIGAOE@domain@   000000000007a058     OpensslLib:obj_dat.obj
 0002:00007860       ??_C@_06HFDFFJHI@Domain@   000000000007a060     OpensslLib:obj_dat.obj
 0002:00007868       ??_C@_04HIBGFPH@NULL@      000000000007a068     OpensslLib:obj_dat.obj
 0002:00007870       ??_C@_0BJ@BDDNHDDA@selected?9attribute?9types@ 000000000007a070     OpensslLib:obj_dat.obj
 0002:00007890       ??_C@_0BJ@MAOJIBHF@Selected?5Attribute?5Types@ 000000000007a090     OpensslLib:obj_dat.obj
 0002:000078b0       ??_C@_09ECGCCLFI@clearance@ 000000000007a0b0     OpensslLib:obj_dat.obj
 0002:000078c0       ??_C@_07MHHBEDHA@RSA?9MD4@ 000000000007a0c0     OpensslLib:obj_dat.obj
 0002:000078c8       ??_C@_0BF@JDOFKNPK@md4WithRSAEncryption@ 000000000007a0c8     OpensslLib:obj_dat.obj
 0002:000078e0       ??_C@_0M@BKAIKGEL@ac?9proxying@ 000000000007a0e0     OpensslLib:obj_dat.obj
 0002:000078f0       ??_C@_0BC@IEIBIKBA@subjectInfoAccess@ 000000000007a0f0     OpensslLib:obj_dat.obj
 0002:00007908       ??_C@_0BL@OMFIOBLF@Subject?5Information?5Access@ 000000000007a108     OpensslLib:obj_dat.obj
 0002:00007928       ??_C@_0BA@PEFFHNFH@id?9aca?9encAttrs@ 000000000007a128     OpensslLib:obj_dat.obj
 0002:00007938       ??_C@_04IAMNPBLO@role@     000000000007a138     OpensslLib:obj_dat.obj
 0002:00007940       ??_C@_0BC@IJLMCBHD@policyConstraints@ 000000000007a140     OpensslLib:obj_dat.obj
 0002:00007958       ??_C@_0BK@DNMBLGM@X509v3?5Policy?5Constraints@ 000000000007a158     OpensslLib:obj_dat.obj
 0002:00007978       ??_C@_0BC@JINDJNPM@targetInformation@ 000000000007a178     OpensslLib:obj_dat.obj
 0002:00007990       ??_C@_0BE@IECCFFCH@X509v3?5AC?5Targeting@ 000000000007a190     OpensslLib:obj_dat.obj
 0002:000079a8       ??_C@_0L@ECGDAGCK@noRevAvail@ 000000000007a1a8     OpensslLib:obj_dat.obj
 0002:000079b8       ??_C@_0BP@DEKFNCEH@X509v3?5No?5Revocation?5Available@ 000000000007a1b8     OpensslLib:obj_dat.obj
 0002:000079d8       ??_C@_0L@LBMOMFCJ@ansi?9X9?962@ 000000000007a1d8     OpensslLib:obj_dat.obj
 0002:000079e8       ??_C@_0L@HAOKGHPF@ANSI?5X9?462@ 000000000007a1e8     OpensslLib:obj_dat.obj
 0002:000079f8       ??_C@_0M@LGLKIODB@prime?9field@ 000000000007a1f8     OpensslLib:obj_dat.obj
 0002:00007a08       ??_C@_0BJ@HECCMKCN@characteristic?9two?9field@ 000000000007a208     OpensslLib:obj_dat.obj
 0002:00007a28       ??_C@_0P@NEOBKIMO@id?9ecPublicKey@ 000000000007a228     OpensslLib:obj_dat.obj
 0002:00007a38       ??_C@_0L@FFFCIFBH@prime192v1@ 000000000007a238     OpensslLib:obj_dat.obj
 0002:00007a48       ??_C@_0L@HOHPNGNE@prime192v2@ 000000000007a248     OpensslLib:obj_dat.obj
 0002:00007a58       ??_C@_0L@GHGEOHJF@prime192v3@ 000000000007a258     OpensslLib:obj_dat.obj
 0002:00007a68       ??_C@_0L@EOHHGIBJ@prime239v1@ 000000000007a268     OpensslLib:obj_dat.obj
 0002:00007a78       ??_C@_0L@GFFKDLNK@prime239v2@ 000000000007a278     OpensslLib:obj_dat.obj
 0002:00007a88       ??_C@_0L@HMEBAKJL@prime239v3@ 000000000007a288     OpensslLib:obj_dat.obj
 0002:00007a98       ??_C@_0L@JJFEINOP@prime256v1@ 000000000007a298     OpensslLib:obj_dat.obj
 0002:00007aa8       ??_C@_0BA@DGJNDOPM@ecdsa?9with?9SHA1@ 000000000007a2a8     OpensslLib:obj_dat.obj
 0002:00007ab8       ??_C@_07BPKAKPJK@CSPName@  000000000007a2b8     OpensslLib:obj_dat.obj
 0002:00007ac0       ??_C@_0BD@HDEEGCLB@Microsoft?5CSP?5Name@ 000000000007a2c0     OpensslLib:obj_dat.obj
 0002:00007ad8       ??_C@_0M@BCNEBAOB@AES?9128?9ECB@ 000000000007a2d8     OpensslLib:obj_dat.obj
 0002:00007ae8       ??_C@_0M@MONPIKGC@aes?9128?9ecb@ 000000000007a2e8     OpensslLib:obj_dat.obj
 0002:00007af8       ??_C@_0M@CPGGBEEL@AES?9128?9CBC@ 000000000007a2f8     OpensslLib:obj_dat.obj
 0002:00007b08       ??_C@_0M@PDGNIOMI@aes?9128?9cbc@ 000000000007a308     OpensslLib:obj_dat.obj
 0002:00007b18       ??_C@_0M@HLKCDCGO@AES?9128?9OFB@ 000000000007a318     OpensslLib:obj_dat.obj
 0002:00007b28       ??_C@_0M@KHKJKION@aes?9128?9ofb@ 000000000007a328     OpensslLib:obj_dat.obj
 0002:00007b38       ??_C@_0M@DBHEINNG@AES?9128?9CFB@ 000000000007a338     OpensslLib:obj_dat.obj
 0002:00007b48       ??_C@_0M@ONHPBHFF@aes?9128?9cfb@ 000000000007a348     OpensslLib:obj_dat.obj
 0002:00007b58       ??_C@_0M@LBEIGHHN@AES?9192?9ECB@ 000000000007a358     OpensslLib:obj_dat.obj
 0002:00007b68       ??_C@_0M@GNEDPNPO@aes?9192?9ecb@ 000000000007a368     OpensslLib:obj_dat.obj
 0002:00007b78       ??_C@_0M@IMPKGDNH@AES?9192?9CBC@ 000000000007a378     OpensslLib:obj_dat.obj
 0002:00007b88       ??_C@_0M@FAPBPJFE@aes?9192?9cbc@ 000000000007a388     OpensslLib:obj_dat.obj
 0002:00007b98       ??_C@_0M@NIDOEFPC@AES?9192?9OFB@ 000000000007a398     OpensslLib:obj_dat.obj
 0002:00007ba8       ??_C@_0M@EDFNPHB@aes?9192?9ofb@ 000000000007a3a8     OpensslLib:obj_dat.obj
 0002:00007bb8       ??_C@_0M@JCOIPKEK@AES?9192?9CFB@ 000000000007a3b8     OpensslLib:obj_dat.obj
 0002:00007bc8       ??_C@_0M@EOODGAMJ@aes?9192?9cfb@ 000000000007a3c8     OpensslLib:obj_dat.obj
 0002:00007bd8       ??_C@_0M@GDPGEIPM@AES?9256?9ECB@ 000000000007a3d8     OpensslLib:obj_dat.obj
 0002:00007be8       ??_C@_0M@LPPNNCHP@aes?9256?9ecb@ 000000000007a3e8     OpensslLib:obj_dat.obj
 0002:00007bf8       ??_C@_0M@FOEEEMFG@AES?9256?9CBC@ 000000000007a3f8     OpensslLib:obj_dat.obj
 0002:00007c08       ??_C@_0M@ICEPNGNF@aes?9256?9cbc@ 000000000007a408     OpensslLib:obj_dat.obj
 0002:00007c18       ??_C@_0M@KIAGKHD@AES?9256?9OFB@ 000000000007a418     OpensslLib:obj_dat.obj
 0002:00007c28       ??_C@_0M@NGILPAPA@aes?9256?9ofb@ 000000000007a428     OpensslLib:obj_dat.obj
 0002:00007c38       ??_C@_0M@EAFGNFML@AES?9256?9CFB@ 000000000007a438     OpensslLib:obj_dat.obj
 0002:00007c48       ??_C@_0M@JMFNEPEI@aes?9256?9cfb@ 000000000007a448     OpensslLib:obj_dat.obj
 0002:00007c58       ??_C@_0BE@FKEPLGJO@holdInstructionCode@ 000000000007a458     OpensslLib:obj_dat.obj
 0002:00007c70       ??_C@_0BG@LHBPDMAN@Hold?5Instruction?5Code@ 000000000007a470     OpensslLib:obj_dat.obj
 0002:00007c88       ??_C@_0BE@KPEIPHPJ@holdInstructionNone@ 000000000007a488     OpensslLib:obj_dat.obj
 0002:00007ca0       ??_C@_0BG@ECBIHNGK@Hold?5Instruction?5None@ 000000000007a4a0     OpensslLib:obj_dat.obj
 0002:00007cb8       ??_C@_0BK@ENEKHHMB@holdInstructionCallIssuer@ 000000000007a4b8     OpensslLib:obj_dat.obj
 0002:00007cd8       ??_C@_0BN@IJKNPIFC@Hold?5Instruction?5Call?5Issuer@ 000000000007a4d8     OpensslLib:obj_dat.obj
 0002:00007cf8       ??_C@_0BG@BDAACIJE@holdInstructionReject@ 000000000007a4f8     OpensslLib:obj_dat.obj
 0002:00007d10       ??_C@_0BI@EEABHGCD@Hold?5Instruction?5Reject@ 000000000007a510     OpensslLib:obj_dat.obj
 0002:00007d28       ??_C@_04PJOLNDGD@data@     000000000007a528     OpensslLib:obj_dat.obj
 0002:00007d30       ??_C@_03OHCBHMED@pss@      000000000007a530     OpensslLib:obj_dat.obj
 0002:00007d34       ??_C@_03BIDCBJP@ucl@       000000000007a534     OpensslLib:obj_dat.obj
 0002:00007d38       ??_C@_05KIBFDOPF@pilot@    000000000007a538     OpensslLib:obj_dat.obj
 0002:00007d40       ??_C@_0BD@NEGIHOAI@pilotAttributeType@ 000000000007a540     OpensslLib:obj_dat.obj
 0002:00007d58       ??_C@_0BF@CDEFHHCF@pilotAttributeSyntax@ 000000000007a558     OpensslLib:obj_dat.obj
 0002:00007d70       ??_C@_0BB@MJFNAIDM@pilotObjectClass@ 000000000007a570     OpensslLib:obj_dat.obj
 0002:00007d88       ??_C@_0M@DLMEDAFC@pilotGroups@ 000000000007a588     OpensslLib:obj_dat.obj
 0002:00007d98       ??_C@_0BA@KPIIGILK@iA5StringSyntax@ 000000000007a598     OpensslLib:obj_dat.obj
 0002:00007da8       ??_C@_0BK@LELMGJGD@caseIgnoreIA5StringSyntax@ 000000000007a5a8     OpensslLib:obj_dat.obj
 0002:00007dc8       ??_C@_0M@MCCFCPKP@pilotObject@ 000000000007a5c8     OpensslLib:obj_dat.obj
 0002:00007dd8       ??_C@_0M@NCGDCEIP@pilotPerson@ 000000000007a5d8     OpensslLib:obj_dat.obj
 0002:00007de8       ??_C@_07PMDLEBNF@account@  000000000007a5e8     OpensslLib:obj_dat.obj
 0002:00007df0       ??_C@_08JEEDKNPB@document@ 000000000007a5f0     OpensslLib:obj_dat.obj
 0002:00007dfc       ??_C@_04EKFCMFOP@room@     000000000007a5fc     OpensslLib:obj_dat.obj
 0002:00007e08       ??_C@_0P@OAPEDDHP@documentSeries@ 000000000007a608     OpensslLib:obj_dat.obj
 0002:00007e18       ??_C@_0BA@KIAIOBLD@rFC822localPart@ 000000000007a618     OpensslLib:obj_dat.obj
 0002:00007e28       ??_C@_09BOCGGGMK@dNSDomain@ 000000000007a628     OpensslLib:obj_dat.obj
 0002:00007e38       ??_C@_0BE@OPAPHNCO@domainRelatedObject@ 000000000007a638     OpensslLib:obj_dat.obj
 0002:00007e50       ??_C@_0BA@LKHIAMBK@friendlyCountry@ 000000000007a650     OpensslLib:obj_dat.obj
 0002:00007e60       ??_C@_0BF@CONLNHDI@simpleSecurityObject@ 000000000007a660     OpensslLib:obj_dat.obj
 0002:00007e78       ??_C@_0BC@PLDKCMI@pilotOrganization@ 000000000007a678     OpensslLib:obj_dat.obj
 0002:00007e90       ??_C@_08MPJGPMC@pilotDSA@  000000000007a690     OpensslLib:obj_dat.obj
 0002:00007ea0       ??_C@_0BE@DDFOMMI@qualityLabelledData@ 000000000007a6a0     OpensslLib:obj_dat.obj
 0002:00007eb4       ??_C@_03MJDGODDN@UID@      000000000007a6b4     OpensslLib:obj_dat.obj
 0002:00007eb8       ??_C@_06LPELCIKE@userId@   000000000007a6b8     OpensslLib:obj_dat.obj
 0002:00007ec0       ??_C@_0BF@HDIIKJDI@textEncodedORAddress@ 000000000007a6c0     OpensslLib:obj_dat.obj
 0002:00007ed8       ??_C@_04FFKLPPHM@mail@     000000000007a6d8     OpensslLib:obj_dat.obj
 0002:00007ee0       ??_C@_0O@PDNFEOHL@rfc822Mailbox@ 000000000007a6e0     OpensslLib:obj_dat.obj
 0002:00007ef0       ??_C@_04NIDJFNBE@info@     000000000007a6f0     OpensslLib:obj_dat.obj
 0002:00007ef8       ??_C@_0P@PAMFCEKP@favouriteDrink@ 000000000007a6f8     OpensslLib:obj_dat.obj
 0002:00007f08       ??_C@_0L@DGKNANFO@roomNumber@ 000000000007a708     OpensslLib:obj_dat.obj
 0002:00007f14       ??_C@_05DOIFDPKA@photo@    000000000007a714     OpensslLib:obj_dat.obj
 0002:00007f20       ??_C@_09CCPGMHEM@userClass@ 000000000007a720     OpensslLib:obj_dat.obj
 0002:00007f2c       ??_C@_04OODOLJMA@host@     000000000007a72c     OpensslLib:obj_dat.obj
 0002:00007f38       ??_C@_07JPLKDPHP@manager@  000000000007a738     OpensslLib:obj_dat.obj
 0002:00007f40       ??_C@_0BD@MEPJGCEO@documentIdentifier@ 000000000007a740     OpensslLib:obj_dat.obj
 0002:00007f58       ??_C@_0O@BDIDABAC@documentTitle@ 000000000007a758     OpensslLib:obj_dat.obj
 0002:00007f68       ??_C@_0BA@GHOLKFM@documentVersion@ 000000000007a768     OpensslLib:obj_dat.obj
 0002:00007f78       ??_C@_0P@DABDJKFB@documentAuthor@ 000000000007a778     OpensslLib:obj_dat.obj
 0002:00007f88       ??_C@_0BB@COFKDFJ@documentLocation@ 000000000007a788     OpensslLib:obj_dat.obj
 0002:00007fa0       ??_C@_0BE@CPLAKLNE@homeTelephoneNumber@ 000000000007a7a0     OpensslLib:obj_dat.obj
 0002:00007fb8       ??_C@_09EMBFDNKC@secretary@ 000000000007a7b8     OpensslLib:obj_dat.obj
 0002:00007fc8       ??_C@_0N@CEOKELFP@otherMailbox@ 000000000007a7c8     OpensslLib:obj_dat.obj
 0002:00007fd8       ??_C@_0BB@LHLABCIP@lastModifiedTime@ 000000000007a7d8     OpensslLib:obj_dat.obj
 0002:00007ff0       ??_C@_0P@ECLEJAJJ@lastModifiedBy@ 000000000007a7f0     OpensslLib:obj_dat.obj
 0002:00008000       ??_C@_07IBNMBOJB@aRecord@  000000000007a800     OpensslLib:obj_dat.obj
 0002:00008008       ??_C@_0BF@MIIMJDJB@pilotAttributeType27@ 000000000007a808     OpensslLib:obj_dat.obj
 0002:00008020       ??_C@_08DFFJPLPD@mXRecord@ 000000000007a820     OpensslLib:obj_dat.obj
 0002:00008030       ??_C@_08FBLONLGA@nSRecord@ 000000000007a830     OpensslLib:obj_dat.obj
 0002:00008040       ??_C@_09OCFHDJJF@sOARecord@ 000000000007a840     OpensslLib:obj_dat.obj
 0002:00008050       ??_C@_0M@GHEAGPOE@cNAMERecord@ 000000000007a850     OpensslLib:obj_dat.obj
 0002:00008060       ??_C@_0BB@MEFMIBKO@associatedDomain@ 000000000007a860     OpensslLib:obj_dat.obj
 0002:00008078       ??_C@_0P@OJOOFNGB@associatedName@ 000000000007a878     OpensslLib:obj_dat.obj
 0002:00008088       ??_C@_0BC@NPJKACJF@homePostalAddress@ 000000000007a888     OpensslLib:obj_dat.obj
 0002:000080a0       ??_C@_0O@CCHLDBGG@personalTitle@ 000000000007a8a0     OpensslLib:obj_dat.obj
 0002:000080b0       ??_C@_0BG@DCPABLLG@mobileTelephoneNumber@ 000000000007a8b0     OpensslLib:obj_dat.obj
 0002:000080c8       ??_C@_0BF@JICDDEFM@pagerTelephoneNumber@ 000000000007a8c8     OpensslLib:obj_dat.obj
 0002:000080e0       ??_C@_0BE@MGDAFGCM@friendlyCountryName@ 000000000007a8e0     OpensslLib:obj_dat.obj
 0002:000080f8       ??_C@_0BF@IANLBJMF@organizationalStatus@ 000000000007a8f8     OpensslLib:obj_dat.obj
 0002:00008110       ??_C@_0N@DGNBNBGJ@janetMailbox@ 000000000007a910     OpensslLib:obj_dat.obj
 0002:00008120       ??_C@_0BF@OFOHKDCI@mailPreferenceOption@ 000000000007a920     OpensslLib:obj_dat.obj
 0002:00008138       ??_C@_0N@POAALOHC@buildingName@ 000000000007a938     OpensslLib:obj_dat.obj
 0002:00008148       ??_C@_0L@LMCCHBHL@dSAQuality@ 000000000007a948     OpensslLib:obj_dat.obj
 0002:00008158       ??_C@_0BD@EHDOPADK@singleLevelQuality@ 000000000007a958     OpensslLib:obj_dat.obj
 0002:00008170       ??_C@_0BG@HMOECBMF@subtreeMinimumQuality@ 000000000007a970     OpensslLib:obj_dat.obj
 0002:00008188       ??_C@_0BG@FLFPEGPE@subtreeMaximumQuality@ 000000000007a988     OpensslLib:obj_dat.obj
 0002:000081a0       ??_C@_0BC@CBOFINFC@personalSignature@ 000000000007a9a0     OpensslLib:obj_dat.obj
 0002:000081b8       ??_C@_0M@KIABODOB@dITRedirect@ 000000000007a9b8     OpensslLib:obj_dat.obj
 0002:000081c4       ??_C@_05KNIAAKIP@audio@    000000000007a9c4     OpensslLib:obj_dat.obj
 0002:000081d0       ??_C@_0BC@KCCHJGGO@documentPublisher@ 000000000007a9d0     OpensslLib:obj_dat.obj
 0002:000081e8       ??_C@_0BF@EFCCADKK@x500UniqueIdentifier@ 000000000007a9e8     OpensslLib:obj_dat.obj
 0002:00008200       ??_C@_08HLONPBDI@mime?9mhs@ 000000000007aa00     OpensslLib:obj_dat.obj
 0002:00008210       ??_C@_08DNBACEKK@MIME?5MHS@ 000000000007aa10     OpensslLib:obj_dat.obj
 0002:00008220       ??_C@_0BC@NIFMCBEJ@mime?9mhs?9headings@ 000000000007aa20     OpensslLib:obj_dat.obj
 0002:00008238       ??_C@_0BA@MOFCNIEE@mime?9mhs?9bodies@ 000000000007aa38     OpensslLib:obj_dat.obj
 0002:00008248       ??_C@_0BH@ILCJEHBB@id?9hex?9partial?9message@ 000000000007aa48     OpensslLib:obj_dat.obj
 0002:00008260       ??_C@_0BJ@KCNAIDP@id?9hex?9multipart?9message@ 000000000007aa60     OpensslLib:obj_dat.obj
 0002:00008280       ??_C@_0BE@DAEHFOO@generationQualifier@ 000000000007aa80     OpensslLib:obj_dat.obj
 0002:00008298       ??_C@_09NNMENHIH@pseudonym@ 000000000007aa98     OpensslLib:obj_dat.obj
 0002:000082a4       ??_C@_06KKEMDFAF@id?9set@  000000000007aaa4     OpensslLib:obj_dat.obj
 0002:000082b0       ??_C@_0BP@KEIHJPNF@Secure?5Electronic?5Transactions@ 000000000007aab0     OpensslLib:obj_dat.obj
 0002:000082d0       ??_C@_09EJPBIJJA@set?9ctype@ 000000000007aad0     OpensslLib:obj_dat.obj
 0002:000082e0       ??_C@_0O@HJGLMADJ@content?5types@ 000000000007aae0     OpensslLib:obj_dat.obj
 0002:000082f0       ??_C@_0L@PKPEIEIJ@set?9msgExt@ 000000000007aaf0     OpensslLib:obj_dat.obj
 0002:00008300       ??_C@_0BD@LEIDLLNO@message?5extensions@ 000000000007ab00     OpensslLib:obj_dat.obj
 0002:00008318       ??_C@_08OFDIOKIA@set?9attr@ 000000000007ab18     OpensslLib:obj_dat.obj
 0002:00008328       ??_C@_0L@LAAAKICM@set?9policy@ 000000000007ab28     OpensslLib:obj_dat.obj
 0002:00008338       ??_C@_0M@KEIBDDC@set?9certExt@ 000000000007ab38     OpensslLib:obj_dat.obj
 0002:00008348       ??_C@_0BH@PDPIEGPA@certificate?5extensions@ 000000000007ab48     OpensslLib:obj_dat.obj
 0002:00008360       ??_C@_09JHODGPNO@set?9brand@ 000000000007ab60     OpensslLib:obj_dat.obj
 0002:00008370       ??_C@_0O@EKAPGBNN@setct?9PANData@ 000000000007ab70     OpensslLib:obj_dat.obj
 0002:00008380       ??_C@_0P@LAMDLEMO@setct?9PANToken@ 000000000007ab80     OpensslLib:obj_dat.obj
 0002:00008390       ??_C@_0O@PFJCCKAL@setct?9PANOnly@ 000000000007ab90     OpensslLib:obj_dat.obj
 0002:000083a0       ??_C@_0N@GHLAGDMC@setct?9OIData@ 000000000007aba0     OpensslLib:obj_dat.obj
 0002:000083b0       ??_C@_08MNJJNIEC@setct?9PI@ 000000000007abb0     OpensslLib:obj_dat.obj
 0002:000083c0       ??_C@_0N@PGCGIPOF@setct?9PIData@ 000000000007abc0     OpensslLib:obj_dat.obj
 0002:000083d0       ??_C@_0BF@BDFGFMFJ@setct?9PIDataUnsigned@ 000000000007abd0     OpensslLib:obj_dat.obj
 0002:000083e8       ??_C@_0P@LPBKKIBL@setct?9HODInput@ 000000000007abe8     OpensslLib:obj_dat.obj
 0002:000083f8       ??_C@_0BF@EFHLGKOJ@setct?9AuthResBaggage@ 000000000007abf8     OpensslLib:obj_dat.obj
 0002:00008410       ??_C@_0BI@DEMAFNK@setct?9AuthRevReqBaggage@ 000000000007ac10     OpensslLib:obj_dat.obj
 0002:00008428       ??_C@_0BI@CNLKCNFM@setct?9AuthRevResBaggage@ 000000000007ac28     OpensslLib:obj_dat.obj
 0002:00008440       ??_C@_0BC@DDFFKACM@setct?9CapTokenSeq@ 000000000007ac40     OpensslLib:obj_dat.obj
 0002:00008458       ??_C@_0BD@GIEGHJGD@setct?9PInitResData@ 000000000007ac58     OpensslLib:obj_dat.obj
 0002:00008470       ??_C@_0N@GIGHFPBJ@setct?9PI?9TBS@ 000000000007ac70     OpensslLib:obj_dat.obj
 0002:00008480       ??_C@_0P@NGDEPBBH@setct?9PResData@ 000000000007ac80     OpensslLib:obj_dat.obj
 0002:00008490       ??_C@_0BB@OFKINDPN@setct?9AuthReqTBS@ 000000000007ac90     OpensslLib:obj_dat.obj
 0002:000084a8       ??_C@_0BB@JPGIIAJN@setct?9AuthResTBS@ 000000000007aca8     OpensslLib:obj_dat.obj
 0002:000084c0       ??_C@_0BC@PMEDFACF@setct?9AuthResTBSX@ 000000000007acc0     OpensslLib:obj_dat.obj
 0002:000084d8       ??_C@_0BD@CLPECGHJ@setct?9AuthTokenTBS@ 000000000007acd8     OpensslLib:obj_dat.obj
 0002:000084f0       ??_C@_0BD@BFGEHNIL@setct?9CapTokenData@ 000000000007acf0     OpensslLib:obj_dat.obj
 0002:00008508       ??_C@_0BC@DEDCIONA@setct?9CapTokenTBS@ 000000000007ad08     OpensslLib:obj_dat.obj
 0002:00008520       ??_C@_0BF@LAOAGKEH@setct?9AcqCardCodeMsg@ 000000000007ad20     OpensslLib:obj_dat.obj
 0002:00008538       ??_C@_0BE@KBFOOHGF@setct?9AuthRevReqTBS@ 000000000007ad38     OpensslLib:obj_dat.obj
 0002:00008550       ??_C@_0BF@ODDCPHOK@setct?9AuthRevResData@ 000000000007ad50     OpensslLib:obj_dat.obj
 0002:00008568       ??_C@_0BE@NLJOLEAF@setct?9AuthRevResTBS@ 000000000007ad68     OpensslLib:obj_dat.obj
 0002:00008580       ??_C@_0BA@KCAOGCKM@setct?9CapReqTBS@ 000000000007ad80     OpensslLib:obj_dat.obj
 0002:00008590       ??_C@_0BB@KNKADGPN@setct?9CapReqTBSX@ 000000000007ad90     OpensslLib:obj_dat.obj
 0002:000085a8       ??_C@_0BB@BIJNNHL@setct?9CapResData@ 000000000007ada8     OpensslLib:obj_dat.obj
 0002:000085c0       ??_C@_0BD@OELDKIB@setct?9CapRevReqTBS@ 000000000007adc0     OpensslLib:obj_dat.obj
 0002:000085d8       ??_C@_0BE@OINDCPNA@setct?9CapRevReqTBSX@ 000000000007add8     OpensslLib:obj_dat.obj
 0002:000085f0       ??_C@_0BE@EEPKMEFG@setct?9CapRevResData@ 000000000007adf0     OpensslLib:obj_dat.obj
 0002:00008608       ??_C@_0BB@LDAMDCDI@setct?9CredReqTBS@ 000000000007ae08     OpensslLib:obj_dat.obj
 0002:00008620       ??_C@_0BC@FKNDGDPA@setct?9CredReqTBSX@ 000000000007ae20     OpensslLib:obj_dat.obj
 0002:00008638       ??_C@_0BC@PGPKIIHG@setct?9CredResData@ 000000000007ae38     OpensslLib:obj_dat.obj
 0002:00008650       ??_C@_0BE@KAOEBGME@setct?9CredRevReqTBS@ 000000000007ae50     OpensslLib:obj_dat.obj
 0002:00008668       ??_C@_0BF@OOMLDFOD@setct?9CredRevReqTBSX@ 000000000007ae68     OpensslLib:obj_dat.obj
 0002:00008680       ??_C@_0BF@ECOCNOGF@setct?9CredRevResData@ 000000000007ae80     OpensslLib:obj_dat.obj
 0002:00008698       ??_C@_0BD@DDNGMNFC@setct?9PCertReqData@ 000000000007ae98     OpensslLib:obj_dat.obj
 0002:000086b0       ??_C@_0BC@CFHCKIIA@setct?9PCertResTBS@ 000000000007aeb0     OpensslLib:obj_dat.obj
 0002:000086c8       ??_C@_0BI@MKKDKHGI@setct?9BatchAdminReqData@ 000000000007aec8     OpensslLib:obj_dat.obj
 0002:000086e0       ??_C@_0BI@IHGLAGGD@setct?9BatchAdminResData@ 000000000007aee0     OpensslLib:obj_dat.obj
 0002:000086f8       ??_C@_0BG@OMHIHPPP@setct?9CardCInitResTBS@ 000000000007aef8     OpensslLib:obj_dat.obj
 0002:00008710       ??_C@_0BG@DIBJJIJB@setct?9MeAqCInitResTBS@ 000000000007af10     OpensslLib:obj_dat.obj
 0002:00008728       ??_C@_0BE@KOFLJLPI@setct?9RegFormResTBS@ 000000000007af28     OpensslLib:obj_dat.obj
 0002:00008740       ??_C@_0BC@FFENCANF@setct?9CertReqData@ 000000000007af40     OpensslLib:obj_dat.obj
 0002:00008758       ??_C@_0BB@MCGELGDK@setct?9CertReqTBS@ 000000000007af58     OpensslLib:obj_dat.obj
 0002:00008770       ??_C@_0BC@BIIFIBNO@setct?9CertResData@ 000000000007af70     OpensslLib:obj_dat.obj
 0002:00008788       ??_C@_0BE@OIDIJLCF@setct?9CertInqReqTBS@ 000000000007af88     OpensslLib:obj_dat.obj
 0002:000087a0       ??_C@_0P@DLHKHMDJ@setct?9ErrorTBS@ 000000000007afa0     OpensslLib:obj_dat.obj
 0002:000087b0       ??_C@_0BG@JDDNBPAG@setct?9PIDualSignedTBE@ 000000000007afb0     OpensslLib:obj_dat.obj
 0002:000087c8       ??_C@_0BE@IBOAPLDD@setct?9PIUnsignedTBE@ 000000000007afc8     OpensslLib:obj_dat.obj
 0002:000087e0       ??_C@_0BB@PJDAGGCK@setct?9AuthReqTBE@ 000000000007afe0     OpensslLib:obj_dat.obj
 0002:000087f8       ??_C@_0BB@IDPADFEK@setct?9AuthResTBE@ 000000000007aff8     OpensslLib:obj_dat.obj
 0002:00008810       ??_C@_0BC@OEOIIPOH@setct?9AuthResTBEX@ 000000000007b010     OpensslLib:obj_dat.obj
 0002:00008828       ??_C@_0BD@DHGMJDKO@setct?9AuthTokenTBE@ 000000000007b028     OpensslLib:obj_dat.obj
 0002:00008840       ??_C@_0BC@CIKKDLAH@setct?9CapTokenTBE@ 000000000007b040     OpensslLib:obj_dat.obj
 0002:00008858       ??_C@_0BD@OMCOOIME@setct?9CapTokenTBEX@ 000000000007b058     OpensslLib:obj_dat.obj
 0002:00008870       ??_C@_0BI@PALCIALL@setct?9AcqCardCodeMsgTBE@ 000000000007b070     OpensslLib:obj_dat.obj
 0002:00008888       ??_C@_0BE@LNMGFCLC@setct?9AuthRevReqTBE@ 000000000007b088     OpensslLib:obj_dat.obj
 0002:000088a0       ??_C@_0BE@MHAGABNC@setct?9AuthRevResTBE@ 000000000007b0a0     OpensslLib:obj_dat.obj
 0002:000088b8       ??_C@_0BF@KKFFJIHO@setct?9AuthRevResTBEB@ 000000000007b0b8     OpensslLib:obj_dat.obj
 0002:000088d0       ??_C@_0BA@LOJGNHHL@setct?9CapReqTBE@ 000000000007b0d0     OpensslLib:obj_dat.obj
 0002:000088e0       ??_C@_0BB@LFALOJDP@setct?9CapReqTBEX@ 000000000007b0e0     OpensslLib:obj_dat.obj
 0002:000088f8       ??_C@_0BA@MEFGIEBL@setct?9CapResTBE@ 000000000007b0f8     OpensslLib:obj_dat.obj
 0002:00008908       ??_C@_0BD@BCNDIPFG@setct?9CapRevReqTBE@ 000000000007b108     OpensslLib:obj_dat.obj
 0002:00008920       ??_C@_0BE@PAHIPABC@setct?9CapRevReqTBEX@ 000000000007b120     OpensslLib:obj_dat.obj
 0002:00008938       ??_C@_0BD@GIBDNMDG@setct?9CapRevResTBE@ 000000000007b138     OpensslLib:obj_dat.obj
 0002:00008950       ??_C@_0BB@KPJEIHOP@setct?9CredReqTBE@ 000000000007b150     OpensslLib:obj_dat.obj
 0002:00008968       ??_C@_0BC@ECHILMDC@setct?9CredReqTBEX@ 000000000007b168     OpensslLib:obj_dat.obj
 0002:00008980       ??_C@_0BB@NFFENEIP@setct?9CredResTBE@ 000000000007b180     OpensslLib:obj_dat.obj
 0002:00008998       ??_C@_0BE@LMHMKDBD@setct?9CredRevReqTBE@ 000000000007b198     OpensslLib:obj_dat.obj
 0002:000089b0       ??_C@_0BF@PGGAOKCB@setct?9CredRevReqTBEX@ 000000000007b1b0     OpensslLib:obj_dat.obj
 0002:000089c8       ??_C@_0BE@MGLMPAHD@setct?9CredRevResTBE@ 000000000007b1c8     OpensslLib:obj_dat.obj
 0002:000089e0       ??_C@_0BH@IPJPBLKL@setct?9BatchAdminReqTBE@ 000000000007b1e0     OpensslLib:obj_dat.obj
 0002:000089f8       ??_C@_0BH@PFFPEIML@setct?9BatchAdminResTBE@ 000000000007b1f8     OpensslLib:obj_dat.obj
 0002:00008a10       ??_C@_0BE@MIADHNEP@setct?9RegFormReqTBE@ 000000000007b210     OpensslLib:obj_dat.obj
 0002:00008a28       ??_C@_0BB@NOPMADON@setct?9CertReqTBE@ 000000000007b228     OpensslLib:obj_dat.obj
 0002:00008a40       ??_C@_0BC@KMAHLFJK@setct?9CertReqTBEX@ 000000000007b240     OpensslLib:obj_dat.obj
 0002:00008a58       ??_C@_0BB@KEDMFAIN@setct?9CertResTBE@ 000000000007b258     OpensslLib:obj_dat.obj
 0002:00008a70       ??_C@_0BJ@KMIJGANO@setct?9CRLNotificationTBS@ 000000000007b270     OpensslLib:obj_dat.obj
 0002:00008a90       ??_C@_0BM@GINBKIMJ@setct?9CRLNotificationResTBS@ 000000000007b290     OpensslLib:obj_dat.obj
 0002:00008ab0       ??_C@_0BJ@BPGLEKIJ@setct?9BCIDistributionTBS@ 000000000007b2b0     OpensslLib:obj_dat.obj
 0002:00008ad0       ??_C@_0BA@NKJJMGPC@setext?9genCrypt@ 000000000007b2d0     OpensslLib:obj_dat.obj
 0002:00008ae0       ??_C@_0BD@IMJHIOH@generic?5cryptogram@ 000000000007b2e0     OpensslLib:obj_dat.obj
 0002:00008af8       ??_C@_0O@IFMPKKOL@setext?9miAuth@ 000000000007b2f8     OpensslLib:obj_dat.obj
 0002:00008b08       ??_C@_0BI@IMGNFPLI@merchant?5initiated?5auth@ 000000000007b308     OpensslLib:obj_dat.obj
 0002:00008b20       ??_C@_0BB@IKLFBNP@setext?9pinSecure@ 000000000007b320     OpensslLib:obj_dat.obj
 0002:00008b38       ??_C@_0O@PNHGIFHA@setext?9pinAny@ 000000000007b338     OpensslLib:obj_dat.obj
 0002:00008b48       ??_C@_0O@PNAFPHHK@setext?9track2@ 000000000007b348     OpensslLib:obj_dat.obj
 0002:00008b58       ??_C@_09GMOEIEJI@setext?9cv@ 000000000007b358     OpensslLib:obj_dat.obj
 0002:00008b68       ??_C@_0BI@MFPOFNGC@additional?5verification@ 000000000007b368     OpensslLib:obj_dat.obj
 0002:00008b80       ??_C@_0BA@DLJGCPKK@set?9policy?9root@ 000000000007b380     OpensslLib:obj_dat.obj
 0002:00008b90       ??_C@_0BD@MELPLACB@setCext?9hashedRoot@ 000000000007b390     OpensslLib:obj_dat.obj
 0002:00008ba8       ??_C@_0BB@LHGCHNFD@setCext?9certType@ 000000000007b3a8     OpensslLib:obj_dat.obj
 0002:00008bc0       ??_C@_0BC@ONMLOIHK@setCext?9merchData@ 000000000007b3c0     OpensslLib:obj_dat.obj
 0002:00008bd8       ??_C@_0BG@CMNKGOHO@setCext?9cCertRequired@ 000000000007b3d8     OpensslLib:obj_dat.obj
 0002:00008bf0       ??_C@_0BC@BPADJLFJ@setCext?9tunneling@ 000000000007b3f0     OpensslLib:obj_dat.obj
 0002:00008c08       ??_C@_0P@DFHCPLJG@setCext?9setExt@ 000000000007b408     OpensslLib:obj_dat.obj
 0002:00008c18       ??_C@_0BB@HIAOOOIO@setCext?9setQualf@ 000000000007b418     OpensslLib:obj_dat.obj
 0002:00008c30       ??_C@_0BJ@CNLNHONG@setCext?9PGWYcapabilities@ 000000000007b430     OpensslLib:obj_dat.obj
 0002:00008c50       ??_C@_0BI@FIIEHNL@setCext?9TokenIdentifier@ 000000000007b450     OpensslLib:obj_dat.obj
 0002:00008c68       ??_C@_0BD@FHFLAKJD@setCext?9Track2Data@ 000000000007b468     OpensslLib:obj_dat.obj
 0002:00008c80       ??_C@_0BC@KMFGLCBL@setCext?9TokenType@ 000000000007b480     OpensslLib:obj_dat.obj
 0002:00008c98       ??_C@_0BL@OLCLGJDA@setCext?9IssuerCapabilities@ 000000000007b498     OpensslLib:obj_dat.obj
 0002:00008cb8       ??_C@_0N@DCNKAAPN@setAttr?9Cert@ 000000000007b4b8     OpensslLib:obj_dat.obj
 0002:00008cc8       ??_C@_0BA@FAIFDKDK@setAttr?9PGWYcap@ 000000000007b4c8     OpensslLib:obj_dat.obj
 0002:00008cd8       ??_C@_0BN@HEFBDPEB@payment?5gateway?5capabilities@ 000000000007b4d8     OpensslLib:obj_dat.obj
 0002:00008cf8       ??_C@_0BC@IKOKMCIL@setAttr?9TokenType@ 000000000007b4f8     OpensslLib:obj_dat.obj
 0002:00008d10       ??_C@_0P@OGFLCCKL@setAttr?9IssCap@ 000000000007b510     OpensslLib:obj_dat.obj
 0002:00008d20       ??_C@_0BE@HBDPGKCG@issuer?5capabilities@ 000000000007b520     OpensslLib:obj_dat.obj
 0002:00008d38       ??_C@_0BB@MADMNAKK@set?9rootKeyThumb@ 000000000007b538     OpensslLib:obj_dat.obj
 0002:00008d50       ??_C@_0O@NOCONBCM@set?9addPolicy@ 000000000007b550     OpensslLib:obj_dat.obj
 0002:00008d60       ??_C@_0BC@BMANBENP@setAttr?9Token?9EMV@ 000000000007b560     OpensslLib:obj_dat.obj
 0002:00008d78       ??_C@_0BG@ICNBHDJ@setAttr?9Token?9B0Prime@ 000000000007b578     OpensslLib:obj_dat.obj
 0002:00008d90       ??_C@_0BD@CMJDLAHE@setAttr?9IssCap?9CVM@ 000000000007b590     OpensslLib:obj_dat.obj
 0002:00008da8       ??_C@_0BC@FKLLNJMF@setAttr?9IssCap?9T2@ 000000000007b5a8     OpensslLib:obj_dat.obj
 0002:00008dc0       ??_C@_0BD@DMNGIJGO@setAttr?9IssCap?9Sig@ 000000000007b5c0     OpensslLib:obj_dat.obj
 0002:00008dd8       ??_C@_0BE@FJCINFHM@setAttr?9GenCryptgrm@ 000000000007b5d8     OpensslLib:obj_dat.obj
 0002:00008df0       ??_C@_0BE@BANBLNDJ@generate?5cryptogram@ 000000000007b5f0     OpensslLib:obj_dat.obj
 0002:00008e08       ??_C@_0O@GFEDKLID@setAttr?9T2Enc@ 000000000007b608     OpensslLib:obj_dat.obj
 0002:00008e18       ??_C@_0BC@MCHFBPJF@encrypted?5track?52@ 000000000007b618     OpensslLib:obj_dat.obj
 0002:00008e30       ??_C@_0BD@GDDCOMNC@setAttr?9T2cleartxt@ 000000000007b630     OpensslLib:obj_dat.obj
 0002:00008e48       ??_C@_0BC@EEELFHMJ@cleartext?5track?52@ 000000000007b648     OpensslLib:obj_dat.obj
 0002:00008e60       ??_C@_0BC@KFHJNGAA@setAttr?9TokICCsig@ 000000000007b660     OpensslLib:obj_dat.obj
 0002:00008e78       ??_C@_0BH@FLMFBHA@ICC?5or?5token?5signature@ 000000000007b678     OpensslLib:obj_dat.obj
 0002:00008e90       ??_C@_0BC@HILPEDHB@setAttr?9SecDevSig@ 000000000007b690     OpensslLib:obj_dat.obj
 0002:00008ea8       ??_C@_0BI@BMDLNIII@secure?5device?5signature@ 000000000007b6a8     OpensslLib:obj_dat.obj
 0002:00008ec0       ??_C@_0BD@EBDAHFCK@set?9brand?9IATA?9ATA@ 000000000007b6c0     OpensslLib:obj_dat.obj
 0002:00008ed8       ??_C@_0BB@MJOMIBOM@set?9brand?9Diners@ 000000000007b6d8     OpensslLib:obj_dat.obj
 0002:00008ef0       ??_C@_0BK@NGHCPIFJ@set?9brand?9AmericanExpress@ 000000000007b6f0     OpensslLib:obj_dat.obj
 0002:00008f10       ??_C@_0O@ODFDKJIN@set?9brand?9JCB@ 000000000007b710     OpensslLib:obj_dat.obj
 0002:00008f20       ??_C@_0P@KADKEMKM@set?9brand?9Visa@ 000000000007b720     OpensslLib:obj_dat.obj
 0002:00008f30       ??_C@_0BF@EKCBHCKG@set?9brand?9MasterCard@ 000000000007b730     OpensslLib:obj_dat.obj
 0002:00008f48       ??_C@_0BA@JHOGHBHC@set?9brand?9Novus@ 000000000007b748     OpensslLib:obj_dat.obj
 0002:00008f58       ??_C@_08IHLOILPC@DES?9CDMF@ 000000000007b758     OpensslLib:obj_dat.obj
 0002:00008f68       ??_C@_08PPLOLAOD@des?9cdmf@ 000000000007b768     OpensslLib:obj_dat.obj
 0002:00008f78       ??_C@_0BF@EIIDBKMM@rsaOAEPEncryptionSET@ 000000000007b778     OpensslLib:obj_dat.obj
 0002:00008f90       ??_C@_05LJGINOIA@ITU?9T@   000000000007b790     OpensslLib:obj_dat.obj
 0002:00008f98       ??_C@_05EKLDHPCO@itu?9t@   000000000007b798     OpensslLib:obj_dat.obj
 0002:00008fa0       ??_C@_0BA@NPJCPIN@JOINT?9ISO?9ITU?9T@ 000000000007b7a0     OpensslLib:obj_dat.obj
 0002:00008fb0       ??_C@_0BA@DDCJMADA@joint?9iso?9itu?9t@ 000000000007b7b0     OpensslLib:obj_dat.obj
 0002:00008fc0       ??_C@_0BM@PBBEOBAP@international?9organizations@ 000000000007b7c0     OpensslLib:obj_dat.obj
 0002:00008fe0       ??_C@_0BM@PGMBEIHL@International?5Organizations@ 000000000007b7e0     OpensslLib:obj_dat.obj
 0002:00009000       ??_C@_0BB@MJPMDGHF@msSmartcardLogin@ 000000000007b800     OpensslLib:obj_dat.obj
 0002:00009018       ??_C@_0BK@BJLJNHIE@Microsoft?5Smartcard?5Login@ 000000000007b818     OpensslLib:obj_dat.obj
 0002:00009034       ??_C@_05LKLAGLGM@msUPN@    000000000007b834     OpensslLib:obj_dat.obj
 0002:00009040       ??_C@_0BO@NJMDLJHK@Microsoft?5User?5Principal?5Name@ 000000000007b840     OpensslLib:obj_dat.obj
 0002:00009060       ??_C@_0N@KJNMAENO@AES?9128?9CFB1@ 000000000007b860     OpensslLib:obj_dat.obj
 0002:00009070       ??_C@_0N@NNLBNNNO@aes?9128?9cfb1@ 000000000007b870     OpensslLib:obj_dat.obj
 0002:00009080       ??_C@_0N@FAMGEHMG@AES?9192?9CFB1@ 000000000007b880     OpensslLib:obj_dat.obj
 0002:00009090       ??_C@_0N@CEKLJOMG@aes?9192?9cfb1@ 000000000007b890     OpensslLib:obj_dat.obj
 0002:000090a0       ??_C@_0N@MKKLEKFP@AES?9256?9CFB1@ 000000000007b8a0     OpensslLib:obj_dat.obj
 0002:000090b0       ??_C@_0N@LOMGJDFP@aes?9256?9cfb1@ 000000000007b8b0     OpensslLib:obj_dat.obj
 0002:000090c0       ??_C@_0N@HIBOLPJH@AES?9128?9CFB8@ 000000000007b8c0     OpensslLib:obj_dat.obj
 0002:000090d0       ??_C@_0N@MHDGGJH@aes?9128?9cfb8@ 000000000007b8d0     OpensslLib:obj_dat.obj
 0002:000090e0       ??_C@_0N@IBAEPMIP@AES?9192?9CFB8@ 000000000007b8e0     OpensslLib:obj_dat.obj
 0002:000090f0       ??_C@_0N@PFGJCFIP@aes?9192?9cfb8@ 000000000007b8f0     OpensslLib:obj_dat.obj
 0002:00009100       ??_C@_0N@BLGJPBBG@AES?9256?9CFB8@ 000000000007b900     OpensslLib:obj_dat.obj
 0002:00009110       ??_C@_0N@GPAECIBG@aes?9256?9cfb8@ 000000000007b910     OpensslLib:obj_dat.obj
 0002:00009120       ??_C@_08EGJFOLHF@DES?9CFB1@ 000000000007b920     OpensslLib:obj_dat.obj
 0002:00009130       ??_C@_08KLBBPEMG@des?9cfb1@ 000000000007b930     OpensslLib:obj_dat.obj
 0002:00009140       ??_C@_08JHFHFADM@DES?9CFB8@ 000000000007b940     OpensslLib:obj_dat.obj
 0002:00009150       ??_C@_08HKNDEPIP@des?9cfb8@ 000000000007b950     OpensslLib:obj_dat.obj
 0002:00009160       ??_C@_0O@HMFIBGGD@DES?9EDE3?9CFB1@ 000000000007b960     OpensslLib:obj_dat.obj
 0002:00009170       ??_C@_0O@HHBHNLEJ@des?9ede3?9cfb1@ 000000000007b970     OpensslLib:obj_dat.obj
 0002:00009180       ??_C@_0O@KNJKKNCK@DES?9EDE3?9CFB8@ 000000000007b980     OpensslLib:obj_dat.obj
 0002:00009190       ??_C@_0O@KGNFGAAA@des?9ede3?9cfb8@ 000000000007b990     OpensslLib:obj_dat.obj
 0002:000091a0       ??_C@_06KFAFKEEH@street@   000000000007b9a0     OpensslLib:obj_dat.obj
 0002:000091a8       ??_C@_0O@GFJANBCD@streetAddress@ 000000000007b9a8     OpensslLib:obj_dat.obj
 0002:000091b8       ??_C@_0L@NCDHJCMF@postalCode@ 000000000007b9b8     OpensslLib:obj_dat.obj
 0002:000091c4       ??_C@_06CAAPGDCJ@id?9ppl@  000000000007b9c4     OpensslLib:obj_dat.obj
 0002:000091d0       ??_C@_0O@LOINHHBF@proxyCertInfo@ 000000000007b9d0     OpensslLib:obj_dat.obj
 0002:000091e0       ??_C@_0BO@CCHFGBDO@Proxy?5Certificate?5Information@ 000000000007b9e0     OpensslLib:obj_dat.obj
 0002:00009200       ??_C@_0BD@HNCKDFAM@id?9ppl?9anyLanguage@ 000000000007ba00     OpensslLib:obj_dat.obj
 0002:00009218       ??_C@_0N@BEBFEGLC@Any?5language@ 000000000007ba18     OpensslLib:obj_dat.obj
 0002:00009228       ??_C@_0BC@PCEJIIF@id?9ppl?9inheritAll@ 000000000007ba28     OpensslLib:obj_dat.obj
 0002:00009240       ??_C@_0M@FFLAPACB@Inherit?5all@ 000000000007ba40     OpensslLib:obj_dat.obj
 0002:00009250       ??_C@_0BA@NDBMPGLN@nameConstraints@ 000000000007ba50     OpensslLib:obj_dat.obj
 0002:00009260       ??_C@_0BI@MLJLAGL@X509v3?5Name?5Constraints@ 000000000007ba60     OpensslLib:obj_dat.obj
 0002:00009278       ??_C@_0BD@JMNHHICP@id?9ppl?9independent@ 000000000007ba78     OpensslLib:obj_dat.obj
 0002:00009290       ??_C@_0M@MLMKHJLC@Independent@ 000000000007ba90     OpensslLib:obj_dat.obj
 0002:000092a0       ??_C@_0L@CICIPLII@RSA?9SHA256@ 000000000007baa0     OpensslLib:obj_dat.obj
 0002:000092b0       ??_C@_0BI@OLMNBFHG@sha256WithRSAEncryption@ 000000000007bab0     OpensslLib:obj_dat.obj
 0002:000092c8       ??_C@_0L@KKHKGNDM@RSA?9SHA384@ 000000000007bac8     OpensslLib:obj_dat.obj
 0002:000092d8       ??_C@_0BI@LGPCJGLE@sha384WithRSAEncryption@ 000000000007bad8     OpensslLib:obj_dat.obj
 0002:000092f0       ??_C@_0L@NGJKKOOJ@RSA?9SHA512@ 000000000007baf0     OpensslLib:obj_dat.obj
 0002:00009300       ??_C@_0BI@CFKPHFJF@sha512WithRSAEncryption@ 000000000007bb00     OpensslLib:obj_dat.obj
 0002:00009318       ??_C@_0L@BPFBIPIP@RSA?9SHA224@ 000000000007bb18     OpensslLib:obj_dat.obj
 0002:00009328       ??_C@_0BI@HODNLFBE@sha224WithRSAEncryption@ 000000000007bb28     OpensslLib:obj_dat.obj
 0002:00009340       ??_C@_06HKIKMHH@SHA256@    000000000007bb40     OpensslLib:obj_dat.obj
 0002:00009348       ??_C@_06OHILPNJ@sha256@    000000000007bb48     OpensslLib:obj_dat.obj
 0002:00009350       ??_C@_06IFPKDKMD@SHA384@   000000000007bb50     OpensslLib:obj_dat.obj
 0002:00009358       ??_C@_06IMCKCJGN@sha384@   000000000007bb58     OpensslLib:obj_dat.obj
 0002:00009360       ??_C@_06PJBKPJBG@SHA512@   000000000007bb60     OpensslLib:obj_dat.obj
 0002:00009368       ??_C@_06PAMKOKLI@sha512@   000000000007bb68     OpensslLib:obj_dat.obj
 0002:00009370       ??_C@_06DANBNIHA@SHA224@   000000000007bb70     OpensslLib:obj_dat.obj
 0002:00009378       ??_C@_06DJABMLNO@sha224@   000000000007bb78     OpensslLib:obj_dat.obj
 0002:00009380       ??_C@_0BI@NDBFOMIA@identified?9organization@ 000000000007bb80     OpensslLib:obj_dat.obj
 0002:00009398       ??_C@_0N@GOPBJFID@certicom?9arc@ 000000000007bb98     OpensslLib:obj_dat.obj
 0002:000093a8       ??_C@_03EOHJGACH@wap@      000000000007bba8     OpensslLib:obj_dat.obj
 0002:000093b0       ??_C@_07KJBJKKHG@wap?9wsg@ 000000000007bbb0     OpensslLib:obj_dat.obj
 0002:000093b8       ??_C@_0BM@PPOCDOAJ@id?9characteristic?9two?9basis@ 000000000007bbb8     OpensslLib:obj_dat.obj
 0002:000093d8       ??_C@_07JEMDIFEL@onBasis@  000000000007bbd8     OpensslLib:obj_dat.obj
 0002:000093e0       ??_C@_07ICPDEPKF@tpBasis@  000000000007bbe0     OpensslLib:obj_dat.obj
 0002:000093e8       ??_C@_07GLJEBFP@ppBasis@   000000000007bbe8     OpensslLib:obj_dat.obj
 0002:000093f0       ??_C@_0L@INFLBNIO@c2pnb163v1@ 000000000007bbf0     OpensslLib:obj_dat.obj
 0002:00009400       ??_C@_0L@KGHGEOEN@c2pnb163v2@ 000000000007bc00     OpensslLib:obj_dat.obj
 0002:00009410       ??_C@_0L@LPGNHPAM@c2pnb163v3@ 000000000007bc10     OpensslLib:obj_dat.obj
 0002:00009420       ??_C@_0L@IHOFMEAM@c2pnb176v1@ 000000000007bc20     OpensslLib:obj_dat.obj
 0002:00009430       ??_C@_0L@PIOOBDNI@c2tnb191v1@ 000000000007bc30     OpensslLib:obj_dat.obj
 0002:00009440       ??_C@_0L@NDMDEABL@c2tnb191v2@ 000000000007bc40     OpensslLib:obj_dat.obj
 0002:00009450       ??_C@_0L@MKNIHBFK@c2tnb191v3@ 000000000007bc50     OpensslLib:obj_dat.obj
 0002:00009460       ??_C@_0L@KLAMDLDB@c2onb191v4@ 000000000007bc60     OpensslLib:obj_dat.obj
 0002:00009470       ??_C@_0L@LCBHAKHA@c2onb191v5@ 000000000007bc70     OpensslLib:obj_dat.obj
 0002:00009480       ??_C@_0L@FCEMHHLG@c2pnb208w1@ 000000000007bc80     OpensslLib:obj_dat.obj
 0002:00009490       ??_C@_0L@PBHOFBDI@c2tnb239v1@ 000000000007bc90     OpensslLib:obj_dat.obj
 0002:000094a0       ??_C@_0L@NKFDACPL@c2tnb239v2@ 000000000007bca0     OpensslLib:obj_dat.obj
 0002:000094b0       ??_C@_0L@MDEIDDLK@c2tnb239v3@ 000000000007bcb0     OpensslLib:obj_dat.obj
 0002:000094c0       ??_C@_0L@KCJMHJNB@c2onb239v4@ 000000000007bcc0     OpensslLib:obj_dat.obj
 0002:000094d0       ??_C@_0L@LLIHEIJA@c2onb239v5@ 000000000007bcd0     OpensslLib:obj_dat.obj
 0002:000094e0       ??_C@_0L@IPNBELMC@c2pnb272w1@ 000000000007bce0     OpensslLib:obj_dat.obj
 0002:000094f0       ??_C@_0L@NDMGBLKL@c2pnb304w1@ 000000000007bcf0     OpensslLib:obj_dat.obj
 0002:00009500       ??_C@_0L@LFGCHHDN@c2tnb359v1@ 000000000007bd00     OpensslLib:obj_dat.obj
 0002:00009510       ??_C@_0L@BGFAFBLD@c2pnb368w1@ 000000000007bd10     OpensslLib:obj_dat.obj
 0002:00009520       ??_C@_0L@OFJKDCBG@c2tnb431r1@ 000000000007bd20     OpensslLib:obj_dat.obj
 0002:00009530       ??_C@_09DNJONEBC@secp112r1@ 000000000007bd30     OpensslLib:obj_dat.obj
 0002:00009540       ??_C@_09BGLDIHNB@secp112r2@ 000000000007bd40     OpensslLib:obj_dat.obj
 0002:00009550       ??_C@_09BFIDEOKG@secp128r1@ 000000000007bd50     OpensslLib:obj_dat.obj
 0002:00009560       ??_C@_09DOKOBNGF@secp128r2@ 000000000007bd60     OpensslLib:obj_dat.obj
 0002:00009570       ??_C@_09DGEAFIHG@secp160k1@ 000000000007bd70     OpensslLib:obj_dat.obj
 0002:00009580       ??_C@_09CFLHMAIJ@secp160r1@ 000000000007bd80     OpensslLib:obj_dat.obj
 0002:00009590       ??_C@_09OJKJDEK@secp160r2@ 000000000007bd90     OpensslLib:obj_dat.obj
 0002:000095a0       ??_C@_09BOBJAHCM@secp192k1@ 000000000007bda0     OpensslLib:obj_dat.obj
 0002:000095b0       ??_C@_09MKDGBLEP@secp224k1@ 000000000007bdb0     OpensslLib:obj_dat.obj
 0002:000095c0       ??_C@_09NJMBIDLA@secp224r1@ 000000000007bdc0     OpensslLib:obj_dat.obj
 0002:000095d0       ??_C@_09NCBPAPNE@secp256k1@ 000000000007bdd0     OpensslLib:obj_dat.obj
 0002:000095e0       ??_C@_09FICNEILE@secp384r1@ 000000000007bde0     OpensslLib:obj_dat.obj
 0002:000095f0       ??_C@_09PDBKEDDK@secp521r1@ 000000000007bdf0     OpensslLib:obj_dat.obj
 0002:00009600       ??_C@_09HBGNJHGE@sect113r1@ 000000000007be00     OpensslLib:obj_dat.obj
 0002:00009610       ??_C@_09FKEAMEKH@sect113r2@ 000000000007be10     OpensslLib:obj_dat.obj
 0002:00009620       ??_C@_09KBKEAMIP@sect131r1@ 000000000007be20     OpensslLib:obj_dat.obj
 0002:00009630       ??_C@_09IKIJFPEM@sect131r2@ 000000000007be30     OpensslLib:obj_dat.obj
 0002:00009640       ??_C@_09NALKNDIL@sect163k1@ 000000000007be40     OpensslLib:obj_dat.obj
 0002:00009650       ??_C@_09MDENELHE@sect163r1@ 000000000007be50     OpensslLib:obj_dat.obj
 0002:00009660       ??_C@_09OIGABILH@sect163r2@ 000000000007be60     OpensslLib:obj_dat.obj
 0002:00009670       ??_C@_09EBBNNMKF@sect193r1@ 000000000007be70     OpensslLib:obj_dat.obj
 0002:00009680       ??_C@_09GKDAIPGG@sect193r2@ 000000000007be80     OpensslLib:obj_dat.obj
 0002:00009690       ??_C@_09JOMOCOFF@sect233k1@ 000000000007be90     OpensslLib:obj_dat.obj
 0002:000096a0       ??_C@_09INDJLGKK@sect233r1@ 000000000007bea0     OpensslLib:obj_dat.obj
 0002:000096b0       ??_C@_09PBHDMODB@sect239k1@ 000000000007beb0     OpensslLib:obj_dat.obj
 0002:000096c0       ??_C@_09OJBOBPEE@sect283k1@ 000000000007bec0     OpensslLib:obj_dat.obj
 0002:000096d0       ??_C@_09PKOJIHLL@sect283r1@ 000000000007bed0     OpensslLib:obj_dat.obj
 0002:000096e0       ??_C@_09GAIKFHPM@sect409k1@ 000000000007bee0     OpensslLib:obj_dat.obj
 0002:000096f0       ??_C@_09HDHNMPAD@sect409r1@ 000000000007bef0     OpensslLib:obj_dat.obj
 0002:00009700       ??_C@_09NMECHAKG@sect571k1@ 000000000007bf00     OpensslLib:obj_dat.obj
 0002:00009710       ??_C@_09MPLFOIFJ@sect571r1@ 000000000007bf10     OpensslLib:obj_dat.obj
 0002:00009720       ??_C@_0BH@PEHFMMHF@wap?9wsg?9idm?9ecid?9wtls1@ 000000000007bf20     OpensslLib:obj_dat.obj
 0002:00009738       ??_C@_0BH@MGEDKOPH@wap?9wsg?9idm?9ecid?9wtls3@ 000000000007bf38     OpensslLib:obj_dat.obj
 0002:00009750       ??_C@_0BH@IJACDIDA@wap?9wsg?9idm?9ecid?9wtls4@ 000000000007bf50     OpensslLib:obj_dat.obj
 0002:00009768       ??_C@_0BH@JABJAJHB@wap?9wsg?9idm?9ecid?9wtls5@ 000000000007bf68     OpensslLib:obj_dat.obj
 0002:00009780       ??_C@_0BH@LLDEFKLC@wap?9wsg?9idm?9ecid?9wtls6@ 000000000007bf80     OpensslLib:obj_dat.obj
 0002:00009798       ??_C@_0BH@KCCPGLPD@wap?9wsg?9idm?9ecid?9wtls7@ 000000000007bf98     OpensslLib:obj_dat.obj
 0002:000097b0       ??_C@_0BH@CFLHHHDM@wap?9wsg?9idm?9ecid?9wtls8@ 000000000007bfb0     OpensslLib:obj_dat.obj
 0002:000097c8       ??_C@_0BH@DMKMEGHN@wap?9wsg?9idm?9ecid?9wtls9@ 000000000007bfc8     OpensslLib:obj_dat.obj
 0002:000097e0       ??_C@_0BI@PPNNMGIM@wap?9wsg?9idm?9ecid?9wtls10@ 000000000007bfe0     OpensslLib:obj_dat.obj
 0002:000097f8       ??_C@_0BI@OGMGPHMN@wap?9wsg?9idm?9ecid?9wtls11@ 000000000007bff8     OpensslLib:obj_dat.obj
 0002:00009810       ??_C@_0BI@MNOLKEAO@wap?9wsg?9idm?9ecid?9wtls12@ 000000000007c010     OpensslLib:obj_dat.obj
 0002:00009828       ??_C@_09HBBJOJHB@anyPolicy@ 000000000007c028     OpensslLib:obj_dat.obj
 0002:00009838       ??_C@_0BC@CEEMIAHF@X509v3?5Any?5Policy@ 000000000007c038     OpensslLib:obj_dat.obj
 0002:00009850       ??_C@_0P@MEGGINDP@policyMappings@ 000000000007c050     OpensslLib:obj_dat.obj
 0002:00009860       ??_C@_0BH@NJBPACCN@X509v3?5Policy?5Mappings@ 000000000007c060     OpensslLib:obj_dat.obj
 0002:00009878       ??_C@_0BB@CFCCDKGF@inhibitAnyPolicy@ 000000000007c078     OpensslLib:obj_dat.obj
 0002:00009890       ??_C@_0BK@FPAAFIAO@X509v3?5Inhibit?5Any?5Policy@ 000000000007c090     OpensslLib:obj_dat.obj
 0002:000098b0       ??_C@_0O@BLJEJBFH@Oakley?9EC2N?93@ 000000000007c0b0     OpensslLib:obj_dat.obj
 0002:000098c0       ??_C@_06HLOPKJBB@ipsec3@   000000000007c0c0     OpensslLib:obj_dat.obj
 0002:000098c8       ??_C@_0O@FENFAHJA@Oakley?9EC2N?94@ 000000000007c0c8     OpensslLib:obj_dat.obj
 0002:000098d8       ??_C@_06DEKODPNG@ipsec4@   000000000007c0d8     OpensslLib:obj_dat.obj
 0002:000098e0       ??_C@_0BB@HAKAAAMD@CAMELLIA?9128?9CBC@ 000000000007c0e0     OpensslLib:obj_dat.obj
 0002:000098f8       ??_C@_0BB@GDOINOHE@camellia?9128?9cbc@ 000000000007c0f8     OpensslLib:obj_dat.obj
 0002:00009910       ??_C@_0BB@NDDMHHFP@CAMELLIA?9192?9CBC@ 000000000007c110     OpensslLib:obj_dat.obj
 0002:00009928       ??_C@_0BB@MAHEKJOI@camellia?9192?9cbc@ 000000000007c128     OpensslLib:obj_dat.obj
 0002:00009940       ??_C@_0BB@BICFINO@CAMELLIA?9256?9CBC@ 000000000007c140     OpensslLib:obj_dat.obj
 0002:00009958       ??_C@_0BB@BCMKIGGJ@camellia?9256?9cbc@ 000000000007c158     OpensslLib:obj_dat.obj
 0002:00009970       ??_C@_0BB@ENBCAEGJ@CAMELLIA?9128?9ECB@ 000000000007c170     OpensslLib:obj_dat.obj
 0002:00009988       ??_C@_0BB@FOFKNKNO@camellia?9128?9ecb@ 000000000007c188     OpensslLib:obj_dat.obj
 0002:000099a0       ??_C@_0BB@OOIOHDPF@CAMELLIA?9192?9ECB@ 000000000007c1a0     OpensslLib:obj_dat.obj
 0002:000099b8       ??_C@_0BB@PNMGKNEC@camellia?9192?9ecb@ 000000000007c1b8     OpensslLib:obj_dat.obj
 0002:000099d0       ??_C@_0BB@DMDAFMHE@CAMELLIA?9256?9ECB@ 000000000007c1d0     OpensslLib:obj_dat.obj
 0002:000099e8       ??_C@_0BB@CPHIICMD@camellia?9256?9ecb@ 000000000007c1e8     OpensslLib:obj_dat.obj
 0002:00009a00       ??_C@_0BB@GOLCJJFO@CAMELLIA?9128?9CFB@ 000000000007c200     OpensslLib:obj_dat.obj
 0002:00009a18       ??_C@_0BB@HNPKEHOJ@camellia?9128?9cfb@ 000000000007c218     OpensslLib:obj_dat.obj
 0002:00009a30       ??_C@_0BB@MNCOOOMC@CAMELLIA?9192?9CFB@ 000000000007c230     OpensslLib:obj_dat.obj
 0002:00009a48       ??_C@_0BB@NOGGDAHF@camellia?9192?9cfb@ 000000000007c248     OpensslLib:obj_dat.obj
 0002:00009a60       ??_C@_0BB@BPJAMBED@CAMELLIA?9256?9CFB@ 000000000007c260     OpensslLib:obj_dat.obj
 0002:00009a78       ??_C@_0BB@MNIBPPE@camellia?9256?9cfb@ 000000000007c278     OpensslLib:obj_dat.obj
 0002:00009a90       ??_C@_0BC@EKOAMJNI@CAMELLIA?9128?9CFB1@ 000000000007c290     OpensslLib:obj_dat.obj
 0002:00009aa8       ??_C@_0BC@BPPGKHCJ@camellia?9128?9cfb1@ 000000000007c2a8     OpensslLib:obj_dat.obj
 0002:00009ac0       ??_C@_0BC@LDPKIKMA@CAMELLIA?9192?9CFB1@ 000000000007c2c0     OpensslLib:obj_dat.obj
 0002:00009ad8       ??_C@_0BC@OGOMOEDB@camellia?9192?9cfb1@ 000000000007c2d8     OpensslLib:obj_dat.obj
 0002:00009af0       ??_C@_0BC@CJJHIHFJ@CAMELLIA?9256?9CFB1@ 000000000007c2f0     OpensslLib:obj_dat.obj
 0002:00009b08       ??_C@_0BC@HMIBOJKI@camellia?9256?9cfb1@ 000000000007c308     OpensslLib:obj_dat.obj
 0002:00009b20       ??_C@_0BC@JLCCHCJB@CAMELLIA?9128?9CFB8@ 000000000007c320     OpensslLib:obj_dat.obj
 0002:00009b38       ??_C@_0BC@MODEBMGA@camellia?9128?9cfb8@ 000000000007c338     OpensslLib:obj_dat.obj
 0002:00009b50       ??_C@_0BC@GCDIDBIJ@CAMELLIA?9192?9CFB8@ 000000000007c350     OpensslLib:obj_dat.obj
 0002:00009b68       ??_C@_0BC@DHCOFPHI@camellia?9192?9cfb8@ 000000000007c368     OpensslLib:obj_dat.obj
 0002:00009b80       ??_C@_0BC@PIFFDMBA@CAMELLIA?9256?9CFB8@ 000000000007c380     OpensslLib:obj_dat.obj
 0002:00009b98       ??_C@_0BC@KNEDFCOB@camellia?9256?9cfb8@ 000000000007c398     OpensslLib:obj_dat.obj
 0002:00009bb0       ??_C@_0BB@CEGECGOG@CAMELLIA?9128?9OFB@ 000000000007c3b0     OpensslLib:obj_dat.obj
 0002:00009bc8       ??_C@_0BB@DHCMPIFB@camellia?9128?9ofb@ 000000000007c3c8     OpensslLib:obj_dat.obj
 0002:00009be0       ??_C@_0BB@IHPIFBHK@CAMELLIA?9192?9OFB@ 000000000007c3e0     OpensslLib:obj_dat.obj
 0002:00009bf8       ??_C@_0BB@JELAIPMN@camellia?9192?9ofb@ 000000000007c3f8     OpensslLib:obj_dat.obj
 0002:00009c10       ??_C@_0BB@FFEGHOPL@CAMELLIA?9256?9OFB@ 000000000007c410     OpensslLib:obj_dat.obj
 0002:00009c28       ??_C@_0BB@EGAOKAEM@camellia?9256?9ofb@ 000000000007c428     OpensslLib:obj_dat.obj
 0002:00009c40       ??_C@_0BL@GAJEKNCJ@subjectDirectoryAttributes@ 000000000007c440     OpensslLib:obj_dat.obj
 0002:00009c60       ??_C@_0CE@OGGDDHCK@X509v3?5Subject?5Directory?5Attrib@ 000000000007c460     OpensslLib:obj_dat.obj
 0002:00009c88       ??_C@_0BJ@OAOPOBMH@issuingDistributionPoint@ 000000000007c488     OpensslLib:obj_dat.obj
 0002:00009ca8       ??_C@_0CC@IAMHILJN@X509v3?5Issuing?5Distribution?5Poi@ 000000000007c4a8     OpensslLib:obj_dat.obj
 0002:00009cd0       ??_C@_0BC@NAJGKAHO@certificateIssuer@ 000000000007c4d0     OpensslLib:obj_dat.obj
 0002:00009ce8       ??_C@_0BK@EMNEMCDI@X509v3?5Certificate?5Issuer@ 000000000007c4e8     OpensslLib:obj_dat.obj
 0002:00009d04       ??_C@_04HHHKJIKA@KISA@     000000000007c504     OpensslLib:obj_dat.obj
 0002:00009d0c       ??_C@_04LLEAHKNI@kisa@     000000000007c50c     OpensslLib:obj_dat.obj
 0002:00009d18       ??_C@_08JEKGBFGL@SEED?9ECB@ 000000000007c518     OpensslLib:obj_dat.obj
 0002:00009d28       ??_C@_08CKMLAEEI@seed?9ecb@ 000000000007c528     OpensslLib:obj_dat.obj
 0002:00009d38       ??_C@_08KJBEBBMB@SEED?9CBC@ 000000000007c538     OpensslLib:obj_dat.obj
 0002:00009d48       ??_C@_08BHHJAAOC@seed?9cbc@ 000000000007c548     OpensslLib:obj_dat.obj
 0002:00009d58       ??_C@_08PNNADHOE@SEED?9OFB@ 000000000007c558     OpensslLib:obj_dat.obj
 0002:00009d68       ??_C@_08EDLNCGMH@seed?9ofb@ 000000000007c568     OpensslLib:obj_dat.obj
 0002:00009d78       ??_C@_08LHAGIIFM@SEED?9CFB@ 000000000007c578     OpensslLib:obj_dat.obj
 0002:00009d88       ??_C@_08JGLJJHP@seed?9cfb@ 000000000007c588     OpensslLib:obj_dat.obj
 0002:00009d98       ??_C@_08CABJBHIC@HMAC?9MD5@ 000000000007c598     OpensslLib:obj_dat.obj
 0002:00009da8       ??_C@_08LPACCAD@hmac?9md5@ 000000000007c5a8     OpensslLib:obj_dat.obj
 0002:00009db8       ??_C@_09DDFKKHO@HMAC?9SHA1@ 000000000007c5b8     OpensslLib:obj_dat.obj
 0002:00009dc8       ??_C@_09KBOMLGBN@hmac?9sha1@ 000000000007c5c8     OpensslLib:obj_dat.obj
 0002:00009dd8       ??_C@_0BE@HCNFOMHA@id?9PasswordBasedMAC@ 000000000007c5d8     OpensslLib:obj_dat.obj
 0002:00009df0       ??_C@_0BD@FANJCJAP@password?5based?5MAC@ 000000000007c5f0     OpensslLib:obj_dat.obj
 0002:00009e08       ??_C@_0O@MEHCKGFD@id?9DHBasedMac@ 000000000007c608     OpensslLib:obj_dat.obj
 0002:00009e18       ??_C@_0BJ@CDGIGDFG@Diffie?9Hellman?5based?5MAC@ 000000000007c618     OpensslLib:obj_dat.obj
 0002:00009e38       ??_C@_0BD@MGCOMIO@id?9it?9suppLangTags@ 000000000007c638     OpensslLib:obj_dat.obj
 0002:00009e50       ??_C@_0N@CKNFLOGG@caRepository@ 000000000007c650     OpensslLib:obj_dat.obj
 0002:00009e60       ??_C@_0O@LBCGFGCI@CA?5Repository@ 000000000007c660     OpensslLib:obj_dat.obj
 0002:00009e70       ??_C@_0BL@HEJKLKLL@id?9smime?9ct?9compressedData@ 000000000007c670     OpensslLib:obj_dat.obj
 0002:00009e90       ??_C@_0BI@FNBGJEPL@id?9ct?9asciiTextWithCRLF@ 000000000007c690     OpensslLib:obj_dat.obj
 0002:00009ea8       ??_C@_0P@MALLFAMO@id?9aes128?9wrap@ 000000000007c6a8     OpensslLib:obj_dat.obj
 0002:00009eb8       ??_C@_0P@DJKBBDNG@id?9aes192?9wrap@ 000000000007c6b8     OpensslLib:obj_dat.obj
 0002:00009ec8       ??_C@_0P@KDMMBOEP@id?9aes256?9wrap@ 000000000007c6c8     OpensslLib:obj_dat.obj
 0002:00009ed8       ??_C@_0BH@GCJALNKM@ecdsa?9with?9Recommended@ 000000000007c6d8     OpensslLib:obj_dat.obj
 0002:00009ef0       ??_C@_0BF@INFCLNHO@ecdsa?9with?9Specified@ 000000000007c6f0     OpensslLib:obj_dat.obj
 0002:00009f08       ??_C@_0BC@PHBIOIGA@ecdsa?9with?9SHA224@ 000000000007c708     OpensslLib:obj_dat.obj
 0002:00009f20       ??_C@_0BC@MAGBJMGH@ecdsa?9with?9SHA256@ 000000000007c720     OpensslLib:obj_dat.obj
 0002:00009f38       ??_C@_0BC@ECDDAKND@ecdsa?9with?9SHA384@ 000000000007c738     OpensslLib:obj_dat.obj
 0002:00009f50       ??_C@_0BC@DONDMJAG@ecdsa?9with?9SHA512@ 000000000007c750     OpensslLib:obj_dat.obj
 0002:00009f68       ??_C@_0M@KOBPMNIO@hmacWithMD5@ 000000000007c768     OpensslLib:obj_dat.obj
 0002:00009f78       ??_C@_0P@JCGBABBG@hmacWithSHA224@ 000000000007c778     OpensslLib:obj_dat.obj
 0002:00009f88       ??_C@_0P@KFBIHFBB@hmacWithSHA256@ 000000000007c788     OpensslLib:obj_dat.obj
 0002:00009f98       ??_C@_0P@CHEKODKF@hmacWithSHA384@ 000000000007c798     OpensslLib:obj_dat.obj
 0002:00009fa8       ??_C@_0P@FLKKCAHA@hmacWithSHA512@ 000000000007c7a8     OpensslLib:obj_dat.obj
 0002:00009fb8       ??_C@_0BA@GLCLJGGH@dsa_with_SHA224@ 000000000007c7b8     OpensslLib:obj_dat.obj
 0002:00009fc8       ??_C@_0BA@FMFCOCGA@dsa_with_SHA256@ 000000000007c7c8     OpensslLib:obj_dat.obj
 0002:00009fd8       ??_C@_09DEGKDAEL@whirlpool@ 000000000007c7d8     OpensslLib:obj_dat.obj
 0002:00009fe8       ??_C@_09PCHJFNLI@cryptopro@ 000000000007c7e8     OpensslLib:obj_dat.obj
 0002:00009ff8       ??_C@_09JGBNPHGI@cryptocom@ 000000000007c7f8     OpensslLib:obj_dat.obj
 0002:0000a008       ??_C@_0CE@FCAOBIOC@id?9GostR3411?994?9with?9GostR3410?9@ 000000000007c808     OpensslLib:obj_dat.obj
 0002:0000a030       ??_C@_0CH@MPKKPBGC@GOST?5R?534?411?994?5with?5GOST?5R?534?4@ 000000000007c830     OpensslLib:obj_dat.obj
 0002:0000a058       ??_C@_0CC@LCAPGDKC@id?9GostR3411?994?9with?9GostR3410?9@ 000000000007c858     OpensslLib:obj_dat.obj
 0002:0000a080       ??_C@_0CF@PAGBHGOC@GOST?5R?534?411?994?5with?5GOST?5R?534?4@ 000000000007c880     OpensslLib:obj_dat.obj
 0002:0000a0a8       ??_C@_09MIOJGGFD@md_gost94@ 000000000007c8a8     OpensslLib:obj_dat.obj
 0002:0000a0b8       ??_C@_0BA@KDEBPBMN@GOST?5R?534?411?994@ 000000000007c8b8     OpensslLib:obj_dat.obj
 0002:0000a0c8       ??_C@_0BE@EBBOKDGI@id?9HMACGostR3411?994@ 000000000007c8c8     OpensslLib:obj_dat.obj
 0002:0000a0e0       ??_C@_0BD@BHKLGKNG@HMAC?5GOST?534?411?994@ 000000000007c8e0     OpensslLib:obj_dat.obj
 0002:0000a0f8       ??_C@_08KMPAMBCP@gost2001@ 000000000007c8f8     OpensslLib:obj_dat.obj
 0002:0000a108       ??_C@_0BC@IBNIHBI@GOST?5R?534?410?92001@ 000000000007c908     OpensslLib:obj_dat.obj
 0002:0000a11c       ??_C@_06BPJPGPFJ@gost94@   000000000007c91c     OpensslLib:obj_dat.obj
 0002:0000a128       ??_C@_0BA@JOCBNIHN@GOST?5R?534?410?994@ 000000000007c928     OpensslLib:obj_dat.obj
 0002:0000a138       ??_C@_06KLPDHLCD@gost89@   000000000007c938     OpensslLib:obj_dat.obj
 0002:0000a140       ??_C@_0O@POKHNLDL@GOST?528147?989@ 000000000007c940     OpensslLib:obj_dat.obj
 0002:0000a150       ??_C@_0L@INGOKGPP@gost89?9cnt@ 000000000007c950     OpensslLib:obj_dat.obj
 0002:0000a160       ??_C@_08JCNEGNFC@gost?9mac@ 000000000007c960     OpensslLib:obj_dat.obj
 0002:0000a170       ??_C@_0BC@BPAGAEJB@GOST?528147?989?5MAC@ 000000000007c970     OpensslLib:obj_dat.obj
 0002:0000a188       ??_C@_0BB@LJIINAAP@prf?9gostr3411?994@ 000000000007c988     OpensslLib:obj_dat.obj
 0002:0000a1a0       ??_C@_0BE@FFELJBNB@GOST?5R?534?411?994?5PRF@ 000000000007c9a0     OpensslLib:obj_dat.obj
 0002:0000a1b8       ??_C@_0BE@OBKEJCJB@id?9GostR3410?92001DH@ 000000000007c9b8     OpensslLib:obj_dat.obj
 0002:0000a1d0       ??_C@_0BF@OKPANPLK@GOST?5R?534?410?92001?5DH@ 000000000007c9d0     OpensslLib:obj_dat.obj
 0002:0000a1e8       ??_C@_0BC@CEMDDFNK@id?9GostR3410?994DH@ 000000000007c9e8     OpensslLib:obj_dat.obj
 0002:0000a200       ??_C@_0BD@LGKAOLPL@GOST?5R?534?410?994?5DH@ 000000000007ca00     OpensslLib:obj_dat.obj
 0002:0000a218       ??_C@_0CF@MMKONEIK@id?9Gost28147?989?9CryptoPro?9KeyMe@ 000000000007ca18     OpensslLib:obj_dat.obj
 0002:0000a240       ??_C@_0CA@BLJAEGEG@id?9Gost28147?989?9None?9KeyMeshing@ 000000000007ca40     OpensslLib:obj_dat.obj
 0002:0000a260       ??_C@_0BN@DPLCCDOE@id?9GostR3411?994?9TestParamSet@ 000000000007ca60     OpensslLib:obj_dat.obj
 0002:0000a280       ??_C@_0CC@DOHJLMBI@id?9GostR3411?994?9CryptoProParamS@ 000000000007ca80     OpensslLib:obj_dat.obj
 0002:0000a2a8       ??_C@_0BN@GKJFBLMI@id?9Gost28147?989?9TestParamSet@ 000000000007caa8     OpensslLib:obj_dat.obj
 0002:0000a2c8       ??_C@_0CF@PFEMLAKN@id?9Gost28147?989?9CryptoPro?9A?9Par@ 000000000007cac8     OpensslLib:obj_dat.obj
 0002:0000a2f0       ??_C@_0CF@GMKONGKM@id?9Gost28147?989?9CryptoPro?9B?9Par@ 000000000007caf0     OpensslLib:obj_dat.obj
 0002:0000a318       ??_C@_0CF@KNCAAJGM@id?9Gost28147?989?9CryptoPro?9C?9Par@ 000000000007cb18     OpensslLib:obj_dat.obj
 0002:0000a340       ??_C@_0CF@IEBLBMOP@id?9Gost28147?989?9CryptoPro?9D?9Par@ 000000000007cb40     OpensslLib:obj_dat.obj
 0002:0000a368       ??_C@_0CN@EJBNJDBM@id?9Gost28147?989?9CryptoPro?9Oscar@ 000000000007cb68     OpensslLib:obj_dat.obj
 0002:0000a398       ??_C@_0CN@IIJDEMNM@id?9Gost28147?989?9CryptoPro?9Oscar@ 000000000007cb98     OpensslLib:obj_dat.obj
 0002:0000a3c8       ??_C@_0CJ@IIADIAJH@id?9Gost28147?989?9CryptoPro?9RIC?91@ 000000000007cbc8     OpensslLib:obj_dat.obj
 0002:0000a3f8       ??_C@_0BN@NAOAJFAF@id?9GostR3410?994?9TestParamSet@ 000000000007cbf8     OpensslLib:obj_dat.obj
 0002:0000a418       ??_C@_0CF@MNFOPPCD@id?9GostR3410?994?9CryptoPro?9A?9Par@ 000000000007cc18     OpensslLib:obj_dat.obj
 0002:0000a440       ??_C@_0CF@FELMJJCC@id?9GostR3410?994?9CryptoPro?9B?9Par@ 000000000007cc40     OpensslLib:obj_dat.obj
 0002:0000a468       ??_C@_0CF@JFDCEGOC@id?9GostR3410?994?9CryptoPro?9C?9Par@ 000000000007cc68     OpensslLib:obj_dat.obj
 0002:0000a490       ??_C@_0CF@LMAJFDGB@id?9GostR3410?994?9CryptoPro?9D?9Par@ 000000000007cc90     OpensslLib:obj_dat.obj
 0002:0000a4b8       ??_C@_0CI@FLGMGEEM@id?9GostR3410?994?9CryptoPro?9XchA?9@ 000000000007ccb8     OpensslLib:obj_dat.obj
 0002:0000a4e0       ??_C@_0CI@MCIOACEN@id?9GostR3410?994?9CryptoPro?9XchB?9@ 000000000007cce0     OpensslLib:obj_dat.obj
 0002:0000a508       ??_C@_0CI@DAANNIN@id?9GostR3410?994?9CryptoPro?9XchC?9@ 000000000007cd08     OpensslLib:obj_dat.obj
 0002:0000a530       ??_C@_0BP@GEEJLPDI@id?9GostR3410?92001?9TestParamSet@ 000000000007cd30     OpensslLib:obj_dat.obj
 0002:0000a550       ??_C@_0CH@GDAPDBKP@id?9GostR3410?92001?9CryptoPro?9A?9P@ 000000000007cd50     OpensslLib:obj_dat.obj
 0002:0000a578       ??_C@_0CH@PKONFHKO@id?9GostR3410?92001?9CryptoPro?9B?9P@ 000000000007cd78     OpensslLib:obj_dat.obj
 0002:0000a5a0       ??_C@_0CH@DLGDIIGO@id?9GostR3410?92001?9CryptoPro?9C?9P@ 000000000007cda0     OpensslLib:obj_dat.obj
 0002:0000a5c8       ??_C@_0CK@PKFGBNKE@id?9GostR3410?92001?9CryptoPro?9Xch@ 000000000007cdc8     OpensslLib:obj_dat.obj
 0002:0000a5f8       ??_C@_0CK@GDLEHLKF@id?9GostR3410?92001?9CryptoPro?9Xch@ 000000000007cdf8     OpensslLib:obj_dat.obj
 0002:0000a628       ??_C@_0BC@CHIDFKJO@id?9GostR3410?994?9a@ 000000000007ce28     OpensslLib:obj_dat.obj
 0002:0000a640       ??_C@_0BF@LBGBLILF@id?9GostR3410?994?9aBis@ 000000000007ce40     OpensslLib:obj_dat.obj
 0002:0000a658       ??_C@_0BC@MKOAJFN@id?9GostR3410?994?9b@ 000000000007ce58     OpensslLib:obj_dat.obj
 0002:0000a670       ??_C@_0BF@PGMBMCGF@id?9GostR3410?994?9bBis@ 000000000007ce70     OpensslLib:obj_dat.obj
 0002:0000a688       ??_C@_0BD@MEAAKKFJ@id?9Gost28147?989?9cc@ 000000000007ce88     OpensslLib:obj_dat.obj
 0002:0000a6a0       ??_C@_0CB@KNOPDNHN@GOST?528147?989?5Cryptocom?5ParamSe@ 000000000007cea0     OpensslLib:obj_dat.obj
 0002:0000a6c8       ??_C@_08LCDFMIFG@gost94cc@ 000000000007cec8     OpensslLib:obj_dat.obj
 0002:0000a6d8       ??_C@_0BI@GJIILMEB@GOST?534?410?994?5Cryptocom@ 000000000007ced8     OpensslLib:obj_dat.obj
 0002:0000a6f0       ??_C@_0L@PKDOCLKG@gost2001cc@ 000000000007cef0     OpensslLib:obj_dat.obj
 0002:0000a700       ??_C@_0BK@IGCJADLM@GOST?534?410?92001?5Cryptocom@ 000000000007cf00     OpensslLib:obj_dat.obj
 0002:0000a720       ??_C@_0CF@FCIKJGLH@id?9GostR3411?994?9with?9GostR3410?9@ 000000000007cf20     OpensslLib:obj_dat.obj
 0002:0000a748       ??_C@_0CP@ILDIBBAJ@GOST?5R?534?411?994?5with?5GOST?5R?534?4@ 000000000007cf48     OpensslLib:obj_dat.obj
 0002:0000a778       ??_C@_0CH@JJNMILDM@id?9GostR3411?994?9with?9GostR3410?9@ 000000000007cf78     OpensslLib:obj_dat.obj
 0002:0000a7a0       ??_C@_0DB@BGOOPLFE@GOST?5R?534?411?994?5with?5GOST?5R?534?4@ 000000000007cfa0     OpensslLib:obj_dat.obj
 0002:0000a7d8       ??_C@_0BO@LBPHKLOM@id?9GostR3410?92001?9ParamSet?9cc@ 000000000007cfd8     OpensslLib:obj_dat.obj
 0002:0000a7f8       ??_C@_0CJ@NCCJHEBD@GOST?5R?53410?92001?5Parameter?5Set?5@ 000000000007cff8     OpensslLib:obj_dat.obj
 0002:0000a824       ??_C@_04JCCMGALL@HMAC@     000000000007d024     OpensslLib:obj_dat.obj
 0002:0000a82c       ??_C@_04FOBGICMD@hmac@     000000000007d02c     OpensslLib:obj_dat.obj
 0002:0000a838       ??_C@_0M@LCODBGNO@LocalKeySet@ 000000000007d038     OpensslLib:obj_dat.obj
 0002:0000a848       ??_C@_0BI@FMFOLFMC@Microsoft?5Local?5Key?5set@ 000000000007d048     OpensslLib:obj_dat.obj
 0002:0000a860       ??_C@_0M@PKNKMHEG@freshestCRL@ 000000000007d060     OpensslLib:obj_dat.obj
 0002:0000a870       ??_C@_0BE@KEJIKEFG@X509v3?5Freshest?5CRL@ 000000000007d070     OpensslLib:obj_dat.obj
 0002:0000a888       ??_C@_0BK@BMFCOPIC@id?9on?9permanentIdentifier@ 000000000007d088     OpensslLib:obj_dat.obj
 0002:0000a8a8       ??_C@_0BF@DGGAJJCO@Permanent?5Identifier@ 000000000007d0a8     OpensslLib:obj_dat.obj
 0002:0000a8c0       ??_C@_0M@MCCFGANF@searchGuide@ 000000000007d0c0     OpensslLib:obj_dat.obj
 0002:0000a8d0       ??_C@_0BB@GFJJGHBI@businessCategory@ 000000000007d0d0     OpensslLib:obj_dat.obj
 0002:0000a8e8       ??_C@_0O@KABBPKPG@postalAddress@ 000000000007d0e8     OpensslLib:obj_dat.obj
 0002:0000a8f8       ??_C@_0O@PCCHCGPG@postOfficeBox@ 000000000007d0f8     OpensslLib:obj_dat.obj
 0002:0000a908       ??_C@_0BL@DENBGONK@physicalDeliveryOfficeName@ 000000000007d108     OpensslLib:obj_dat.obj
 0002:0000a928       ??_C@_0BA@NCAGJGBF@telephoneNumber@ 000000000007d128     OpensslLib:obj_dat.obj
 0002:0000a938       ??_C@_0M@MMDMBPMM@telexNumber@ 000000000007d138     OpensslLib:obj_dat.obj
 0002:0000a948       ??_C@_0BK@BBNEJJDC@teletexTerminalIdentifier@ 000000000007d148     OpensslLib:obj_dat.obj
 0002:0000a968       ??_C@_0BJ@NDMMBDAB@facsimileTelephoneNumber@ 000000000007d168     OpensslLib:obj_dat.obj
 0002:0000a988       ??_C@_0M@MOCAHDLJ@x121Address@ 000000000007d188     OpensslLib:obj_dat.obj
 0002:0000a998       ??_C@_0BI@OAHCBLEE@internationaliSDNNumber@ 000000000007d198     OpensslLib:obj_dat.obj
 0002:0000a9b0       ??_C@_0BC@DLLOJDNE@registeredAddress@ 000000000007d1b0     OpensslLib:obj_dat.obj
 0002:0000a9c8       ??_C@_0BF@CMAFNEOO@destinationIndicator@ 000000000007d1c8     OpensslLib:obj_dat.obj
 0002:0000a9e0       ??_C@_0BI@MKMMOKIA@preferredDeliveryMethod@ 000000000007d1e0     OpensslLib:obj_dat.obj
 0002:0000a9f8       ??_C@_0BE@KHACCONJ@presentationAddress@ 000000000007d1f8     OpensslLib:obj_dat.obj
 0002:0000aa10       ??_C@_0BM@NHJFOGBI@supportedApplicationContext@ 000000000007d210     OpensslLib:obj_dat.obj
 0002:0000aa2c       ??_C@_06HDFDANIG@member@   000000000007d22c     OpensslLib:obj_dat.obj
 0002:0000aa34       ??_C@_05HEIBENID@owner@    000000000007d234     OpensslLib:obj_dat.obj
 0002:0000aa40       ??_C@_0N@NAEJMDPF@roleOccupant@ 000000000007d240     OpensslLib:obj_dat.obj
 0002:0000aa50       ??_C@_07JJAENDGN@seeAlso@  000000000007d250     OpensslLib:obj_dat.obj
 0002:0000aa58       ??_C@_0N@JHMNNHKM@userPassword@ 000000000007d258     OpensslLib:obj_dat.obj
 0002:0000aa68       ??_C@_0BA@FEECIELF@userCertificate@ 000000000007d268     OpensslLib:obj_dat.obj
 0002:0000aa78       ??_C@_0O@JJCNKCKK@cACertificate@ 000000000007d278     OpensslLib:obj_dat.obj
 0002:0000aa88       ??_C@_0BI@EODAEBFG@authorityRevocationList@ 000000000007d288     OpensslLib:obj_dat.obj
 0002:0000aaa0       ??_C@_0BK@IMFDMOND@certificateRevocationList@ 000000000007d2a0     OpensslLib:obj_dat.obj
 0002:0000aac0       ??_C@_0BF@GAAPBDAE@crossCertificatePair@ 000000000007d2c0     OpensslLib:obj_dat.obj
 0002:0000aad8       ??_C@_0BE@NNAGLFEM@enhancedSearchGuide@ 000000000007d2d8     OpensslLib:obj_dat.obj
 0002:0000aaf0       ??_C@_0BE@FKAMNJMM@protocolInformation@ 000000000007d2f0     OpensslLib:obj_dat.obj
 0002:0000ab08       ??_C@_0BC@IIJOGNNH@distinguishedName@ 000000000007d308     OpensslLib:obj_dat.obj
 0002:0000ab20       ??_C@_0N@FIGDLDDJ@uniqueMember@ 000000000007d320     OpensslLib:obj_dat.obj
 0002:0000ab30       ??_C@_0BA@EKKIBBF@houseIdentifier@ 000000000007d330     OpensslLib:obj_dat.obj
 0002:0000ab40       ??_C@_0BE@KGOGIPEN@supportedAlgorithms@ 000000000007d340     OpensslLib:obj_dat.obj
 0002:0000ab58       ??_C@_0BE@MNOFELKF@deltaRevocationList@ 000000000007d358     OpensslLib:obj_dat.obj
 0002:0000ab70       ??_C@_07ILKEFPGB@dmdName@  000000000007d370     OpensslLib:obj_dat.obj
 0002:0000ab78       ??_C@_0BA@NJOHMDIG@id?9alg?9PWRI?9KEK@ 000000000007d378     OpensslLib:obj_dat.obj
 0002:0000ab88       ??_C@_04OFPMFBKK@CMAC@     000000000007d388     OpensslLib:obj_dat.obj
 0002:0000ab90       ??_C@_04CJMGLDNC@cmac@     000000000007d390     OpensslLib:obj_dat.obj
 0002:0000ab98       ??_C@_0O@LNIKAOOL@id?9aes128?9GCM@ 000000000007d398     OpensslLib:obj_dat.obj
 0002:0000aba8       ??_C@_0M@ODEOFOCG@aes?9128?9gcm@ 000000000007d3a8     OpensslLib:obj_dat.obj
 0002:0000abb8       ??_C@_0O@DCOIJJLM@id?9aes128?9CCM@ 000000000007d3b8     OpensslLib:obj_dat.obj
 0002:0000abc8       ??_C@_0M@GMCMMJHB@aes?9128?9ccm@ 000000000007d3c8     OpensslLib:obj_dat.obj
 0002:0000abd8       ??_C@_0BD@HMJBEGNL@id?9aes128?9wrap?9pad@ 000000000007d3d8     OpensslLib:obj_dat.obj
 0002:0000abf0       ??_C@_0O@BOBGHJHH@id?9aes192?9GCM@ 000000000007d3f0     OpensslLib:obj_dat.obj
 0002:0000ac00       ??_C@_0M@EANCCJLK@aes?9192?9gcm@ 000000000007d400     OpensslLib:obj_dat.obj
 0002:0000ac10       ??_C@_0O@JBHEOOCA@id?9aes192?9CCM@ 000000000007d410     OpensslLib:obj_dat.obj
 0002:0000ac20       ??_C@_0M@MPLALOON@aes?9192?9ccm@ 000000000007d420     OpensslLib:obj_dat.obj
 0002:0000ac30       ??_C@_0BD@OPKMLKFB@id?9aes192?9wrap?9pad@ 000000000007d430     OpensslLib:obj_dat.obj
 0002:0000ac48       ??_C@_0O@MMKIFGPG@id?9aes256?9GCM@ 000000000007d448     OpensslLib:obj_dat.obj
 0002:0000ac58       ??_C@_0M@JCGMAGDL@aes?9256?9gcm@ 000000000007d458     OpensslLib:obj_dat.obj
 0002:0000ac68       ??_C@_0O@EDMKMBKB@id?9aes256?9CCM@ 000000000007d468     OpensslLib:obj_dat.obj
 0002:0000ac78       ??_C@_0M@BNAOJBGM@aes?9256?9ccm@ 000000000007d478     OpensslLib:obj_dat.obj
 0002:0000ac88       ??_C@_0BD@OHLFOIJM@id?9aes256?9wrap?9pad@ 000000000007d488     OpensslLib:obj_dat.obj
 0002:0000aca0       ??_C@_0M@GEBEOIJJ@AES?9128?9CTR@ 000000000007d4a0     OpensslLib:obj_dat.obj
 0002:0000acb0       ??_C@_0M@LIBPHCBK@aes?9128?9ctr@ 000000000007d4b0     OpensslLib:obj_dat.obj
 0002:0000acc0       ??_C@_0M@MHIIJPAF@AES?9192?9CTR@ 000000000007d4c0     OpensslLib:obj_dat.obj
 0002:0000acd0       ??_C@_0M@BLIDAFIG@aes?9192?9ctr@ 000000000007d4d0     OpensslLib:obj_dat.obj
 0002:0000ace0       ??_C@_0M@BFDGLAIE@AES?9256?9CTR@ 000000000007d4e0     OpensslLib:obj_dat.obj
 0002:0000acf0       ??_C@_0M@MJDNCKAH@aes?9256?9ctr@ 000000000007d4f0     OpensslLib:obj_dat.obj
 0002:0000ad00       ??_C@_0BE@JENMCLBD@id?9camellia128?9wrap@ 000000000007d500     OpensslLib:obj_dat.obj
 0002:0000ad18       ??_C@_0BE@GNMGGIAL@id?9camellia192?9wrap@ 000000000007d518     OpensslLib:obj_dat.obj
 0002:0000ad30       ??_C@_0BE@PHKLGFJC@id?9camellia256?9wrap@ 000000000007d530     OpensslLib:obj_dat.obj
 0002:0000ad48       ??_C@_0BE@FKFLDMON@anyExtendedKeyUsage@ 000000000007d548     OpensslLib:obj_dat.obj
 0002:0000ad60       ??_C@_0BH@FHBOBBKO@Any?5Extended?5Key?5Usage@ 000000000007d560     OpensslLib:obj_dat.obj
 0002:0000ad78       ??_C@_04CNDHACFO@MGF1@     000000000007d578     OpensslLib:obj_dat.obj
 0002:0000ad80       ??_C@_04HEIJMEIE@mgf1@     000000000007d580     OpensslLib:obj_dat.obj
 0002:0000ad88       ??_C@_0L@CPMAKEFG@RSASSA?9PSS@ 000000000007d588     OpensslLib:obj_dat.obj
 0002:0000ad98       ??_C@_09FGGKIFKD@rsassaPss@ 000000000007d598     OpensslLib:obj_dat.obj
 0002:0000ada8       ??_C@_0M@PKBHAJEG@AES?9128?9XTS@ 000000000007d5a8     OpensslLib:obj_dat.obj
 0002:0000adb8       ??_C@_0M@CGBMJDMF@aes?9128?9xts@ 000000000007d5b8     OpensslLib:obj_dat.obj
 0002:0000adc8       ??_C@_0M@ILDFFBFL@AES?9256?9XTS@ 000000000007d5c8     OpensslLib:obj_dat.obj
 0002:0000add8       ??_C@_0M@FHDOMLNI@aes?9256?9xts@ 000000000007d5d8     OpensslLib:obj_dat.obj
 0002:0000ade8       ??_C@_0N@MFFPBCGK@RC4?9HMAC?9MD5@ 000000000007d5e8     OpensslLib:obj_dat.obj
 0002:0000adf8       ??_C@_0N@EFPJLHOG@rc4?9hmac?9md5@ 000000000007d5f8     OpensslLib:obj_dat.obj
 0002:0000ae08       ??_C@_0BG@OKEPPAEE@AES?9128?9CBC?9HMAC?9SHA1@ 000000000007d608     OpensslLib:obj_dat.obj
 0002:0000ae20       ??_C@_0BG@CLBGODOC@aes?9128?9cbc?9hmac?9sha1@ 000000000007d620     OpensslLib:obj_dat.obj
 0002:0000ae38       ??_C@_0BG@KLHGFOHC@AES?9192?9CBC?9HMAC?9SHA1@ 000000000007d638     OpensslLib:obj_dat.obj
 0002:0000ae50       ??_C@_0BG@GKCPENNE@aes?9192?9cbc?9hmac?9sha1@ 000000000007d650     OpensslLib:obj_dat.obj
 0002:0000ae68       ??_C@_0BG@NJKHMG@AES?9256?9CBC?9HMAC?9SHA1@ 000000000007d668     OpensslLib:obj_dat.obj
 0002:0000ae80       ??_C@_0BG@MBIALEGA@aes?9256?9cbc?9hmac?9sha1@ 000000000007d680     OpensslLib:obj_dat.obj
 0002:0000ae98       ??_C@_0L@NCPDMLAN@RSAES?9OAEP@ 000000000007d698     OpensslLib:obj_dat.obj
 0002:0000aea8       ??_C@_09FHIEKOPH@rsaesOaep@ 000000000007d6a8     OpensslLib:obj_dat.obj
 0002:0000aeb8       ??_C@_0P@BHMOKJEG@dhpublicnumber@ 000000000007d6b8     OpensslLib:obj_dat.obj
 0002:0000aec8       ??_C@_08HOHHODNK@X9?442?5DH@ 000000000007d6c8     OpensslLib:obj_dat.obj
 0002:0000aed8       ??_C@_0BA@CDGJLDLH@brainpoolP160r1@ 000000000007d6d8     OpensslLib:obj_dat.obj
 0002:0000aee8       ??_C@_0BA@CHOEMPAF@brainpoolP160t1@ 000000000007d6e8     OpensslLib:obj_dat.obj
 0002:0000aef8       ??_C@_0BA@LDAOMON@brainpoolP192r1@ 000000000007d6f8     OpensslLib:obj_dat.obj
 0002:0000af08       ??_C@_0BA@PLNJAFP@brainpoolP192t1@ 000000000007d708     OpensslLib:obj_dat.obj
 0002:0000af18       ??_C@_0BA@NPBPPAIO@brainpoolP224r1@ 000000000007d718     OpensslLib:obj_dat.obj
 0002:0000af28       ??_C@_0BA@NLJCIMDM@brainpoolP224t1@ 000000000007d728     OpensslLib:obj_dat.obj
 0002:0000af38       ??_C@_0BA@MHDGOEBF@brainpoolP256r1@ 000000000007d738     OpensslLib:obj_dat.obj
 0002:0000af48       ??_C@_0BA@MDLLJIKH@brainpoolP256t1@ 000000000007d748     OpensslLib:obj_dat.obj
 0002:0000af58       ??_C@_0BA@JLCBLEHM@brainpoolP320r1@ 000000000007d758     OpensslLib:obj_dat.obj
 0002:0000af68       ??_C@_0BA@JPKMMIMO@brainpoolP320t1@ 000000000007d768     OpensslLib:obj_dat.obj
 0002:0000af78       ??_C@_0BA@FOPDDLIK@brainpoolP384r1@ 000000000007d778     OpensslLib:obj_dat.obj
 0002:0000af88       ??_C@_0BA@FKHOEHDI@brainpoolP384t1@ 000000000007d788     OpensslLib:obj_dat.obj
 0002:0000af98       ??_C@_0BA@KANBOFDK@brainpoolP512r1@ 000000000007d798     OpensslLib:obj_dat.obj
 0002:0000afa8       ??_C@_0BA@KEFMJJII@brainpoolP512t1@ 000000000007d7a8     OpensslLib:obj_dat.obj
 0002:0000afb8       ??_C@_0L@CDJFGILH@PSPECIFIED@ 000000000007d7b8     OpensslLib:obj_dat.obj
 0002:0000afc8       ??_C@_0L@NKKFNJEH@pSpecified@ 000000000007d7c8     OpensslLib:obj_dat.obj
 0002:0000afd8       ??_C@_0CC@GCFJNDOJ@dhSinglePass?9stdDH?9sha1kdf?9sche@ 000000000007d7d8     OpensslLib:obj_dat.obj
 0002:0000b000       ??_C@_0CE@OPNDOJI@dhSinglePass?9stdDH?9sha224kdf?9sc@ 000000000007d800     OpensslLib:obj_dat.obj
 0002:0000b028       ??_C@_0CE@JPLFKGFP@dhSinglePass?9stdDH?9sha256kdf?9sc@ 000000000007d828     OpensslLib:obj_dat.obj
 0002:0000b050       ??_C@_0CE@KJKNLJMI@dhSinglePass?9stdDH?9sha384kdf?9sc@ 000000000007d850     OpensslLib:obj_dat.obj
 0002:0000b078       ??_C@_0CE@DJMHFNHG@dhSinglePass?9stdDH?9sha512kdf?9sc@ 000000000007d878     OpensslLib:obj_dat.obj
 0002:0000b0a0       ??_C@_0CH@DHIHBIGF@dhSinglePass?9cofactorDH?9sha1kdf@ 000000000007d8a0     OpensslLib:obj_dat.obj
 0002:0000b0c8       ??_C@_0CJ@JFHNKHDJ@dhSinglePass?9cofactorDH?9sha224k@ 000000000007d8c8     OpensslLib:obj_dat.obj
 0002:0000b0f8       ??_C@_0CJ@EDFDPPO@dhSinglePass?9cofactorDH?9sha256k@ 000000000007d8f8     OpensslLib:obj_dat.obj
 0002:0000b128       ??_C@_0CJ@DCCNCAGJ@dhSinglePass?9cofactorDH?9sha384k@ 000000000007d928     OpensslLib:obj_dat.obj
 0002:0000b158       ??_C@_0CJ@KCEHMENH@dhSinglePass?9cofactorDH?9sha512k@ 000000000007d958     OpensslLib:obj_dat.obj
 0002:0000b188       ??_C@_0L@MFGJJBLE@dh?9std?9kdf@ 000000000007d988     OpensslLib:obj_dat.obj
 0002:0000b198       ??_C@_0BA@LJEJAEDG@dh?9cofactor?9kdf@ 000000000007d998     OpensslLib:obj_dat.obj
 0002:0000b1a8       ??_C@_0BI@JAKBILLC@AES?9128?9CBC?9HMAC?9SHA256@ 000000000007d9a8     OpensslLib:obj_dat.obj
 0002:0000b1c0       ??_C@_0BI@OMECBAFK@aes?9128?9cbc?9hmac?9sha256@ 000000000007d9c0     OpensslLib:obj_dat.obj
 0002:0000b1d8       ??_C@_0BI@CINDNFBB@AES?9192?9CBC?9HMAC?9SHA256@ 000000000007d9d8     OpensslLib:obj_dat.obj
 0002:0000b1f0       ??_C@_0BI@FEDAEOPJ@aes?9192?9cbc?9hmac?9sha256@ 000000000007d9f0     OpensslLib:obj_dat.obj
 0002:0000b208       ??_C@_0BI@GMBLFPLK@AES?9256?9CBC?9HMAC?9SHA256@ 000000000007da08     OpensslLib:obj_dat.obj
 0002:0000b220       ??_C@_0BI@BAPIMEFC@aes?9256?9cbc?9hmac?9sha256@ 000000000007da20     OpensslLib:obj_dat.obj
 0002:0000b238       ??_C@_0BA@EKNBJPMK@ct_precert_scts@ 000000000007da38     OpensslLib:obj_dat.obj
 0002:0000b248       ??_C@_0BH@MJHOKGCL@CT?5Precertificate?5SCTs@ 000000000007da48     OpensslLib:obj_dat.obj
 0002:0000b260       ??_C@_0BC@DHAKLICB@ct_precert_poison@ 000000000007da60     OpensslLib:obj_dat.obj
 0002:0000b278       ??_C@_0BJ@OJAHFLBJ@CT?5Precertificate?5Poison@ 000000000007da78     OpensslLib:obj_dat.obj
 0002:0000b298       ??_C@_0BC@CGBIKIAJ@ct_precert_signer@ 000000000007da98     OpensslLib:obj_dat.obj
 0002:0000b2b0       ??_C@_0BJ@PIBFELDB@CT?5Precertificate?5Signer@ 000000000007dab0     OpensslLib:obj_dat.obj
 0002:0000b2d0       ??_C@_0N@GIBNBHKA@ct_cert_scts@ 000000000007dad0     OpensslLib:obj_dat.obj
 0002:0000b2e0       ??_C@_0BE@OLBHFOCE@CT?5Certificate?5SCTs@ 000000000007dae0     OpensslLib:obj_dat.obj
 0002:0000b2f8       ??_C@_0O@CEMHPDIN@jurisdictionL@ 000000000007daf8     OpensslLib:obj_dat.obj
 0002:0000b308       ??_C@_0BJ@DGGEPBOP@jurisdictionLocalityName@ 000000000007db08     OpensslLib:obj_dat.obj
 0002:0000b328       ??_C@_0P@FKIAEEHD@jurisdictionST@ 000000000007db28     OpensslLib:obj_dat.obj
 0002:0000b338       ??_C@_0CA@ILILPDLE@jurisdictionStateOrProvinceName@ 000000000007db38     OpensslLib:obj_dat.obj
 0002:0000b358       ??_C@_0O@KDFPOPEC@jurisdictionC@ 000000000007db58     OpensslLib:obj_dat.obj
 0002:0000b368       ??_C@_0BI@IBHEHEJE@jurisdictionCountryName@ 000000000007db68     OpensslLib:obj_dat.obj
 0002:0000b380       ??_C@_0M@HNGJPAIF@AES?9128?9OCB@ 000000000007db80     OpensslLib:obj_dat.obj
 0002:0000b390       ??_C@_0M@KBGCGKAG@aes?9128?9ocb@ 000000000007db90     OpensslLib:obj_dat.obj
 0002:0000b3a0       ??_C@_0M@NOPFIHBJ@AES?9192?9OCB@ 000000000007dba0     OpensslLib:obj_dat.obj
 0002:0000b3b0       ??_C@_0M@CPOBNJK@aes?9192?9ocb@ 000000000007dbb0     OpensslLib:obj_dat.obj
 0002:0000b3c0       ??_C@_0M@MELKIJI@AES?9256?9OCB@ 000000000007dbc0     OpensslLib:obj_dat.obj
 0002:0000b3d0       ??_C@_0M@NAEADCBL@aes?9256?9ocb@ 000000000007dbd0     OpensslLib:obj_dat.obj
 0002:0000b3e0       ??_C@_0BB@GAIDNACN@CAMELLIA?9128?9GCM@ 000000000007dbe0     OpensslLib:obj_dat.obj
 0002:0000b3f8       ??_C@_0BB@HDMLAOJK@camellia?9128?9gcm@ 000000000007dbf8     OpensslLib:obj_dat.obj
 0002:0000b410       ??_C@_0BB@OPOBEHHK@CAMELLIA?9128?9CCM@ 000000000007dc10     OpensslLib:obj_dat.obj
 0002:0000b428       ??_C@_0BB@PMKJJJMN@camellia?9128?9ccm@ 000000000007dc28     OpensslLib:obj_dat.obj
 0002:0000b440       ??_C@_0BB@DLNCPMBB@CAMELLIA?9128?9CTR@ 000000000007dc40     OpensslLib:obj_dat.obj
 0002:0000b458       ??_C@_0BB@CIJKCCKG@camellia?9128?9ctr@ 000000000007dc58     OpensslLib:obj_dat.obj
 0002:0000b470       ??_C@_0BC@ICKOOLPE@CAMELLIA?9128?9CMAC@ 000000000007dc70     OpensslLib:obj_dat.obj
 0002:0000b488       ??_C@_0BC@ECDMKBKH@camellia?9128?9cmac@ 000000000007dc88     OpensslLib:obj_dat.obj
 0002:0000b4a0       ??_C@_0BB@MDBPKHLB@CAMELLIA?9192?9GCM@ 000000000007dca0     OpensslLib:obj_dat.obj
 0002:0000b4b8       ??_C@_0BB@NAFHHJAG@camellia?9192?9gcm@ 000000000007dcb8     OpensslLib:obj_dat.obj
 0002:0000b4d0       ??_C@_0BB@EMHNDAOG@CAMELLIA?9192?9CCM@ 000000000007dcd0     OpensslLib:obj_dat.obj
 0002:0000b4e8       ??_C@_0BB@FPDFOOFB@camellia?9192?9ccm@ 000000000007dce8     OpensslLib:obj_dat.obj
 0002:0000b500       ??_C@_0BB@JIEOILIN@CAMELLIA?9192?9CTR@ 000000000007dd00     OpensslLib:obj_dat.obj
 0002:0000b518       ??_C@_0BB@ILAGFFDK@camellia?9192?9ctr@ 000000000007dd18     OpensslLib:obj_dat.obj
 0002:0000b530       ??_C@_0BC@HLLEKIOM@CAMELLIA?9192?9CMAC@ 000000000007dd30     OpensslLib:obj_dat.obj
 0002:0000b548       ??_C@_0BC@LLCGOCLP@camellia?9192?9cmac@ 000000000007dd48     OpensslLib:obj_dat.obj
 0002:0000b560       ??_C@_0BB@BBKBIIDA@CAMELLIA?9256?9GCM@ 000000000007dd60     OpensslLib:obj_dat.obj
 0002:0000b578       ??_C@_0BB@COJFGIH@camellia?9256?9gcm@ 000000000007dd78     OpensslLib:obj_dat.obj
 0002:0000b590       ??_C@_0BB@JOMDBPGH@CAMELLIA?9256?9CCM@ 000000000007dd90     OpensslLib:obj_dat.obj
 0002:0000b5a8       ??_C@_0BB@INILMBNA@camellia?9256?9ccm@ 000000000007dda8     OpensslLib:obj_dat.obj
 0002:0000b5c0       ??_C@_0BB@EKPAKEAM@CAMELLIA?9256?9CTR@ 000000000007ddc0     OpensslLib:obj_dat.obj
 0002:0000b5d8       ??_C@_0BB@FJLIHKLL@camellia?9256?9ctr@ 000000000007ddd8     OpensslLib:obj_dat.obj
 0002:0000b5f0       ??_C@_0BC@OBNJKFHF@CAMELLIA?9256?9CMAC@ 000000000007ddf0     OpensslLib:obj_dat.obj
 0002:0000b608       ??_C@_0BC@CBELOPCG@camellia?9256?9cmac@ 000000000007de08     OpensslLib:obj_dat.obj
 0002:0000b620       ??_C@_09ILBMCAEF@id?9scrypt@ 000000000007de20     OpensslLib:obj_dat.obj
 0002:0000b62c       ??_C@_06LLPEBPNI@scrypt@   000000000007de2c     OpensslLib:obj_dat.obj
 0002:0000b638       ??_C@_07BKIAFLHB@id?9tc26@ 000000000007de38     OpensslLib:obj_dat.obj
 0002:0000b640       ??_C@_0O@HGEOMPGF@gost89?9cnt?912@ 000000000007de40     OpensslLib:obj_dat.obj
 0002:0000b650       ??_C@_0M@KEFEFFFO@gost?9mac?912@ 000000000007de50     OpensslLib:obj_dat.obj
 0002:0000b660       ??_C@_0BD@PKHBIAHP@id?9tc26?9algorithms@ 000000000007de60     OpensslLib:obj_dat.obj
 0002:0000b678       ??_C@_0N@HMCOAPHF@id?9tc26?9sign@ 000000000007de78     OpensslLib:obj_dat.obj
 0002:0000b688       ??_C@_0N@MINOOKEF@gost2012_256@ 000000000007de88     OpensslLib:obj_dat.obj
 0002:0000b698       ??_C@_0CH@DJAHIKCF@GOST?5R?534?410?92012?5with?5256?5bit?5@ 000000000007de98     OpensslLib:obj_dat.obj
 0002:0000b6c0       ??_C@_0N@DGGMLPCE@gost2012_512@ 000000000007dec0     OpensslLib:obj_dat.obj
 0002:0000b6d0       ??_C@_0CH@FHCOJICI@GOST?5R?534?410?92012?5with?5512?5bit?5@ 000000000007ded0     OpensslLib:obj_dat.obj
 0002:0000b6f8       ??_C@_0P@KKGLKDLG@id?9tc26?9digest@ 000000000007def8     OpensslLib:obj_dat.obj
 0002:0000b708       ??_C@_0O@CBIKGGLN@md_gost12_256@ 000000000007df08     OpensslLib:obj_dat.obj
 0002:0000b718       ??_C@_0CE@FGDJHNGL@GOST?5R?534?411?92012?5with?5256?5bit?5@ 000000000007df18     OpensslLib:obj_dat.obj
 0002:0000b740       ??_C@_0O@NPDIDDNM@md_gost12_512@ 000000000007df40     OpensslLib:obj_dat.obj
 0002:0000b750       ??_C@_0CE@JIJFDDMO@GOST?5R?534?411?92012?5with?5512?5bit?5@ 000000000007df50     OpensslLib:obj_dat.obj
 0002:0000b778       ??_C@_0BH@DGELPKNI@id?9tc26?9signwithdigest@ 000000000007df78     OpensslLib:obj_dat.obj
 0002:0000b790       ??_C@_0CJ@IEAKGPIK@id?9tc26?9signwithdigest?9gost3410@ 000000000007df90     OpensslLib:obj_dat.obj
 0002:0000b7c0       ??_C@_0DD@IIJACCAI@GOST?5R?534?410?92012?5with?5GOST?5R?53@ 000000000007dfc0     OpensslLib:obj_dat.obj
 0002:0000b7f8       ??_C@_0CJ@HKLIDKOL@id?9tc26?9signwithdigest?9gost3410@ 000000000007dff8     OpensslLib:obj_dat.obj
 0002:0000b828       ??_C@_0DD@JMPEGFCI@GOST?5R?534?410?92012?5with?5GOST?5R?53@ 000000000007e028     OpensslLib:obj_dat.obj
 0002:0000b860       ??_C@_0M@ICFDDKIB@id?9tc26?9mac@ 000000000007e060     OpensslLib:obj_dat.obj
 0002:0000b870       ??_C@_0CA@JKDKOOFJ@id?9tc26?9hmac?9gost?93411?92012?9256@ 000000000007e070     OpensslLib:obj_dat.obj
 0002:0000b890       ??_C@_0BN@JOOLALJM@HMAC?5GOST?534?411?92012?5256?5bit@ 000000000007e090     OpensslLib:obj_dat.obj
 0002:0000b8b0       ??_C@_0CA@GEIILLDI@id?9tc26?9hmac?9gost?93411?92012?9512@ 000000000007e0b0     OpensslLib:obj_dat.obj
 0002:0000b8d0       ??_C@_0BN@PLPAGEIA@HMAC?5GOST?534?411?92012?5512?5bit@ 000000000007e0d0     OpensslLib:obj_dat.obj
 0002:0000b8f0       ??_C@_0P@BJHHGDD@id?9tc26?9cipher@ 000000000007e0f0     OpensslLib:obj_dat.obj
 0002:0000b900       ??_C@_0BC@DJLELDPH@id?9tc26?9agreement@ 000000000007e100     OpensslLib:obj_dat.obj
 0002:0000b918       ??_C@_0CF@JALEKNFA@id?9tc26?9agreement?9gost?93410?9201@ 000000000007e118     OpensslLib:obj_dat.obj
 0002:0000b940       ??_C@_0CF@GOAGPIDB@id?9tc26?9agreement?9gost?93410?9201@ 000000000007e140     OpensslLib:obj_dat.obj
 0002:0000b968       ??_C@_0BC@CNAIEHBN@id?9tc26?9constants@ 000000000007e168     OpensslLib:obj_dat.obj
 0002:0000b980       ??_C@_0BH@FMPMHLHM@id?9tc26?9sign?9constants@ 000000000007e180     OpensslLib:obj_dat.obj
 0002:0000b998       ??_C@_0CF@ONCEGCLN@id?9tc26?9gost?93410?92012?9512?9cons@ 000000000007e198     OpensslLib:obj_dat.obj
 0002:0000b9c0       ??_C@_0CI@GGHEPEIH@id?9tc26?9gost?93410?92012?9512?9para@ 000000000007e1c0     OpensslLib:obj_dat.obj
 0002:0000b9e8       ??_C@_0DC@INCJCNBI@GOST?5R?534?410?92012?5?$CI512?5bit?$CJ?5tes@ 000000000007e1e8     OpensslLib:obj_dat.obj
 0002:0000ba20       ??_C@_0CF@PHGDEBIC@id?9tc26?9gost?93410?92012?9512?9para@ 000000000007e220     OpensslLib:obj_dat.obj
 0002:0000ba48       ??_C@_0CH@KEBIEEKM@GOST?5R?534?410?92012?5?$CI512?5bit?$CJ?5Par@ 000000000007e248     OpensslLib:obj_dat.obj
 0002:0000ba70       ??_C@_0CF@NMEOBCEB@id?9tc26?9gost?93410?92012?9512?9para@ 000000000007e270     OpensslLib:obj_dat.obj
 0002:0000ba98       ??_C@_0CH@IPDFBHGP@GOST?5R?534?410?92012?5?$CI512?5bit?$CJ?5Par@ 000000000007e298     OpensslLib:obj_dat.obj
 0002:0000bac0       ??_C@_0BJ@GEIKEFNA@id?9tc26?9digest?9constants@ 000000000007e2c0     OpensslLib:obj_dat.obj
 0002:0000bae0       ??_C@_0BJ@NHFOAFHC@id?9tc26?9cipher?9constants@ 000000000007e2e0     OpensslLib:obj_dat.obj
 0002:0000bb00       ??_C@_0BN@EAAGDAMM@id?9tc26?9gost?928147?9constants@ 000000000007e300     OpensslLib:obj_dat.obj
 0002:0000bb20       ??_C@_0BL@JJBMFHGO@id?9tc26?9gost?928147?9param?9Z@ 000000000007e320     OpensslLib:obj_dat.obj
 0002:0000bb40       ??_C@_0CB@CNOGCECB@GOST?528147?989?5TC26?5parameter?5se@ 000000000007e340     OpensslLib:obj_dat.obj
 0002:0000bb64       ??_C@_03CMFJPFBF@INN@      000000000007e364     OpensslLib:obj_dat.obj
 0002:0000bb68       ??_C@_04OEHPDPKL@OGRN@     000000000007e368     OpensslLib:obj_dat.obj
 0002:0000bb70       ??_C@_05CNOOKPKJ@SNILS@    000000000007e370     OpensslLib:obj_dat.obj
 0002:0000bb78       ??_C@_0BA@NDMKBCND@subjectSignTool@ 000000000007e378     OpensslLib:obj_dat.obj
 0002:0000bb88       ??_C@_0BI@GJCFDOKO@Signing?5Tool?5of?5Subject@ 000000000007e388     OpensslLib:obj_dat.obj
 0002:0000bba0       ??_C@_0P@DOAHENPB@issuerSignTool@ 000000000007e3a0     OpensslLib:obj_dat.obj
 0002:0000bbb0       ??_C@_0BH@GHEABPMA@Signing?5Tool?5of?5Issuer@ 000000000007e3b0     OpensslLib:obj_dat.obj
 0002:0000bbc8       ??_C@_0L@IBPHNLAN@gost89?9cbc@ 000000000007e3c8     OpensslLib:obj_dat.obj
 0002:0000bbd8       ??_C@_0L@LMEFNPKH@gost89?9ecb@ 000000000007e3d8     OpensslLib:obj_dat.obj
 0002:0000bbe8       ??_C@_0L@MKIFCHNP@gost89?9ctr@ 000000000007e3e8     OpensslLib:obj_dat.obj
 0002:0000bbf8       ??_C@_0BA@BNIBKCOB@grasshopper?9ecb@ 000000000007e3f8     OpensslLib:obj_dat.obj
 0002:0000bc08       ??_C@_0BA@GLEBFKJJ@grasshopper?9ctr@ 000000000007e408     OpensslLib:obj_dat.obj
 0002:0000bc18       ??_C@_0BA@HEPHIAGO@grasshopper?9ofb@ 000000000007e418     OpensslLib:obj_dat.obj
 0002:0000bc28       ??_C@_0BA@CADDKGEL@grasshopper?9cbc@ 000000000007e428     OpensslLib:obj_dat.obj
 0002:0000bc38       ??_C@_0BA@DOCBDPNG@grasshopper?9cfb@ 000000000007e438     OpensslLib:obj_dat.obj
 0002:0000bc48       ??_C@_0BA@MCKKGPCB@grasshopper?9mac@ 000000000007e448     OpensslLib:obj_dat.obj
 0002:0000bc58       ??_C@_0BC@PEKIBJLH@ChaCha20?9Poly1305@ 000000000007e458     OpensslLib:obj_dat.obj
 0002:0000bc70       ??_C@_0BC@KDNKBNLK@chacha20?9poly1305@ 000000000007e470     OpensslLib:obj_dat.obj
 0002:0000bc88       ??_C@_08ILJLPLOJ@ChaCha20@ 000000000007e488     OpensslLib:obj_dat.obj
 0002:0000bc98       ??_C@_08OMGHMHM@chacha20@  000000000007e498     OpensslLib:obj_dat.obj
 0002:0000bca8       ??_C@_0L@MLJIFHHA@tlsfeature@ 000000000007e4a8     OpensslLib:obj_dat.obj
 0002:0000bcb8       ??_C@_0M@FNEPCNIJ@TLS?5Feature@ 000000000007e4b8     OpensslLib:obj_dat.obj
 0002:0000bcc8       ??_C@_08KOCGPNOB@TLS1?9PRF@ 000000000007e4c8     OpensslLib:obj_dat.obj
 0002:0000bcd8       ??_C@_08BHOHOJPE@tls1?9prf@ 000000000007e4d8     OpensslLib:obj_dat.obj
 0002:0000bce8       ??_C@_08JJANKCK@ipsecIKE@  000000000007e4e8     OpensslLib:obj_dat.obj
 0002:0000bcf8       ??_C@_0BM@OPBJFEOG@ipsec?5Internet?5Key?5Exchange@ 000000000007e4f8     OpensslLib:obj_dat.obj
 0002:0000bd18       ??_C@_08PPHHBOBH@capwapAC@ 000000000007e518     OpensslLib:obj_dat.obj
 0002:0000bd28       ??_C@_0BK@IALCAIEG@Ctrl?1provision?5WAP?5Access@ 000000000007e528     OpensslLib:obj_dat.obj
 0002:0000bd48       ??_C@_09FFIMBCDL@capwapWTP@ 000000000007e548     OpensslLib:obj_dat.obj
 0002:0000bd58       ??_C@_0BP@LFGCKHED@Ctrl?1Provision?5WAP?5Termination@ 000000000007e558     OpensslLib:obj_dat.obj
 0002:0000bd78       ??_C@_0BC@DBPEJOAM@secureShellClient@ 000000000007e578     OpensslLib:obj_dat.obj
 0002:0000bd90       ??_C@_0L@CACOODCE@SSH?5Client@ 000000000007e590     OpensslLib:obj_dat.obj
 0002:0000bda0       ??_C@_0BC@HOLGEFIP@secureShellServer@ 000000000007e5a0     OpensslLib:obj_dat.obj
 0002:0000bdb8       ??_C@_0L@GPGMDIKH@SSH?5Server@ 000000000007e5b8     OpensslLib:obj_dat.obj
 0002:0000bdc8       ??_C@_0L@MPOEEOHI@sendRouter@ 000000000007e5c8     OpensslLib:obj_dat.obj
 0002:0000bdd8       ??_C@_0M@BCAJACPB@Send?5Router@ 000000000007e5d8     OpensslLib:obj_dat.obj
 0002:0000bde8       ??_C@_0BC@KKHBJBOB@sendProxiedRouter@ 000000000007e5e8     OpensslLib:obj_dat.obj
 0002:0000be00       ??_C@_0BE@JHOOFFHO@Send?5Proxied?5Router@ 000000000007e600     OpensslLib:obj_dat.obj
 0002:0000be18       ??_C@_09JAHHKBGP@sendOwner@ 000000000007e618     OpensslLib:obj_dat.obj
 0002:0000be28       ??_C@_0L@HAEHOBAA@Send?5Owner@ 000000000007e628     OpensslLib:obj_dat.obj
 0002:0000be38       ??_C@_0BB@LFHBPODH@sendProxiedOwner@ 000000000007e638     OpensslLib:obj_dat.obj
 0002:0000be50       ??_C@_0BD@PCCALGFC@Send?5Proxied?5Owner@ 000000000007e650     OpensslLib:obj_dat.obj
 0002:0000be68       ??_C@_09JPKOOJPP@id?9pkinit@ 000000000007e668     OpensslLib:obj_dat.obj
 0002:0000be78       ??_C@_0BB@EPFMAKG@pkInitClientAuth@ 000000000007e678     OpensslLib:obj_dat.obj
 0002:0000be90       ??_C@_0BD@EMKKJPI@PKINIT?5Client?5Auth@ 000000000007e690     OpensslLib:obj_dat.obj
 0002:0000bea8       ??_C@_09BKCKBNGN@pkInitKDC@ 000000000007e6a8     OpensslLib:obj_dat.obj
 0002:0000beb8       ??_C@_0BF@JILKFMLF@Signing?5KDC?5Response@ 000000000007e6b8     OpensslLib:obj_dat.obj
 0002:0000bed0       ??_C@_06LOACBMIP@X25519@   000000000007e6d0     OpensslLib:obj_dat.obj
 0002:0000bed8       ??_C@_04HKAKBCKJ@X448@     000000000007e6d8     OpensslLib:obj_dat.obj
 0002:0000bee0       ??_C@_04MMPLAJMJ@HKDF@     000000000007e6e0     OpensslLib:obj_dat.obj
 0002:0000bee8       ??_C@_04MBOLLB@hkdf@       000000000007e6e8     OpensslLib:obj_dat.obj
 0002:0000bef0       ??_C@_05EJMCGHJ@KxRSA@     000000000007e6f0     OpensslLib:obj_dat.obj
 0002:0000bef8       ??_C@_06NOGFLIHP@kx?9rsa@  000000000007e6f8     OpensslLib:obj_dat.obj
 0002:0000bf00       ??_C@_07JGJKHBHF@KxECDHE@  000000000007e700     OpensslLib:obj_dat.obj
 0002:0000bf08       ??_C@_08HKLONAAL@kx?9ecdhe@ 000000000007e708     OpensslLib:obj_dat.obj
 0002:0000bf14       ??_C@_05FPBKHKP@KxDHE@     000000000007e714     OpensslLib:obj_dat.obj
 0002:0000bf1c       ??_C@_06NPAIDJKJ@kx?9dhe@  000000000007e71c     OpensslLib:obj_dat.obj
 0002:0000bf28       ??_C@_0M@BEDLOEBI@KxECDHE?9PSK@ 000000000007e728     OpensslLib:obj_dat.obj
 0002:0000bf38       ??_C@_0N@BCMOIGGJ@kx?9ecdhe?9psk@ 000000000007e738     OpensslLib:obj_dat.obj
 0002:0000bf48       ??_C@_09DLNJIEPF@KxDHE?9PSK@ 000000000007e748     OpensslLib:obj_dat.obj
 0002:0000bf58       ??_C@_0L@EHLMOCJB@kx?9dhe?9psk@ 000000000007e758     OpensslLib:obj_dat.obj
 0002:0000bf68       ??_C@_09PMFHIFNE@KxRSA_PSK@ 000000000007e768     OpensslLib:obj_dat.obj
 0002:0000bf78       ??_C@_0L@DCAFABP@kx?9rsa?9psk@ 000000000007e778     OpensslLib:obj_dat.obj
 0002:0000bf84       ??_C@_05FEHKAGHI@KxPSK@    000000000007e784     OpensslLib:obj_dat.obj
 0002:0000bf8c       ??_C@_06IOIDJIHO@kx?9psk@  000000000007e78c     OpensslLib:obj_dat.obj
 0002:0000bf94       ??_C@_05OODLAIDL@KxSRP@    000000000007e794     OpensslLib:obj_dat.obj
 0002:0000bf9c       ??_C@_06DEMCJGDN@kx?9srp@  000000000007e79c     OpensslLib:obj_dat.obj
 0002:0000bfa4       ??_C@_06FKGHEKCF@KxGOST@   000000000007e7a4     OpensslLib:obj_dat.obj
 0002:0000bfb0       ??_C@_07CGFKDCCM@kx?9gost@ 000000000007e7b0     OpensslLib:obj_dat.obj
 0002:0000bfb8       ??_C@_07BONHEHLG@AuthRSA@  000000000007e7b8     OpensslLib:obj_dat.obj
 0002:0000bfc0       ??_C@_08JIOIJHAA@auth?9rsa@ 000000000007e7c0     OpensslLib:obj_dat.obj
 0002:0000bfd0       ??_C@_09JEFCHIOE@AuthECDSA@ 000000000007e7d0     OpensslLib:obj_dat.obj
 0002:0000bfe0       ??_C@_0L@NNHEHHD@auth?9ecdsa@ 000000000007e7e0     OpensslLib:obj_dat.obj
 0002:0000bff0       ??_C@_07EODBGHLH@AuthPSK@  000000000007e7f0     OpensslLib:obj_dat.obj
 0002:0000bff8       ??_C@_08MIAOLHAB@auth?9psk@ 000000000007e7f8     OpensslLib:obj_dat.obj
 0002:0000c008       ??_C@_07BDFBDPCG@AuthDSS@  000000000007e808     OpensslLib:obj_dat.obj
 0002:0000c010       ??_C@_08JFGOOPJA@auth?9dss@ 000000000007e810     OpensslLib:obj_dat.obj
 0002:0000c020       ??_C@_0L@JLNHNDLF@AuthGOST01@ 000000000007e820     OpensslLib:obj_dat.obj
 0002:0000c030       ??_C@_0M@MNGIBGIN@auth?9gost01@ 000000000007e830     OpensslLib:obj_dat.obj
 0002:0000c040       ??_C@_0L@LBDIOKEB@AuthGOST12@ 000000000007e840     OpensslLib:obj_dat.obj
 0002:0000c050       ??_C@_0M@OHIHCPHJ@auth?9gost12@ 000000000007e850     OpensslLib:obj_dat.obj
 0002:0000c060       ??_C@_07PEHAGJPE@AuthSRP@  000000000007e860     OpensslLib:obj_dat.obj
 0002:0000c068       ??_C@_08HCEPLJEC@auth?9srp@ 000000000007e868     OpensslLib:obj_dat.obj
 0002:0000c078       ??_C@_08PGHDHHPL@AuthNULL@ 000000000007e878     OpensslLib:obj_dat.obj
 0002:0000c088       ??_C@_09EBHDHKDA@auth?9null@ 000000000007e888     OpensslLib:obj_dat.obj
 0002:0000c098       ??_C@_0L@JAJLMLPM@BLAKE2b512@ 000000000007e898     OpensslLib:obj_dat.obj
 0002:0000c0a8       ??_C@_0L@ONGAJOJC@blake2b512@ 000000000007e8a8     OpensslLib:obj_dat.obj
 0002:0000c0b8       ??_C@_0L@DDKJCAKP@BLAKE2s256@ 000000000007e8b8     OpensslLib:obj_dat.obj
 0002:0000c0c8       ??_C@_0L@EOFCHFMB@blake2s256@ 000000000007e8c8     OpensslLib:obj_dat.obj
 0002:0000c0d8       ??_C@_0BO@OGCFEAKN@id?9smime?9ct?9contentCollection@ 000000000007e8d8     OpensslLib:obj_dat.obj
 0002:0000c0f8       ??_C@_0BO@INCMCPON@id?9smime?9ct?9authEnvelopedData@ 000000000007e8f8     OpensslLib:obj_dat.obj
 0002:0000c118       ??_C@_09GGALBJKN@id?9ct?9xml@ 000000000007e918     OpensslLib:obj_dat.obj
 0002:0000c128       ??_C@_08PKNBIDPH@Poly1305@ 000000000007e928     OpensslLib:obj_dat.obj
 0002:0000c138       ??_C@_08HICAABFE@poly1305@ 000000000007e938     OpensslLib:obj_dat.obj
 0002:0000c148       ??_C@_07EEPCGEAM@SipHash@  000000000007e948     OpensslLib:obj_dat.obj
 0002:0000c150       ??_C@_07HMEFCJFO@siphash@  000000000007e950     OpensslLib:obj_dat.obj
 0002:0000c158       ??_C@_05NANFHGHC@KxANY@    000000000007e958     OpensslLib:obj_dat.obj
 0002:0000c160       ??_C@_06KCMOIHE@kx?9any@   000000000007e960     OpensslLib:obj_dat.obj
 0002:0000c168       ??_C@_07MKJOBHLN@AuthANY@  000000000007e968     OpensslLib:obj_dat.obj
 0002:0000c170       ??_C@_08EMKBMHAL@auth?9any@ 000000000007e970     OpensslLib:obj_dat.obj
 0002:0000c180       ??_C@_0N@FEKJCEDM@ARIA?9128?9ECB@ 000000000007e980     OpensslLib:obj_dat.obj
 0002:0000c190       ??_C@_0N@DLNMPFEK@aria?9128?9ecb@ 000000000007e990     OpensslLib:obj_dat.obj
 0002:0000c1a0       ??_C@_0N@GJBLCAJG@ARIA?9128?9CBC@ 000000000007e9a0     OpensslLib:obj_dat.obj
 0002:0000c1b0       ??_C@_0N@GGOPBOA@aria?9128?9cbc@ 000000000007e9b0     OpensslLib:obj_dat.obj
 0002:0000c1c0       ??_C@_0N@HHAJLJAL@ARIA?9128?9CFB@ 000000000007e9c0     OpensslLib:obj_dat.obj
 0002:0000c1d0       ??_C@_0N@BIHMGIHN@aria?9128?9cfb@ 000000000007e9d0     OpensslLib:obj_dat.obj
 0002:0000c1e0       ??_C@_0N@DNNPAGLD@ARIA?9128?9OFB@ 000000000007e9e0     OpensslLib:obj_dat.obj
 0002:0000c1f0       ??_C@_0N@FCKKNHMF@aria?9128?9ofb@ 000000000007e9f0     OpensslLib:obj_dat.obj
 0002:0000c200       ??_C@_0N@CCGJNMEE@ARIA?9128?9CTR@ 000000000007ea00     OpensslLib:obj_dat.obj
 0002:0000c210       ??_C@_0N@ENBMANDC@aria?9128?9ctr@ 000000000007ea10     OpensslLib:obj_dat.obj
 0002:0000c220       ??_C@_0N@PHDFFDKA@ARIA?9192?9ECB@ 000000000007ea20     OpensslLib:obj_dat.obj
 0002:0000c230       ??_C@_0N@JIEAICNG@aria?9192?9ecb@ 000000000007ea30     OpensslLib:obj_dat.obj
 0002:0000c240       ??_C@_0N@MKIHFHAK@ARIA?9192?9CBC@ 000000000007ea40     OpensslLib:obj_dat.obj
 0002:0000c250       ??_C@_0N@KFPCIGHM@aria?9192?9cbc@ 000000000007ea50     OpensslLib:obj_dat.obj
 0002:0000c260       ??_C@_0N@NEJFMOJH@ARIA?9192?9CFB@ 000000000007ea60     OpensslLib:obj_dat.obj
 0002:0000c270       ??_C@_0N@LLOABPOB@aria?9192?9cfb@ 000000000007ea70     OpensslLib:obj_dat.obj
 0002:0000c280       ??_C@_0N@JOEDHBCP@ARIA?9192?9OFB@ 000000000007ea80     OpensslLib:obj_dat.obj
 0002:0000c290       ??_C@_0N@PBDGKAFJ@aria?9192?9ofb@ 000000000007ea90     OpensslLib:obj_dat.obj
 0002:0000c2a0       ??_C@_0N@IBPFKLNI@ARIA?9192?9CTR@ 000000000007eaa0     OpensslLib:obj_dat.obj
 0002:0000c2b0       ??_C@_0N@OOIAHKKO@aria?9192?9ctr@ 000000000007eab0     OpensslLib:obj_dat.obj
 0002:0000c2c0       ??_C@_0N@CFILHMCB@ARIA?9256?9ECB@ 000000000007eac0     OpensslLib:obj_dat.obj
 0002:0000c2d0       ??_C@_0N@EKPOKNFH@aria?9256?9ecb@ 000000000007ead0     OpensslLib:obj_dat.obj
 0002:0000c2e0       ??_C@_0N@BIDJHIIL@ARIA?9256?9CBC@ 000000000007eae0     OpensslLib:obj_dat.obj
 0002:0000c2f0       ??_C@_0N@HHEMKJPN@aria?9256?9cbc@ 000000000007eaf0     OpensslLib:obj_dat.obj
 0002:0000c300       ??_C@_0N@GCLOBBG@ARIA?9256?9CFB@ 000000000007eb00     OpensslLib:obj_dat.obj
 0002:0000c310       ??_C@_0N@GJFODAGA@aria?9256?9cfb@ 000000000007eb10     OpensslLib:obj_dat.obj
 0002:0000c320       ??_C@_0N@EMPNFOKO@ARIA?9256?9OFB@ 000000000007eb20     OpensslLib:obj_dat.obj
 0002:0000c330       ??_C@_0N@CDIIIPNI@aria?9256?9ofb@ 000000000007eb30     OpensslLib:obj_dat.obj
 0002:0000c340       ??_C@_0N@FDELIEFJ@ARIA?9256?9CTR@ 000000000007eb40     OpensslLib:obj_dat.obj
 0002:0000c350       ??_C@_0N@DMDOFFCP@aria?9256?9ctr@ 000000000007eb50     OpensslLib:obj_dat.obj
 0002:0000c360       ??_C@_0O@FBPINHID@ARIA?9128?9CFB1@ 000000000007eb60     OpensslLib:obj_dat.obj
 0002:0000c370       ??_C@_0O@OIPBHGFL@aria?9128?9cfb1@ 000000000007eb70     OpensslLib:obj_dat.obj
 0002:0000c380       ??_C@_0O@KIOCJEJL@ARIA?9192?9CFB1@ 000000000007eb80     OpensslLib:obj_dat.obj
 0002:0000c390       ??_C@_0O@BBOLDFED@aria?9192?9cfb1@ 000000000007eb90     OpensslLib:obj_dat.obj
 0002:0000c3a0       ??_C@_0O@DCIPJJAC@ARIA?9256?9CFB1@ 000000000007eba0     OpensslLib:obj_dat.obj
 0002:0000c3b0       ??_C@_0O@ILIGDINK@aria?9256?9cfb1@ 000000000007ebb0     OpensslLib:obj_dat.obj
 0002:0000c3c0       ??_C@_0O@IADKGMMK@ARIA?9128?9CFB8@ 000000000007ebc0     OpensslLib:obj_dat.obj
 0002:0000c3d0       ??_C@_0O@DJDDMNBC@aria?9128?9cfb8@ 000000000007ebd0     OpensslLib:obj_dat.obj
 0002:0000c3e0       ??_C@_0O@HJCACPNC@ARIA?9192?9CFB8@ 000000000007ebe0     OpensslLib:obj_dat.obj
 0002:0000c3f0       ??_C@_0O@MACJIOAK@aria?9192?9cfb8@ 000000000007ebf0     OpensslLib:obj_dat.obj
 0002:0000c400       ??_C@_0O@ODENCCEL@ARIA?9256?9CFB8@ 000000000007ec00     OpensslLib:obj_dat.obj
 0002:0000c410       ??_C@_0O@FKEEIDJD@aria?9256?9cfb8@ 000000000007ec10     OpensslLib:obj_dat.obj
 0002:0000c420       ??_C@_0CB@IFNLAOKJ@id?9smime?9aa?9signingCertificateV@ 000000000007ec20     OpensslLib:obj_dat.obj
 0002:0000c448       ??_C@_07IHEPCGKL@ED25519@  000000000007ec48     OpensslLib:obj_dat.obj
 0002:0000c450       ??_C@_05PHGPKFEL@ED448@    000000000007ec50     OpensslLib:obj_dat.obj
 0002:0000c458       ??_C@_0BH@IMGBFLPH@organizationIdentifier@ 000000000007ec58     OpensslLib:obj_dat.obj
 0002:0000c470       ??_C@_02LOEEDGKE@c3@       000000000007ec70     OpensslLib:obj_dat.obj
 0002:0000c478       ??_C@_0O@FPCOELAL@countryCode3c@ 000000000007ec78     OpensslLib:obj_dat.obj
 0002:0000c488       ??_C@_02LGJMKFPH@n3@       000000000007ec88     OpensslLib:obj_dat.obj
 0002:0000c490       ??_C@_0O@OKIADFEG@countryCode3n@ 000000000007ec90     OpensslLib:obj_dat.obj
 0002:0000c4a0       ??_C@_07KEJPHHNP@dnsName@  000000000007eca0     OpensslLib:obj_dat.obj
 0002:0000c4a8       ??_C@_0BB@NCOFGOBL@x509ExtAdmission@ 000000000007eca8     OpensslLib:obj_dat.obj
 0002:0000c4c0       ??_C@_0DA@NCCMDEGO@Professional?5Information?5or?5bas@ 000000000007ecc0     OpensslLib:obj_dat.obj
 0002:0000c4f0       ??_C@_0L@EEJNOJOJ@SHA512?9224@ 000000000007ecf0     OpensslLib:obj_dat.obj
 0002:0000c500       ??_C@_0L@PKNOHEN@sha512?9224@ 000000000007ed00     OpensslLib:obj_dat.obj
 0002:0000c510       ??_C@_0L@HDOEJNOO@SHA512?9256@ 000000000007ed10     OpensslLib:obj_dat.obj
 0002:0000c520       ??_C@_0L@DINEJDEK@sha512?9256@ 000000000007ed20     OpensslLib:obj_dat.obj
 0002:0000c530       ??_C@_08DHHFFNOC@SHA3?9224@ 000000000007ed30     OpensslLib:obj_dat.obj
 0002:0000c540       ??_C@_08IDEPIEIL@sha3?9224@ 000000000007ed40     OpensslLib:obj_dat.obj
 0002:0000c550       ??_C@_08MCJOF@SHA3?9256@   000000000007ed50     OpensslLib:obj_dat.obj
 0002:0000c560       ??_C@_08LEDGPAIM@sha3?9256@ 000000000007ed60     OpensslLib:obj_dat.obj
 0002:0000c570       ??_C@_08ICFOLPFB@SHA3?9384@ 000000000007ed70     OpensslLib:obj_dat.obj
 0002:0000c580       ??_C@_08DGGEGGDI@sha3?9384@ 000000000007ed80     OpensslLib:obj_dat.obj
 0002:0000c590       ??_C@_08POLOHMIE@SHA3?9512@ 000000000007ed90     OpensslLib:obj_dat.obj
 0002:0000c5a0       ??_C@_08EKIEKFON@sha3?9512@ 000000000007eda0     OpensslLib:obj_dat.obj
 0002:0000c5b0       ??_C@_08MHEGAOCA@SHAKE128@ 000000000007edb0     OpensslLib:obj_dat.obj
 0002:0000c5c0       ??_C@_08LFBBPNHL@shake128@ 000000000007edc0     OpensslLib:obj_dat.obj
 0002:0000c5d0       ??_C@_08EODPJKMF@SHAKE256@ 000000000007edd0     OpensslLib:obj_dat.obj
 0002:0000c5e0       ??_C@_08DMGIGJJO@shake256@ 000000000007ede0     OpensslLib:obj_dat.obj
 0002:0000c5f0       ??_C@_0BE@MGFGMONP@id?9hmacWithSHA3?9224@ 000000000007edf0     OpensslLib:obj_dat.obj
 0002:0000c608       ??_C@_0O@ICMEJKOD@hmac?9sha3?9224@ 000000000007ee08     OpensslLib:obj_dat.obj
 0002:0000c618       ??_C@_0BE@PBCPLKNI@id?9hmacWithSHA3?9256@ 000000000007ee18     OpensslLib:obj_dat.obj
 0002:0000c630       ??_C@_0O@LFLNOOOE@hmac?9sha3?9256@ 000000000007ee30     OpensslLib:obj_dat.obj
 0002:0000c640       ??_C@_0BE@HDHNCMGM@id?9hmacWithSHA3?9384@ 000000000007ee40     OpensslLib:obj_dat.obj
 0002:0000c658       ??_C@_0O@DHOPHIFA@hmac?9sha3?9384@ 000000000007ee58     OpensslLib:obj_dat.obj
 0002:0000c668       ??_C@_0BE@PJNOPLJ@id?9hmacWithSHA3?9512@ 000000000007ee68     OpensslLib:obj_dat.obj
 0002:0000c680       ??_C@_0O@ELAPLLIF@hmac?9sha3?9512@ 000000000007ee80     OpensslLib:obj_dat.obj
 0002:0000c690       ??_C@_0BD@LAAPDDDN@id?9dsa?9with?9sha384@ 000000000007ee90     OpensslLib:obj_dat.obj
 0002:0000c6a8       ??_C@_0BA@NOAAHENE@dsa_with_SHA384@ 000000000007eea8     OpensslLib:obj_dat.obj
 0002:0000c6b8       ??_C@_0BD@MMOPPAOI@id?9dsa?9with?9sha512@ 000000000007eeb8     OpensslLib:obj_dat.obj
 0002:0000c6d0       ??_C@_0BA@KCOALHAB@dsa_with_SHA512@ 000000000007eed0     OpensslLib:obj_dat.obj
 0002:0000c6e0       ??_C@_0BF@MEJGBMIA@id?9dsa?9with?9sha3?9224@ 000000000007eee0     OpensslLib:obj_dat.obj
 0002:0000c6f8       ??_C@_0BC@KDJCOOBJ@dsa_with_SHA3?9224@ 000000000007eef8     OpensslLib:obj_dat.obj
 0002:0000c710       ??_C@_0BF@PDOPGIIH@id?9dsa?9with?9sha3?9256@ 000000000007ef10     OpensslLib:obj_dat.obj
 0002:0000c728       ??_C@_0BC@JEOLJKBO@dsa_with_SHA3?9256@ 000000000007ef28     OpensslLib:obj_dat.obj
 0002:0000c740       ??_C@_0BF@HBLNPODD@id?9dsa?9with?9sha3?9384@ 000000000007ef40     OpensslLib:obj_dat.obj
 0002:0000c758       ??_C@_0BC@BGLJAMKK@dsa_with_SHA3?9384@ 000000000007ef58     OpensslLib:obj_dat.obj
 0002:0000c770       ??_C@_0BF@NFNDNOG@id?9dsa?9with?9sha3?9512@ 000000000007ef70     OpensslLib:obj_dat.obj
 0002:0000c788       ??_C@_0BC@GKFJMPHP@dsa_with_SHA3?9512@ 000000000007ef88     OpensslLib:obj_dat.obj
 0002:0000c7a0       ??_C@_0BH@CPKNOLKD@id?9ecdsa?9with?9sha3?9224@ 000000000007efa0     OpensslLib:obj_dat.obj
 0002:0000c7b8       ??_C@_0BE@HAIIGEO@ecdsa_with_SHA3?9224@ 000000000007efb8     OpensslLib:obj_dat.obj
 0002:0000c7d0       ??_C@_0BH@BINEJPKE@id?9ecdsa?9with?9sha3?9256@ 000000000007efd0     OpensslLib:obj_dat.obj
 0002:0000c7e8       ??_C@_0BE@DAHBPCEJ@ecdsa_with_SHA3?9256@ 000000000007efe8     OpensslLib:obj_dat.obj
 0002:0000c800       ??_C@_0BH@JKIGAJBA@id?9ecdsa?9with?9sha3?9384@ 000000000007f000     OpensslLib:obj_dat.obj
 0002:0000c818       ??_C@_0BE@LCCDGEPN@ecdsa_with_SHA3?9384@ 000000000007f018     OpensslLib:obj_dat.obj
 0002:0000c830       ??_C@_0BH@OGGGMKMF@id?9ecdsa?9with?9sha3?9512@ 000000000007f030     OpensslLib:obj_dat.obj
 0002:0000c848       ??_C@_0BE@MOMDKHCI@ecdsa_with_SHA3?9512@ 000000000007f048     OpensslLib:obj_dat.obj
 0002:0000c860       ??_C@_0CD@HOFJHNFO@id?9rsassa?9pkcs1?9v1_5?9with?9sha3?9@ 000000000007f060     OpensslLib:obj_dat.obj
 0002:0000c888       ??_C@_0N@FBFOELEH@RSA?9SHA3?9224@ 000000000007f088     OpensslLib:obj_dat.obj
 0002:0000c898       ??_C@_0CD@EJCAAJFJ@id?9rsassa?9pkcs1?9v1_5?9with?9sha3?9@ 000000000007f098     OpensslLib:obj_dat.obj
 0002:0000c8c0       ??_C@_0N@GGCHDPEA@RSA?9SHA3?9256@ 000000000007f0c0     OpensslLib:obj_dat.obj
 0002:0000c8d0       ??_C@_0CD@MLHCJPON@id?9rsassa?9pkcs1?9v1_5?9with?9sha3?9@ 000000000007f0d0     OpensslLib:obj_dat.obj
 0002:0000c8f8       ??_C@_0N@OEHFKJPE@RSA?9SHA3?9384@ 000000000007f0f8     OpensslLib:obj_dat.obj
 0002:0000c908       ??_C@_0CD@LHJCFMDI@id?9rsassa?9pkcs1?9v1_5?9with?9sha3?9@ 000000000007f108     OpensslLib:obj_dat.obj
 0002:0000c930       ??_C@_0N@JIJFGKCB@RSA?9SHA3?9512@ 000000000007f130     OpensslLib:obj_dat.obj
 0002:0000c940       ??_C@_0N@PGFKGHCP@ARIA?9128?9CCM@ 000000000007f140     OpensslLib:obj_dat.obj
 0002:0000c950       ??_C@_0N@JJCPLGFJ@aria?9128?9ccm@ 000000000007f150     OpensslLib:obj_dat.obj
 0002:0000c960       ??_C@_0N@FFMGBALD@ARIA?9192?9CCM@ 000000000007f160     OpensslLib:obj_dat.obj
 0002:0000c970       ??_C@_0N@DKLDMBMF@aria?9192?9ccm@ 000000000007f170     OpensslLib:obj_dat.obj
 0002:0000c980       ??_C@_0N@IHHIDPDC@ARIA?9256?9CCM@ 000000000007f180     OpensslLib:obj_dat.obj
 0002:0000c990       ??_C@_0N@OIANOOEE@aria?9256?9ccm@ 000000000007f190     OpensslLib:obj_dat.obj
 0002:0000c9a0       ??_C@_0N@HJDIPAHI@ARIA?9128?9GCM@ 000000000007f1a0     OpensslLib:obj_dat.obj
 0002:0000c9b0       ??_C@_0N@BGENCBAO@aria?9128?9gcm@ 000000000007f1b0     OpensslLib:obj_dat.obj
 0002:0000c9c0       ??_C@_0N@NKKEIHOE@ARIA?9192?9GCM@ 000000000007f1c0     OpensslLib:obj_dat.obj
 0002:0000c9d0       ??_C@_0N@LFNBFGJC@aria?9192?9gcm@ 000000000007f1d0     OpensslLib:obj_dat.obj
 0002:0000c9e0       ??_C@_0N@IBKKIGF@ARIA?9256?9GCM@ 000000000007f1e0     OpensslLib:obj_dat.obj
 0002:0000c9f0       ??_C@_0N@GHGPHJBD@aria?9256?9gcm@ 000000000007f1f0     OpensslLib:obj_dat.obj
 0002:0000ca00       ??_C@_09EEADMLEK@ffdhe2048@ 000000000007f200     OpensslLib:obj_dat.obj
 0002:0000ca10       ??_C@_09IBMKLECJ@ffdhe3072@ 000000000007f210     OpensslLib:obj_dat.obj
 0002:0000ca20       ??_C@_09FNBIIADH@ffdhe4096@ 000000000007f220     OpensslLib:obj_dat.obj
 0002:0000ca30       ??_C@_09KFIKEFOD@ffdhe6144@ 000000000007f230     OpensslLib:obj_dat.obj
 0002:0000ca40       ??_C@_09EEDIMPFH@ffdhe8192@ 000000000007f240     OpensslLib:obj_dat.obj
 0002:0000ca4c       ??_C@_05BDNCIFGE@cmcCA@    000000000007f24c     OpensslLib:obj_dat.obj
 0002:0000ca58       ??_C@_0BK@LBDJBFMP@CMC?5Certificate?5Authority@ 000000000007f258     OpensslLib:obj_dat.obj
 0002:0000ca74       ??_C@_05ODGEMCD@cmcRA@     000000000007f274     OpensslLib:obj_dat.obj
 0002:0000ca80       ??_C@_0BL@NBGEGOFM@CMC?5Registration?5Authority@ 000000000007f280     OpensslLib:obj_dat.obj
 0002:0000caa0       ??_C@_07NOELNIBF@SM4?9ECB@ 000000000007f2a0     OpensslLib:obj_dat.obj
 0002:0000caa8       ??_C@_07OFHLEOKD@sm4?9ecb@ 000000000007f2a8     OpensslLib:obj_dat.obj
 0002:0000cab0       ??_C@_07ODPJNMLP@SM4?9CBC@ 000000000007f2b0     OpensslLib:obj_dat.obj
 0002:0000cab8       ??_C@_07NIMJEKAJ@sm4?9cbc@ 000000000007f2b8     OpensslLib:obj_dat.obj
 0002:0000cac0       ??_C@_07LHDNPKJK@SM4?9OFB@ 000000000007f2c0     OpensslLib:obj_dat.obj
 0002:0000cac8       ??_C@_07IMANGMCM@sm4?9ofb@ 000000000007f2c8     OpensslLib:obj_dat.obj
 0002:0000cad0       ??_C@_08BDMAKNBD@SM4?9CFB1@ 000000000007f2d0     OpensslLib:obj_dat.obj
 0002:0000cae0       ??_C@_08DBPJILDM@sm4?9cfb1@ 000000000007f2e0     OpensslLib:obj_dat.obj
 0002:0000caf0       ??_C@_07PNOLEFCC@SM4?9CFB@ 000000000007f2f0     OpensslLib:obj_dat.obj
 0002:0000caf8       ??_C@_07MGNLNDJE@sm4?9cfb@ 000000000007f2f8     OpensslLib:obj_dat.obj
 0002:0000cb00       ??_C@_08MCACBGFK@SM4?9CFB8@ 000000000007f300     OpensslLib:obj_dat.obj
 0002:0000cb10       ??_C@_08OADLDAHF@sm4?9cfb8@ 000000000007f310     OpensslLib:obj_dat.obj
 0002:0000cb20       ??_C@_07KIILCAGN@SM4?9CTR@ 000000000007f320     OpensslLib:obj_dat.obj
 0002:0000cb28       ??_C@_07JDLLLGNL@sm4?9ctr@ 000000000007f328     OpensslLib:obj_dat.obj
 0002:0000cb30       ??_C@_06KNMHIDBL@ISO?9CN@  000000000007f330     OpensslLib:obj_dat.obj
 0002:0000cb38       ??_C@_0BD@GLPDOOPB@ISO?5CN?5Member?5Body@ 000000000007f338     OpensslLib:obj_dat.obj
 0002:0000cb4c       ??_C@_05BGAJAOLO@oscca@    000000000007f34c     OpensslLib:obj_dat.obj
 0002:0000cb58       ??_C@_09GAILPDAI@sm?9scheme@ 000000000007f358     OpensslLib:obj_dat.obj
 0002:0000cb64       ??_C@_03ILCKPLAM@SM3@      000000000007f364     OpensslLib:obj_dat.obj
 0002:0000cb68       ??_C@_03BDFFBCNC@sm3@      000000000007f368     OpensslLib:obj_dat.obj
 0002:0000cb70       ??_C@_07DHCHMOJE@RSA?9SM3@ 000000000007f370     OpensslLib:obj_dat.obj
 0002:0000cb78       ??_C@_0BF@LJEMNFBJ@sm3WithRSAEncryption@ 000000000007f378     OpensslLib:obj_dat.obj
 0002:0000cb90       ??_C@_0P@BJPJCBFP@RSA?9SHA512?1224@ 000000000007f390     OpensslLib:obj_dat.obj
 0002:0000cba0       ??_C@_0BM@OAMEHMHD@sha512?9224WithRSAEncryption@ 000000000007f3a0     OpensslLib:obj_dat.obj
 0002:0000cbc0       ??_C@_0P@COIAFFFI@RSA?9SHA512?1256@ 000000000007f3c0     OpensslLib:obj_dat.obj
 0002:0000cbd0       ??_C@_0BM@HFDENMBB@sha512?9256WithRSAEncryption@ 000000000007f3d0     OpensslLib:obj_dat.obj
 0002:0000cbf0       ??_C@_0CF@ELFGJJJE@id?9tc26?9gost?93410?92012?9256?9cons@ 000000000007f3f0     OpensslLib:obj_dat.obj
 0002:0000cc18       ??_C@_0CF@FBBBLKKL@id?9tc26?9gost?93410?92012?9256?9para@ 000000000007f418     OpensslLib:obj_dat.obj
 0002:0000cc40       ??_C@_0CH@KHJMDINL@GOST?5R?534?410?92012?5?$CI256?5bit?$CJ?5Par@ 000000000007f440     OpensslLib:obj_dat.obj
 0002:0000cc68       ??_C@_0CF@MFFFCDAA@id?9tc26?9gost?93410?92012?9512?9para@ 000000000007f468     OpensslLib:obj_dat.obj
 0002:0000cc90       ??_C@_0CH@JGCOCGCO@GOST?5R?534?410?92012?5?$CI512?5bit?$CJ?5Par@ 000000000007f490     OpensslLib:obj_dat.obj
 0002:0000ccb8       ??_C@_06DCPEEABG@ISO?9UA@  000000000007f4b8     OpensslLib:obj_dat.obj
 0002:0000ccc0       ??_C@_06LNLILMPE@ua?9pki@  000000000007f4c0     OpensslLib:obj_dat.obj
 0002:0000ccc8       ??_C@_09LIAMILCI@dstu28147@ 000000000007f4c8     OpensslLib:obj_dat.obj
 0002:0000ccd8       ??_C@_0BF@BOFOAMLJ@DSTU?5Gost?528147?92009@ 000000000007f4d8     OpensslLib:obj_dat.obj
 0002:0000ccf0       ??_C@_0O@KAGMLFFF@dstu28147?9ofb@ 000000000007f4f0     OpensslLib:obj_dat.obj
 0002:0000cd00       ??_C@_0BO@NJFBFPDF@DSTU?5Gost?528147?92009?5OFB?5mode@ 000000000007f500     OpensslLib:obj_dat.obj
 0002:0000cd20       ??_C@_0O@OKLKAKON@dstu28147?9cfb@ 000000000007f520     OpensslLib:obj_dat.obj
 0002:0000cd30       ??_C@_0BO@DPGFKMCB@DSTU?5Gost?528147?92009?5CFB?5mode@ 000000000007f530     OpensslLib:obj_dat.obj
 0002:0000cd50       ??_C@_0P@LJDDBCOK@dstu28147?9wrap@ 000000000007f550     OpensslLib:obj_dat.obj
 0002:0000cd60       ??_C@_0BO@GCIMDMBJ@DSTU?5Gost?528147?92009?5key?5wrap@ 000000000007f560     OpensslLib:obj_dat.obj
 0002:0000cd80       ??_C@_0BC@NEKEGBFA@hmacWithDstu34311@ 000000000007f580     OpensslLib:obj_dat.obj
 0002:0000cd98       ??_C@_0BI@PPEFMJDF@HMAC?5DSTU?5Gost?534311?995@ 000000000007f598     OpensslLib:obj_dat.obj
 0002:0000cdb0       ??_C@_09EMDIBIGK@dstu34311@ 000000000007f5b0     OpensslLib:obj_dat.obj
 0002:0000cdc0       ??_C@_0BD@KEGEMFDO@DSTU?5Gost?534311?995@ 000000000007f5c0     OpensslLib:obj_dat.obj
 0002:0000cdd8       ??_C@_0L@HJONHGCF@dstu4145le@ 000000000007f5d8     OpensslLib:obj_dat.obj
 0002:0000cde8       ??_C@_0BN@DLDIMCIJ@DSTU?54145?92002?5little?5endian@ 000000000007f5e8     OpensslLib:obj_dat.obj
 0002:0000ce08       ??_C@_0L@HDHDFLCP@dstu4145be@ 000000000007f608     OpensslLib:obj_dat.obj
 0002:0000ce18       ??_C@_0BK@JAHDELLE@DSTU?54145?92002?5big?5endian@ 000000000007f618     OpensslLib:obj_dat.obj
 0002:0000ce38       ??_C@_08CCOHEDD@uacurve0@  000000000007f638     OpensslLib:obj_dat.obj
 0002:0000ce48       ??_C@_0N@OIEODNOG@DSTU?5curve?50@ 000000000007f648     OpensslLib:obj_dat.obj
 0002:0000ce58       ??_C@_08BLDFEFHC@uacurve1@ 000000000007f658     OpensslLib:obj_dat.obj
 0002:0000ce68       ??_C@_0N@PBFFAMKH@DSTU?5curve?51@ 000000000007f668     OpensslLib:obj_dat.obj
 0002:0000ce78       ??_C@_08DABIBGLB@uacurve2@ 000000000007f678     OpensslLib:obj_dat.obj
 0002:0000ce88       ??_C@_0N@NKHIFPGE@DSTU?5curve?52@ 000000000007f688     OpensslLib:obj_dat.obj
 0002:0000ce98       ??_C@_08CJADCHPA@uacurve3@ 000000000007f698     OpensslLib:obj_dat.obj
 0002:0000cea8       ??_C@_0N@MDGDGOCF@DSTU?5curve?53@ 000000000007f6a8     OpensslLib:obj_dat.obj
 0002:0000ceb8       ??_C@_08GGECLBDH@uacurve4@ 000000000007f6b8     OpensslLib:obj_dat.obj
 0002:0000cec8       ??_C@_0N@IMCCPIOC@DSTU?5curve?54@ 000000000007f6c8     OpensslLib:obj_dat.obj
 0002:0000ced8       ??_C@_08HPFJIAHG@uacurve5@ 000000000007f6d8     OpensslLib:obj_dat.obj
 0002:0000cee8       ??_C@_0N@JFDJMJKD@DSTU?5curve?55@ 000000000007f6e8     OpensslLib:obj_dat.obj
 0002:0000cef8       ??_C@_08FEHENDLF@uacurve6@ 000000000007f6f8     OpensslLib:obj_dat.obj
 0002:0000cf08       ??_C@_0N@LOBEJKGA@DSTU?5curve?56@ 000000000007f708     OpensslLib:obj_dat.obj
 0002:0000cf18       ??_C@_08ENGPOCPE@uacurve7@ 000000000007f718     OpensslLib:obj_dat.obj
 0002:0000cf28       ??_C@_0N@KHAPKLCB@DSTU?5curve?57@ 000000000007f728     OpensslLib:obj_dat.obj
 0002:0000cf38       ??_C@_08MKPHPODL@uacurve8@ 000000000007f738     OpensslLib:obj_dat.obj
 0002:0000cf48       ??_C@_0N@CAJHLHOO@DSTU?5curve?58@ 000000000007f748     OpensslLib:obj_dat.obj
 0002:0000cf58       ??_C@_08NDOMMPHK@uacurve9@ 000000000007f758     OpensslLib:obj_dat.obj
 0002:0000cf68       ??_C@_0N@DJIMIGKP@DSTU?5curve?59@ 000000000007f768     OpensslLib:obj_dat.obj
 0002:0000cf78       ??_C@_04PHJBIMMG@ieee@     000000000007f778     OpensslLib:obj_dat.obj
 0002:0000cf80       ??_C@_0L@LDKGPNGG@ieee?9siswg@ 000000000007f780     OpensslLib:obj_dat.obj
 0002:0000cf90       ??_C@_0CH@DHDAMGDO@IEEE?5Security?5in?5Storage?5Workin@ 000000000007f790     OpensslLib:obj_dat.obj
 0002:0000cfb8       ??_C@_03JCDBMKEN@SM2@      000000000007f7b8     OpensslLib:obj_dat.obj
 0002:0000cfbc       ??_C@_03KEOCDJD@sm2@       000000000007f7bc     OpensslLib:obj_dat.obj
 0002:0000cfc0       ??_C@_0CE@MLINIGJF@id?9tc26?9cipher?9gostr3412?92015?9m@ 000000000007f7c0     OpensslLib:obj_dat.obj
 0002:0000cfe8       ??_C@_0CN@OJMMMFNF@id?9tc26?9cipher?9gostr3412?92015?9m@ 000000000007f7e8     OpensslLib:obj_dat.obj
 0002:0000d018       ??_C@_0DC@HJFGIJEF@id?9tc26?9cipher?9gostr3412?92015?9m@ 000000000007f818     OpensslLib:obj_dat.obj
 0002:0000d050       ??_C@_0CJ@OIMAFCDH@id?9tc26?9cipher?9gostr3412?92015?9k@ 000000000007f850     OpensslLib:obj_dat.obj
 0002:0000d080       ??_C@_0DC@FCNHEHI@id?9tc26?9cipher?9gostr3412?92015?9k@ 000000000007f880     OpensslLib:obj_dat.obj
 0002:0000d0b8       ??_C@_0DH@OMEPNOK@id?9tc26?9cipher?9gostr3412?92015?9k@ 000000000007f8b8     OpensslLib:obj_dat.obj
 0002:0000d0f0       ??_C@_0N@NOHKDKEG@id?9tc26?9wrap@ 000000000007f8f0     OpensslLib:obj_dat.obj
 0002:0000d100       ??_C@_0CC@ICCBFKEK@id?9tc26?9wrap?9gostr3412?92015?9mag@ 000000000007f900     OpensslLib:obj_dat.obj
 0002:0000d128       ??_C@_0CJ@GAGBMOFA@id?9tc26?9wrap?9gostr3412?92015?9mag@ 000000000007f928     OpensslLib:obj_dat.obj
 0002:0000d158       ??_C@_0CH@HODOOMNG@id?9tc26?9wrap?9gostr3412?92015?9kuz@ 000000000007f958     OpensslLib:obj_dat.obj
 0002:0000d180       ??_C@_0CO@KKJKILDM@id?9tc26?9wrap?9gostr3412?92015?9kuz@ 000000000007f980     OpensslLib:obj_dat.obj
 0002:0000d1b0       ??_C@_0CF@HKDMOJGI@id?9tc26?9gost?93410?92012?9256?9para@ 000000000007f9b0     OpensslLib:obj_dat.obj
 0002:0000d1d8       ??_C@_0CH@IMLBGLBI@GOST?5R?534?410?92012?5?$CI256?5bit?$CJ?5Par@ 000000000007f9d8     OpensslLib:obj_dat.obj
 0002:0000d200       ??_C@_0CF@GDCHNICJ@id?9tc26?9gost?93410?92012?9256?9para@ 000000000007fa00     OpensslLib:obj_dat.obj
 0002:0000d228       ??_C@_0CH@JFKKFKFJ@GOST?5R?534?410?92012?5?$CI256?5bit?$CJ?5Par@ 000000000007fa28     OpensslLib:obj_dat.obj
 0002:0000d250       ??_C@_0CF@CMGGEOOO@id?9tc26?9gost?93410?92012?9256?9para@ 000000000007fa50     OpensslLib:obj_dat.obj
 0002:0000d278       ??_C@_0CH@NKOLMMJO@GOST?5R?534?410?92012?5?$CI256?5bit?$CJ?5Par@ 000000000007fa78     OpensslLib:obj_dat.obj
 0002:0000d2a0       ??_C@_09KIGAEFAO@magma?9ecb@ 000000000007faa0     OpensslLib:obj_dat.obj
 0002:0000d2b0       ??_C@_09NOKALNHG@magma?9ctr@ 000000000007fab0     OpensslLib:obj_dat.obj
 0002:0000d2c0       ??_C@_09MBBGGHIB@magma?9ofb@ 000000000007fac0     OpensslLib:obj_dat.obj
 0002:0000d2d0       ??_C@_09JFNCEBKE@magma?9cbc@ 000000000007fad0     OpensslLib:obj_dat.obj
 0002:0000d2e0       ??_C@_09ILMANIDJ@magma?9cfb@ 000000000007fae0     OpensslLib:obj_dat.obj
 0002:0000d2f0       ??_C@_09HHELIIMO@magma?9mac@ 000000000007faf0     OpensslLib:obj_dat.obj
 0002:0000d300       ??_C@_0BD@EJFCDPF@hmacWithSHA512?9224@ 000000000007fb00     OpensslLib:obj_dat.obj
 0002:0000d318       ??_C@_0BD@DDOMFHPC@hmacWithSHA512?9256@ 000000000007fb18     OpensslLib:obj_dat.obj
 0002:0001e248       ??_C@_09DHMKJJNA@ASN1_TIME@ 0000000000090a48     OpensslLib:a_time.obj
 0002:0001e258       ??_C@_0BK@EMDNDBLP@?$CF04d?$CF02d?$CF02d?$CF02d?$CF02d?$CF02dZ@ 0000000000090a58     OpensslLib:a_time.obj
 0002:0001e278       ??_C@_0BK@PMAAGDOP@?$CF02d?$CF02d?$CF02d?$CF02d?$CF02d?$CF02dZ@ 0000000000090a78     OpensslLib:a_time.obj
 0002:0001e294       ??_C@_04FIEKMBKB@?5GMT@    0000000000090a94     OpensslLib:a_time.obj
 0002:0001e2a0       ??_C@_0BP@OGIOIJMK@?$CFs?5?$CF2d?5?$CF02d?3?$CF02d?3?$CF02d?$CF?4?$CKs?5?$CFd?$CFs@ 0000000000090aa0     OpensslLib:a_time.obj
 0002:0001e2c0       ??_C@_0BL@NKCHLFNC@?$CFs?5?$CF2d?5?$CF02d?3?$CF02d?3?$CF02d?5?$CFd?$CFs@ 0000000000090ac0     OpensslLib:a_time.obj
 0002:0001e2e0       ??_C@_0P@FGACABCD@Bad?5time?5value@ 0000000000090ae0     OpensslLib:a_time.obj
 0002:0001e378       ASN1_TIME_it               0000000000090b78     OpensslLib:a_time.obj
 0002:0001e410       ??_C@_04HCDDPBNL@TRUE@     0000000000090c10     OpensslLib:v3_utl.obj
 0002:0001e418       ??_C@_05MAJJAKPI@FALSE@    0000000000090c18     OpensslLib:v3_utl.obj
 0002:0001e420       ??_C@_03EPGOEBGO@?90x@     0000000000090c20     OpensslLib:v3_utl.obj
 0002:0001e424       ??_C@_02MDDDDAID@0x@       0000000000090c24     OpensslLib:v3_utl.obj
 0002:0001e428       ??_C@_04LOAJBDKD@true@     0000000000090c28     OpensslLib:v3_utl.obj
 0002:0001e430       ??_C@_01NFFPALBN@Y@        0000000000090c30     OpensslLib:v3_utl.obj
 0002:0001e434       ??_C@_01EANLCPLP@y@        0000000000090c34     OpensslLib:v3_utl.obj
 0002:0001e438       ??_C@_03IPHJCBHH@YES@      0000000000090c38     OpensslLib:v3_utl.obj
 0002:0001e43c       ??_C@_03ICICOMAL@yes@      0000000000090c3c     OpensslLib:v3_utl.obj
 0002:0001e440       ??_C@_05LAPONLG@false@     0000000000090c40     OpensslLib:v3_utl.obj
 0002:0001e448       ??_C@_01NANMIPIL@N@        0000000000090c48     OpensslLib:v3_utl.obj
 0002:0001e44c       ??_C@_02NFLNFON@NO@        0000000000090c4c     OpensslLib:v3_utl.obj
 0002:0001e450       ??_C@_02KAJCLHKP@no@       0000000000090c50     OpensslLib:v3_utl.obj
 0002:0001e458       ??_C@_07BDICHDDB@?0value?3@ 0000000000090c58     OpensslLib:v3_utl.obj
 0002:0001e460       ??_C@_06FONLLLNC@?0name?3@ 0000000000090c60     OpensslLib:v3_utl.obj
 0002:0001e468       ??_C@_08PCLJGJAL@section?3@ 0000000000090c68     OpensslLib:v3_utl.obj
 0002:0001e474       ??_C@_04DLDJKMIA@xn?9?9@   0000000000090c74     OpensslLib:v3_utl.obj
 0002:0001e480       ??_C@_0M@PCENNPGA@?$CFd?4?$CFd?4?$CFd?4?$CFd@ 0000000000090c80     OpensslLib:v3_utl.obj
 0002:0001e48c       ??_C@_06CBHGEMFM@?$DMNULL?$DO@ 0000000000090c8c     OpensslLib:err.obj
 0002:0001e498       ??_C@_0L@LCHPILLE@SSL?5client@ 0000000000090c98     OpensslLib:v3_purp.obj
 0002:0001e4a8       ??_C@_09BLMJDCHK@sslclient@ 0000000000090ca8     OpensslLib:v3_purp.obj
 0002:0001e4b8       ??_C@_0L@PNDNFADH@SSL?5server@ 0000000000090cb8     OpensslLib:v3_purp.obj
 0002:0001e4c8       ??_C@_09FEILOJPJ@sslserver@ 0000000000090cc8     OpensslLib:v3_purp.obj
 0002:0001e4d8       ??_C@_0BE@BPEJPGJG@Netscape?5SSL?5server@ 0000000000090cd8     OpensslLib:v3_purp.obj
 0002:0001e4f0       ??_C@_0M@GKHHMMAE@nssslserver@ 0000000000090cf0     OpensslLib:v3_purp.obj
 0002:0001e500       ??_C@_0P@LNDEBCCO@S?1MIME?5signing@ 0000000000090d00     OpensslLib:v3_purp.obj
 0002:0001e510       ??_C@_09JPGBHOKH@smimesign@ 0000000000090d10     OpensslLib:v3_purp.obj
 0002:0001e520       ??_C@_0BC@DOGNOPGC@S?1MIME?5encryption@ 0000000000090d20     OpensslLib:v3_purp.obj
 0002:0001e538       ??_C@_0N@BPFJELMP@smimeencrypt@ 0000000000090d38     OpensslLib:v3_purp.obj
 0002:0001e548       ??_C@_0M@MEKLJHLA@CRL?5signing@ 0000000000090d48     OpensslLib:v3_purp.obj
 0002:0001e558       ??_C@_07IOMCDAPH@crlsign@  0000000000090d58     OpensslLib:v3_purp.obj
 0002:0001e560       ??_C@_0M@NMNFLNDB@Any?5Purpose@ 0000000000090d60     OpensslLib:v3_purp.obj
 0002:0001e56c       ??_C@_03OBJFJEBA@any@      0000000000090d6c     OpensslLib:v3_purp.obj
 0002:0001e570       ??_C@_0M@NEPIMEJA@OCSP?5helper@ 0000000000090d70     OpensslLib:v3_purp.obj
 0002:0001e580       ??_C@_0L@IMHCEJBK@ocsphelper@ 0000000000090d80     OpensslLib:v3_purp.obj
 0002:0001e590       ??_C@_0BD@HLGKGIIB@Time?5Stamp?5signing@ 0000000000090d90     OpensslLib:v3_purp.obj
 0002:0001e5a8       ??_C@_0O@MABGKINF@timestampsign@ 0000000000090da8     OpensslLib:v3_purp.obj
 0002:0001e5e8       X509_CRL_it                0000000000090de8     OpensslLib:x_crl.obj
 0002:0001e618       X509_CRL_INFO_it           0000000000090e18     OpensslLib:x_crl.obj
 0002:0001e648       ??_C@_0P@HBDMPDNI@revocationDate@ 0000000000090e48     OpensslLib:x_crl.obj
 0002:0001e658       ??_C@_0N@JBPKOADN@X509_REVOKED@ 0000000000090e58     OpensslLib:x_crl.obj
 0002:0001e668       ??_C@_0L@MPDCJAIM@lastUpdate@ 0000000000090e68     OpensslLib:x_crl.obj
 0002:0001e678       ??_C@_0L@BMOABHOK@nextUpdate@ 0000000000090e78     OpensslLib:x_crl.obj
 0002:0001e688       ??_C@_07MIJFAMBD@revoked@  0000000000090e88     OpensslLib:x_crl.obj
 0002:0001e690       ??_C@_0O@IMOAEKCP@X509_CRL_INFO@ 0000000000090e90     OpensslLib:x_crl.obj
 0002:0001e6a0       ??_C@_08JGFBPDAP@X509_CRL@ 0000000000090ea0     OpensslLib:x_crl.obj
 0002:0001e6b0       X509_REVOKED_it            0000000000090eb0     OpensslLib:x_crl.obj
 0002:0001e8d0       ??_C@_07EEDOJOAA@type_id@  00000000000910d0     OpensslLib:v3_genn.obj
 0002:0001e8d8       ??_C@_09MAFAINAH@OTHERNAME@ 00000000000910d8     OpensslLib:v3_genn.obj
 0002:0001e8e8       ??_C@_0N@KBFEHHDO@nameAssigner@ 00000000000910e8     OpensslLib:v3_genn.obj
 0002:0001e8f8       ??_C@_09EHIHAIPF@partyName@ 00000000000910f8     OpensslLib:v3_genn.obj
 0002:0001e908       ??_C@_0N@GEILLNKP@EDIPARTYNAME@ 0000000000091108     OpensslLib:v3_genn.obj
 0002:0001e918       ??_C@_0M@FGIBMCEL@d?4otherName@ 0000000000091118     OpensslLib:v3_genn.obj
 0002:0001e928       ??_C@_0N@MMCCMIPN@d?4rfc822Name@ 0000000000091128     OpensslLib:v3_genn.obj
 0002:0001e938       ??_C@_09HIBJABFB@d?4dNSName@ 0000000000091138     OpensslLib:v3_genn.obj
 0002:0001e948       ??_C@_0O@NKHOODFK@d?4x400Address@ 0000000000091148     OpensslLib:v3_genn.obj
 0002:0001e958       ??_C@_0BA@JLDFBFLN@d?4directoryName@ 0000000000091158     OpensslLib:v3_genn.obj
 0002:0001e968       ??_C@_0P@OBCPPLOL@d?4ediPartyName@ 0000000000091168     OpensslLib:v3_genn.obj
 0002:0001e978       ??_C@_0BM@CMCMADCA@d?4uniformResourceIdentifier@ 0000000000091178     OpensslLib:v3_genn.obj
 0002:0001e998       ??_C@_0M@PANAALJB@d?4iPAddress@ 0000000000091198     OpensslLib:v3_genn.obj
 0002:0001e9a8       ??_C@_0P@KIENIEMD@d?4registeredID@ 00000000000911a8     OpensslLib:v3_genn.obj
 0002:0001e9b8       ??_C@_0N@JCNPGCGM@GENERAL_NAME@ 00000000000911b8     OpensslLib:v3_genn.obj
 0002:0001e9c8       ??_C@_0N@CJKIBDLK@GeneralNames@ 00000000000911c8     OpensslLib:v3_genn.obj
 0002:0001e9d8       ??_C@_0O@NFAAPMIG@GENERAL_NAMES@ 00000000000911d8     OpensslLib:v3_genn.obj
 0002:0001e9e8       GENERAL_NAME_it            00000000000911e8     OpensslLib:v3_genn.obj
 0002:0001ea18       OTHERNAME_it               0000000000091218     OpensslLib:v3_genn.obj
 0002:0001eaf0       GENERAL_NAMES_it           00000000000912f0     OpensslLib:v3_genn.obj
 0002:0001eb20       EDIPARTYNAME_it            0000000000091320     OpensslLib:v3_genn.obj
 0002:0001ec70       ??_C@_0L@IMDPAGCM@ssl_client@ 0000000000091470     OpensslLib:x509_vpm.obj
 0002:0001ec80       ??_C@_0L@MDHNNNKP@ssl_server@ 0000000000091480     OpensslLib:x509_vpm.obj
 0002:0001ee98       X509_PUBKEY_it             0000000000091698     OpensslLib:x_pubkey.obj
 0002:0001eec8       ??_C@_05CJCEEADM@algor@    00000000000916c8     OpensslLib:x_pubkey.obj
 0002:0001eed0       ??_C@_0L@PJCANJEE@public_key@ 00000000000916d0     OpensslLib:x_pubkey.obj
 0002:0001eee0       ??_C@_0M@INJPOKDH@X509_PUBKEY@ 00000000000916e0     OpensslLib:x_pubkey.obj
 0002:0001ef60       ??_C@_0L@JNOGJJCA@compatible@ 0000000000091760     OpensslLib:x509_trs.obj
 0002:0001ef70       ??_C@_0L@HNMCLCCI@SSL?5Client@ 0000000000091770     OpensslLib:x509_trs.obj
 0002:0001ef80       ??_C@_0L@DCIAGJKL@SSL?5Server@ 0000000000091780     OpensslLib:x509_trs.obj
 0002:0001ef90       ??_C@_0N@OEEPKGPL@S?1MIME?5email@ 0000000000091790     OpensslLib:x509_trs.obj
 0002:0001efa0       ??_C@_0O@EEPBMPKP@Object?5Signer@ 00000000000917a0     OpensslLib:x509_trs.obj
 0002:0001efb0       ??_C@_0P@JHCOMJOI@OCSP?5responder@ 00000000000917b0     OpensslLib:x509_trs.obj
 0002:0001efc0       ??_C@_0N@CAJJAOJD@OCSP?5request@ 00000000000917c0     OpensslLib:x509_trs.obj
 0002:0001efd0       ??_C@_0L@CFEJKCOD@TSA?5server@ 00000000000917d0     OpensslLib:x509_trs.obj
 0002:0001efdc       ??_C@_04BHIIPFEC@base@     00000000000917dc     OpensslLib:v3_ncons.obj
 0002:0001efe8       ??_C@_07CCOEHHFD@minimum@  00000000000917e8     OpensslLib:v3_ncons.obj
 0002:0001eff0       ??_C@_07MEIENILC@maximum@  00000000000917f0     OpensslLib:v3_ncons.obj
 0002:0001eff8       ??_C@_0BA@ECMIFHDE@GENERAL_SUBTREE@ 00000000000917f8     OpensslLib:v3_ncons.obj
 0002:0001f008       ??_C@_0BC@FACFJLFB@permittedSubtrees@ 0000000000091808     OpensslLib:v3_ncons.obj
 0002:0001f020       ??_C@_0BB@HLFEMJKE@excludedSubtrees@ 0000000000091820     OpensslLib:v3_ncons.obj
 0002:0001f038       ??_C@_0BB@MLLJAFMN@NAME_CONSTRAINTS@ 0000000000091838     OpensslLib:v3_ncons.obj
 0002:0001f050       ??_C@_09HAKFOFAM@permitted@ 0000000000091850     OpensslLib:v3_ncons.obj
 0002:0001f060       ??_C@_08HPCEJEEF@excluded@ 0000000000091860     OpensslLib:v3_ncons.obj
 0002:0001f070       ??_C@_09DPPIOGNM@Permitted@ 0000000000091870     OpensslLib:v3_ncons.obj
 0002:0001f080       ??_C@_08PNNFBGOG@Excluded@ 0000000000091880     OpensslLib:v3_ncons.obj
 0002:0001f090       ??_C@_07GOIIHCND@?$CF?$CKs?$CFs?3?6@ 0000000000091890     OpensslLib:v3_ncons.obj
 0002:0001f098       ??_C@_03HIJPJGOM@?$CF?$CKs@ 0000000000091898     OpensslLib:v3_ncons.obj
 0002:0001f09c       ??_C@_03HBLCMHJN@IP?3@     000000000009189c     OpensslLib:v3_ncons.obj
 0002:0001f0a0       ??_C@_01KMDKNFGN@?1@       00000000000918a0     OpensslLib:v3_ncons.obj
 0002:0001f0f0       v3_name_constraints        00000000000918f0     OpensslLib:v3_ncons.obj
 0002:0001f158       NAME_CONSTRAINTS_it        0000000000091958     OpensslLib:v3_ncons.obj
 0002:0001f1f0       GENERAL_SUBTREE_it         00000000000919f0     OpensslLib:v3_ncons.obj
 0002:0001f320       ASN1_BIT_STRING_it         0000000000091b20     OpensslLib:tasn_typ.obj
 0002:0001f350       ASN1_INTEGER_it            0000000000091b50     OpensslLib:tasn_typ.obj
 0002:0001f380       ASN1_OBJECT_it             0000000000091b80     OpensslLib:tasn_typ.obj
 0002:0001f3b0       ASN1_PRINTABLE_it          0000000000091bb0     OpensslLib:tasn_typ.obj
 0002:0001f3e0       ASN1_OCTET_STRING_NDEF_it  0000000000091be0     OpensslLib:tasn_typ.obj
 0002:0001f410       ASN1_OCTET_STRING_it       0000000000091c10     OpensslLib:tasn_typ.obj
 0002:0001f440       ASN1_ANY_it                0000000000091c40     OpensslLib:tasn_typ.obj
 0002:0001f470       ASN1_IA5STRING_it          0000000000091c70     OpensslLib:tasn_typ.obj
 0002:0001f4a0       DIRECTORYSTRING_it         0000000000091ca0     OpensslLib:tasn_typ.obj
 0002:0001f4d0       ASN1_SEQUENCE_it           0000000000091cd0     OpensslLib:tasn_typ.obj
 0002:0001f500       ??_C@_0BC@PEBEKNCO@ASN1_OCTET_STRING@ 0000000000091d00     OpensslLib:tasn_typ.obj
 0002:0001f518       ??_C@_0N@KIGEHGKE@ASN1_INTEGER@ 0000000000091d18     OpensslLib:tasn_typ.obj
 0002:0001f528       ??_C@_0BA@CLGIIAJD@ASN1_ENUMERATED@ 0000000000091d28     OpensslLib:tasn_typ.obj
 0002:0001f538       ??_C@_0BA@LJHGDIKH@ASN1_BIT_STRING@ 0000000000091d38     OpensslLib:tasn_typ.obj
 0002:0001f548       ??_C@_0BA@LEPDCAOC@ASN1_UTF8STRING@ 0000000000091d48     OpensslLib:tasn_typ.obj
 0002:0001f558       ??_C@_0BF@CPDMNKCA@ASN1_PRINTABLESTRING@ 0000000000091d58     OpensslLib:tasn_typ.obj
 0002:0001f570       ??_C@_0P@KBFNFBLB@ASN1_IA5STRING@ 0000000000091d70     OpensslLib:tasn_typ.obj
 0002:0001f580       ??_C@_0BF@MPJFOIHC@ASN1_GENERALIZEDTIME@ 0000000000091d80     OpensslLib:tasn_typ.obj
 0002:0001f598       ??_C@_09NHFFCPKK@ASN1_NULL@ 0000000000091d98     OpensslLib:tasn_typ.obj
 0002:0001f5a8       ??_C@_0M@BJNOJGBL@ASN1_OBJECT@ 0000000000091da8     OpensslLib:tasn_typ.obj
 0002:0001f5b8       ??_C@_08FIDCPDIJ@ASN1_ANY@ 0000000000091db8     OpensslLib:tasn_typ.obj
 0002:0001f5c8       ??_C@_0O@NJFCFMGE@ASN1_SEQUENCE@ 0000000000091dc8     OpensslLib:tasn_typ.obj
 0002:0001f5d8       ??_C@_0P@NDKOCAEJ@ASN1_PRINTABLE@ 0000000000091dd8     OpensslLib:tasn_typ.obj
 0002:0001f5e8       ??_C@_0M@FANFDIEE@DISPLAYTEXT@ 0000000000091de8     OpensslLib:tasn_typ.obj
 0002:0001f5f8       ??_C@_0BA@CBHCBCAE@DIRECTORYSTRING@ 0000000000091df8     OpensslLib:tasn_typ.obj
 0002:0001f608       ??_C@_0N@HMAPMMGF@ASN1_BOOLEAN@ 0000000000091e08     OpensslLib:tasn_typ.obj
 0002:0001f618       ??_C@_0O@JKANHMPI@ASN1_FBOOLEAN@ 0000000000091e18     OpensslLib:tasn_typ.obj
 0002:0001f628       ??_C@_0BH@HEBAELGA@ASN1_OCTET_STRING_NDEF@ 0000000000091e28     OpensslLib:tasn_typ.obj
 0002:0001f640       ??_C@_0BC@COPGMDLD@ASN1_SEQUENCE_ANY@ 0000000000091e40     OpensslLib:tasn_typ.obj
 0002:0001f658       ??_C@_0N@KHICOJGI@ASN1_SET_ANY@ 0000000000091e58     OpensslLib:tasn_typ.obj
 0002:0001f668       ASN1_NULL_it               0000000000091e68     OpensslLib:tasn_typ.obj
 0002:0001f698       ASN1_SEQUENCE_ANY_it       0000000000091e98     OpensslLib:tasn_typ.obj
 0002:0001f6c8       ASN1_ENUMERATED_it         0000000000091ec8     OpensslLib:tasn_typ.obj
 0002:0001f718       ASN1_BOOLEAN_it            0000000000091f18     OpensslLib:tasn_typ.obj
 0002:0001f748       ASN1_UTF8STRING_it         0000000000091f48     OpensslLib:tasn_typ.obj
 0002:0001f778       ASN1_GENERALIZEDTIME_it    0000000000091f78     OpensslLib:tasn_typ.obj
 0002:0001f7a8       ASN1_FBOOLEAN_it           0000000000091fa8     OpensslLib:tasn_typ.obj
 0002:0001f7d8       ASN1_SET_ANY_it            0000000000091fd8     OpensslLib:tasn_typ.obj
 0002:0001f828       ASN1_PRINTABLESTRING_it    0000000000092028     OpensslLib:tasn_typ.obj
 0002:0001f858       DISPLAYTEXT_it             0000000000092058     OpensslLib:tasn_typ.obj
 0002:0001f888       ??_C@_07NHKPEHKF@?0?5Type?$DN@ 0000000000092088     OpensslLib:tasn_dec.obj
 0002:0001f890       ??_C@_06GPKHKFJE@Field?$DN@ 0000000000092090     OpensslLib:tasn_dec.obj
 0002:0001f898       ??_C@_05GCCLHHOK@Type?$DN@ 0000000000092098     OpensslLib:tasn_dec.obj
 0002:0001f920       X509_ALGOR_it              0000000000092120     OpensslLib:x_algor.obj
 0002:0001f950       ??_C@_09DAGAJHIH@parameter@ 0000000000092150     OpensslLib:x_algor.obj
 0002:0001f960       ??_C@_0L@BFHONDPK@X509_ALGOR@ 0000000000092160     OpensslLib:x_algor.obj
 0002:0001f9b0       ??_C@_08BMACPLOA@fullname@ 00000000000921b0     OpensslLib:v3_crld.obj
 0002:0001f9c0       ??_C@_0N@LGEOMMHB@relativename@ 00000000000921c0     OpensslLib:v3_crld.obj
 0002:0001f9d0       ??_C@_06CGLFEPBO@Unused@   00000000000921d0     OpensslLib:v3_crld.obj
 0002:0001f9d8       ??_C@_06OJAIHGIC@unused@   00000000000921d8     OpensslLib:v3_crld.obj
 0002:0001f9e0       ??_C@_0P@JENDIECI@Key?5Compromise@ 00000000000921e0     OpensslLib:v3_crld.obj
 0002:0001f9f0       ??_C@_0O@MCEAAJLH@keyCompromise@ 00000000000921f0     OpensslLib:v3_crld.obj
 0002:0001fa00       ??_C@_0O@OOGICOKH@CA?5Compromise@ 0000000000092200     OpensslLib:v3_crld.obj
 0002:0001fa10       ??_C@_0N@NONEFGOE@CACompromise@ 0000000000092210     OpensslLib:v3_crld.obj
 0002:0001fa20       ??_C@_0BE@EECEIFAP@Affiliation?5Changed@ 0000000000092220     OpensslLib:v3_crld.obj
 0002:0001fa38       ??_C@_0BD@BNOFAJLL@affiliationChanged@ 0000000000092238     OpensslLib:v3_crld.obj
 0002:0001fa50       ??_C@_0L@FBLGFHIM@Superseded@ 0000000000092250     OpensslLib:v3_crld.obj
 0002:0001fa60       ??_C@_0L@NHCKNIFL@superseded@ 0000000000092260     OpensslLib:v3_crld.obj
 0002:0001fa70       ??_C@_0BH@OLCOAMGF@Cessation?5Of?5Operation@ 0000000000092270     OpensslLib:v3_crld.obj
 0002:0001fa88       ??_C@_0BF@IGJCOPF@cessationOfOperation@ 0000000000092288     OpensslLib:v3_crld.obj
 0002:0001faa0       ??_C@_0BB@IPDHDNJD@Certificate?5Hold@ 00000000000922a0     OpensslLib:v3_crld.obj
 0002:0001fab8       ??_C@_0BA@FBHLCNLK@certificateHold@ 00000000000922b8     OpensslLib:v3_crld.obj
 0002:0001fac8       ??_C@_0BE@FJCCMGMM@Privilege?5Withdrawn@ 00000000000922c8     OpensslLib:v3_crld.obj
 0002:0001fae0       ??_C@_0BD@PBLGJKCE@privilegeWithdrawn@ 00000000000922e0     OpensslLib:v3_crld.obj
 0002:0001faf8       ??_C@_0O@PAGOKAK@AA?5Compromise@ 00000000000922f8     OpensslLib:v3_crld.obj
 0002:0001fb08       ??_C@_0N@LOIIODKP@AACompromise@ 0000000000092308     OpensslLib:v3_crld.obj
 0002:0001fb18       ??_C@_08DGFAABGD@?$DMEMPTY?$DO?6@ 0000000000092318     OpensslLib:v3_crld.obj
 0002:0001fb28       ??_C@_07PFOCLIJD@reasons@  0000000000092328     OpensslLib:v3_crld.obj
 0002:0001fb30       ??_C@_09GJHADLCP@CRLissuer@ 0000000000092330     OpensslLib:v3_crld.obj
 0002:0001fb40       ??_C@_0O@HJHJCLAE@name?4fullname@ 0000000000092340     OpensslLib:v3_crld.obj
 0002:0001fb50       ??_C@_0BC@JDMJBKME@name?4relativename@ 0000000000092350     OpensslLib:v3_crld.obj
 0002:0001fb68       ??_C@_0BA@MLHIPLLG@DIST_POINT_NAME@ 0000000000092368     OpensslLib:v3_crld.obj
 0002:0001fb78       ??_C@_09FBDFGJDL@distpoint@ 0000000000092378     OpensslLib:v3_crld.obj
 0002:0001fb88       ??_C@_0L@ELIKPJIH@DIST_POINT@ 0000000000092388     OpensslLib:v3_crld.obj
 0002:0001fb98       ??_C@_0BG@CHNNADAE@CRLDistributionPoints@ 0000000000092398     OpensslLib:v3_crld.obj
 0002:0001fbb0       ??_C@_0BA@BBHAIMOE@CRL_DIST_POINTS@ 00000000000923b0     OpensslLib:v3_crld.obj
 0002:0001fbc0       ??_C@_08CENLBPEH@onlyuser@ 00000000000923c0     OpensslLib:v3_crld.obj
 0002:0001fbcc       ??_C@_06PMNIEKCA@onlyCA@   00000000000923cc     OpensslLib:v3_crld.obj
 0002:0001fbd8       ??_C@_0BA@FNMBIJDN@onlysomereasons@ 00000000000923d8     OpensslLib:v3_crld.obj
 0002:0001fbe8       ??_C@_0M@BECDICJC@indirectCRL@ 00000000000923e8     OpensslLib:v3_crld.obj
 0002:0001fbf8       ??_C@_08DBIINPPL@onlyattr@ 00000000000923f8     OpensslLib:v3_crld.obj
 0002:0001fc08       ??_C@_0BD@ENBCPHJ@ISSUING_DIST_POINT@ 0000000000092408     OpensslLib:v3_crld.obj
 0002:0001fc1c       ??_C@_06PPFMJOEO@onlyAA@   000000000009241c     OpensslLib:v3_crld.obj
 0002:0001fd10       DIST_POINT_it              0000000000092510     OpensslLib:v3_crld.obj
 0002:0001fd40       v3_crld                    0000000000092540     OpensslLib:v3_crld.obj
 0002:0001fda8       DIST_POINT_NAME_it         00000000000925a8     OpensslLib:v3_crld.obj
 0002:0001fed0       ISSUING_DIST_POINT_it      00000000000926d0     OpensslLib:v3_crld.obj
 0002:0001ff00       v3_freshest_crl            0000000000092700     OpensslLib:v3_crld.obj
 0002:0001ffb0       v3_idp                     00000000000927b0     OpensslLib:v3_crld.obj
 0002:00020080       CRL_DIST_POINTS_it         0000000000092880     OpensslLib:v3_crld.obj
 0002:000200d8       X509_EXTENSION_it          00000000000928d8     OpensslLib:x_exten.obj
 0002:00020108       ??_C@_08CBBMEOFB@critical@ 0000000000092908     OpensslLib:x_exten.obj
 0002:00020118       ??_C@_0P@OMHBNPIC@X509_EXTENSION@ 0000000000092918     OpensslLib:x_exten.obj
 0002:00020190       ??_C@_05BMJJJIHB@trust@    0000000000092990     OpensslLib:x_x509a.obj
 0002:00020198       ??_C@_06JPOFNODM@reject@   0000000000092998     OpensslLib:x_x509a.obj
 0002:000201a0       ??_C@_05NKHOCLEE@alias@    00000000000929a0     OpensslLib:x_x509a.obj
 0002:000201a8       ??_C@_05CNHMOIOC@keyid@    00000000000929a8     OpensslLib:x_x509a.obj
 0002:000201b0       ??_C@_05BGEKGIIP@other@    00000000000929b0     OpensslLib:x_x509a.obj
 0002:000201b8       ??_C@_0O@LJIIOIG@X509_CERT_AUX@ 00000000000929b8     OpensslLib:x_x509a.obj
 0002:00020270       X509_CERT_AUX_it           0000000000092a70     OpensslLib:x_x509a.obj
 0002:000202a0       ??_C@_0BA@OPHCNPAP@AUTHORITY_KEYID@ 0000000000092aa0     OpensslLib:v3_akeya.obj
 0002:000202b0       AUTHORITY_KEYID_it         0000000000092ab0     OpensslLib:v3_akeya.obj
 0002:00020340       X509_VAL_it                0000000000092b40     OpensslLib:x_val.obj
 0002:00020370       ??_C@_09MJPOMOII@notBefore@ 0000000000092b70     OpensslLib:x_val.obj
 0002:00020380       ??_C@_08PJIFIJBI@notAfter@ 0000000000092b80     OpensslLib:x_val.obj
 0002:00020390       ??_C@_08OPPGEJIL@X509_VAL@ 0000000000092b90     OpensslLib:x_val.obj
 0002:00020660       X509_ATTRIBUTE_it          0000000000092e60     OpensslLib:x_attrib.obj
 0002:00020690       ??_C@_03KCHOJKKI@set@      0000000000092e90     OpensslLib:x_attrib.obj
 0002:00020698       ??_C@_0P@IBKNNFL@X509_ATTRIBUTE@ 0000000000092e98     OpensslLib:x_attrib.obj
 0002:00020ab0       ??_C@_0N@MJCHLFGM@NO?5X509_NAME@ 00000000000932b0     OpensslLib:x509_obj.obj
 0002:00020ac0       ??_C@_09OJNEAJGG@?$DMINVALID?$DO@ 00000000000932c0     OpensslLib:a_object.obj
 0002:00020cec       ??_C@_01JOAMLHOP@?9@       00000000000934ec     OpensslLib:asn1_par.obj
 0002:00020cf0       ??_C@_02PLJDPFIO@00@       00000000000934f0     OpensslLib:asn1_par.obj
 0002:00020cf4       ??_C@_03NCODFONH@EOC@      00000000000934f4     OpensslLib:asn1_par.obj
 0002:00020cf8       ??_C@_07JDEDMABE@BOOLEAN@  00000000000934f8     OpensslLib:asn1_par.obj
 0002:00020d00       ??_C@_07EHCIHKNF@INTEGER@  0000000000093500     OpensslLib:asn1_par.obj
 0002:00020d08       ??_C@_0L@EKOKPLKE@BIT?5STRING@ 0000000000093508     OpensslLib:asn1_par.obj
 0002:00020d18       ??_C@_0N@KPGGMDFC@OCTET?5STRING@ 0000000000093518     OpensslLib:asn1_par.obj
 0002:00020d28       ??_C@_06IAMCMNFI@OBJECT@   0000000000093528     OpensslLib:asn1_par.obj
 0002:00020d30       ??_C@_0BC@HDOCNDIH@OBJECT?5DESCRIPTOR@ 0000000000093530     OpensslLib:asn1_par.obj
 0002:00020d48       ??_C@_08JHLDEHEK@EXTERNAL@ 0000000000093548     OpensslLib:asn1_par.obj
 0002:00020d54       ??_C@_04PKFANLLI@REAL@     0000000000093554     OpensslLib:asn1_par.obj
 0002:00020d60       ??_C@_0L@KNIEMAKM@ENUMERATED@ 0000000000093560     OpensslLib:asn1_par.obj
 0002:00020d70       ??_C@_09EKNCOIGI@?$DMASN1?511?$DO@ 0000000000093570     OpensslLib:asn1_par.obj
 0002:00020d80       ??_C@_0L@DCBPGANN@UTF8STRING@ 0000000000093580     OpensslLib:asn1_par.obj
 0002:00020d90       ??_C@_09EJFGDMAG@?$DMASN1?513?$DO@ 0000000000093590     OpensslLib:asn1_par.obj
 0002:00020da0       ??_C@_09EMBJCKID@?$DMASN1?514?$DO@ 00000000000935a0     OpensslLib:asn1_par.obj
 0002:00020db0       ??_C@_09ENNLEALE@?$DMASN1?515?$DO@ 00000000000935b0     OpensslLib:asn1_par.obj
 0002:00020dc0       ??_C@_08POLPFBMC@SEQUENCE@ 00000000000935c0     OpensslLib:asn1_par.obj
 0002:00020dcc       ??_C@_03KPIFFHNE@SET@      00000000000935cc     OpensslLib:asn1_par.obj
 0002:00020dd0       ??_C@_0O@DFADMOGA@NUMERICSTRING@ 00000000000935d0     OpensslLib:asn1_par.obj
 0002:00020de0       ??_C@_0BA@FKHILLED@PRINTABLESTRING@ 00000000000935e0     OpensslLib:asn1_par.obj
 0002:00020df0       ??_C@_09FMBHBANP@T61STRING@ 00000000000935f0     OpensslLib:asn1_par.obj
 0002:00020e00       ??_C@_0P@LNAMNBEL@VIDEOTEXSTRING@ 0000000000093600     OpensslLib:asn1_par.obj
 0002:00020e10       ??_C@_09JOMPLKGB@IA5STRING@ 0000000000093610     OpensslLib:asn1_par.obj
 0002:00020e20       ??_C@_07HIOLDDN@UTCTIME@   0000000000093620     OpensslLib:asn1_par.obj
 0002:00020e28       ??_C@_0BA@LKNBIJBB@GENERALIZEDTIME@ 0000000000093628     OpensslLib:asn1_par.obj
 0002:00020e38       ??_C@_0O@MABADFB@GRAPHICSTRING@ 0000000000093638     OpensslLib:asn1_par.obj
 0002:00020e48       ??_C@_0O@KDAJCBO@VISIBLESTRING@ 0000000000093648     OpensslLib:asn1_par.obj
 0002:00020e58       ??_C@_0O@DKDEPFLO@GENERALSTRING@ 0000000000093658     OpensslLib:asn1_par.obj
 0002:00020e68       ??_C@_0BA@EJHHDALK@UNIVERSALSTRING@ 0000000000093668     OpensslLib:asn1_par.obj
 0002:00020e78       ??_C@_09FGHEBGDO@?$DMASN1?529?$DO@ 0000000000093678     OpensslLib:asn1_par.obj
 0002:00020e88       ??_C@_09BIBABMFN@BMPSTRING@ 0000000000093688     OpensslLib:asn1_par.obj
 0002:00020e98       ??_C@_09GPGAJHPD@?$CIunknown?$CJ@ 0000000000093698     OpensslLib:asn1_par.obj
 0002:00020fa8       ??_C@_08JJBFGKFE@minsize?$DN@ 00000000000937a8     OpensslLib:a_mbstr.obj
 0002:00020fb8       ??_C@_08EOPONIBF@maxsize?$DN@ 00000000000937b8     OpensslLib:a_mbstr.obj
 0002:00020fc8       BIGNUM_it                  00000000000937c8     OpensslLib:x_bignum.obj
 0002:00020ff8       CBIGNUM_it                 00000000000937f8     OpensslLib:x_bignum.obj
 0002:00021028       ??_C@_06CHOIGJDB@BIGNUM@   0000000000093828     OpensslLib:x_bignum.obj
 0002:00021030       ??_C@_07HILEKMCI@CBIGNUM@  0000000000093830     OpensslLib:x_bignum.obj
 0002:00021038       INT32_it                   0000000000093838     OpensslLib:x_int64.obj
 0002:00021068       ??_C@_03PMGGPEJJ@?$CFd?6@  0000000000093868     OpensslLib:x_int64.obj
 0002:0002106c       ??_C@_03OBICDNNO@?$CFu?6@  000000000009386c     OpensslLib:x_int64.obj
 0002:00021070       ??_C@_05OJLHEJN@INT32@     0000000000093870     OpensslLib:x_int64.obj
 0002:00021078       ??_C@_06KFJALMLJ@ZINT32@   0000000000093878     OpensslLib:x_int64.obj
 0002:00021080       ZINT32_it                  0000000000093880     OpensslLib:x_int64.obj
 0002:000210b0       ??_C@_02DKCKIIND@?$CFs@    00000000000938b0     OpensslLib:asn_mime.obj
 0002:000210b4       ??_C@_02MFDMBIJM@ok@       00000000000938b4     OpensslLib:x509_txt.obj
 0002:000210b8       ??_C@_0CL@ICDMHEOH@unspecified?5certificate?5verific@ 00000000000938b8     OpensslLib:x509_txt.obj
 0002:000210e8       ??_C@_0CB@KFJODNFN@unable?5to?5get?5issuer?5certificat@ 00000000000938e8     OpensslLib:x509_txt.obj
 0002:00021110       ??_C@_0BO@CIOBDJGN@unable?5to?5get?5certificate?5CRL@ 0000000000093910     OpensslLib:x509_txt.obj
 0002:00021130       ??_C@_0CK@LBDBBNHI@unable?5to?5decrypt?5certificate?8s@ 0000000000093930     OpensslLib:x509_txt.obj
 0002:00021160       ??_C@_0CC@KFEPDDPF@unable?5to?5decrypt?5CRL?8s?5signatu@ 0000000000093960     OpensslLib:x509_txt.obj
 0002:00021188       ??_C@_0CD@KOEKDJOF@unable?5to?5decode?5issuer?5public?5@ 0000000000093988     OpensslLib:x509_txt.obj
 0002:000211b0       ??_C@_0BO@FPBBKLNG@certificate?5signature?5failure@ 00000000000939b0     OpensslLib:x509_txt.obj
 0002:000211d0       ??_C@_0BG@PKEGLGEB@CRL?5signature?5failure@ 00000000000939d0     OpensslLib:x509_txt.obj
 0002:000211e8       ??_C@_0BN@JFLHFAGA@certificate?5is?5not?5yet?5valid@ 00000000000939e8     OpensslLib:x509_txt.obj
 0002:00021208       ??_C@_0BI@HHICNLNC@certificate?5has?5expired@ 0000000000093a08     OpensslLib:x509_txt.obj
 0002:00021220       ??_C@_0BF@MIBPKMEH@CRL?5is?5not?5yet?5valid@ 0000000000093a20     OpensslLib:x509_txt.obj
 0002:00021238       ??_C@_0BA@JMGDIGAP@CRL?5has?5expired@ 0000000000093a38     OpensslLib:x509_txt.obj
 0002:00021248       ??_C@_0CO@BGGBNHHG@format?5error?5in?5certificate?8s?5n@ 0000000000093a48     OpensslLib:x509_txt.obj
 0002:00021278       ??_C@_0CN@NPHCNDGF@format?5error?5in?5certificate?8s?5n@ 0000000000093a78     OpensslLib:x509_txt.obj
 0002:000212a8       ??_C@_0CH@OEGANADM@format?5error?5in?5CRL?8s?5lastUpdat@ 0000000000093aa8     OpensslLib:x509_txt.obj
 0002:000212d0       ??_C@_0CH@DKJJKKIC@format?5error?5in?5CRL?8s?5nextUpdat@ 0000000000093ad0     OpensslLib:x509_txt.obj
 0002:000212f8       ??_C@_0O@BNNCBLEN@out?5of?5memory@ 0000000000093af8     OpensslLib:x509_txt.obj
 0002:00021308       ??_C@_0BI@PBDHIKFI@self?5signed?5certificate@ 0000000000093b08     OpensslLib:x509_txt.obj
 0002:00021320       ??_C@_0CN@GCPAFAGL@self?5signed?5certificate?5in?5cert@ 0000000000093b20     OpensslLib:x509_txt.obj
 0002:00021350       ??_C@_0CH@NBHLNPJC@unable?5to?5get?5local?5issuer?5cert@ 0000000000093b50     OpensslLib:x509_txt.obj
 0002:00021378       ??_C@_0CH@PCOLJJF@unable?5to?5verify?5the?5first?5cert@ 0000000000093b78     OpensslLib:x509_txt.obj
 0002:000213a0       ??_C@_0BL@JGHJBAMD@certificate?5chain?5too?5long@ 0000000000093ba0     OpensslLib:x509_txt.obj
 0002:000213c0       ??_C@_0BE@PBLGGMOB@certificate?5revoked@ 0000000000093bc0     OpensslLib:x509_txt.obj
 0002:000213d8       ??_C@_0BH@EKEBOKH@invalid?5CA?5certificate@ 0000000000093bd8     OpensslLib:x509_txt.obj
 0002:000213f0       ??_C@_0CA@LLGONKGK@path?5length?5constraint?5exceeded@ 0000000000093bf0     OpensslLib:x509_txt.obj
 0002:00021410       ??_C@_0CA@LPAJAMFA@unsupported?5certificate?5purpose@ 0000000000093c10     OpensslLib:x509_txt.obj
 0002:00021430       ??_C@_0BI@GDICGBPK@certificate?5not?5trusted@ 0000000000093c30     OpensslLib:x509_txt.obj
 0002:00021448       ??_C@_0BF@OJPAOPB@certificate?5rejected@ 0000000000093c48     OpensslLib:x509_txt.obj
 0002:00021460       ??_C@_0BI@OHGOAFON@subject?5issuer?5mismatch@ 0000000000093c60     OpensslLib:x509_txt.obj
 0002:00021478       ??_C@_0CO@HGJKNPBG@authority?5and?5subject?5key?5ident@ 0000000000093c78     OpensslLib:x509_txt.obj
 0002:000214a8       ??_C@_0CM@GGIKLLEP@authority?5and?5issuer?5serial?5num@ 0000000000093ca8     OpensslLib:x509_txt.obj
 0002:000214d8       ??_C@_0CP@EEPOGHPG@key?5usage?5does?5not?5include?5cert@ 0000000000093cd8     OpensslLib:x509_txt.obj
 0002:00021508       ??_C@_0CF@OOPBMEA@unable?5to?5get?5CRL?5issuer?5certif@ 0000000000093d08     OpensslLib:x509_txt.obj
 0002:00021530       ??_C@_0BN@DHGAFJG@unhandled?5critical?5extension@ 0000000000093d30     OpensslLib:x509_txt.obj
 0002:00021550       ??_C@_0CH@JKPBLJBP@key?5usage?5does?5not?5include?5CRL?5@ 0000000000093d50     OpensslLib:x509_txt.obj
 0002:00021578       ??_C@_0CB@OODOOIP@unhandled?5critical?5CRL?5extensio@ 0000000000093d78     OpensslLib:x509_txt.obj
 0002:000215a0       ??_C@_0CN@GNFODAID@invalid?5non?9CA?5certificate?5?$CIhas@ 0000000000093da0     OpensslLib:x509_txt.obj
 0002:000215d0       ??_C@_0CG@BIOFEFIK@proxy?5path?5length?5constraint?5ex@ 0000000000093dd0     OpensslLib:x509_txt.obj
 0002:000215f8       ??_C@_0CN@HJJGOKEM@key?5usage?5does?5not?5include?5digi@ 0000000000093df8     OpensslLib:x509_txt.obj
 0002:00021630       ??_C@_0EA@EILBDOFP@proxy?5certificates?5not?5allowed?0@ 0000000000093e30     OpensslLib:x509_txt.obj
 0002:00021670       ??_C@_0CO@BIBMOLPK@invalid?5or?5inconsistent?5certifi@ 0000000000093e70     OpensslLib:x509_txt.obj
 0002:000216a0       ??_C@_0DF@JOCKIEDN@invalid?5or?5inconsistent?5certifi@ 0000000000093ea0     OpensslLib:x509_txt.obj
 0002:000216d8       ??_C@_0BD@KPLGPDJA@no?5explicit?5policy@ 0000000000093ed8     OpensslLib:x509_txt.obj
 0002:000216f0       ??_C@_0BE@FHFDNMCN@Different?5CRL?5scope@ 0000000000093ef0     OpensslLib:x509_txt.obj
 0002:00021708       ??_C@_0BO@CHPDNLHA@Unsupported?5extension?5feature@ 0000000000093f08     OpensslLib:x509_txt.obj
 0002:00021728       ??_C@_0DD@IBFFGHC@RFC?53779?5resource?5not?5subset?5of@ 0000000000093f28     OpensslLib:x509_txt.obj
 0002:00021760       ??_C@_0BM@OAJDKGDI@permitted?5subtree?5violation@ 0000000000093f60     OpensslLib:x509_txt.obj
 0002:00021780       ??_C@_0BL@OHBCHEHN@excluded?5subtree?5violation@ 0000000000093f80     OpensslLib:x509_txt.obj
 0002:000217a0       ??_C@_0DD@KOHKHENH@name?5constraints?5minimum?5and?5ma@ 0000000000093fa0     OpensslLib:x509_txt.obj
 0002:000217d8       ??_C@_0CB@HLIFGCCB@application?5verification?5failur@ 0000000000093fd8     OpensslLib:x509_txt.obj
 0002:00021800       ??_C@_0CB@NJIFBAAK@unsupported?5name?5constraint?5typ@ 0000000000094000     OpensslLib:x509_txt.obj
 0002:00021828       ??_C@_0CO@MKOFKAHI@unsupported?5or?5invalid?5name?5con@ 0000000000094028     OpensslLib:x509_txt.obj
 0002:00021858       ??_C@_0CD@FOPJHCDH@unsupported?5or?5invalid?5name?5syn@ 0000000000094058     OpensslLib:x509_txt.obj
 0002:00021880       ??_C@_0BK@IBKFOKDF@CRL?5path?5validation?5error@ 0000000000094080     OpensslLib:x509_txt.obj
 0002:000218a0       ??_C@_09OLGELLAO@Path?5Loop@ 00000000000940a0     OpensslLib:x509_txt.obj
 0002:000218b0       ??_C@_0CF@FOANFLBA@Suite?5B?3?5certificate?5version?5in@ 00000000000940b0     OpensslLib:x509_txt.obj
 0002:000218d8       ??_C@_0CG@BICIPKHE@Suite?5B?3?5invalid?5public?5key?5alg@ 00000000000940d8     OpensslLib:x509_txt.obj
 0002:00021900       ??_C@_0BL@FMOLHBNA@Suite?5B?3?5invalid?5ECC?5curve@ 0000000000094100     OpensslLib:x509_txt.obj
 0002:00021920       ??_C@_0CF@HDBBCDPB@Suite?5B?3?5invalid?5signature?5algo@ 0000000000094120     OpensslLib:x509_txt.obj
 0002:00021948       ??_C@_0CI@KACFGKAG@Suite?5B?3?5curve?5not?5allowed?5for?5@ 0000000000094148     OpensslLib:x509_txt.obj
 0002:00021970       ??_C@_0CG@KNKODCDA@Suite?5B?3?5cannot?5sign?5P?9384?5with@ 0000000000094170     OpensslLib:x509_txt.obj
 0002:00021998       ??_C@_0BC@BKAJEJKO@Hostname?5mismatch@ 0000000000094198     OpensslLib:x509_txt.obj
 0002:000219b0       ??_C@_0BH@EANENMMC@Email?5address?5mismatch@ 00000000000941b0     OpensslLib:x509_txt.obj
 0002:000219c8       ??_C@_0BE@CAFPLHHN@IP?5address?5mismatch@ 00000000000941c8     OpensslLib:x509_txt.obj
 0002:000219e0       ??_C@_0BO@OPFDPPAC@No?5matching?5DANE?5TLSA?5records@ 00000000000941e0     OpensslLib:x509_txt.obj
 0002:00021a00       ??_C@_0BM@CJPGEEIN@EE?5certificate?5key?5too?5weak@ 0000000000094200     OpensslLib:x509_txt.obj
 0002:00021a20       ??_C@_0BM@ENALCBIG@CA?5certificate?5key?5too?5weak@ 0000000000094220     OpensslLib:x509_txt.obj
 0002:00021a40       ??_C@_0CH@LKAOFJGJ@CA?5signature?5digest?5algorithm?5t@ 0000000000094240     OpensslLib:x509_txt.obj
 0002:00021a68       ??_C@_0CJ@LGEOKENH@Invalid?5certificate?5verificatio@ 0000000000094268     OpensslLib:x509_txt.obj
 0002:00021a98       ??_C@_0CA@IHGNDGJI@Issuer?5certificate?5lookup?5error@ 0000000000094298     OpensslLib:x509_txt.obj
 0002:00021ab8       ??_C@_0DL@IEHGPPOE@Certificate?5Transparency?5requir@ 00000000000942b8     OpensslLib:x509_txt.obj
 0002:00021af8       ??_C@_0BN@MGIIDFLE@proxy?5subject?5name?5violation@ 00000000000942f8     OpensslLib:x509_txt.obj
 0002:00021b18       ??_C@_0BJ@GCKALNFK@OCSP?5verification?5needed@ 0000000000094318     OpensslLib:x509_txt.obj
 0002:00021b38       ??_C@_0BJ@MKJKHEMF@OCSP?5verification?5failed@ 0000000000094338     OpensslLib:x509_txt.obj
 0002:00021b58       ??_C@_0BC@JFODIBJK@OCSP?5unknown?5cert@ 0000000000094358     OpensslLib:x509_txt.obj
 0002:00021b70       ??_C@_0DD@FBNJLBKB@Certificate?5public?5key?5has?5expl@ 0000000000094370     OpensslLib:x509_txt.obj
 0002:00021ba8       ??_C@_0CH@MPONIKPM@unknown?5certificate?5verificatio@ 00000000000943a8     OpensslLib:x509_txt.obj
 0002:00021bd0       ??_C@_08DFMPDBMK@X509_SIG@ 00000000000943d0     OpensslLib:x_sig.obj
 0002:00021be0       X509_SIG_it                00000000000943e0     OpensslLib:x_sig.obj
 0002:00021c50       ??_C@_02ICGBAFJO@k1@       0000000000094450     OpensslLib:ec_asn1.obj
 0002:00021c54       ??_C@_02KJEMFGFN@k2@       0000000000094454     OpensslLib:ec_asn1.obj
 0002:00021c58       ??_C@_02LAFHGHBM@k3@       0000000000094458     OpensslLib:ec_asn1.obj
 0002:00021c60       ??_C@_0BC@NPDMPFCL@X9_62_PENTANOMIAL@ 0000000000094460     OpensslLib:ec_asn1.obj
 0002:00021c78       ??_C@_07PBHIMFBE@p?4other@ 0000000000094478     OpensslLib:ec_asn1.obj
 0002:00021c80       ??_C@_09KOBBOOPN@p?4onBasis@ 0000000000094480     OpensslLib:ec_asn1.obj
 0002:00021c90       ??_C@_09LICBCEBD@p?4tpBasis@ 0000000000094490     OpensslLib:ec_asn1.obj
 0002:00021ca0       ??_C@_09DMGLCKOJ@p?4ppBasis@ 00000000000944a0     OpensslLib:ec_asn1.obj
 0002:00021cac       ??_C@_01GOHFPIOK@m@        00000000000944ac     OpensslLib:ec_asn1.obj
 0002:00021cb0       ??_C@_0BJ@CCODLOLO@X9_62_CHARACTERISTIC_TWO@ 00000000000944b0     OpensslLib:ec_asn1.obj
 0002:00021cd0       ??_C@_07DPJEDCLB@p?4prime@ 00000000000944d0     OpensslLib:ec_asn1.obj
 0002:00021cd8       ??_C@_0L@NLMAKEBL@p?4char_two@ 00000000000944d8     OpensslLib:ec_asn1.obj
 0002:00021ce8       ??_C@_09OAOLGAOM@fieldType@ 00000000000944e8     OpensslLib:ec_asn1.obj
 0002:00021cf8       ??_C@_0O@PGPIAKKH@X9_62_FIELDID@ 00000000000944f8     OpensslLib:ec_asn1.obj
 0002:00021d08       ??_C@_01MCMALHOG@a@        0000000000094508     OpensslLib:ec_asn1.obj
 0002:00021d0c       ??_C@_01OJONOECF@b@        000000000009450c     OpensslLib:ec_asn1.obj
 0002:00021d10       ??_C@_04MENKDCKE@seed@     0000000000094510     OpensslLib:ec_asn1.obj
 0002:00021d18       ??_C@_0M@BHDPNPCK@X9_62_CURVE@ 0000000000094518     OpensslLib:ec_asn1.obj
 0002:00021d28       ??_C@_07MJJGNICD@fieldID@  0000000000094528     OpensslLib:ec_asn1.obj
 0002:00021d30       ??_C@_05HIKPKPAA@curve@    0000000000094530     OpensslLib:ec_asn1.obj
 0002:00021d38       ??_C@_05NDNMCCJH@order@    0000000000094538     OpensslLib:ec_asn1.obj
 0002:00021d40       ??_C@_08DKFAOMDI@cofactor@ 0000000000094540     OpensslLib:ec_asn1.obj
 0002:00021d50       ??_C@_0N@ECDPFONH@ECPARAMETERS@ 0000000000094550     OpensslLib:ec_asn1.obj
 0002:00021d60       ??_C@_0BC@JEJHGDNN@value?4named_curve@ 0000000000094560     OpensslLib:ec_asn1.obj
 0002:00021d78       ??_C@_0BB@KOECJJJ@value?4parameters@ 0000000000094578     OpensslLib:ec_asn1.obj
 0002:00021d90       ??_C@_0BD@HOIIAPI@value?4implicitlyCA@ 0000000000094590     OpensslLib:ec_asn1.obj
 0002:00021da8       ??_C@_0P@PBBIGPFJ@ECPKPARAMETERS@ 00000000000945a8     OpensslLib:ec_asn1.obj
 0002:00021db8       ??_C@_0L@BCENACFO@privateKey@ 00000000000945b8     OpensslLib:ec_asn1.obj
 0002:00021dc8       ??_C@_0L@HHPOFMCB@parameters@ 00000000000945c8     OpensslLib:ec_asn1.obj
 0002:00021dd8       ??_C@_09IDENFCJL@publicKey@ 00000000000945d8     OpensslLib:ec_asn1.obj
 0002:00021de8       ??_C@_0O@DFJMHGOP@EC_PRIVATEKEY@ 00000000000945e8     OpensslLib:ec_asn1.obj
 0002:00021df8       ??_C@_01LKDEMHDF@s@        00000000000945f8     OpensslLib:ec_asn1.obj
 0002:00021e00       ??_C@_09FLJPBFIA@ECDSA_SIG@ 0000000000094600     OpensslLib:ec_asn1.obj
 0002:00021e10       ECPARAMETERS_it            0000000000094610     OpensslLib:ec_asn1.obj
 0002:000221b0       ECPKPARAMETERS_it          00000000000949b0     OpensslLib:ec_asn1.obj
 0002:00022440       ??_C@_01GBGANLPD@0@        0000000000094c40     OpensslLib:bn_print.obj
 0002:00022444       ??_C@_04FCIJFPNK@?$CFllu@  0000000000094c44     OpensslLib:bn_print.obj
 0002:00022450       ??_C@_07ICEKBAEF@?$CF019llu@ 0000000000094c50     OpensslLib:bn_print.obj
 0002:00022478       ??_C@_0BD@LDHEJACI@OpenSSL?5PKCS?$CD1?5RSA@ 0000000000094c78     OpensslLib:rsa_ossl.obj
 0002:0002248c       ??_C@_06GABBCIBA@method@   0000000000094c8c     OpensslLib:v3_info.obj
 0002:00022498       ??_C@_08CBBFJFMD@location@ 0000000000094c98     OpensslLib:v3_info.obj
 0002:000224a8       ??_C@_0BD@IKHCEBLA@ACCESS_DESCRIPTION@ 0000000000094ca8     OpensslLib:v3_info.obj
 0002:000224c0       ??_C@_0BG@PFEKCAHJ@AUTHORITY_INFO_ACCESS@ 0000000000094cc0     OpensslLib:v3_info.obj
 0002:000224d8       ??_C@_07FCJAGJJB@?$CFs?5?9?5?$CFs@ 0000000000094cd8     OpensslLib:v3_info.obj
 0002:000224e0       ??_C@_06KFEJCPI@value?$DN@ 0000000000094ce0     OpensslLib:v3_info.obj
 0002:000224e8       AUTHORITY_INFO_ACCESS_it   0000000000094ce8     OpensslLib:v3_info.obj
 0002:00022518       ACCESS_DESCRIPTION_it      0000000000094d18     OpensslLib:v3_info.obj
 0002:00022590       v3_sinfo                   0000000000094d90     OpensslLib:v3_info.obj
 0002:00022600       v3_info                    0000000000094e00     OpensslLib:v3_info.obj
 0002:00022688       ??_C@_08OMICEKMJ@?0?5value?$DN@ 0000000000094e88     OpensslLib:conf_mod.obj
 0002:00022698       ??_C@_0P@BLMEJDMO@policyLanguage@ 0000000000094e98     OpensslLib:v3_pcia.obj
 0002:000226a8       ??_C@_06NJNJNICG@policy@   0000000000094ea8     OpensslLib:v3_pcia.obj
 0002:000226b0       ??_C@_0N@CLKEFBDI@PROXY_POLICY@ 0000000000094eb0     OpensslLib:v3_pcia.obj
 0002:000226c0       ??_C@_0BH@JBGKCLHC@pcPathLengthConstraint@ 0000000000094ec0     OpensslLib:v3_pcia.obj
 0002:000226d8       ??_C@_0M@KKFBCGOG@proxyPolicy@ 0000000000094ed8     OpensslLib:v3_pcia.obj
 0002:000226e8       ??_C@_0BK@PILNOGHK@PROXY_CERT_INFO_EXTENSION@ 0000000000094ee8     OpensslLib:v3_pcia.obj
 0002:00022750       PROXY_CERT_INFO_EXTENSION_it 0000000000094f50     OpensslLib:v3_pcia.obj
 0002:000227c0       PROXY_POLICY_it            0000000000094fc0     OpensslLib:v3_pcia.obj
 0002:000227f0       v3_bcons                   0000000000094ff0     OpensslLib:v3_bcons.obj
 0002:00022858       ??_C@_02DGMJAJHC@ca@       0000000000095058     OpensslLib:v3_bcons.obj
 0002:00022860       ??_C@_07OGCPICFF@pathlen@  0000000000095060     OpensslLib:v3_bcons.obj
 0002:00022868       ??_C@_0BC@PKPCGCD@BASIC_CONSTRAINTS@ 0000000000095068     OpensslLib:v3_bcons.obj
 0002:0002287c       ??_C@_02JLAAGLDA@CA@       000000000009507c     OpensslLib:v3_bcons.obj
 0002:000228c0       BASIC_CONSTRAINTS_it       00000000000950c0     OpensslLib:v3_bcons.obj
 0002:000228f0       v3_alt                     00000000000950f0     OpensslLib:v3_alt.obj
 0002:00022a28       ??_C@_0O@NHCJKCDC@?$DMunsupported?$DO@ 0000000000095228     OpensslLib:v3_alt.obj
 0002:00022a38       ??_C@_09PAKBLAPA@othername@ 0000000000095238     OpensslLib:v3_alt.obj
 0002:00022a48       ??_C@_08EBDOEGJI@X400Name@ 0000000000095248     OpensslLib:v3_alt.obj
 0002:00022a58       ??_C@_0N@EEELPIKD@EdiPartyName@ 0000000000095258     OpensslLib:v3_alt.obj
 0002:00022a68       ??_C@_05HKHCDHCL@email@    0000000000095268     OpensslLib:v3_alt.obj
 0002:00022a70       ??_C@_03CBFPEBNE@DNS@      0000000000095270     OpensslLib:v3_alt.obj
 0002:00022a74       ??_C@_03GMOLNBOB@URI@      0000000000095274     OpensslLib:v3_alt.obj
 0002:00022a78       ??_C@_07FDBCPIKC@DirName@  0000000000095278     OpensslLib:v3_alt.obj
 0002:00022a80       ??_C@_09DPMBDOD@?$DMinvalid?$DO@ 0000000000095280     OpensslLib:v3_alt.obj
 0002:00022a90       ??_C@_0L@NGHMMCPJ@IP?5Address@ 0000000000095290     OpensslLib:v3_alt.obj
 0002:00022aa0       ??_C@_0O@KAIENCPE@Registered?5ID@ 00000000000952a0     OpensslLib:v3_alt.obj
 0002:00022ab0       ??_C@_04COAGEIMF@copy@     00000000000952b0     OpensslLib:v3_alt.obj
 0002:00022ab8       ??_C@_04HDMMNHEL@move@     00000000000952b8     OpensslLib:v3_alt.obj
 0002:00022ac0       ??_C@_03FEOBNLIE@RID@      00000000000952c0     OpensslLib:v3_alt.obj
 0002:00022ac4       ??_C@_02MFEOMNPG@IP@       00000000000952c4     OpensslLib:v3_alt.obj
 0002:00022ac8       ??_C@_07KKGEJKPE@dirName@  00000000000952c8     OpensslLib:v3_alt.obj
 0002:00022ad0       ??_C@_09DBGAJPPE@otherName@ 00000000000952d0     OpensslLib:v3_alt.obj
 0002:00022ae0       ??_C@_08LNPIPPMM@section?$DN@ 00000000000952e0     OpensslLib:v3_alt.obj
 0002:00022af0       ??_C@_0CL@JMAEHKDJ@SECG?1WTLS?5curve?5over?5a?5112?5bit?5@ 00000000000952f0     OpensslLib:ec_curve.obj
 0002:00022b20       ??_C@_0CG@IMPBFOOG@SECG?5curve?5over?5a?5112?5bit?5prime@ 0000000000095320     OpensslLib:ec_curve.obj
 0002:00022b48       ??_C@_0CG@DNCCBNMA@SECG?5curve?5over?5a?5128?5bit?5prime@ 0000000000095348     OpensslLib:ec_curve.obj
 0002:00022b70       ??_C@_0CG@MDBLLOCO@SECG?5curve?5over?5a?5160?5bit?5prime@ 0000000000095370     OpensslLib:ec_curve.obj
 0002:00022b98       ??_C@_0CL@NDOOJKPB@SECG?1WTLS?5curve?5over?5a?5160?5bit?5@ 0000000000095398     OpensslLib:ec_curve.obj
 0002:00022bc8       ??_C@_0CG@IFFAEDGD@SECG?5curve?5over?5a?5192?5bit?5prime@ 00000000000953c8     OpensslLib:ec_curve.obj
 0002:00022bf0       ??_C@_0CG@IOHCCJAA@SECG?5curve?5over?5a?5224?5bit?5prime@ 00000000000953f0     OpensslLib:ec_curve.obj
 0002:00022c18       ??_C@_0CL@NHPHHEEB@NIST?1SECG?5curve?5over?5a?5224?5bit?5@ 0000000000095418     OpensslLib:ec_curve.obj
 0002:00022c48       ??_C@_0CG@MBJIMJMI@SECG?5curve?5over?5a?5256?5bit?5prime@ 0000000000095448     OpensslLib:ec_curve.obj
 0002:00022c70       ??_C@_0CL@MPIFFEHD@NIST?1SECG?5curve?5over?5a?5384?5bit?5@ 0000000000095470     OpensslLib:ec_curve.obj
 0002:00022ca0       ??_C@_0CL@NCEJLDDF@NIST?1SECG?5curve?5over?5a?5521?5bit?5@ 00000000000954a0     OpensslLib:ec_curve.obj
 0002:00022cd0       ??_C@_0DB@HJIMEGJL@NIST?1X9?462?1SECG?5curve?5over?5a?519@ 00000000000954d0     OpensslLib:ec_curve.obj
 0002:00022d08       ??_C@_0CH@BHJCBJE@X9?462?5curve?5over?5a?5192?5bit?5prim@ 0000000000095508     OpensslLib:ec_curve.obj
 0002:00022d30       ??_C@_0CH@COBCAEEE@X9?462?5curve?5over?5a?5239?5bit?5prim@ 0000000000095530     OpensslLib:ec_curve.obj
 0002:00022d58       ??_C@_0CM@IACJENLF@X9?462?1SECG?5curve?5over?5a?5256?5bit@ 0000000000095558     OpensslLib:ec_curve.obj
 0002:00022d88       ??_C@_0CG@NOPNGNKB@WTLS?5curve?5over?5a?5112?5bit?5prime@ 0000000000095588     OpensslLib:ec_curve.obj
 0002:00022db0       ??_C@_0CG@JBBHINGJ@WTLS?5curve?5over?5a?5160?5bit?5prime@ 00000000000955b0     OpensslLib:ec_curve.obj
 0002:00022dd8       ??_C@_0CG@NMHOBKEH@WTLS?5curve?5over?5a?5224?5bit?5prime@ 00000000000955d8     OpensslLib:ec_curve.obj
 0002:00022e00       ??_C@_0CK@DKPAAAHG@RFC?55639?5curve?5over?5a?5160?5bit?5p@ 0000000000095600     OpensslLib:ec_curve.obj
 0002:00022e30       ??_C@_0CK@HMLLPNDL@RFC?55639?5curve?5over?5a?5192?5bit?5p@ 0000000000095630     OpensslLib:ec_curve.obj
 0002:00022e60       ??_C@_0CK@HHJJJHFI@RFC?55639?5curve?5over?5a?5224?5bit?5p@ 0000000000095660     OpensslLib:ec_curve.obj
 0002:00022e90       ??_C@_0CK@DIHDHHJA@RFC?55639?5curve?5over?5a?5256?5bit?5p@ 0000000000095690     OpensslLib:ec_curve.obj
 0002:00022ec0       ??_C@_0CK@BJFGHLBI@RFC?55639?5curve?5over?5a?5320?5bit?5p@ 00000000000956c0     OpensslLib:ec_curve.obj
 0002:00022ef0       ??_C@_0CK@GPOLLHGK@RFC?55639?5curve?5over?5a?5384?5bit?5p@ 00000000000956f0     OpensslLib:ec_curve.obj
 0002:00022f20       ??_C@_0CK@DLPHALOH@RFC?55639?5curve?5over?5a?5512?5bit?5p@ 0000000000095720     OpensslLib:ec_curve.obj
 0002:00022f50       ??_C@_0CF@CCLOOCBH@SM2?5curve?5over?5a?5256?5bit?5prime?5@ 0000000000095750     OpensslLib:ec_curve.obj
 0002:00022f78       ??_C@_05KJOGHNFI@B?9163@   0000000000095778     OpensslLib:ec_curve.obj
 0002:00022f80       ??_C@_05LNJIBAFN@B?9233@   0000000000095780     OpensslLib:ec_curve.obj
 0002:00022f88       ??_C@_05LBMNPPLM@B?9283@   0000000000095788     OpensslLib:ec_curve.obj
 0002:00022f90       ??_C@_05GAFKBJFC@B?9409@   0000000000095790     OpensslLib:ec_curve.obj
 0002:00022f98       ??_C@_05BFHAOCLK@B?9571@   0000000000095798     OpensslLib:ec_curve.obj
 0002:00022fa0       ??_C@_05IOOJCMJA@K?9163@   00000000000957a0     OpensslLib:ec_curve.obj
 0002:00022fa8       ??_C@_05JKJHEBJF@K?9233@   00000000000957a8     OpensslLib:ec_curve.obj
 0002:00022fb0       ??_C@_05JGMCKOHE@K?9283@   00000000000957b0     OpensslLib:ec_curve.obj
 0002:00022fb8       ??_C@_05EHFFEIJK@K?9409@   00000000000957b8     OpensslLib:ec_curve.obj
 0002:00022fc0       ??_C@_05DCHPLDHC@K?9571@   00000000000957c0     OpensslLib:ec_curve.obj
 0002:00022fc8       ??_C@_05PFLPKILE@P?9192@   00000000000957c8     OpensslLib:ec_curve.obj
 0002:00022fd0       ??_C@_05LNAFEPDN@P?9224@   00000000000957d0     OpensslLib:ec_curve.obj
 0002:00022fd8       ??_C@_05IKHMDLDK@P?9256@   00000000000957d8     OpensslLib:ec_curve.obj
 0002:00022fe0       ??_C@_05ICOKNIO@P?9384@    00000000000957e0     OpensslLib:ec_curve.obj
 0002:00022fe8       ??_C@_05FNKFIDMB@P?9521@   00000000000957e8     OpensslLib:ec_curve.obj
 0002:00025458       ??_C@_0BG@NHEBIAGP@OpenSSL?5EC_KEY?5method@ 0000000000097c58     OpensslLib:ec_kmeth.obj
 0002:000254f0       v3_policy_constraints      0000000000097cf0     OpensslLib:v3_pcons.obj
 0002:00025558       ??_C@_0BG@HGJBEKFE@requireExplicitPolicy@ 0000000000097d58     OpensslLib:v3_pcons.obj
 0002:00025570       ??_C@_0BF@MOMLJGAL@inhibitPolicyMapping@ 0000000000097d70     OpensslLib:v3_pcons.obj
 0002:00025588       ??_C@_0BD@MMPNIEIJ@POLICY_CONSTRAINTS@ 0000000000097d88     OpensslLib:v3_pcons.obj
 0002:000255a0       ??_C@_0BI@HNCHDEDI@Require?5Explicit?5Policy@ 0000000000097da0     OpensslLib:v3_pcons.obj
 0002:000255b8       ??_C@_0BH@HMKHOMED@Inhibit?5Policy?5Mapping@ 0000000000097db8     OpensslLib:v3_pcons.obj
 0002:000255d0       POLICY_CONSTRAINTS_it      0000000000097dd0     OpensslLib:v3_pcons.obj
 0002:00025640       v3_cpols                   0000000000097e40     OpensslLib:v3_cpols.obj
 0002:000256a8       ??_C@_0BE@GJBJOOCP@CERTIFICATEPOLICIES@ 0000000000097ea8     OpensslLib:v3_cpols.obj
 0002:000256c0       ??_C@_08NEBFOBH@policyid@  0000000000097ec0     OpensslLib:v3_cpols.obj
 0002:000256d0       ??_C@_0L@HMNGMMJI@qualifiers@ 0000000000097ed0     OpensslLib:v3_cpols.obj
 0002:000256e0       ??_C@_0L@POLPGHJK@POLICYINFO@ 0000000000097ee0     OpensslLib:v3_cpols.obj
 0002:000256f0       ??_C@_08EECALGEF@d?4cpsuri@ 0000000000097ef0     OpensslLib:v3_cpols.obj
 0002:00025700       ??_C@_0N@JPAHANFF@d?4usernotice@ 0000000000097f00     OpensslLib:v3_cpols.obj
 0002:00025710       ??_C@_07LEEILOKB@pqualid@  0000000000097f10     OpensslLib:v3_cpols.obj
 0002:00025718       ??_C@_0P@POBJIHLD@POLICYQUALINFO@ 0000000000097f18     OpensslLib:v3_cpols.obj
 0002:00025728       ??_C@_09FIKFDFH@noticeref@ 0000000000097f28     OpensslLib:v3_cpols.obj
 0002:00025738       ??_C@_07MHGINJOA@exptext@  0000000000097f38     OpensslLib:v3_cpols.obj
 0002:00025740       ??_C@_0L@HCNDPADF@USERNOTICE@ 0000000000097f40     OpensslLib:v3_cpols.obj
 0002:00025750       ??_C@_0N@HEIPMDAG@organization@ 0000000000097f50     OpensslLib:v3_cpols.obj
 0002:00025760       ??_C@_09CFGHNILC@noticenos@ 0000000000097f60     OpensslLib:v3_cpols.obj
 0002:00025770       ??_C@_09DFHLGOKA@NOTICEREF@ 0000000000097f70     OpensslLib:v3_cpols.obj
 0002:0002577c       ??_C@_06MIFIGELF@ia5org@   0000000000097f7c     OpensslLib:v3_cpols.obj
 0002:00025788       ??_C@_0BB@FIJMMMGE@policyIdentifier@ 0000000000097f88     OpensslLib:v3_cpols.obj
 0002:0002579c       ??_C@_03KKDAPHBH@CPS@      0000000000097f9c     OpensslLib:v3_cpols.obj
 0002:000257a0       ??_C@_0L@LADHLIJ@userNotice@ 0000000000097fa0     OpensslLib:v3_cpols.obj
 0002:000257ac       ??_C@_04OOMJJNCF@UTF8@     0000000000097fac     OpensslLib:v3_cpols.obj
 0002:000257b8       ??_C@_0L@PJIJIHJD@UTF8String@ 0000000000097fb8     OpensslLib:v3_cpols.obj
 0002:000257c4       ??_C@_03CNFPPDJC@BMP@      0000000000097fc4     OpensslLib:v3_cpols.obj
 0002:000257c8       ??_C@_07MCGNPFEO@VISIBLE@  0000000000097fc8     OpensslLib:v3_cpols.obj
 0002:000257d0       ??_C@_0N@EALKMFB@explicitText@ 0000000000097fd0     OpensslLib:v3_cpols.obj
 0002:000257e0       ??_C@_0O@OKDALMJE@noticeNumbers@ 0000000000097fe0     OpensslLib:v3_cpols.obj
 0002:000257f0       ??_C@_0M@ICGFCJNO@?$CF?$CKsCPS?3?5?$CFs?6@ 0000000000097ff0     OpensslLib:v3_cpols.obj
 0002:00025800       ??_C@_0BF@OCNFPJOG@?$CF?$CKsOrganization?3?5?$CFs?6@ 0000000000098000     OpensslLib:v3_cpols.obj
 0002:00025818       ??_C@_0O@EFHNHHDA@?$CF?$CKsNumber?$CFs?3?5@ 0000000000098018     OpensslLib:v3_cpols.obj
 0002:00025828       ??_C@_06OJHGLDPL@?$CInull?$CJ@ 0000000000098028     OpensslLib:v3_cpols.obj
 0002:00025830       ??_C@_0BG@IHHCDAMH@?$CF?$CKsExplicit?5Text?3?5?$CFs?6@ 0000000000098030     OpensslLib:v3_cpols.obj
 0002:00025848       NOTICEREF_it               0000000000098048     OpensslLib:v3_cpols.obj
 0002:00025900       USERNOTICE_it              0000000000098100     OpensslLib:v3_cpols.obj
 0002:00025a30       POLICYQUALINFO_it          0000000000098230     OpensslLib:v3_cpols.obj
 0002:00025aa0       POLICYINFO_it              00000000000982a0     OpensslLib:v3_cpols.obj
 0002:00025ad0       CERTIFICATEPOLICIES_it     00000000000982d0     OpensslLib:v3_cpols.obj
 0002:00025b00       ??_C@_0BC@MGHKLCAP@OpenSSL?5DH?5Method@ 0000000000098300     OpensslLib:dh_key.obj
 0002:00025b20       cmac_asn1_meth             0000000000098320     OpensslLib:cm_ameth.obj
 0002:00025c38       ??_C@_0BE@GBIGMENL@OpenSSL?5CMAC?5method@ 0000000000098438     OpensslLib:cm_ameth.obj
 0002:00025c50       ed448_asn1_meth            0000000000098450     OpensslLib:ecx_meth.obj
 0002:00025d70       ed25519_asn1_meth          0000000000098570     OpensslLib:ecx_meth.obj
 0002:00025e90       ecx25519_asn1_meth         0000000000098690     OpensslLib:ecx_meth.obj
 0002:00025fb0       ecx448_asn1_meth           00000000000987b0     OpensslLib:ecx_meth.obj
 0002:000260d0       ecx448_pkey_meth           00000000000988d0     OpensslLib:ecx_meth.obj
 0002:000261d0       ed448_pkey_meth            00000000000989d0     OpensslLib:ecx_meth.obj
 0002:000262d0       ecx25519_pkey_meth         0000000000098ad0     OpensslLib:ecx_meth.obj
 0002:000263d0       ed25519_pkey_meth          0000000000098bd0     OpensslLib:ecx_meth.obj
 0002:000264d0       ??_C@_0BK@JGHKCBDG@?$CF?$CKs?$DMINVALID?5PRIVATE?5KEY?$DO?6@ 0000000000098cd0     OpensslLib:ecx_meth.obj
 0002:000264f0       ??_C@_0BE@BHOIIFAI@?$CF?$CKs?$CFs?5Private?9Key?3?6@ 0000000000098cf0     OpensslLib:ecx_meth.obj
 0002:00026508       ??_C@_09CDOGNPAC@?$CF?$CKspriv?3?6@ 0000000000098d08     OpensslLib:ecx_meth.obj
 0002:00026518       ??_C@_0BJ@NBDPFAFL@?$CF?$CKs?$DMINVALID?5PUBLIC?5KEY?$DO?6@ 0000000000098d18     OpensslLib:ecx_meth.obj
 0002:00026538       ??_C@_0BD@HFJAOMDB@?$CF?$CKs?$CFs?5Public?9Key?3?6@ 0000000000098d38     OpensslLib:ecx_meth.obj
 0002:00026550       ??_C@_08BMIKENKP@?$CF?$CKspub?3?6@ 0000000000098d50     OpensslLib:ecx_meth.obj
 0002:00026560       ??_C@_0BJ@OPPGOKJE@OpenSSL?5X25519?5algorithm@ 0000000000098d60     OpensslLib:ecx_meth.obj
 0002:00026580       ??_C@_0BH@LCCDECOI@OpenSSL?5X448?5algorithm@ 0000000000098d80     OpensslLib:ecx_meth.obj
 0002:00026598       ??_C@_0BK@EOFFJDOF@OpenSSL?5ED25519?5algorithm@ 0000000000098d98     OpensslLib:ecx_meth.obj
 0002:000265b8       ??_C@_0BI@FPELGGCO@OpenSSL?5ED448?5algorithm@ 0000000000098db8     OpensslLib:ecx_meth.obj
 0002:000265d0       sm2_asn1_meth              0000000000098dd0     OpensslLib:ec_ameth.obj
 0002:000266f0       eckey_asn1_meth            0000000000098ef0     OpensslLib:ec_ameth.obj
 0002:00026808       ??_C@_0M@CJKOCIEC@Private?9Key@ 0000000000099008     OpensslLib:ec_ameth.obj
 0002:00026818       ??_C@_0L@FMJMEKAC@Public?9Key@ 0000000000099018     OpensslLib:ec_ameth.obj
 0002:00026828       ??_C@_0BB@DMDKLH@ECDSA?9Parameters@ 0000000000099028     OpensslLib:ec_ameth.obj
 0002:00026840       ??_C@_0O@OPPPNLCD@?$CFs?3?5?$CI?$CFd?5bit?$CJ?6@ 0000000000099040     OpensslLib:ec_ameth.obj
 0002:00026850       ??_C@_02KNLLHFAA@EC@       0000000000099050     OpensslLib:ec_ameth.obj
 0002:00026858       ??_C@_0BF@DKDIFOGG@OpenSSL?5EC?5algorithm@ 0000000000099058     OpensslLib:ec_ameth.obj
 0002:00026870       siphash_asn1_meth          0000000000099070     OpensslLib:siphash_ameth.obj
 0002:00026988       ??_C@_07IBBIJFNK@SIPHASH@  0000000000099188     OpensslLib:siphash_ameth.obj
 0002:00026990       ??_C@_0BH@FCFCAEA@OpenSSL?5SIPHASH?5method@ 0000000000099190     OpensslLib:siphash_ameth.obj
 0002:000269b0       hmac_asn1_meth             00000000000991b0     OpensslLib:hm_ameth.obj
 0002:00026ac8       ??_C@_0BE@BABEGANF@OpenSSL?5HMAC?5method@ 00000000000992c8     OpensslLib:hm_ameth.obj
 0002:00026ae0       rsa_pss_asn1_meth          00000000000992e0     OpensslLib:rsa_ameth.obj
 0002:00026c00       rsa_asn1_meths             0000000000099400     OpensslLib:rsa_ameth.obj
 0002:00026e30       ??_C@_0BP@CGCIOPAF@No?5PSS?5parameter?5restrictions?6@ 0000000000099630     OpensslLib:rsa_ameth.obj
 0002:00026e50       ??_C@_0BM@OMMNCLDM@PSS?5parameter?5restrictions?3@ 0000000000099650     OpensslLib:rsa_ameth.obj
 0002:00026e70       ??_C@_0BK@KFGFELEH@?$CIINVALID?5PSS?5PARAMETERS?$CJ?6@ 0000000000099670     OpensslLib:rsa_ameth.obj
 0002:00026e90       ??_C@_0BB@PMMDHLKH@Hash?5Algorithm?3?5@ 0000000000099690     OpensslLib:rsa_ameth.obj
 0002:00026ea8       ??_C@_0P@ODEAMLKF@sha1?5?$CIdefault?$CJ@ 00000000000996a8     OpensslLib:rsa_ameth.obj
 0002:00026eb8       ??_C@_0BB@HEAMLCPA@Mask?5Algorithm?3?5@ 00000000000996b8     OpensslLib:rsa_ameth.obj
 0002:00026ecc       ??_C@_06BIDGLIKJ@?5with?5@ 00000000000996cc     OpensslLib:rsa_ameth.obj
 0002:00026ed8       ??_C@_07DNODLGKM@INVALID@  00000000000996d8     OpensslLib:rsa_ameth.obj
 0002:00026ee0       ??_C@_0BJ@NNFOENLD@mgf1?5with?5sha1?5?$CIdefault?$CJ@ 00000000000996e0     OpensslLib:rsa_ameth.obj
 0002:00026f00       ??_C@_07NLJCBFAF@Minimum@  0000000000099700     OpensslLib:rsa_ameth.obj
 0002:00026f08       ??_C@_0BD@DPAJFAGN@?$CFs?5Salt?5Length?3?50x@ 0000000000099708     OpensslLib:rsa_ameth.obj
 0002:00026f20       ??_C@_0N@CGLOPGL@14?5?$CIdefault?$CJ@ 0000000000099720     OpensslLib:rsa_ameth.obj
 0002:00026f30       ??_C@_0BC@EDKEKAHK@Trailer?5Field?3?50x@ 0000000000099730     OpensslLib:rsa_ameth.obj
 0002:00026f48       ??_C@_0N@FFIHJHFK@BC?5?$CIdefault?$CJ@ 0000000000099748     OpensslLib:rsa_ameth.obj
 0002:00026f58       ??_C@_07FGNHIEKH@RSA?9PSS@ 0000000000099758     OpensslLib:rsa_ameth.obj
 0002:00026f60       ??_C@_03IKGEINEE@?$CFs?5@  0000000000099760     OpensslLib:rsa_ameth.obj
 0002:00026f68       ??_C@_0CC@BJIIEMBB@Private?9Key?3?5?$CI?$CFd?5bit?0?5?$CFd?5primes@ 0000000000099768     OpensslLib:rsa_ameth.obj
 0002:00026f90       ??_C@_08OKDKAJKD@modulus?3@ 0000000000099790     OpensslLib:rsa_ameth.obj
 0002:00026fa0       ??_C@_0BA@FAAMOFHC@publicExponent?3@ 00000000000997a0     OpensslLib:rsa_ameth.obj
 0002:00026fb0       ??_C@_0BG@HAJOCCOP@Public?9Key?3?5?$CI?$CFd?5bit?$CJ?6@ 00000000000997b0     OpensslLib:rsa_ameth.obj
 0002:00026fc8       ??_C@_08GIMLILAA@Modulus?3@ 00000000000997c8     OpensslLib:rsa_ameth.obj
 0002:00026fd8       ??_C@_09DALHJPOO@Exponent?3@ 00000000000997d8     OpensslLib:rsa_ameth.obj
 0002:00026fe8       ??_C@_0BB@NFOLHHHJ@privateExponent?3@ 00000000000997e8     OpensslLib:rsa_ameth.obj
 0002:00027000       ??_C@_07PNLMLIF@prime1?3@  0000000000099800     OpensslLib:rsa_ameth.obj
 0002:00027008       ??_C@_07NJNHFNM@prime2?3@  0000000000099808     OpensslLib:rsa_ameth.obj
 0002:00027010       ??_C@_0L@OIOCMGKP@exponent1?3@ 0000000000099810     OpensslLib:rsa_ameth.obj
 0002:00027020       ??_C@_0L@OKKEHIPG@exponent2?3@ 0000000000099820     OpensslLib:rsa_ameth.obj
 0002:00027030       ??_C@_0N@GNAMJPHF@coefficient?3@ 0000000000099830     OpensslLib:rsa_ameth.obj
 0002:00027040       ??_C@_08BCNLBGP@prime?$CFd?3@ 0000000000099840     OpensslLib:rsa_ameth.obj
 0002:00027050       ??_C@_0M@NKHBEBLE@exponent?$CFd?3@ 0000000000099850     OpensslLib:rsa_ameth.obj
 0002:00027060       ??_C@_0P@FAPFJECG@coefficient?$CFd?3@ 0000000000099860     OpensslLib:rsa_ameth.obj
 0002:00027070       ??_C@_0BD@MHOEKPBI@OpenSSL?5RSA?5method@ 0000000000099870     OpensslLib:rsa_ameth.obj
 0002:00027088       ??_C@_0BH@JANGLOLP@OpenSSL?5RSA?9PSS?5method@ 0000000000099888     OpensslLib:rsa_ameth.obj
 0002:000270a0       dh_asn1_meth               00000000000998a0     OpensslLib:dh_ameth.obj
 0002:000271c0       dhx_asn1_meth              00000000000999c0     OpensslLib:dh_ameth.obj
 0002:000272d8       ??_C@_0P@ELBFBOG@DH?5Private?9Key@ 0000000000099ad8     OpensslLib:dh_ameth.obj
 0002:000272e8       ??_C@_0O@EBAKGDPN@DH?5Public?9Key@ 0000000000099ae8     OpensslLib:dh_ameth.obj
 0002:000272f8       ??_C@_0O@OMPEPKAJ@DH?5Parameters@ 0000000000099af8     OpensslLib:dh_ameth.obj
 0002:00027308       ??_C@_0N@MPONDEBM@private?9key?3@ 0000000000099b08     OpensslLib:dh_ameth.obj
 0002:00027318       ??_C@_0M@BCALNHOD@public?9key?3@ 0000000000099b18     OpensslLib:dh_ameth.obj
 0002:00027324       ??_C@_06POMKLBDA@prime?3@  0000000000099b24     OpensslLib:dh_ameth.obj
 0002:00027330       ??_C@_0L@HDGHCIJF@generator?3@ 0000000000099b30     OpensslLib:dh_ameth.obj
 0002:00027340       ??_C@_0BA@PFGIPGBD@subgroup?5order?3@ 0000000000099b40     OpensslLib:dh_ameth.obj
 0002:00027350       ??_C@_0BB@HEOELHJJ@subgroup?5factor?3@ 0000000000099b50     OpensslLib:dh_ameth.obj
 0002:00027364       ??_C@_05PENGGDLK@seed?3@   0000000000099b64     OpensslLib:dh_ameth.obj
 0002:0002736c       ??_C@_06LEJCPMLM@?$CF02x?$CFs@ 0000000000099b6c     OpensslLib:dh_ameth.obj
 0002:00027378       ??_C@_08ILALFGPI@counter?3@ 0000000000099b78     OpensslLib:dh_ameth.obj
 0002:00027388       ??_C@_0CF@KKPEILHE@recommended?9private?9length?3?5?$CFd?5@ 0000000000099b88     OpensslLib:dh_ameth.obj
 0002:000273b0       ??_C@_02EPINMGPM@DH@       0000000000099bb0     OpensslLib:dh_ameth.obj
 0002:000273b8       ??_C@_0BJ@OPGBMMOB@OpenSSL?5PKCS?$CD3?5DH?5method@ 0000000000099bb8     OpensslLib:dh_ameth.obj
 0002:000273d8       ??_C@_0BI@JOIJFJMC@OpenSSL?5X9?442?5DH?5method@ 0000000000099bd8     OpensslLib:dh_ameth.obj
 0002:000273f0       ??_C@_03MEGLGNML@SM4@      0000000000099bf0     OpensslLib:c_allc.obj
 0002:000273f4       ??_C@_03FMBEIEBF@sm4@      0000000000099bf4     OpensslLib:c_allc.obj
 0002:000273f8       ??_C@_0M@DJNCOMHD@aes128?9wrap@ 0000000000099bf8     OpensslLib:c_allc.obj
 0002:00027404       ??_C@_06NICOGCEJ@AES128@   0000000000099c04     OpensslLib:c_allc.obj
 0002:0002740c       ??_C@_06NBPOHBOH@aes128@   0000000000099c0c     OpensslLib:c_allc.obj
 0002:00027418       ??_C@_0M@MAMIKPGL@aes192?9wrap@ 0000000000099c18     OpensslLib:c_allc.obj
 0002:00027424       ??_C@_06COJEGFCC@AES192@   0000000000099c24     OpensslLib:c_allc.obj
 0002:0002742c       ??_C@_06CHEEHGIM@aes192@   0000000000099c2c     OpensslLib:c_allc.obj
 0002:00027438       ??_C@_0M@FKKFKCPC@aes256?9wrap@ 0000000000099c38     OpensslLib:c_allc.obj
 0002:00027444       ??_C@_06FBFHPGKM@AES256@   0000000000099c44     OpensslLib:c_allc.obj
 0002:0002744c       ??_C@_06FIIHOFAC@aes256@   0000000000099c4c     OpensslLib:c_allc.obj
 0002:00027458       ??_C@_07POIDCCOH@ARIA128@  0000000000099c58     OpensslLib:c_allc.obj
 0002:00027460       ??_C@_07OCFFDBP@aria128@   0000000000099c60     OpensslLib:c_allc.obj
 0002:00027468       ??_C@_07IDJCFIM@ARIA192@   0000000000099c68     OpensslLib:c_allc.obj
 0002:00027470       ??_C@_07PIJPFEHE@aria192@  0000000000099c70     OpensslLib:c_allc.obj
 0002:00027478       ??_C@_07HHPKLGAC@ARIA256@  0000000000099c78     OpensslLib:c_allc.obj
 0002:00027480       ??_C@_07IHFMMHPK@aria256@  0000000000099c80     OpensslLib:c_allc.obj
 0002:000274a8       ??_C@_08CBANLEIB@ssl3?9md5@ 0000000000099ca8     OpensslLib:c_alld.obj
 0002:000274b8       ??_C@_09KCHAKJIH@ssl3?9sha1@ 0000000000099cb8     OpensslLib:c_alld.obj
 0002:000274d0       dhx_pkey_meth              0000000000099cd0     OpensslLib:dh_pmeth.obj
 0002:000275d0       dh_pkey_meth               0000000000099dd0     OpensslLib:dh_pmeth.obj
 0002:000276d0       ??_C@_0BG@LEMCDPBI@dh_paramgen_prime_len@ 0000000000099ed0     OpensslLib:dh_pmeth.obj
 0002:000276e8       ??_C@_0L@CMAICHCO@dh_rfc5114@ 0000000000099ee8     OpensslLib:dh_pmeth.obj
 0002:000276f8       ??_C@_08DJOKJGHP@dh_param@ 0000000000099ef8     OpensslLib:dh_pmeth.obj
 0002:00027708       ??_C@_0BG@POLEFOHA@dh_paramgen_generator@ 0000000000099f08     OpensslLib:dh_pmeth.obj
 0002:00027720       ??_C@_0BJ@HCAFJLBI@dh_paramgen_subprime_len@ 0000000000099f20     OpensslLib:dh_pmeth.obj
 0002:00027740       ??_C@_0BB@DCMALDKK@dh_paramgen_type@ 0000000000099f40     OpensslLib:dh_pmeth.obj
 0002:00027754       ??_C@_06GADFDCHC@dh_pad@   0000000000099f54     OpensslLib:dh_pmeth.obj
 0002:00027760       cmac_pkey_meth             0000000000099f60     OpensslLib:cm_pmeth.obj
 0002:00027860       ??_C@_06KDGDAFPH@cipher@   000000000009a060     OpensslLib:cm_pmeth.obj
 0002:00027868       ??_C@_06BHJHKMJC@hexkey@   000000000009a068     OpensslLib:cm_pmeth.obj
 0002:00027870       rsa_pkey_meth              000000000009a070     OpensslLib:rsa_pmeth.obj
 0002:00027970       rsa_pss_pkey_meth          000000000009a170     OpensslLib:rsa_pmeth.obj
 0002:00027a70       ??_C@_0BB@BILFEOKG@rsa_padding_mode@ 000000000009a270     OpensslLib:rsa_pmeth.obj
 0002:00027a84       ??_C@_06PDLHKEJK@sslv23@   000000000009a284     OpensslLib:rsa_pmeth.obj
 0002:00027a8c       ??_C@_04CGFJFPFD@none@     000000000009a28c     OpensslLib:rsa_pmeth.obj
 0002:00027a94       ??_C@_04EIGNDHKO@oeap@     000000000009a294     OpensslLib:rsa_pmeth.obj
 0002:00027a9c       ??_C@_04MAAGAICF@oaep@     000000000009a29c     OpensslLib:rsa_pmeth.obj
 0002:00027aa4       ??_C@_04JNCMEILM@x931@     000000000009a2a4     OpensslLib:rsa_pmeth.obj
 0002:00027ab0       ??_C@_0BA@CIHMEEHB@rsa_pss_saltlen@ 000000000009a2b0     OpensslLib:rsa_pmeth.obj
 0002:00027ac0       ??_C@_03LJAEFNNE@max@      000000000009a2c0     OpensslLib:rsa_pmeth.obj
 0002:00027ac4       ??_C@_04HAPDLBFF@auto@     000000000009a2c4     OpensslLib:rsa_pmeth.obj
 0002:00027ad0       ??_C@_0BA@GFPKPLAF@rsa_keygen_bits@ 000000000009a2d0     OpensslLib:rsa_pmeth.obj
 0002:00027ae0       ??_C@_0BC@DMECNPFD@rsa_keygen_pubexp@ 000000000009a2e0     OpensslLib:rsa_pmeth.obj
 0002:00027af8       ??_C@_0BC@KMPAJFPF@rsa_keygen_primes@ 000000000009a2f8     OpensslLib:rsa_pmeth.obj
 0002:00027b10       ??_C@_0M@CNLGKALE@rsa_mgf1_md@ 000000000009a310     OpensslLib:rsa_pmeth.obj
 0002:00027b20       ??_C@_0BH@OIJPKNFL@rsa_pss_keygen_mgf1_md@ 000000000009a320     OpensslLib:rsa_pmeth.obj
 0002:00027b38       ??_C@_0BC@BFLLMFID@rsa_pss_keygen_md@ 000000000009a338     OpensslLib:rsa_pmeth.obj
 0002:00027b50       ??_C@_0BH@MFJEKBFK@rsa_pss_keygen_saltlen@ 000000000009a350     OpensslLib:rsa_pmeth.obj
 0002:00027b68       ??_C@_0M@OPEEJBKE@rsa_oaep_md@ 000000000009a368     OpensslLib:rsa_pmeth.obj
 0002:00027b78       ??_C@_0P@NCFNIFLM@rsa_oaep_label@ 000000000009a378     OpensslLib:rsa_pmeth.obj
 0002:00027b90       tls1_prf_pkey_meth         000000000009a390     OpensslLib:tls1_prf.obj
 0002:00027c90       ??_C@_06PNMBKEGN@secret@   000000000009a490     OpensslLib:tls1_prf.obj
 0002:00027c98       ??_C@_09CIFGBJCP@hexsecret@ 000000000009a498     OpensslLib:tls1_prf.obj
 0002:00027ca8       ??_C@_07FKCLENDA@hexseed@  000000000009a4a8     OpensslLib:tls1_prf.obj
 0002:00027cb0       hkdf_pkey_meth             000000000009a4b0     OpensslLib:hkdf.obj
 0002:00027db0       ??_C@_04GMGOKAFF@mode@     000000000009a5b0     OpensslLib:hkdf.obj
 0002:00027db8       ??_C@_0BD@PBGBEBFD@EXTRACT_AND_EXPAND@ 000000000009a5b8     OpensslLib:hkdf.obj
 0002:00027dd0       ??_C@_0N@OIPAJIAH@EXTRACT_ONLY@ 000000000009a5d0     OpensslLib:hkdf.obj
 0002:00027de0       ??_C@_0M@FMHABNKF@EXPAND_ONLY@ 000000000009a5e0     OpensslLib:hkdf.obj
 0002:00027dec       ??_C@_04OKLIMCN@salt@      000000000009a5ec     OpensslLib:hkdf.obj
 0002:00027df8       ??_C@_07JAFKPDLJ@hexsalt@  000000000009a5f8     OpensslLib:hkdf.obj
 0002:00027e00       ??_C@_07EGMICCIA@hexinfo@  000000000009a600     OpensslLib:hkdf.obj
 0002:00027e10       sm2_pkey_meth              000000000009a610     OpensslLib:sm2_pmeth.obj
 0002:00027f10       ??_C@_0BC@BLCJLNNM@ec_paramgen_curve@ 000000000009a710     OpensslLib:sm2_pmeth.obj
 0002:00027f28       ??_C@_0N@CHHABLAI@ec_param_enc@ 000000000009a728     OpensslLib:sm2_pmeth.obj
 0002:00027f38       ??_C@_08FCANLLBJ@explicit@ 000000000009a738     OpensslLib:sm2_pmeth.obj
 0002:00027f48       ??_C@_0M@FBFAECBG@named_curve@ 000000000009a748     OpensslLib:sm2_pmeth.obj
 0002:00027f60       siphash_pkey_meth          000000000009a760     OpensslLib:siphash_pmeth.obj
 0002:00028060       ??_C@_0L@NANBDDC@digestsize@ 000000000009a860     OpensslLib:siphash_pmeth.obj
 0002:00028070       ec_pkey_meth               000000000009a870     OpensslLib:ec_pmeth.obj
 0002:00028170       ??_C@_0M@JAAKIKPH@ecdh_kdf_md@ 000000000009a970     OpensslLib:ec_pmeth.obj
 0002:00028180       ??_C@_0BD@CPNABICB@ecdh_cofactor_mode@ 000000000009a980     OpensslLib:ec_pmeth.obj
 0002:000281a0       hmac_pkey_meth             000000000009a9a0     OpensslLib:hm_pmeth.obj
 0002:000282a0       ??_C@_0L@LIHNHIHF@?$CF?$CKs?$CF04x?5?9?5@ 000000000009aaa0     OpensslLib:b_dump.obj
 0002:000282ac       ??_C@_03NDEAONJP@?5?5?5@   000000000009aaac     OpensslLib:b_dump.obj
 0002:000282b0       ??_C@_02KNHHEEKP@?5?5@     000000000009aab0     OpensslLib:b_dump.obj
 0002:00028320       ??_C@_0P@ONGHGJEC@message?5digest@ 000000000009ab20     OpensslLib:bio_md.obj
 0002:000283f0       ??_C@_06KAALCHHK@crlUrl@   000000000009abf0     OpensslLib:ocsp_asn.obj
 0002:000283f8       ??_C@_06DLEHNACA@crlNum@   000000000009abf8     OpensslLib:ocsp_asn.obj
 0002:00028400       ??_C@_07BDEAJPPO@crlTime@  000000000009ac00     OpensslLib:ocsp_asn.obj
 0002:00028408       ??_C@_0L@JOKCDHBA@OCSP_CRLID@ 000000000009ac08     OpensslLib:ocsp_asn.obj
 0002:00028418       ??_C@_07PAIKCKMF@locator@  000000000009ac18     OpensslLib:ocsp_asn.obj
 0002:00028420       ??_C@_0BA@JLGHGCLL@OCSP_SERVICELOC@ 000000000009ac20     OpensslLib:ocsp_asn.obj
 0002:000284d0       OCSP_SERVICELOC_it         000000000009acd0     OpensslLib:ocsp_asn.obj
 0002:00028500       OCSP_CRLID_it              000000000009ad00     OpensslLib:ocsp_asn.obj
 0002:00028530       v3_ocsp_accresp            000000000009ad30     OpensslLib:v3_extku.obj
 0002:000285a0       v3_ext_ku                  000000000009ada0     OpensslLib:v3_extku.obj
 0002:00028608       ??_C@_0BD@CKAGEBEF@EXTENDED_KEY_USAGE@ 000000000009ae08     OpensslLib:v3_extku.obj
 0002:00028640       EXTENDED_KEY_USAGE_it      000000000009ae40     OpensslLib:v3_extku.obj
 0002:00028670       v3_key_usage               000000000009ae70     OpensslLib:v3_bitst.obj
 0002:000286e0       v3_nscert                  000000000009aee0     OpensslLib:v3_bitst.obj
 0002:00028748       ??_C@_06DGDLPBAN@client@   000000000009af48     OpensslLib:v3_bitst.obj
 0002:00028750       ??_C@_06HJHJCKIO@server@   000000000009af50     OpensslLib:v3_bitst.obj
 0002:00028758       ??_C@_0P@DDHLFHHK@Object?5Signing@ 000000000009af58     OpensslLib:v3_bitst.obj
 0002:00028768       ??_C@_07GIOKFKGL@objsign@  000000000009af68     OpensslLib:v3_bitst.obj
 0002:00028770       ??_C@_08FINKBBAF@reserved@ 000000000009af70     OpensslLib:v3_bitst.obj
 0002:0002877c       ??_C@_06FMDLPOFJ@SSL?5CA@  000000000009af7c     OpensslLib:v3_bitst.obj
 0002:00028784       ??_C@_05JHLHLOEK@sslCA@    000000000009af84     OpensslLib:v3_bitst.obj
 0002:00028790       ??_C@_09GIEMCMEO@S?1MIME?5CA@ 000000000009af90     OpensslLib:v3_bitst.obj
 0002:000287a0       ??_C@_07FFHDGPMJ@emailCA@  000000000009afa0     OpensslLib:v3_bitst.obj
 0002:000287a8       ??_C@_0BC@FAMHGMHB@Object?5Signing?5CA@ 000000000009afa8     OpensslLib:v3_bitst.obj
 0002:000287bc       ??_C@_05JLEIJNEE@objCA@    000000000009afbc     OpensslLib:v3_bitst.obj
 0002:000287c8       ??_C@_0BC@DPKEIPIO@Digital?5Signature@ 000000000009afc8     OpensslLib:v3_bitst.obj
 0002:000287e0       ??_C@_0BB@MFKHIIOM@digitalSignature@ 000000000009afe0     OpensslLib:v3_bitst.obj
 0002:000287f8       ??_C@_0BA@DJCGBBAI@Non?5Repudiation@ 000000000009aff8     OpensslLib:v3_bitst.obj
 0002:00028808       ??_C@_0P@GPCNPOGO@nonRepudiation@ 000000000009b008     OpensslLib:v3_bitst.obj
 0002:00028818       ??_C@_0BB@KNACIBEN@Key?5Encipherment@ 000000000009b018     OpensslLib:v3_bitst.obj
 0002:00028830       ??_C@_0BA@MINCLOJG@keyEncipherment@ 000000000009b030     OpensslLib:v3_bitst.obj
 0002:00028840       ??_C@_0BC@GNPIAJLP@Data?5Encipherment@ 000000000009b040     OpensslLib:v3_bitst.obj
 0002:00028858       ??_C@_0BB@LBKKKIGO@dataEncipherment@ 000000000009b058     OpensslLib:v3_bitst.obj
 0002:00028870       ??_C@_0O@EOJOBCHL@Key?5Agreement@ 000000000009b070     OpensslLib:v3_bitst.obj
 0002:00028880       ??_C@_0N@GONHKOEO@keyAgreement@ 000000000009b080     OpensslLib:v3_bitst.obj
 0002:00028890       ??_C@_0BB@ELNGMDLH@Certificate?5Sign@ 000000000009b090     OpensslLib:v3_bitst.obj
 0002:000288a8       ??_C@_0M@ONBOOMGI@keyCertSign@ 000000000009b0a8     OpensslLib:v3_bitst.obj
 0002:000288b8       ??_C@_08OCJGKMAN@CRL?5Sign@ 000000000009b0b8     OpensslLib:v3_bitst.obj
 0002:000288c8       ??_C@_07IHBCCDFJ@cRLSign@  000000000009b0c8     OpensslLib:v3_bitst.obj
 0002:000288d0       ??_C@_0O@CANGKMJD@Encipher?5Only@ 000000000009b0d0     OpensslLib:v3_bitst.obj
 0002:000288e0       ??_C@_0N@BEFDLIKF@encipherOnly@ 000000000009b0e0     OpensslLib:v3_bitst.obj
 0002:000288f0       ??_C@_0O@FKBAPCEG@Decipher?5Only@ 000000000009b0f0     OpensslLib:v3_bitst.obj
 0002:00028900       ??_C@_0N@LIFHMFCO@decipherOnly@ 000000000009b100     OpensslLib:v3_bitst.obj
 0002:00028910       v3_ocsp_crlid              000000000009b110     OpensslLib:v3_ocsp.obj
 0002:00028980       v3_crl_hold                000000000009b180     OpensslLib:v3_ocsp.obj
 0002:000289f0       v3_ocsp_nocheck            000000000009b1f0     OpensslLib:v3_ocsp.obj
 0002:00028a60       v3_ocsp_acutoff            000000000009b260     OpensslLib:v3_ocsp.obj
 0002:00028ad0       v3_ocsp_nonce              000000000009b2d0     OpensslLib:v3_ocsp.obj
 0002:00028b40       v3_crl_invdate             000000000009b340     OpensslLib:v3_ocsp.obj
 0002:00028bb0       v3_ocsp_serviceloc         000000000009b3b0     OpensslLib:v3_ocsp.obj
 0002:00028c18       ??_C@_0M@KIKBFHBJ@?$CF?$CKscrlUrl?3?5@ 000000000009b418     OpensslLib:v3_ocsp.obj
 0002:00028c28       ??_C@_0M@MLCMBODE@?$CF?$CKscrlNum?3?5@ 000000000009b428     OpensslLib:v3_ocsp.obj
 0002:00028c38       ??_C@_0N@IBJOMEDL@?$CF?$CKscrlTime?3?5@ 000000000009b438     OpensslLib:v3_ocsp.obj
 0002:00028c48       ??_C@_0M@IHOINNJF@?$CF?$CKsIssuer?3?5@ 000000000009b448     OpensslLib:v3_ocsp.obj
 0002:00028c54       ??_C@_04NFEJKGEM@?6?$CF?$CKs@ 000000000009b454     OpensslLib:v3_ocsp.obj
 0002:00028c5c       ??_C@_03NLJIHOMM@?5?9?5@   000000000009b45c     OpensslLib:v3_ocsp.obj
 0002:00028c60       v3_akey_id                 000000000009b460     OpensslLib:v3_akey.obj
 0002:00028cc8       ??_C@_06KHDOHNKC@always@   000000000009b4c8     OpensslLib:v3_akey.obj
 0002:00028cd0       v3_ns_ia5_list             000000000009b4d0     OpensslLib:v3_ia5.obj
 0002:00029010       v3_delta_crl               000000000009b810     OpensslLib:v3_int.obj
 0002:00029080       v3_inhibit_anyp            000000000009b880     OpensslLib:v3_int.obj
 0002:000290f0       v3_crl_num                 000000000009b8f0     OpensslLib:v3_int.obj
 0002:00029160       v3_ext_admission           000000000009b960     OpensslLib:v3_admis.obj
 0002:000291c8       ??_C@_0BC@KHBCHCNJ@namingAuthorityId@ 000000000009b9c8     OpensslLib:v3_admis.obj
 0002:000291e0       ??_C@_0BD@DEIEGLEM@namingAuthorityUrl@ 000000000009b9e0     OpensslLib:v3_admis.obj
 0002:000291f8       ??_C@_0BE@NPIMHIBI@namingAuthorityText@ 000000000009b9f8     OpensslLib:v3_admis.obj
 0002:00029210       ??_C@_0BB@COJAOCFM@NAMING_AUTHORITY@ 000000000009ba10     OpensslLib:v3_admis.obj
 0002:00029228       ??_C@_0BA@DBBLIBJC@namingAuthority@ 000000000009ba28     OpensslLib:v3_admis.obj
 0002:00029238       ??_C@_0BA@JCIKJJCP@professionItems@ 000000000009ba38     OpensslLib:v3_admis.obj
 0002:00029248       ??_C@_0P@PBNEFCJO@professionOIDs@ 000000000009ba48     OpensslLib:v3_admis.obj
 0002:00029258       ??_C@_0BD@NJLNALHF@registrationNumber@ 000000000009ba58     OpensslLib:v3_admis.obj
 0002:00029270       ??_C@_0BC@EDMGMCCO@addProfessionInfo@ 000000000009ba70     OpensslLib:v3_admis.obj
 0002:00029288       ??_C@_0BA@KKEGAEAH@PROFESSION_INFO@ 000000000009ba88     OpensslLib:v3_admis.obj
 0002:00029298       ??_C@_0BD@GKCCDPCL@admissionAuthority@ 000000000009ba98     OpensslLib:v3_admis.obj
 0002:000292b0       ??_C@_0BA@KJOLGNIM@professionInfos@ 000000000009bab0     OpensslLib:v3_admis.obj
 0002:000292c0       ??_C@_0L@OIMBEHAN@ADMISSIONS@ 000000000009bac0     OpensslLib:v3_admis.obj
 0002:000292d0       ??_C@_0BF@FNBKMPAG@contentsOfAdmissions@ 000000000009bad0     OpensslLib:v3_admis.obj
 0002:000292e8       ??_C@_0BB@PBMIGONA@ADMISSION_SYNTAX@ 000000000009bae8     OpensslLib:v3_admis.obj
 0002:00029300       ??_C@_0BF@MPDFFBEA@?$CF?$CKsnamingAuthority?3?5@ 000000000009bb00     OpensslLib:v3_admis.obj
 0002:00029318       ??_C@_0BM@DCICMEAO@?$CF?$CKs?5?5admissionAuthorityId?3?5@ 000000000009bb18     OpensslLib:v3_admis.obj
 0002:00029334       ??_C@_01PKGAHCOL@?$CJ@     000000000009bb34     OpensslLib:v3_admis.obj
 0002:00029338       ??_C@_02GFKOMOKH@?5?$CI@   000000000009bb38     OpensslLib:v3_admis.obj
 0002:00029340       ??_C@_09MCJOGJJM@?$CFs?$CFs?$CFs?$CFs?6@ 000000000009bb40     OpensslLib:v3_admis.obj
 0002:00029350       ??_C@_0BL@DELGFPFK@?$CF?$CKs?5?5namingAuthorityText?3?5@ 000000000009bb50     OpensslLib:v3_admis.obj
 0002:00029370       ??_C@_0BK@OPCGIEEP@?$CF?$CKs?5?5namingAuthorityUrl?3?5@ 000000000009bb70     OpensslLib:v3_admis.obj
 0002:00029390       ??_C@_0BI@NKKBPCEB@?$CF?$CKsadmissionAuthority?3?6@ 000000000009bb90     OpensslLib:v3_admis.obj
 0002:000293a8       ??_C@_05EGGOJAEM@?$CF?$CKs?5?5@ 000000000009bba8     OpensslLib:v3_admis.obj
 0002:000293b0       ??_C@_0P@ONCDAKNH@?$CF?$CKsEntry?5?$CF0d?3?6@ 000000000009bbb0     OpensslLib:v3_admis.obj
 0002:000293c0       ??_C@_0BK@MGPHHOEM@?$CF?$CKs?5?5admissionAuthority?3?6@ 000000000009bbc0     OpensslLib:v3_admis.obj
 0002:000293e0       ??_C@_07BAKLHGB@?$CF?$CKs?5?5?5?5@ 000000000009bbe0     OpensslLib:v3_admis.obj
 0002:000293e8       ??_C@_0CB@JOPMCDOG@?$CF?$CKs?5?5Profession?5Info?5Entry?5?$CF0d?3@ 000000000009bbe8     OpensslLib:v3_admis.obj
 0002:00029410       ??_C@_0BM@PNLACIIE@?$CF?$CKs?5?5?5?5registrationNumber?3?5@ 000000000009bc10     OpensslLib:v3_admis.obj
 0002:00029430       ??_C@_0BG@COHLBKD@?$CF?$CKs?5?5?5?5Info?5Entries?3?6@ 000000000009bc30     OpensslLib:v3_admis.obj
 0002:00029448       ??_C@_09IECKBPIB@?$CF?$CKs?5?5?5?5?5?5@ 000000000009bc48     OpensslLib:v3_admis.obj
 0002:00029458       ??_C@_0BJ@KFOBDAG@?$CF?$CKs?5?5?5?5Profession?5OIDs?3?6@ 000000000009bc58     OpensslLib:v3_admis.obj
 0002:00029478       ??_C@_0BD@OELCPJIC@?$CF?$CKs?5?5?5?5?5?5?$CFs?$CFs?$CFs?$CFs?6@ 000000000009bc78     OpensslLib:v3_admis.obj
 0002:00029490       PROFESSION_INFO_it         000000000009bc90     OpensslLib:v3_admis.obj
 0002:00029520       ADMISSION_SYNTAX_it        000000000009bd20     OpensslLib:v3_admis.obj
 0002:00029550       ADMISSIONS_it              000000000009bd50     OpensslLib:v3_admis.obj
 0002:000296c0       NAMING_AUTHORITY_it        000000000009bec0     OpensslLib:v3_admis.obj
 0002:000296f0       v3_skey_id                 000000000009bef0     OpensslLib:v3_skey.obj
 0002:00029758       ??_C@_04OIJGJDKO@hash@     000000000009bf58     OpensslLib:v3_skey.obj
 0002:00029760       v3_crl_reason              000000000009bf60     OpensslLib:v3_enum.obj
 0002:000297c8       ??_C@_0M@NNPCGPMF@Unspecified@ 000000000009bfc8     OpensslLib:v3_enum.obj
 0002:000297d8       ??_C@_0M@MFMDLEDN@unspecified@ 000000000009bfd8     OpensslLib:v3_enum.obj
 0002:000297e8       ??_C@_0BA@GLPEKBIK@Remove?5From?5CRL@ 000000000009bfe8     OpensslLib:v3_enum.obj
 0002:000297f8       ??_C@_0O@BILLKPKO@removeFromCRL@ 000000000009bff8     OpensslLib:v3_enum.obj
 0002:00029810       v3_pkey_usage_period       000000000009c010     OpensslLib:v3_pku.obj
 0002:00029878       ??_C@_0BC@CCOKACDM@PKEY_USAGE_PERIOD@ 000000000009c078     OpensslLib:v3_pku.obj
 0002:00029890       ??_C@_0N@KGLJEEMK@Not?5Before?3?5@ 000000000009c090     OpensslLib:v3_pku.obj
 0002:000298a0       ??_C@_0M@FCHJLIHE@Not?5After?3?5@ 000000000009c0a0     OpensslLib:v3_pku.obj
 0002:000298f0       PKEY_USAGE_PERIOD_it       000000000009c0f0     OpensslLib:v3_pku.obj
 0002:00029920       v3_policy_mappings         000000000009c120     OpensslLib:v3_pmaps.obj
 0002:00029988       ??_C@_0BD@JILOPHFL@issuerDomainPolicy@ 000000000009c188     OpensslLib:v3_pmaps.obj
 0002:000299a0       ??_C@_0BE@FFIKMOKF@subjectDomainPolicy@ 000000000009c1a0     OpensslLib:v3_pmaps.obj
 0002:000299b8       ??_C@_0P@NLHMKCKF@POLICY_MAPPING@ 000000000009c1b8     OpensslLib:v3_pmaps.obj
 0002:000299c8       ??_C@_0BA@DHPBCFFC@POLICY_MAPPINGS@ 000000000009c1c8     OpensslLib:v3_pmaps.obj
 0002:00029a20       POLICY_MAPPINGS_it         000000000009c220     OpensslLib:v3_pmaps.obj
 0002:00029a50       POLICY_MAPPING_it          000000000009c250     OpensslLib:v3_pmaps.obj
 0002:00029aa0       v3_sxnet                   000000000009c2a0     OpensslLib:v3_sxnet.obj
 0002:00029b08       ??_C@_04LDDJGOBB@zone@     000000000009c308     OpensslLib:v3_sxnet.obj
 0002:00029b10       ??_C@_04CCHAHKJA@user@     000000000009c310     OpensslLib:v3_sxnet.obj
 0002:00029b18       ??_C@_07FLDOGLPN@SXNETID@  000000000009c318     OpensslLib:v3_sxnet.obj
 0002:00029b20       ??_C@_03NDFJNBKD@ids@      000000000009c320     OpensslLib:v3_sxnet.obj
 0002:00029b24       ??_C@_05BPAJFIHK@SXNET@    000000000009c324     OpensslLib:v3_sxnet.obj
 0002:00029b30       ??_C@_0BF@NMLBNADB@?6?$CF?$CKsZone?3?5?$CFs?0?5User?3?5@ 000000000009c330     OpensslLib:v3_sxnet.obj
 0002:00029b90       SXNETID_it                 000000000009c390     OpensslLib:v3_sxnet.obj
 0002:00029c00       SXNET_it                   000000000009c400     OpensslLib:v3_sxnet.obj
 0002:00029c30       v3_pci                     000000000009c430     OpensslLib:v3_pci.obj
 0002:00029c98       ??_C@_0BE@HDJEDONA@?$CF?$CKsPolicy?5Text?3?5?$CFs?6@ 000000000009c498     OpensslLib:v3_pci.obj
 0002:00029cb0       ??_C@_08JGCCIMAA@language@ 000000000009c4b0     OpensslLib:v3_pci.obj
 0002:00029cbc       ??_C@_04ODCMNEMO@hex?3@    000000000009c4bc     OpensslLib:v3_pci.obj
 0002:00029cc4       ??_C@_05BOPHDICO@file?3@   000000000009c4c4     OpensslLib:v3_pci.obj
 0002:00029ccc       ??_C@_05FHIGHPDA@text?3@   000000000009c4cc     OpensslLib:v3_pci.obj
 0002:00029ce0       v3_tls_feature             000000000009c4e0     OpensslLib:v3_tlsf.obj
 0002:00029d48       ??_C@_0M@HGHOPPFP@TLS_FEATURE@ 000000000009c548     OpensslLib:v3_tlsf.obj
 0002:00029d58       ??_C@_0P@NAKMKOPA@status_request@ 000000000009c558     OpensslLib:v3_tlsf.obj
 0002:00029d68       ??_C@_0BC@HEECFCMD@status_request_v2@ 000000000009c568     OpensslLib:v3_tlsf.obj
 0002:00029dd0       ??_C@_04JBGFELJA@tag?$DN@  000000000009c5d0     OpensslLib:asn1_gen.obj
 0002:00029dd8       ??_C@_05CCNLIHFO@ASCII@    000000000009c5d8     OpensslLib:asn1_gen.obj
 0002:00029de0       ??_C@_03IECIMIEG@HEX@      000000000009c5e0     OpensslLib:asn1_gen.obj
 0002:00029de8       ??_C@_07HMNLDFAL@BITLIST@  000000000009c5e8     OpensslLib:asn1_gen.obj
 0002:00029df0       ??_C@_05NALEHOPE@Char?$DN@ 000000000009c5f0     OpensslLib:asn1_gen.obj
 0002:00029df8       ??_C@_04PPJDIBFE@BOOL@     000000000009c5f8     OpensslLib:asn1_gen.obj
 0002:00029e00       ??_C@_03JMHEAPMO@INT@      000000000009c600     OpensslLib:asn1_gen.obj
 0002:00029e04       ??_C@_04PNKFCNMG@ENUM@     000000000009c604     OpensslLib:asn1_gen.obj
 0002:00029e0c       ??_C@_03PGJCFEMG@OID@      000000000009c60c     OpensslLib:asn1_gen.obj
 0002:00029e10       ??_C@_03JCIJEFNJ@UTC@      000000000009c610     OpensslLib:asn1_gen.obj
 0002:00029e18       ??_C@_07EECHABMP@GENTIME@  000000000009c618     OpensslLib:asn1_gen.obj
 0002:00029e20       ??_C@_03LBMHMDEB@OCT@      000000000009c620     OpensslLib:asn1_gen.obj
 0002:00029e28       ??_C@_0M@JIDALIGG@OCTETSTRING@ 000000000009c628     OpensslLib:asn1_gen.obj
 0002:00029e34       ??_C@_06GOEDGPII@BITSTR@   000000000009c634     OpensslLib:asn1_gen.obj
 0002:00029e40       ??_C@_09MBLGEDKL@BITSTRING@ 000000000009c640     OpensslLib:asn1_gen.obj
 0002:00029e4c       ??_C@_04CBEPCLMK@UNIV@     000000000009c64c     OpensslLib:asn1_gen.obj
 0002:00029e54       ??_C@_03OLMOBCBF@IA5@      000000000009c654     OpensslLib:asn1_gen.obj
 0002:00029e58       ??_C@_09OMDMMLJJ@PRINTABLE@ 000000000009c658     OpensslLib:asn1_gen.obj
 0002:00029e64       ??_C@_03HMGPCGIG@T61@      000000000009c664     OpensslLib:asn1_gen.obj
 0002:00029e68       ??_C@_0O@GENPGMAM@TELETEXSTRING@ 000000000009c668     OpensslLib:asn1_gen.obj
 0002:00029e78       ??_C@_0O@OIKLOOAP@GeneralString@ 000000000009c678     OpensslLib:asn1_gen.obj
 0002:00029e88       ??_C@_06GBOJAPHH@GENSTR@   000000000009c688     OpensslLib:asn1_gen.obj
 0002:00029e90       ??_C@_07DBOJJFHC@NUMERIC@  000000000009c690     OpensslLib:asn1_gen.obj
 0002:00029e98       ??_C@_03NCPCKDJB@SEQ@      000000000009c698     OpensslLib:asn1_gen.obj
 0002:00029e9c       ??_C@_03KKGFKKLA@EXP@      000000000009c69c     OpensslLib:asn1_gen.obj
 0002:00029ea0       ??_C@_08CNKBIFDO@EXPLICIT@ 000000000009c6a0     OpensslLib:asn1_gen.obj
 0002:00029eac       ??_C@_03PKFOHEJD@IMP@      000000000009c6ac     OpensslLib:asn1_gen.obj
 0002:00029eb0       ??_C@_08PPMOEJGF@IMPLICIT@ 000000000009c6b0     OpensslLib:asn1_gen.obj
 0002:00029ec0       ??_C@_07KIEILLID@OCTWRAP@  000000000009c6c0     OpensslLib:asn1_gen.obj
 0002:00029ec8       ??_C@_07LAEBDLGO@SEQWRAP@  000000000009c6c8     OpensslLib:asn1_gen.obj
 0002:00029ed0       ??_C@_07OAIMKKNN@SETWRAP@  000000000009c6d0     OpensslLib:asn1_gen.obj
 0002:00029ed8       ??_C@_07JHDNPBBM@BITWRAP@  000000000009c6d8     OpensslLib:asn1_gen.obj
 0002:00029ee0       ??_C@_04HPGCGPG@FORM@      000000000009c6e0     OpensslLib:asn1_gen.obj
 0002:00029ee8       ??_C@_06DPGELLJH@FORMAT@   000000000009c6e8     OpensslLib:asn1_gen.obj
 0002:00029ef0       ??_C@_07IOGEOOAA@string?$DN@ 000000000009c6f0     OpensslLib:asn1_gen.obj
 0002:00029ef8       ??_C@_03DNALGGBA@DIR@      000000000009c6f8     OpensslLib:asn1_gen.obj
 0002:0002a258       ??_C@_08KLAPILAK@SigEd448@ 000000000009ca58     OpensslLib:eddsa.obj
 0002:00031f30       ??_C@_05NJJIPCOC@?$CFs?50?6@ 00000000000a4730     OpensslLib:t_pkey.obj
 0002:00031f38       ??_C@_0BE@KHLFKPFC@?$CFs?5?$CFs?$CFlu?5?$CI?$CFs0x?$CFlx?$CJ?6@ 00000000000a4738     OpensslLib:t_pkey.obj
 0002:00031f50       ??_C@_0M@IBLDKCHK@?5?$CINegative?$CJ@ 00000000000a4750     OpensslLib:t_pkey.obj
 0002:00031f5c       ??_C@_05JMJKDBEJ@?$CFs?$CFs?6@ 00000000000a475c     OpensslLib:t_pkey.obj
 0002:00031ff0       curve448_point_identity    00000000000a47f0     OpensslLib:curve448.obj
 0002:00032130       ??_C@_0BI@DFFFIKFB@Generator?5?$CIcompressed?$CJ?3@ 00000000000a4930     OpensslLib:eck_prn.obj
 0002:00032148       ??_C@_0BK@DOCPEENO@Generator?5?$CIuncompressed?$CJ?3@ 00000000000a4948     OpensslLib:eck_prn.obj
 0002:00032168       ??_C@_0BE@FPCNHCIJ@Generator?5?$CIhybrid?$CJ?3@ 00000000000a4968     OpensslLib:eck_prn.obj
 0002:00032180       ??_C@_0N@JOFLCJFF@ASN1?5OID?3?5?$CFs@ 00000000000a4980     OpensslLib:eck_prn.obj
 0002:00032190       ??_C@_0BA@LNIECBHN@NIST?5CURVE?3?5?$CFs?6@ 00000000000a4990     OpensslLib:eck_prn.obj
 0002:000321a0       ??_C@_0BA@KNKNOIFH@Field?5Type?3?5?$CFs?6@ 00000000000a49a0     OpensslLib:eck_prn.obj
 0002:000321b0       ??_C@_0BA@ENMKKION@Basis?5Type?3?5?$CFs?6@ 00000000000a49b0     OpensslLib:eck_prn.obj
 0002:000321c0       ??_C@_0M@JDIPGLHE@Polynomial?3@ 00000000000a49c0     OpensslLib:eck_prn.obj
 0002:000321cc       ??_C@_06DBHHIIKM@Prime?3@  00000000000a49cc     OpensslLib:eck_prn.obj
 0002:000321d4       ??_C@_05GMFDOKMO@A?3?5?5?5@ 00000000000a49d4     OpensslLib:eck_prn.obj
 0002:000321dc       ??_C@_05OKMHJIGA@B?3?5?5?5@ 00000000000a49dc     OpensslLib:eck_prn.obj
 0002:000321e8       ??_C@_07KOGOKIFH@Order?3?5@ 00000000000a49e8     OpensslLib:eck_prn.obj
 0002:000321f0       ??_C@_0L@IEMHODML@Cofactor?3?5@ 00000000000a49f0     OpensslLib:eck_prn.obj
 0002:000321fc       ??_C@_05PDHKGGIM@Seed?3@   00000000000a49fc     OpensslLib:eck_prn.obj
 0002:00032204       ??_C@_02JPPHBJLD@?2?6@     00000000000a4a04     OpensslLib:f_int.obj
 0002:00032208       ??_C@_01JEJKBAGA@g@        00000000000a4a08     OpensslLib:dh_asn1.obj
 0002:0003220c       ??_C@_06IJDLPEM@length@    00000000000a4a0c     OpensslLib:dh_asn1.obj
 0002:00032218       ??_C@_08LKFDNFJ@DHparams@  00000000000a4a18     OpensslLib:dh_asn1.obj
 0002:00032228       ??_C@_07HDOCMLOI@counter@  00000000000a4a28     OpensslLib:dh_asn1.obj
 0002:00032230       ??_C@_0O@KANPBCM@int_dhvparams@ 00000000000a4a30     OpensslLib:dh_asn1.obj
 0002:00032240       ??_C@_01CBDEGOCN@j@        00000000000a4a40     OpensslLib:dh_asn1.obj
 0002:00032248       ??_C@_07JLLHOFNK@vparams@  00000000000a4a48     OpensslLib:dh_asn1.obj
 0002:00032250       ??_C@_0O@HMLHGNDO@int_dhx942_dh@ 00000000000a4a50     OpensslLib:dh_asn1.obj
 0002:00032330       DHparams_it                00000000000a4b30     OpensslLib:dh_asn1.obj
 0002:00034020       ??_C@_0GE@BFJKPFGM@?$FLOPENSSL_RAND_POOL?$FN?5NULL?5RandBu@ 00000000000a6820     OpensslLib:rand_pool.obj
 0002:00034088       ??_C@_0BL@BANKOLJL@RandBuffer?5?$CB?$DN?5?$CI?$CIvoid?5?$CK?$CJ?50?$CJ@ 00000000000a6888     OpensslLib:rand_pool.obj
 0002:000340a8       ??_C@_0DG@GIPNDECO@d?3?2edk2?2edk2?2CryptoPkg?2Library?2@ 00000000000a68a8     OpensslLib:rand_pool.obj
 0002:000340e8       ??_C@_03JFFFKLGJ@C1x@      00000000000a68e8     OpensslLib:sm2_crypt.obj
 0002:000340ec       ??_C@_03IMEOJKCI@C1y@      00000000000a68ec     OpensslLib:sm2_crypt.obj
 0002:000340f0       ??_C@_02IGAJHAEE@C3@       00000000000a68f0     OpensslLib:sm2_crypt.obj
 0002:000340f4       ??_C@_02JPBCEBAF@C2@       00000000000a68f4     OpensslLib:sm2_crypt.obj
 0002:000340f8       ??_C@_0P@HHMLELMD@SM2_Ciphertext@ 00000000000a68f8     OpensslLib:sm2_crypt.obj
 0002:00034190       SM2_Ciphertext_it          00000000000a6990     OpensslLib:sm2_crypt.obj
 0002:00035a40       curve448_scalar_zero       00000000000a8240     OpensslLib:scalar.obj
 0002:00035ac0       curve448_scalar_one        00000000000a82c0     OpensslLib:scalar.obj
 0002:0003da30       ??_C@_09OJPHJNPC@fips_mode@ 00000000000b0230     OpensslLib:evp_cnf.obj
 0002:0003da40       ??_C@_0M@HEHLDANB@alg_section@ 00000000000b0240     OpensslLib:evp_cnf.obj
 0002:0003da50       ??_C@_0N@DJMJOKGL@stbl_section@ 00000000000b0250     OpensslLib:asn_mstbl.obj
 0002:0003da60       ??_C@_03KLIPLJLL@min@      00000000000b0260     OpensslLib:asn_mstbl.obj
 0002:0003da64       ??_C@_04LFLEPBN@mask@      00000000000b0264     OpensslLib:asn_mstbl.obj
 0002:0003da6c       ??_C@_05GECEPKB@flags@     00000000000b026c     OpensslLib:asn_mstbl.obj
 0002:0003da74       ??_C@_06HCDOONEJ@nomask@   00000000000b0274     OpensslLib:asn_mstbl.obj
 0002:0003da7c       ??_C@_06KABKJMAI@field?$DN@ 00000000000b027c     OpensslLib:asn_mstbl.obj
 0002:0003da88       ??_C@_08IPPANOEC@ssl_conf@ 00000000000b0288     OpensslLib:conf_ssl.obj
 0002:0003da98       ??_C@_0M@HCKPEIO@oid_section@ 00000000000b0298     OpensslLib:asn_moid.obj
 0002:0003db70       _bignum_dh2048_224_q       00000000000b0370     OpensslLib:bn_dh.obj
 0002:0003db88       _bignum_dh2048_256_g       00000000000b0388     OpensslLib:bn_dh.obj
 0002:0003dba0       _bignum_dh1024_160_g       00000000000b03a0     OpensslLib:bn_dh.obj
 0002:0003dbb8       _bignum_dh2048_224_p       00000000000b03b8     OpensslLib:bn_dh.obj
 0002:0003dbd0       _bignum_dh2048_256_p       00000000000b03d0     OpensslLib:bn_dh.obj
 0002:0003dbe8       _bignum_dh2048_224_g       00000000000b03e8     OpensslLib:bn_dh.obj
 0002:0003dc00       _bignum_dh1024_160_p       00000000000b0400     OpensslLib:bn_dh.obj
 0002:0003dc18       _bignum_dh2048_256_q       00000000000b0418     OpensslLib:bn_dh.obj
 0002:0003dc30       _bignum_dh1024_160_q       00000000000b0430     OpensslLib:bn_dh.obj
 0002:0003dc48       _bignum_ffdhe4096_p        00000000000b0448     OpensslLib:bn_dh.obj
 0002:0003dc60       _bignum_ffdhe8192_p        00000000000b0460     OpensslLib:bn_dh.obj
 0002:0003dc78       _bignum_ffdhe2048_p        00000000000b0478     OpensslLib:bn_dh.obj
 0002:0003dc90       _bignum_const_2            00000000000b0490     OpensslLib:bn_dh.obj
 0002:0003dca8       _bignum_ffdhe6144_p        00000000000b04a8     OpensslLib:bn_dh.obj
 0002:0003dcc0       _bignum_ffdhe3072_p        00000000000b04c0     OpensslLib:bn_dh.obj
 0002:0003edc0       CumulativeDays             00000000000b15c0     RuntimeCryptLib:TimerWrapper.obj
 0002:0003eea0       ??_C@_0BN@FHPHCJAL@BufferToSort?5?$CB?$DN?5?$CI?$CIvoid?5?$CK?$CJ?50?$CJ@ 00000000000b16a0     RuntimeCryptLib:CrtWrapper.obj
 0002:0003eec0       ??_C@_0EB@CPKLNMEF@d?3?2edk2?2edk2?2CryptoPkg?2Library?2@ 00000000000b16c0     RuntimeCryptLib:CrtWrapper.obj
 0002:0003ef08       ??_C@_0CA@DJEMEKLN@CompareFunction?5?$CB?$DN?5?$CI?$CIvoid?5?$CK?$CJ?50?$CJ@ 00000000000b1708     RuntimeCryptLib:CrtWrapper.obj
 0002:0003ef28       ??_C@_0BD@IPPNMEE@s1?5?$CB?$DN?5?$CI?$CIvoid?5?$CK?$CJ?50?$CJ@ 00000000000b1728     RuntimeCryptLib:CrtWrapper.obj
 0002:0003ef40       ??_C@_0BD@OCHJABCG@s2?5?$CB?$DN?5?$CI?$CIvoid?5?$CK?$CJ?50?$CJ@ 00000000000b1740     RuntimeCryptLib:CrtWrapper.obj
 0002:0003ef58       ??_C@_0BF@MBPLIJNB@base?5?$CB?$DN?5?$CI?$CIvoid?5?$CK?$CJ?50?$CJ@ 00000000000b1758     RuntimeCryptLib:CrtWrapper.obj
 0002:0003ef70       ??_C@_0BI@BKNMBGLA@compare?5?$CB?$DN?5?$CI?$CIvoid?5?$CK?$CJ?50?$CJ@ 00000000000b1770     RuntimeCryptLib:CrtWrapper.obj
 0002:0003ef90       ??_C@_0EC@GJLMDALB@d?3?2edk2?2edk2?2MdePkg?2Library?2Bas@ 00000000000b1790     BaseMemoryLibRepStr:ScanMem8Wrapper.obj
 0002:0003efd8       ??_C@_0DN@NJMGBLNP@d?3?2edk2?2edk2?2MdePkg?2Library?2Bas@ 00000000000b17d8     BaseRngLibTimerLib:RngLibTimer.obj
 0002:0003f018       ??_C@_0BF@NGOMKDDB@Rand?5?$CB?$DN?5?$CI?$CIvoid?5?$CK?$CJ?50?$CJ@ 00000000000b1818     BaseRngLibTimerLib:RngLibTimer.obj
 0002:0003f030       __real@4020000000000000    00000000000b1830     OpensslLib:drbg_lib.obj
 0002:0003f038       __real@43e0000000000000    00000000000b1838     OpensslLib:drbg_lib.obj
 0002:0003f040       __xmm@00000003000000020000000100000000 00000000000b1840     OpensslLib:f_generic.obj
 0002:0003f050       __xmm@00000008000000080000000800000008 00000000000b1850     OpensslLib:f_generic.obj
 0002:0003f060       __xmm@36363636363636363636363636363636 00000000000b1860     OpensslLib:hmac.obj
 0002:0003f070       __xmm@5c5c5c5c5c5c5c5c5c5c5c5c5c5c5c5c 00000000000b1870     OpensslLib:hmac.obj
 0002:0003f0e4       __volatile_metadata        00000000000b18e4     <linker-defined>
 0003:00000000       _fltused                   00000000000b1fc0     BaseIntrinsicLib:MemoryIntrinsics.obj
 0003:00000008       gEfiVendorKeysNvGuid       00000000000b1fc8     VariableRuntimeDxe:AutoGen.obj
 0003:00000018       gEfiGlobalVariableGuid     00000000000b1fd8     VariableRuntimeDxe:AutoGen.obj
 0003:00000028       gEdkiiVarErrorFlagGuid     00000000000b1fe8     VariableRuntimeDxe:AutoGen.obj
 0003:00000038       gEfiFirmwareVolumeBlockProtocolGuid 00000000000b1ff8     VariableRuntimeDxe:AutoGen.obj
 0003:00000048       gEfiSecureBootEnableDisableGuid 00000000000b2008     VariableRuntimeDxe:AutoGen.obj
 0003:00000058       gEfiEventReadyToBootGuid   00000000000b2018     VariableRuntimeDxe:AutoGen.obj
 0003:00000068       gEfiSystemNvDataFvGuid     00000000000b2028     VariableRuntimeDxe:AutoGen.obj
 0003:00000078       gEfiHardwareErrorVariableGuid 00000000000b2038     VariableRuntimeDxe:AutoGen.obj
 0003:00000088       gEfiImageSecurityDatabaseGuid 00000000000b2048     VariableRuntimeDxe:AutoGen.obj
 0003:00000098       gEfiVariableWriteArchProtocolGuid 00000000000b2058     VariableRuntimeDxe:AutoGen.obj
 0003:000000a8       gEdkiiVariableLockProtocolGuid 00000000000b2068     VariableRuntimeDxe:AutoGen.obj
 0003:000000b8       gPcdProtocolGuid           00000000000b2078     VariableRuntimeDxe:AutoGen.obj
 0003:000000c8       gEfiCertPkcs7Guid          00000000000b2088     VariableRuntimeDxe:AutoGen.obj
 0003:000000d8       gEfiVariableGuid           00000000000b2098     VariableRuntimeDxe:AutoGen.obj
 0003:000000e8       gEfiCcMeasurementProtocolGuid 00000000000b20a8     VariableRuntimeDxe:AutoGen.obj
 0003:000000f8       gEfiCustomModeEnableGuid   00000000000b20b8     VariableRuntimeDxe:AutoGen.obj
 0003:00000108       gEfiFaultTolerantWriteProtocolGuid 00000000000b20c8     VariableRuntimeDxe:AutoGen.obj
 0003:00000118       gEfiMemoryOverwriteControlDataGuid 00000000000b20d8     VariableRuntimeDxe:AutoGen.obj
 0003:00000128       gEfiAuthenticatedVariableGuid 00000000000b20e8     VariableRuntimeDxe:AutoGen.obj
 0003:00000138       gEfiMemoryOverwriteRequestControlLockGuid 00000000000b20f8     VariableRuntimeDxe:AutoGen.obj
 0003:00000148       gEfiCertX509Guid           00000000000b2108     VariableRuntimeDxe:AutoGen.obj
 0003:00000158       gEfiDevicePathUtilitiesProtocolGuid 00000000000b2118     VariableRuntimeDxe:AutoGen.obj
 0003:00000168       gEdkiiFaultTolerantWriteGuid 00000000000b2128     VariableRuntimeDxe:AutoGen.obj
 0003:00000178       gEfiTcg2ProtocolGuid       00000000000b2138     VariableRuntimeDxe:AutoGen.obj
 0003:00000188       gEfiHobListGuid            00000000000b2148     VariableRuntimeDxe:AutoGen.obj
 0003:00000198       gEfiCertDbGuid             00000000000b2158     VariableRuntimeDxe:AutoGen.obj
 0003:000001a8       gEfiTcgProtocolGuid        00000000000b2168     VariableRuntimeDxe:AutoGen.obj
 0003:000001b8       gEdkiiVarCheckProtocolGuid 00000000000b2178     VariableRuntimeDxe:AutoGen.obj
 0003:000001c8       gEfiEndOfDxeEventGroupGuid 00000000000b2188     VariableRuntimeDxe:AutoGen.obj
 0003:000001d8       gEfiEventVirtualAddressChangeGuid 00000000000b2198     VariableRuntimeDxe:AutoGen.obj
 0003:000001e8       gEfiDxeServicesTableGuid   00000000000b21a8     VariableRuntimeDxe:AutoGen.obj
 0003:000001f8       gEdkiiVariablePolicyProtocolGuid 00000000000b21b8     VariableRuntimeDxe:AutoGen.obj
 0003:00000208       gEfiVariableArchProtocolGuid 00000000000b21c8     VariableRuntimeDxe:AutoGen.obj
 0003:00000218       mVariableLock              00000000000b21d8     VariableRuntimeDxe:VariableDxe.obj
 0003:00000220       mVarCheck                  00000000000b21e0     VariableRuntimeDxe:VariableDxe.obj
 0003:00000238       mVariablePolicyProtocol    00000000000b21f8     VariableRuntimeDxe:VariableDxe.obj
 0003:00000270       mVariableEntryProperty     00000000000b2230     VariableRuntimeDxe:Variable.obj
 0003:00000298       mCurrentBootVarErrFlag     00000000000b2258     VariableRuntimeDxe:Variable.obj
 0003:000002a0       mAuthContextIn             00000000000b2260     VariableRuntimeDxe:Variable.obj
 0003:000002f0       mVariableType              00000000000b22b0     VariableRuntimeDxe:Measurement.obj
 0003:00000350       mVarCheckVariableWithWildcardName 00000000000b2310     VarCheckLib:VarCheckLib.obj
 0003:00000440       mAuthVarEntry              00000000000b2400     AuthVariableLib:AuthVariableLib.obj
 0003:00000510       mSignatureSupport          00000000000b24d0     AuthVariableLib:AuthVariableLib.obj
 0003:00000550       mSupportSigItem            00000000000b2510     AuthVariableLib:AuthService.obj
 0003:00000670       mHwErrRecVariable          00000000000b2630     VarCheckUefiLib:VarCheckUefiLibNullClass.obj
 0003:000006a0       mGlobalVariableList        00000000000b2660     VarCheckUefiLib:VarCheckUefiLibNullClass.obj
 0003:00000b80       mImageSecurityVariableList 00000000000b2b40     VarCheckUefiLib:VarCheckUefiLibNullClass.obj
 0003:00000c00       mGlobalVariableList2       00000000000b2bc0     VarCheckUefiLib:VarCheckUefiLibNullClass.obj
 0003:00000cc8       mOidValue                  00000000000b2c88     RuntimeCryptLib:CryptPkcs7VerifyCommon.obj
 0003:000014d8       rand_meth                  00000000000b3498     OpensslLib:drbg_lib.obj
 0003:00001840       mVarCheckAddressPointer    00000000000b3800     VariableRuntimeDxe:VariableDxe.obj
 0003:00001848       mHandle                    00000000000b3808     VariableRuntimeDxe:VariableDxe.obj
 0003:00001850       mVarCheckAddressPointerCount 00000000000b3810     VariableRuntimeDxe:VariableDxe.obj
 0003:00001858       mVirtualAddressChangeEvent 00000000000b3818     VariableRuntimeDxe:VariableDxe.obj
 0003:00001860       mFtwRegistration           00000000000b3820     VariableRuntimeDxe:VariableDxe.obj
 0003:00001868       mEndOfDxe                  00000000000b3828     VariableRuntimeDxe:Variable.obj
 0003:00001870       mNvFvHeaderCache           00000000000b3830     VariableRuntimeDxe:Variable.obj
 0003:00001878       mNvVariableCache           00000000000b3838     VariableRuntimeDxe:Variable.obj
 0003:00001880       mSecureBootVarData         00000000000b3840     VariableRuntimeDxe:Measurement.obj
 0003:00001888       mSecureBootVarDataSize     00000000000b3848     VariableRuntimeDxe:Measurement.obj
 0003:00001890       mPcd                       00000000000b3850     DxePcdLib:DxePcdLib.obj
 0003:00001898       gST                        00000000000b3858     UefiBootServicesTableLib:UefiBootServicesTableLib.obj
 0003:000018a0       gBS                        00000000000b3860     UefiBootServicesTableLib:UefiBootServicesTableLib.obj
 0003:000018a8       gImageHandle               00000000000b3868     UefiBootServicesTableLib:UefiBootServicesTableLib.obj
 0003:000018b0       gRT                        00000000000b3870     UefiRuntimeServicesTableLib:UefiRuntimeServicesTableLib.obj
 0003:000018b8       mDevicePathLibDevicePathUtilities 00000000000b3878     UefiDevicePathLibDevicePathProtocol:UefiDevicePathLib.obj
 0003:000018c0       mRTPageTable               00000000000b3880     RuntimeCryptLib:RuntimeMemAllocation.obj
 0003:000018c8       mGetVariableHelper         00000000000b3888     VariablePolicyLibRuntimeDxe:VariablePolicyLib.obj
 0003:000018d8       mPolicyTable               00000000000b3898     VariablePolicyLibRuntimeDxe:VariablePolicyLib.obj
 0003:000018f8       mVarCheckLibEndOfDxeCallback 00000000000b38b8     VarCheckLib:VarCheckLib.obj
 0003:00001900       mVarCheckLibAddressPointerMaxCount 00000000000b38c0     VarCheckLib:VarCheckLib.obj
 0003:00001908       mMaxNumberOfVarCheckVariable 00000000000b38c8     VarCheckLib:VarCheckLib.obj
 0003:00001910       mVarCheckLibAddressPointer 00000000000b38d0     VarCheckLib:VarCheckLib.obj
 0003:00001918       mVarCheckLibEndOfDxe       00000000000b38d8     VarCheckLib:VarCheckLib.obj
 0003:00001920       mVarCheckHandlerTable      00000000000b38e0     VarCheckLib:VarCheckLib.obj
 0003:00001928       mNumberOfVarCheckHandler   00000000000b38e8     VarCheckLib:VarCheckLib.obj
 0003:00001930       mVarCheckLibAddressPointerCount 00000000000b38f0     VarCheckLib:VarCheckLib.obj
 0003:00001938       mVarCheckLibEndOfDxeCallbackMaxCount 00000000000b38f8     VarCheckLib:VarCheckLib.obj
 0003:00001940       mNumberOfVarCheckVariable  00000000000b3900     VarCheckLib:VarCheckLib.obj
 0003:00001948       mVarCheckVariableTable     00000000000b3908     VarCheckLib:VarCheckLib.obj
 0003:00001950       mMaxNumberOfVarCheckHandler 00000000000b3910     VarCheckLib:VarCheckLib.obj
 0003:00001958       mVarCheckLibEndOfDxeCallbackCount 00000000000b3918     VarCheckLib:VarCheckLib.obj
 0003:00001960       mEfiAtRuntime              00000000000b3920     UefiRuntimeLib:RuntimeLib.obj
 0003:00001968       gDS                        00000000000b3928     DxeServicesTableLib:DxeServicesTableLib.obj
 0003:00001970       mHobList                   00000000000b3930     DxeHobLib:HobLib.obj
 0003:00001978       mAuthVarLibContextIn       00000000000b3938     AuthVariableLib:AuthVariableLib.obj
 0003:00001980       mHashCtx                   00000000000b3940     AuthVariableLib:AuthVariableLib.obj
 0003:00001988       gParity                    00000000000b3948     PcAtSerialPortLib:SerialPortLib.obj
 0003:00001989       gBreakSet                  00000000000b3949     PcAtSerialPortLib:SerialPortLib.obj
 0003:00001a98       errno                      00000000000b3a58     RuntimeCryptLib:CrtWrapper.obj
 0003:00002460       mAuthVarAddressPointer     00000000000b4420     <common>
 0003:000024a8       mCertDbStore               00000000000b4468     <common>
 0003:000024b0       mMaxCertDbSize             00000000000b4470     <common>
 0003:000024b4       mVendorKeyState            00000000000b4474     <common>
 0003:000024b8       mPlatformMode              00000000000b4478     <common>
 0003:000024c0       mEfiVirtualNotifyEvent     00000000000b4480     <common>
 0003:000024c8       mInternalRT                00000000000b4488     <common>
 0003:000024d0       mEfiExitBootServicesEvent  00000000000b4490     <common>
 0003:000024d8       mVariableModuleGlobal      00000000000b4498     <common>
 0003:000024e0       mAuthContextOut            00000000000b44a0     <common>

 entry point at        0001:000001a8

 Static symbols

 0001:0000001a       InternalMemCopyMem.0       00000000000002da     BaseMemoryLibRepStr:CopyMem.obj
 0001:0000002a       @CopyBackward              00000000000002ea     BaseMemoryLibRepStr:CopyMem.obj
 0001:00000033       @CopyBytes                 00000000000002f3     BaseMemoryLibRepStr:CopyMem.obj
 0001:000000ff       AsmCpuid.0                 00000000000003bf     BaseLib:CpuId.obj
 0001:00000104       AsmCpuid.1                 00000000000003c4     BaseLib:CpuId.obj
 0001:0000010b       AsmCpuid.2                 00000000000003cb     BaseLib:CpuId.obj
 0001:00000114       AsmCpuid.3                 00000000000003d4     BaseLib:CpuId.obj
 0001:000082a8       IsValidVariablePolicyStructure 0000000000008568 f   VariablePolicyLibRuntimeDxe:VariablePolicyLib.obj
 0001:00008370       GetBestPolicyMatch         0000000000008630 f   VariablePolicyLibRuntimeDxe:VariablePolicyLib.obj
 0001:000088e4       VariablePolicyLibVirtualAddressCallback 0000000000008ba4 f   VariablePolicyLibRuntimeDxe:VariablePolicyExtraInitRuntimeDxe.obj
 0001:00009238       Tpm12MeasureAndLogData     00000000000094f8 f   DxeTpmMeasurementLib:DxeTpmMeasurementLib.obj
 0001:00009320       Tpm20MeasureAndLogData     00000000000095e0 f   DxeTpmMeasurementLib:DxeTpmMeasurementLib.obj
 0001:000093ec       CcMeasureAndLogData        00000000000096ac f   DxeTpmMeasurementLib:DxeTpmMeasurementLib.obj
 0001:0000df40       InternalX509GetNIDName     000000000000e200 f   RuntimeCryptLib:CryptX509.obj
 0001:0000eadc       sha256_block_data_order    000000000000ed9c f   OpensslLib:sha256.obj
 0001:0000edf4       null_callback              000000000000f0b4 f   OpensslLib:x509_vfy.obj
 0001:0000edf8       verify_cb_cert             000000000000f0b8 f   OpensslLib:x509_vfy.obj
 0001:0000ee48       check_auth_level           000000000000f108 f   OpensslLib:x509_vfy.obj
 0001:0000efb4       verify_chain               000000000000f274 f   OpensslLib:x509_vfy.obj
 0001:0000f214       find_issuer                000000000000f4d4 f   OpensslLib:x509_vfy.obj
 0001:0000f344       check_issued               000000000000f604 f   OpensslLib:x509_vfy.obj
 0001:0000f360       check_chain_extensions     000000000000f620 f   OpensslLib:x509_vfy.obj
 0001:0000f70c       check_name_constraints     000000000000f9cc f   OpensslLib:x509_vfy.obj
 0001:0000fa08       check_id_error             000000000000fcc8 f   OpensslLib:x509_vfy.obj
 0001:0000fa54       check_hosts                000000000000fd14 f   OpensslLib:x509_vfy.obj
 0001:0000fb50       check_id                   000000000000fe10 f   OpensslLib:x509_vfy.obj
 0001:0000fc98       check_trust                000000000000ff58 f   OpensslLib:x509_vfy.obj
 0001:0000ff24       check_revocation           00000000000101e4 f   OpensslLib:x509_vfy.obj
 0001:0000ffa0       check_cert                 0000000000010260 f   OpensslLib:x509_vfy.obj
 0001:000101f4       check_crl_time             00000000000104b4 f   OpensslLib:x509_vfy.obj
 0001:000102ec       get_crl_sk                 00000000000105ac f   OpensslLib:x509_vfy.obj
 0001:00010654       crl_extension_match        0000000000010914 f   OpensslLib:x509_vfy.obj
 0001:00010754       crl_akid_check             0000000000010a14 f   OpensslLib:x509_vfy.obj
 0001:000108e0       check_crl_path             0000000000010ba0 f   OpensslLib:x509_vfy.obj
 0001:000109e8       idp_check_dp               0000000000010ca8 f   OpensslLib:x509_vfy.obj
 0001:00010cd0       crl_crldp_check            0000000000010f90 f   OpensslLib:x509_vfy.obj
 0001:00010e30       check_crl                  00000000000110f0 f   OpensslLib:x509_vfy.obj
 0001:000110e4       cert_crl                   00000000000113a4 f   OpensslLib:x509_vfy.obj
 0001:00011190       check_policy               0000000000011450 f   OpensslLib:x509_vfy.obj
 0001:00011430       internal_verify            00000000000116f0 f   OpensslLib:x509_vfy.obj
 0001:00011c30       dane_match                 0000000000011ef0 f   OpensslLib:x509_vfy.obj
 0001:00011f54       check_dane_issuer          0000000000012214 f   OpensslLib:x509_vfy.obj
 0001:00011fd0       check_dane_pkeys           0000000000012290 f   OpensslLib:x509_vfy.obj
 0001:00012124       check_leaf_suiteb          00000000000123e4 f   OpensslLib:x509_vfy.obj
 0001:000121cc       dane_verify                000000000001248c f   OpensslLib:x509_vfy.obj
 0001:00012308       build_chain                00000000000125c8 f   OpensslLib:x509_vfy.obj
 0001:00012d30       check_key_level            0000000000012ff0 f   OpensslLib:x509_vfy.obj
 0001:00012db0       x509_cb                    0000000000013070 f   OpensslLib:x_x509.obj
 0001:00013120       sk_reserve                 00000000000133e0 f   OpensslLib:stack.obj
 0001:0001330c       internal_delete            00000000000135cc f   OpensslLib:stack.obj
 0001:00013360       internal_find              0000000000013620 f   OpensslLib:stack.obj
 0001:000134c4       init                       0000000000013784 f   OpensslLib:m_sha1.obj
 0001:000134d0       update                     0000000000013790 f   OpensslLib:m_sha1.obj
 0001:000134dc       final                      000000000001379c f   OpensslLib:m_sha1.obj
 0001:000134ec       ctrl                       00000000000137ac f   OpensslLib:m_sha1.obj
 0001:00013600       init224                    00000000000138c0 f   OpensslLib:m_sha1.obj
 0001:0001360c       update224                  00000000000138cc f   OpensslLib:m_sha1.obj
 0001:0001360c       update256                  00000000000138cc f   OpensslLib:m_sha1.obj
 0001:00013618       final224                   00000000000138d8 f   OpensslLib:m_sha1.obj
 0001:00013618       final256                   00000000000138d8 f   OpensslLib:m_sha1.obj
 0001:00013628       init256                    00000000000138e8 f   OpensslLib:m_sha1.obj
 0001:00013634       init512_224                00000000000138f4 f   OpensslLib:m_sha1.obj
 0001:000136c8       init512_256                0000000000013988 f   OpensslLib:m_sha1.obj
 0001:0001375c       init384                    0000000000013a1c f   OpensslLib:m_sha1.obj
 0001:00013768       update384                  0000000000013a28 f   OpensslLib:m_sha1.obj
 0001:00013768       update512                  0000000000013a28 f   OpensslLib:m_sha1.obj
 0001:00013774       final384                   0000000000013a34 f   OpensslLib:m_sha1.obj
 0001:00013774       final512                   0000000000013a34 f   OpensslLib:m_sha1.obj
 0001:00013784       init512                    0000000000013a44 f   OpensslLib:m_sha1.obj
 0001:000138fc       pkey_set_type              0000000000013bbc f   OpensslLib:p_lib.obj
 0001:00013c18       x509_name_ex_new           0000000000013ed8 f   OpensslLib:x_name.obj
 0001:00013cb0       x509_name_ex_free          0000000000013f70 f   OpensslLib:x_name.obj
 0001:00013d08       local_sk_X509_NAME_ENTRY_free 0000000000013fc8 f   OpensslLib:x_name.obj
 0001:00013d30       local_sk_X509_NAME_ENTRY_pop_free 0000000000013ff0 f   OpensslLib:x_name.obj
 0001:00013d3c       x509_name_ex_d2i           0000000000013ffc f   OpensslLib:x_name.obj
 0001:00013fe4       x509_name_ex_i2d           00000000000142a4 f   OpensslLib:x_name.obj
 0001:00014048       x509_name_encode           0000000000014308 f   OpensslLib:x_name.obj
 0001:000141d8       x509_name_ex_print         0000000000014498 f   OpensslLib:x_name.obj
 0001:00014220       x509_name_canon            00000000000144e0 f   OpensslLib:x_name.obj
 0001:00014424       asn1_string_canon          00000000000146e4 f   OpensslLib:x_name.obj
 0001:0001455c       i2d_name_canon             000000000001481c f   OpensslLib:x_name.obj
 0001:00014c6c       init                       0000000000014f2c f   OpensslLib:m_md5.obj
 0001:00014cac       update                     0000000000014f6c f   OpensslLib:m_md5.obj
 0001:00014cb8       final                      0000000000014f78 f   OpensslLib:m_md5.obj
 0001:00014e7c       check_suite_b              000000000001513c f   OpensslLib:x509_cmp.obj
 0001:000150a0       x509_object_cmp            0000000000015360 f   OpensslLib:x509_lu.obj
 0001:000154c0       x509_store_add             0000000000015780 f   OpensslLib:x509_lu.obj
 0001:000155d8       x509_object_idx_cnt        0000000000015898 f   OpensslLib:x509_lu.obj
 0001:00016390       send_bio_chars             0000000000016650 f   OpensslLib:a_strex.obj
 0001:000163cc       do_esc_char                000000000001668c f   OpensslLib:a_strex.obj
 0001:0001654c       do_buf                     000000000001680c f   OpensslLib:a_strex.obj
 0001:00016778       do_hex_dump                0000000000016a38 f   OpensslLib:a_strex.obj
 0001:00016804       do_dump                    0000000000016ac4 f   OpensslLib:a_strex.obj
 0001:00016928       do_print_ex                0000000000016be8 f   OpensslLib:a_strex.obj
 0001:00016b28       do_indent                  0000000000016de8 f   OpensslLib:a_strex.obj
 0001:00016b94       do_name_ex                 0000000000016e54 f   OpensslLib:a_strex.obj
 0001:00016fd0       rsa_cb                     0000000000017290 f   OpensslLib:rsa_asn1.obj
 0001:00017044       rsa_pss_cb                 0000000000017304 f   OpensslLib:rsa_asn1.obj
 0001:00017104       mem_init                   00000000000173c4 f   OpensslLib:bss_mem.obj
 0001:00017198       mem_new                    0000000000017458 f   OpensslLib:bss_mem.obj
 0001:000171a0       mem_free                   0000000000017460 f   OpensslLib:bss_mem.obj
 0001:000171e0       mem_buf_free               00000000000174a0 f   OpensslLib:bss_mem.obj
 0001:00017270       mem_buf_sync               0000000000017530 f   OpensslLib:bss_mem.obj
 0001:000172cc       mem_read                   000000000001758c f   OpensslLib:bss_mem.obj
 0001:0001735c       mem_write                  000000000001761c f   OpensslLib:bss_mem.obj
 0001:00017424       mem_ctrl                   00000000000176e4 f   OpensslLib:bss_mem.obj
 0001:00017598       mem_gets                   0000000000017858 f   OpensslLib:bss_mem.obj
 0001:00017614       mem_puts                   00000000000178d4 f   OpensslLib:bss_mem.obj
 0001:00017640       bio_call_callback          0000000000017900 f   OpensslLib:bio_lib.obj
 0001:000178c4       bio_read_intern            0000000000017b84 f   OpensslLib:bio_lib.obj
 0001:000179f0       bio_write_intern           0000000000017cb0 f   OpensslLib:bio_lib.obj
 0001:000183fc       pk7_cb                     00000000000186bc f   OpensslLib:pk7_asn1.obj
 0001:00018468       si_cb                      0000000000018728 f   OpensslLib:pk7_asn1.obj
 0001:00018488       ri_cb                      0000000000018748 f   OpensslLib:pk7_asn1.obj
 0001:000184a8       o_names_init_ossl_         0000000000018768 f   OpensslLib:o_names.obj
 0001:00018500       obj_name_cmp               00000000000187c0 f   OpensslLib:o_names.obj
 0001:00018550       obj_name_hash              0000000000018810 f   OpensslLib:o_names.obj
 0001:000187d4       sn_cmp_BSEARCH_CMP_FN      0000000000018a94 f   OpensslLib:obj_dat.obj
 0001:000187f0       ln_cmp_BSEARCH_CMP_FN      0000000000018ab0 f   OpensslLib:obj_dat.obj
 0001:00018810       added_obj_hash             0000000000018ad0 f   OpensslLib:obj_dat.obj
 0001:000188d4       added_obj_cmp              0000000000018b94 f   OpensslLib:obj_dat.obj
 0001:00018c98       obj_cmp_BSEARCH_CMP_FN     0000000000018f58 f   OpensslLib:obj_dat.obj
 0001:00019618       bn_free_d                  00000000000198d8 f   OpensslLib:bn_lib.obj
 0001:00019a48       bn2binpad                  0000000000019d08 f   OpensslLib:bn_lib.obj
 0001:0001a16c       encode_pkcs1               000000000001a42c f   OpensslLib:rsa_sign.obj
 0001:0001a70c       leap_year                  000000000001a9cc f   OpensslLib:a_time.obj
 0001:0001a76c       determine_days             000000000001aa2c f   OpensslLib:a_time.obj
 0001:0001b174       bignum_to_string           000000000001b434 f   OpensslLib:v3_utl.obj
 0001:0001b814       strip_spaces               000000000001bad4 f   OpensslLib:v3_utl.obj
 0001:0001b8f4       equal_nocase               000000000001bbb4 f   OpensslLib:v3_utl.obj
 0001:0001b978       equal_case                 000000000001bc38 f   OpensslLib:v3_utl.obj
 0001:0001b9dc       equal_email                000000000001bc9c f   OpensslLib:v3_utl.obj
 0001:0001ba7c       wildcard_match             000000000001bd3c f   OpensslLib:v3_utl.obj
 0001:0001bbac       valid_star                 000000000001be6c f   OpensslLib:v3_utl.obj
 0001:0001bd00       equal_wildcard             000000000001bfc0 f   OpensslLib:v3_utl.obj
 0001:0001bda4       do_check_string            000000000001c064 f   OpensslLib:v3_utl.obj
 0001:0001bec8       do_x509_check              000000000001c188 f   OpensslLib:v3_utl.obj
 0001:0001c218       ipv4_from_asc              000000000001c4d8 f   OpensslLib:v3_utl.obj
 0001:0001c29c       ipv6_from_asc              000000000001c55c f   OpensslLib:v3_utl.obj
 0001:0001c3a8       ipv6_cb                    000000000001c668 f   OpensslLib:v3_utl.obj
 0001:0001c598       ERR_STATE_free             000000000001c858 f   OpensslLib:err.obj
 0001:0001c78c       get_error_values           000000000001ca4c f   OpensslLib:err.obj
 0001:0001c92c       err_do_init_ossl_          000000000001cbec f   OpensslLib:err.obj
 0001:0001ca5c       err_set_error_data_int     000000000001cd1c f   OpensslLib:err.obj
 0001:0001ced4       table_cmp_BSEARCH_CMP_FN   000000000001d194 f   OpensslLib:a_strnid.obj
 0001:0001ced4       sig_cmp_BSEARCH_CMP_FN     000000000001d194 f   OpensslLib:obj_xref.obj
 0001:0001ced4       nid_cmp_BSEARCH_CMP_FN     000000000001d194 f   OpensslLib:v3_purp.obj
 0001:0001cedc       check_sig_alg_match        000000000001d19c f   OpensslLib:v3_purp.obj
 0001:0001cf94       x509v3_cache_extensions    000000000001d254 f   OpensslLib:v3_purp.obj
 0001:0001d6d8       check_ca                   000000000001d998 f   OpensslLib:v3_purp.obj
 0001:0001d738       check_purpose_ssl_client   000000000001d9f8 f   OpensslLib:v3_purp.obj
 0001:0001d7a8       check_purpose_ssl_server   000000000001da68 f   OpensslLib:v3_purp.obj
 0001:0001d818       check_purpose_ns_ssl_server 000000000001dad8 f   OpensslLib:v3_purp.obj
 0001:0001d854       purpose_smime              000000000001db14 f   OpensslLib:v3_purp.obj
 0001:0001d8b0       check_purpose_smime_sign   000000000001db70 f   OpensslLib:v3_purp.obj
 0001:0001d8ec       check_purpose_smime_encrypt 000000000001dbac f   OpensslLib:v3_purp.obj
 0001:0001d928       check_purpose_crl_sign     000000000001dbe8 f   OpensslLib:v3_purp.obj
 0001:0001d960       ocsp_helper                000000000001dc20 f   OpensslLib:v3_purp.obj
 0001:0001d974       check_purpose_timestamp_sign 000000000001dc34 f   OpensslLib:v3_purp.obj
 0001:0001da00       ecx_cmp_parameters         000000000001dcc0 f   OpensslLib:ecx_meth.obj
 0001:0001da00       final                      000000000001dcc0 f   OpensslLib:m_null.obj
 0001:0001da00       init                       000000000001dcc0 f   OpensslLib:m_null.obj
 0001:0001da00       update                     000000000001dcc0 f   OpensslLib:m_null.obj
 0001:0001da00       i2r_ocsp_nocheck           000000000001dcc0 f   OpensslLib:v3_ocsp.obj
 0001:0001da00       no_check                   000000000001dcc0 f   OpensslLib:v3_purp.obj
 0001:0001db40       crl_inf_cb                 000000000001de00 f   OpensslLib:x_crl.obj
 0001:0001db74       crl_cb                     000000000001de34 f   OpensslLib:x_crl.obj
 0001:0001e144       setup_idp                  000000000001e404 f   OpensslLib:x_crl.obj
 0001:0001e23c       X509_REVOKED_cmp           000000000001e4fc f   OpensslLib:x_crl.obj
 0001:0001e248       def_crl_verify             000000000001e508 f   OpensslLib:x_crl.obj
 0001:0001e270       def_crl_lookup             000000000001e530 f   OpensslLib:x_crl.obj
 0001:0001e468       sk_OPENSSL_STRING_deep_copy 000000000001e728 f   OpensslLib:x509_vpm.obj
 0001:0001e5d8       str_copy                   000000000001e898 f   OpensslLib:x509_vpm.obj
 0001:0001e5e0       str_free                   000000000001e8a0 f   OpensslLib:x509_vpm.obj
 0001:0001e840       int_x509_param_set1        000000000001eb00 f   OpensslLib:x509_vpm.obj
 0001:0001ea14       table_cmp_BSEARCH_CMP_FN   000000000001ecd4 f   OpensslLib:x509_vpm.obj
 0001:0001eaa0       tree_init                  000000000001ed60 f   OpensslLib:pcy_tree.obj
 0001:0001ee0c       tree_link_nodes            000000000001f0cc f   OpensslLib:pcy_tree.obj
 0001:0001efe0       tree_add_unmatched         000000000001f2a0 f   OpensslLib:pcy_tree.obj
 0001:0001f074       tree_link_any              000000000001f334 f   OpensslLib:pcy_tree.obj
 0001:0001f268       tree_add_auth_node         000000000001f528 f   OpensslLib:pcy_tree.obj
 0001:0001f2e4       tree_calculate_authority_set 000000000001f5a4 f   OpensslLib:pcy_tree.obj
 0001:0001f41c       tree_calculate_user_set    000000000001f6dc f   OpensslLib:pcy_tree.obj
 0001:0001f58c       tree_evaluate              000000000001f84c f   OpensslLib:pcy_tree.obj
 0001:0001f758       exnode_free                000000000001fa18 f   OpensslLib:pcy_tree.obj
 0001:0001fb38       pubkey_cb                  000000000001fdf8 f   OpensslLib:x_pubkey.obj
 0001:0001fb9c       x509_pubkey_decode         000000000001fe5c f   OpensslLib:x_pubkey.obj
 0001:0001fe1c       trust_1oidany              00000000000200dc f   OpensslLib:x509_trs.obj
 0001:0001fe28       trust_1oid                 00000000000200e8 f   OpensslLib:x509_trs.obj
 0001:0001fe34       trust_compat               00000000000200f4 f   OpensslLib:x509_trs.obj
 0001:0001fe78       obj_trust                  0000000000020138 f   OpensslLib:x509_trs.obj
 0001:000203e8       do_ex_data_init_ossl_      00000000000206a8 f   OpensslLib:ex_data.obj
 0001:00020430       get_and_lock               00000000000206f0 f   OpensslLib:ex_data.obj
 0001:00020a24       ia5ncasecmp                0000000000020ce4 f   OpensslLib:v3_ncons.obj
 0001:00020a70       v2i_NAME_CONSTRAINTS       0000000000020d30 f   OpensslLib:v3_ncons.obj
 0001:00020c30       i2r_NAME_CONSTRAINTS       0000000000020ef0 f   OpensslLib:v3_ncons.obj
 0001:00020c8c       do_i2r_name_constraints    0000000000020f4c f   OpensslLib:v3_ncons.obj
 0001:0002112c       nc_match                   00000000000213ec f   OpensslLib:v3_ncons.obj
 0001:00021268       nc_match_single            0000000000021528 f   OpensslLib:v3_ncons.obj
 0001:000213f0       nc_email                   00000000000216b0 f   OpensslLib:v3_ncons.obj
 0001:000214bc       nc_uri                     000000000002177c f   OpensslLib:v3_ncons.obj
 0001:00021e8c       i2c_ibuf                   000000000002214c f   OpensslLib:a_int.obj
 0001:00021f60       c2i_ibuf                   0000000000022220 f   OpensslLib:a_int.obj
 0001:0002207c       asn1_get_uint64            000000000002233c f   OpensslLib:a_int.obj
 0001:000221a8       asn1_string_get_int64      0000000000022468 f   OpensslLib:a_int.obj
 0001:0002227c       asn1_string_set_int64      000000000002253c f   OpensslLib:a_int.obj
 0001:000222dc       bn_to_asn1_string          000000000002259c f   OpensslLib:a_int.obj
 0001:000223c4       asn1_string_to_bn          0000000000022684 f   OpensslLib:a_int.obj
 0001:00022558       ocsp_nonce_free            0000000000022818 f   OpensslLib:v3_ocsp.obj
 0001:000226c8       asn1_item_embed_d2i        0000000000022988 f   OpensslLib:tasn_dec.obj
 0001:00022e14       asn1_template_ex_d2i       00000000000230d4 f   OpensslLib:tasn_dec.obj
 0001:00022f88       asn1_template_noexp_d2i    0000000000023248 f   OpensslLib:tasn_dec.obj
 0001:00023218       asn1_d2i_ex_primitive      00000000000234d8 f   OpensslLib:tasn_dec.obj
 0001:000234e0       asn1_ex_c2i                00000000000237a0 f   OpensslLib:tasn_dec.obj
 0001:00023780       asn1_find_end              0000000000023a40 f   OpensslLib:tasn_dec.obj
 0001:000238c0       asn1_collect               0000000000023b80 f   OpensslLib:tasn_dec.obj
 0001:00023a70       asn1_check_tlen            0000000000023d30 f   OpensslLib:tasn_dec.obj
 0001:00023cd0       gnames_from_sectname       0000000000023f90 f   OpensslLib:v3_crld.obj
 0001:00023d74       set_dist_point_name        0000000000024034 f   OpensslLib:v3_crld.obj
 0001:00023f38       set_reasons                00000000000241f8 f   OpensslLib:v3_crld.obj
 0001:00024030       print_reasons              00000000000242f0 f   OpensslLib:v3_crld.obj
 0001:00024104       crldp_from_section         00000000000243c4 f   OpensslLib:v3_crld.obj
 0001:00024204       v2i_crld                   00000000000244c4 f   OpensslLib:v3_crld.obj
 0001:000243d0       dpn_cb                     0000000000024690 f   OpensslLib:v3_crld.obj
 0001:00024434       v2i_idp                    00000000000246f4 f   OpensslLib:v3_crld.obj
 0001:00024604       print_gens                 00000000000248c4 f   OpensslLib:v3_crld.obj
 0001:00024684       print_distpoint            0000000000024944 f   OpensslLib:v3_crld.obj
 0001:000246d8       i2r_idp                    0000000000024998 f   OpensslLib:v3_crld.obj
 0001:0002471c       i2r_crldp                  00000000000249dc f   OpensslLib:v3_crld.obj
 0001:000248e4       asn1_item_embed_new        0000000000024ba4 f   OpensslLib:tasn_new.obj
 0001:00024b30       asn1_template_new          0000000000024df0 f   OpensslLib:tasn_new.obj
 0001:00024bc8       asn1_template_clear        0000000000024e88 f   OpensslLib:tasn_new.obj
 0001:00024c44       asn1_primitive_new         0000000000024f04 f   OpensslLib:tasn_new.obj
 0001:00024d80       policy_cache_create        0000000000025040 f   OpensslLib:pcy_cache.obj
 0001:00024efc       policy_cache_new           00000000000251bc f   OpensslLib:pcy_cache.obj
 0001:000250c4       policy_data_cmp            0000000000025384 f   OpensslLib:pcy_cache.obj
 0001:00025498       asn1_item_flags_i2d        0000000000025758 f   OpensslLib:tasn_enc.obj
 0001:000258cc       asn1_template_ex_i2d       0000000000025b8c f   OpensslLib:tasn_enc.obj
 0001:00025bb0       der_cmp                    0000000000025e70 f   OpensslLib:tasn_enc.obj
 0001:00025bf0       asn1_set_seq_out           0000000000025eb0 f   OpensslLib:tasn_enc.obj
 0001:00025e34       asn1_i2d_ex_primitive      00000000000260f4 f   OpensslLib:tasn_enc.obj
 0001:00025f28       asn1_ex_i2c                00000000000261e8 f   OpensslLib:tasn_enc.obj
 0001:00026614       sha512_block_data_order    00000000000268d4 f   OpensslLib:sha512.obj
 0001:00026d20       sha1_block_data_order      0000000000026fe0 f   OpensslLib:sha1dgst.obj
 0001:00027530       sk_table_cmp               00000000000277f0 f   OpensslLib:a_strnid.obj
 0001:00027530       ameth_cmp_BSEARCH_CMP_FN   00000000000277f0 f   OpensslLib:ameth_lib.obj
 0001:00027530       pmeth_cmp_BSEARCH_CMP_FN   00000000000277f0 f   OpensslLib:pmeth_lib.obj
 0001:00027530       ext_cmp_BSEARCH_CMP_FN     00000000000277f0 f   OpensslLib:v3_lib.obj
 0001:0002769c       make_kn                    000000000002795c f   OpensslLib:cmac.obj
 0001:00027a60       ossl_init_get_thread_local 0000000000027d20 f   OpensslLib:init.obj
 0001:00027ab8       ossl_init_base_ossl_       0000000000027d78 f   OpensslLib:init.obj
 0001:00027b24       ossl_init_add_all_digests_ossl_ 0000000000027de4 f   OpensslLib:init.obj
 0001:00027c40       ossl_init_config_ossl_     0000000000027f00 f   OpensslLib:init.obj
 0001:00027cd8       ossl_init_async_ossl_      0000000000027f98 f   OpensslLib:init.obj
 0001:00027ffc       sigx_cmp_BSEARCH_CMP_FN    00000000000282bc f   OpensslLib:obj_xref.obj
 0001:00028164       int_ctx_new                0000000000028424 f   OpensslLib:pmeth_lib.obj
 0001:00028988       sec_alloc_realloc          0000000000028c48 f   OpensslLib:buffer.obj
 0001:000295a8       st_free                    0000000000029868 f   OpensslLib:a_strnid.obj
 0001:0002a834       ec_guess_cofactor          000000000002aaf4 f   OpensslLib:ec_lib.obj
 0001:0002b4f4       ec_precompute_mont_data    000000000002b7b4 f   OpensslLib:ec_lib.obj
 0001:0002b5c8       ec_field_inverse_mod_ord   000000000002b888 f   OpensslLib:ec_lib.obj
 0001:0002bf18       traverse_string            000000000002c1d8 f   OpensslLib:a_mbstr.obj
 0001:0002c010       in_utf8                    000000000002c2d0 f   OpensslLib:a_mbstr.obj
 0001:0002c018       out_utf8                   000000000002c2d8 f   OpensslLib:a_mbstr.obj
 0001:0002c03c       type_str                   000000000002c2fc f   OpensslLib:a_mbstr.obj
 0001:0002c0e0       cpy_asc                    000000000002c3a0 f   OpensslLib:a_mbstr.obj
 0001:0002c0f0       cpy_bmp                    000000000002c3b0 f   OpensslLib:a_mbstr.obj
 0001:0002c10c       cpy_univ                   000000000002c3cc f   OpensslLib:a_mbstr.obj
 0001:0002c13c       cpy_utf8                   000000000002c3fc f   OpensslLib:a_mbstr.obj
 0001:0002c37c       bn_new                     000000000002c63c f   OpensslLib:x_bignum.obj
 0001:0002c3a0       bn_secure_new              000000000002c660 f   OpensslLib:x_bignum.obj
 0001:0002c3cc       bn_free                    000000000002c68c f   OpensslLib:x_bignum.obj
 0001:0002c3fc       bn_i2c                     000000000002c6bc f   OpensslLib:x_bignum.obj
 0001:0002c474       bn_c2i                     000000000002c734 f   OpensslLib:x_bignum.obj
 0001:0002c4dc       bn_secure_c2i              000000000002c79c f   OpensslLib:x_bignum.obj
 0001:0002c568       bn_print                   000000000002c828 f   OpensslLib:x_bignum.obj
 0001:0002c670       uint64_new                 000000000002c930 f   OpensslLib:x_int64.obj
 0001:0002c6ac       uint32_new                 000000000002c96c f   OpensslLib:x_int64.obj
 0001:0002c6e8       uint32_free                000000000002c9a8 f   OpensslLib:x_int64.obj
 0001:0002c708       uint32_clear               000000000002c9c8 f   OpensslLib:x_int64.obj
 0001:0002c710       uint32_i2c                 000000000002c9d0 f   OpensslLib:x_int64.obj
 0001:0002c7a8       uint32_c2i                 000000000002ca68 f   OpensslLib:x_int64.obj
 0001:0002c894       uint32_print               000000000002cb54 f   OpensslLib:x_int64.obj
 0001:0002cafc       PKCS7_get_octet_string     000000000002cdbc f   OpensslLib:pk7_doit.obj
 0001:0002cb5c       PKCS7_bio_add_digest       000000000002ce1c f   OpensslLib:pk7_doit.obj
 0001:0002cc08       pkcs7_encode_rinfo         000000000002cec8 f   OpensslLib:pk7_doit.obj
 0001:0002d3d4       PKCS7_find_digest          000000000002d694 f   OpensslLib:pk7_doit.obj
 0001:0002d460       do_pkcs7_signed_attrib     000000000002d720 f   OpensslLib:pk7_doit.obj
 0001:0002ded0       get_attribute              000000000002e190 f   OpensslLib:pk7_doit.obj
 0001:0002df3c       add_attribute              000000000002e1fc f   OpensslLib:pk7_doit.obj
 0001:0002e64c       expand                     000000000002e90c f   OpensslLib:lhash.obj
 0001:0002e758       getrn                      000000000002ea18 f   OpensslLib:lhash.obj
 0001:0002e928       ec_asn1_group2fieldid      000000000002ebe8 f   OpensslLib:ec_asn1.obj
 0001:0002ea58       ec_asn1_group2curve        000000000002ed18 f   OpensslLib:ec_asn1.obj
 0001:000313e0       bn_from_montgomery_word    00000000000316a0 f   OpensslLib:bn_mont.obj
 0001:00031a6c       rsa_ossl_public_encrypt    0000000000031d2c f   OpensslLib:rsa_ossl.obj
 0001:00031d0c       rsa_get_blinding           0000000000031fcc f   OpensslLib:rsa_ossl.obj
 0001:00031d84       rsa_ossl_private_encrypt   0000000000032044 f   OpensslLib:rsa_ossl.obj
 0001:000321d8       rsa_ossl_private_decrypt   0000000000032498 f   OpensslLib:rsa_ossl.obj
 0001:0003259c       rsa_ossl_public_decrypt    000000000003285c f   OpensslLib:rsa_ossl.obj
 0001:000328b8       rsa_ossl_mod_exp           0000000000032b78 f   OpensslLib:rsa_ossl.obj
 0001:000333a8       rsa_ossl_init              0000000000033668 f   OpensslLib:rsa_ossl.obj
 0001:000333b4       rsa_ossl_finish            0000000000033674 f   OpensslLib:rsa_ossl.obj
 0001:000339a4       rsa_get_public_exp         0000000000033c64 f   OpensslLib:rsa_crpt.obj
 0001:00033d84       julian_adj                 0000000000034044 f   OpensslLib:o_time.obj
 0001:00033ea0       julian_to_date             0000000000034160 f   OpensslLib:o_time.obj
 0001:00033fcc       i2v_AUTHORITY_INFO_ACCESS  000000000003428c f   OpensslLib:v3_info.obj
 0001:0003417c       v2i_AUTHORITY_INFO_ACCESS  000000000003443c f   OpensslLib:v3_info.obj
 0001:00034338       module_add                 00000000000345f8 f   OpensslLib:conf_mod.obj
 0001:000346c8       i2v_BASIC_CONSTRAINTS      0000000000034988 f   OpensslLib:v3_bcons.obj
 0001:0003471c       v2i_BASIC_CONSTRAINTS      00000000000349dc f   OpensslLib:v3_bcons.obj
 0001:0003498c       node_cmp                   0000000000034c4c f   OpensslLib:pcy_node.obj
 0001:00034f08       v2i_issuer_alt             00000000000351c8 f   OpensslLib:v3_alt.obj
 0001:00035030       copy_issuer                00000000000352f0 f   OpensslLib:v3_alt.obj
 0001:00035194       v2i_subject_alt            0000000000035454 f   OpensslLib:v3_alt.obj
 0001:000352f4       copy_email                 00000000000355b4 f   OpensslLib:v3_alt.obj
 0001:0003587c       do_othername               0000000000035b3c f   OpensslLib:v3_alt.obj
 0001:0003593c       do_dirname                 0000000000035bfc f   OpensslLib:v3_alt.obj
 0001:00035bf0       BN_STACK_push              0000000000035eb0 f   OpensslLib:bn_ctx.obj
 0001:00035cac       BN_POOL_get                0000000000035f6c f   OpensslLib:bn_ctx.obj
 0001:00035db4       ec_group_new_from_data     0000000000036074 f   OpensslLib:ec_curve.obj
 0001:00036a60       bnrand                     0000000000036d20 f   OpensslLib:bn_rand.obj
 0001:00036be8       bnrand_range               0000000000036ea8 f   OpensslLib:bn_rand.obj
 0001:0003741c       i2v_POLICY_CONSTRAINTS     00000000000376dc f   OpensslLib:v3_pcons.obj
 0001:00037460       v2i_POLICY_CONSTRAINTS     0000000000037720 f   OpensslLib:v3_pcons.obj
 0001:00037600       r2i_certpol                00000000000378c0 f   OpensslLib:v3_cpols.obj
 0001:00037848       policy_section             0000000000037b08 f   OpensslLib:v3_cpols.obj
 0001:00037b10       displaytext_str2tag        0000000000037dd0 f   OpensslLib:v3_cpols.obj
 0001:00037be8       notice_section             0000000000037ea8 f   OpensslLib:v3_cpols.obj
 0001:00037fb8       i2r_certpol                0000000000038278 f   OpensslLib:v3_cpols.obj
 0001:0003805c       print_qualifiers           000000000003831c f   OpensslLib:v3_cpols.obj
 0001:000386a8       evp_EncryptDecryptUpdate   0000000000038968 f   OpensslLib:evp_enc.obj
 0001:00038ea4       generate_key               0000000000039164 f   OpensslLib:dh_key.obj
 0001:000390fc       compute_key                00000000000393bc f   OpensslLib:dh_key.obj
 0001:00039268       dh_bn_mod_exp              0000000000039528 f   OpensslLib:dh_key.obj
 0001:000392a4       dh_init                    0000000000039564 f   OpensslLib:dh_key.obj
 0001:000392b0       dh_finish                  0000000000039570 f   OpensslLib:dh_key.obj
 0001:000392c8       cmac_size                  0000000000039588 f   OpensslLib:cm_ameth.obj
 0001:000392d0       cmac_key_free              0000000000039590 f   OpensslLib:cm_ameth.obj
 0001:000392d0       pkey_cmac_cleanup          0000000000039590 f   OpensslLib:cm_pmeth.obj
 0001:000392dc       ecx_key_op                 000000000003959c f   OpensslLib:ecx_meth.obj
 0001:000395b4       ecx_pub_encode             0000000000039874 f   OpensslLib:ecx_meth.obj
 0001:000396a0       ecx_pub_decode             0000000000039960 f   OpensslLib:ecx_meth.obj
 0001:000396cc       ecx_pub_cmp                000000000003998c f   OpensslLib:ecx_meth.obj
 0001:0003973c       ecx_priv_decode            00000000000399fc f   OpensslLib:ecx_meth.obj
 0001:000397d0       ecx_priv_encode            0000000000039a90 f   OpensslLib:ecx_meth.obj
 0001:000398f4       ecx_size                   0000000000039bb4 f   OpensslLib:ecx_meth.obj
 0001:00039920       ecx_bits                   0000000000039be0 f   OpensslLib:ecx_meth.obj
 0001:00039950       ecx_security_bits          0000000000039c10 f   OpensslLib:ecx_meth.obj
 0001:00039970       ecx_free                   0000000000039c30 f   OpensslLib:ecx_meth.obj
 0001:000399ec       ecx_key_print              0000000000039cac f   OpensslLib:ecx_meth.obj
 0001:00039b88       ecx_priv_print             0000000000039e48 f   OpensslLib:ecx_meth.obj
 0001:00039ba0       ecx_pub_print              0000000000039e60 f   OpensslLib:ecx_meth.obj
 0001:00039bb4       ecx_ctrl                   0000000000039e74 f   OpensslLib:ecx_meth.obj
 0001:00039c7c       ecd_ctrl                   0000000000039f3c f   OpensslLib:ecx_meth.obj
 0001:00039c94       ecx_set_priv_key           0000000000039f54 f   OpensslLib:ecx_meth.obj
 0001:00039cbc       ecx_set_pub_key            0000000000039f7c f   OpensslLib:ecx_meth.obj
 0001:00039ce0       ecx_get_priv_key           0000000000039fa0 f   OpensslLib:ecx_meth.obj
 0001:00039dbc       ecx_get_pub_key            000000000003a07c f   OpensslLib:ecx_meth.obj
 0001:00039e90       ecd_size25519              000000000003a150 f   OpensslLib:ecx_meth.obj
 0001:00039e90       hmac_size                  000000000003a150 f   OpensslLib:hm_ameth.obj
 0001:00039e98       ecd_size448                000000000003a158 f   OpensslLib:ecx_meth.obj
 0001:00039ea0       ecd_item_verify            000000000003a160 f   OpensslLib:ecx_meth.obj
 0001:00039f1c       ecd_item_sign25519         000000000003a1dc f   OpensslLib:ecx_meth.obj
 0001:00039f74       ecd_sig_info_set25519      000000000003a234 f   OpensslLib:ecx_meth.obj
 0001:00039f94       ecd_item_sign448           000000000003a254 f   OpensslLib:ecx_meth.obj
 0001:00039fec       ecd_sig_info_set448        000000000003a2ac f   OpensslLib:ecx_meth.obj
 0001:0003a00c       pkey_ecx_keygen            000000000003a2cc f   OpensslLib:ecx_meth.obj
 0001:0003a038       validate_ecx_derive        000000000003a2f8 f   OpensslLib:ecx_meth.obj
 0001:0003a0a8       pkey_ecx_derive25519       000000000003a368 f   OpensslLib:ecx_meth.obj
 0001:0003a130       pkey_ecx_derive448         000000000003a3f0 f   OpensslLib:ecx_meth.obj
 0001:0003a190       pkey_ecx_ctrl              000000000003a450 f   OpensslLib:ecx_meth.obj
 0001:0003a1a0       pkey_ecd_digestsign25519   000000000003a460 f   OpensslLib:ecx_meth.obj
 0001:0003a20c       pkey_ecd_digestsign448     000000000003a4cc f   OpensslLib:ecx_meth.obj
 0001:0003a278       pkey_ecd_digestverify25519 000000000003a538 f   OpensslLib:ecx_meth.obj
 0001:0003a2a0       pkey_ecd_digestverify448   000000000003a560 f   OpensslLib:ecx_meth.obj
 0001:0003a2e0       pkey_ecd_ctrl              000000000003a5a0 f   OpensslLib:ecx_meth.obj
 0001:0003a328       eckey_param2type           000000000003a5e8 f   OpensslLib:ec_ameth.obj
 0001:0003a404       eckey_pub_encode           000000000003a6c4 f   OpensslLib:ec_ameth.obj
 0001:0003a5e0       eckey_pub_decode           000000000003a8a0 f   OpensslLib:ec_ameth.obj
 0001:0003a768       eckey_pub_cmp              000000000003aa28 f   OpensslLib:ec_ameth.obj
 0001:0003a7b8       eckey_priv_decode          000000000003aa78 f   OpensslLib:ec_ameth.obj
 0001:0003a934       eckey_priv_encode          000000000003abf4 f   OpensslLib:ec_ameth.obj
 0001:0003aa58       int_ec_size                000000000003ad18 f   OpensslLib:ec_ameth.obj
 0001:0003aa64       ec_bits                    000000000003ad24 f   OpensslLib:ec_ameth.obj
 0001:0003aa74       ec_security_bits           000000000003ad34 f   OpensslLib:ec_ameth.obj
 0001:0003aad8       ec_missing_parameters      000000000003ad98 f   OpensslLib:ec_ameth.obj
 0001:0003aaf4       ec_copy_parameters         000000000003adb4 f   OpensslLib:ec_ameth.obj
 0001:0003ab64       ec_cmp_parameters          000000000003ae24 f   OpensslLib:ec_ameth.obj
 0001:0003aba0       int_ec_free                000000000003ae60 f   OpensslLib:ec_ameth.obj
 0001:0003abac       do_EC_KEY_print            000000000003ae6c f   OpensslLib:ec_ameth.obj
 0001:0003ade0       eckey_param_decode         000000000003b0a0 f   OpensslLib:ec_ameth.obj
 0001:0003ae24       eckey_param_encode         000000000003b0e4 f   OpensslLib:ec_ameth.obj
 0001:0003ae30       eckey_param_print          000000000003b0f0 f   OpensslLib:ec_ameth.obj
 0001:0003ae40       eckey_pub_print            000000000003b100 f   OpensslLib:ec_ameth.obj
 0001:0003ae50       eckey_priv_print           000000000003b110 f   OpensslLib:ec_ameth.obj
 0001:0003ae5c       old_ec_priv_decode         000000000003b11c f   OpensslLib:ec_ameth.obj
 0001:0003aea4       old_ec_priv_encode         000000000003b164 f   OpensslLib:ec_ameth.obj
 0001:0003aeb0       ec_pkey_ctrl               000000000003b170 f   OpensslLib:ec_ameth.obj
 0001:0003afb8       ec_pkey_check              000000000003b278 f   OpensslLib:ec_ameth.obj
 0001:0003afec       ec_pkey_public_check       000000000003b2ac f   OpensslLib:ec_ameth.obj
 0001:0003aff8       ec_pkey_param_check        000000000003b2b8 f   OpensslLib:ec_ameth.obj
 0001:0003b02c       siphash_size               000000000003b2ec f   OpensslLib:siphash_ameth.obj
 0001:0003b034       hmac_key_free              000000000003b2f4 f   OpensslLib:hm_ameth.obj
 0001:0003b034       siphash_key_free           000000000003b2f4 f   OpensslLib:siphash_ameth.obj
 0001:0003b068       dh_pkey_ctrl               000000000003b328 f   OpensslLib:dh_ameth.obj
 0001:0003b068       siphash_pkey_ctrl          000000000003b328 f   OpensslLib:siphash_ameth.obj
 0001:0003b070       hmac_pkey_public_cmp       000000000003b330 f   OpensslLib:hm_ameth.obj
 0001:0003b070       siphash_pkey_public_cmp    000000000003b330 f   OpensslLib:siphash_ameth.obj
 0001:0003b080       siphash_set_priv_key       000000000003b340 f   OpensslLib:siphash_ameth.obj
 0001:0003b0f0       siphash_get_priv_key       000000000003b3b0 f   OpensslLib:siphash_ameth.obj
 0001:0003b140       hmac_pkey_ctrl             000000000003b400 f   OpensslLib:hm_ameth.obj
 0001:0003b158       hmac_set_priv_key          000000000003b418 f   OpensslLib:hm_ameth.obj
 0001:0003b1cc       hmac_get_priv_key          000000000003b48c f   OpensslLib:hm_ameth.obj
 0001:0003b214       rsa_param_encode           000000000003b4d4 f   OpensslLib:rsa_ameth.obj
 0001:0003b26c       rsa_param_decode           000000000003b52c f   OpensslLib:rsa_ameth.obj
 0001:0003b2e8       rsa_pub_encode             000000000003b5a8 f   OpensslLib:rsa_ameth.obj
 0001:0003b3bc       rsa_pub_decode             000000000003b67c f   OpensslLib:rsa_ameth.obj
 0001:0003b454       rsa_pub_cmp                000000000003b714 f   OpensslLib:rsa_ameth.obj
 0001:0003b4bc       old_rsa_priv_decode        000000000003b77c f   OpensslLib:rsa_ameth.obj
 0001:0003b508       old_rsa_priv_encode        000000000003b7c8 f   OpensslLib:rsa_ameth.obj
 0001:0003b51c       rsa_priv_encode            000000000003b7dc f   OpensslLib:rsa_ameth.obj
 0001:0003b5f4       rsa_priv_decode            000000000003b8b4 f   OpensslLib:rsa_ameth.obj
 0001:0003b688       int_rsa_size               000000000003b948 f   OpensslLib:rsa_ameth.obj
 0001:0003b6ac       rsa_bits                   000000000003b96c f   OpensslLib:rsa_ameth.obj
 0001:0003b6bc       rsa_security_bits          000000000003b97c f   OpensslLib:rsa_ameth.obj
 0001:0003b778       int_rsa_free               000000000003ba38 f   OpensslLib:rsa_ameth.obj
 0001:0003b784       rsa_pss_param_print        000000000003ba44 f   OpensslLib:rsa_ameth.obj
 0001:0003ba68       pkey_rsa_print             000000000003bd28 f   OpensslLib:rsa_ameth.obj
 0001:0003bdd0       rsa_pub_print              000000000003c090 f   OpensslLib:rsa_ameth.obj
 0001:0003bdd8       rsa_priv_print             000000000003c098 f   OpensslLib:rsa_ameth.obj
 0001:0003bde4       rsa_pss_decode             000000000003c0a4 f   OpensslLib:rsa_ameth.obj
 0001:0003be68       rsa_sig_print              000000000003c128 f   OpensslLib:rsa_ameth.obj
 0001:0003bf18       rsa_pkey_ctrl              000000000003c1d8 f   OpensslLib:rsa_ameth.obj
 0001:0003c00c       rsa_md_to_algor            000000000003c2cc f   OpensslLib:rsa_ameth.obj
 0001:0003c07c       rsa_md_to_mgf1             000000000003c33c f   OpensslLib:rsa_ameth.obj
 0001:0003c26c       rsa_ctx_to_pss_string      000000000003c52c f   OpensslLib:rsa_ameth.obj
 0001:0003c408       rsa_pss_to_ctx             000000000003c6c8 f   OpensslLib:rsa_ameth.obj
 0001:0003c7f0       rsa_item_verify            000000000003cab0 f   OpensslLib:rsa_ameth.obj
 0001:0003c850       rsa_item_sign              000000000003cb10 f   OpensslLib:rsa_ameth.obj
 0001:0003c920       rsa_sig_info_set           000000000003cbe0 f   OpensslLib:rsa_ameth.obj
 0001:0003c9f4       rsa_pkey_check             000000000003ccb4 f   OpensslLib:rsa_ameth.obj
 0001:0003ca00       i2d_dhp                    000000000003ccc0 f   OpensslLib:dh_ameth.obj
 0001:0003caa8       int_dh_free                000000000003cd68 f   OpensslLib:dh_ameth.obj
 0001:0003cab4       dh_pub_decode              000000000003cd74 f   OpensslLib:dh_ameth.obj
 0001:0003cc68       dh_pub_encode              000000000003cf28 f   OpensslLib:dh_ameth.obj
 0001:0003cd98       dh_priv_decode             000000000003d058 f   OpensslLib:dh_ameth.obj
 0001:0003cf78       dh_priv_encode             000000000003d238 f   OpensslLib:dh_ameth.obj
 0001:0003d088       dh_param_decode            000000000003d348 f   OpensslLib:dh_ameth.obj
 0001:0003d0e8       dh_param_encode            000000000003d3a8 f   OpensslLib:dh_ameth.obj
 0001:0003d0f4       do_dh_print                000000000003d3b4 f   OpensslLib:dh_ameth.obj
 0001:0003d3e8       int_dh_size                000000000003d6a8 f   OpensslLib:dh_ameth.obj
 0001:0003d40c       dh_bits                    000000000003d6cc f   OpensslLib:dh_ameth.obj
 0001:0003d41c       dh_security_bits           000000000003d6dc f   OpensslLib:dh_ameth.obj
 0001:0003d464       dh_cmp_parameters          000000000003d724 f   OpensslLib:dh_ameth.obj
 0001:0003d4d8       int_dh_bn_cpy              000000000003d798 f   OpensslLib:dh_ameth.obj
 0001:0003d524       int_dh_param_copy          000000000003d7e4 f   OpensslLib:dh_ameth.obj
 0001:0003d5f0       dh_copy_parameters         000000000003d8b0 f   OpensslLib:dh_ameth.obj
 0001:0003d64c       dh_missing_parameters      000000000003d90c f   OpensslLib:dh_ameth.obj
 0001:0003d66c       dh_pub_cmp                 000000000003d92c f   OpensslLib:dh_ameth.obj
 0001:0003d6b4       dh_param_print             000000000003d974 f   OpensslLib:dh_ameth.obj
 0001:0003d6c0       dh_public_print            000000000003d980 f   OpensslLib:dh_ameth.obj
 0001:0003d6d0       dh_private_print           000000000003d990 f   OpensslLib:dh_ameth.obj
 0001:0003d6e0       dh_pkey_public_check       000000000003d9a0 f   OpensslLib:dh_ameth.obj
 0001:0003d770       dh_pkey_param_check        000000000003da30 f   OpensslLib:dh_ameth.obj
 0001:0003ddd8       rand_drbg_new              000000000003e098 f   OpensslLib:drbg_lib.obj
 0001:0003e874       drbg_setup                 000000000003eb34 f   OpensslLib:drbg_lib.obj
 0001:0003e92c       do_rand_drbg_init_ossl_    000000000003ebec f   OpensslLib:drbg_lib.obj
 0001:0003e9bc       drbg_bytes                 000000000003ec7c f   OpensslLib:drbg_lib.obj
 0001:0003eb14       drbg_add                   000000000003edd4 f   OpensslLib:drbg_lib.obj
 0001:0003ec38       drbg_seed                  000000000003eef8 f   OpensslLib:drbg_lib.obj
 0001:0003ec48       drbg_status                000000000003ef08 f   OpensslLib:drbg_lib.obj
 0001:0003f068       do_rand_init_ossl_         000000000003f328 f   OpensslLib:rand_lib.obj
 0001:0003f20c       rand_pool_grow             000000000003f4cc f   OpensslLib:rand_lib.obj
 0001:0003f5ac       pkey_dh_init               000000000003f86c f   OpensslLib:dh_pmeth.obj
 0001:0003f608       pkey_dh_cleanup            000000000003f8c8 f   OpensslLib:dh_pmeth.obj
 0001:0003f63c       pkey_dh_copy               000000000003f8fc f   OpensslLib:dh_pmeth.obj
 0001:0003f6f0       pkey_dh_ctrl               000000000003f9b0 f   OpensslLib:dh_pmeth.obj
 0001:0003f8a8       pkey_dh_ctrl_str           000000000003fb68 f   OpensslLib:dh_pmeth.obj
 0001:0003fa48       pkey_dh_paramgen           000000000003fd08 f   OpensslLib:dh_pmeth.obj
 0001:0003fc6c       pkey_dh_keygen             000000000003ff2c f   OpensslLib:dh_pmeth.obj
 0001:0003fcf8       pkey_dh_derive             000000000003ffb8 f   OpensslLib:dh_pmeth.obj
 0001:0003fe84       pkey_cmac_init             0000000000040144 f   OpensslLib:cm_pmeth.obj
 0001:0003feac       pkey_cmac_copy             000000000004016c f   OpensslLib:cm_pmeth.obj
 0001:0003feec       pkey_cmac_keygen           00000000000401ac f   OpensslLib:cm_pmeth.obj
 0001:0003ff54       int_update                 0000000000040214 f   OpensslLib:cm_pmeth.obj
 0001:00040048       cmac_signctx_init          0000000000040308 f   OpensslLib:cm_pmeth.obj
 0001:00040060       cmac_signctx               0000000000040320 f   OpensslLib:cm_pmeth.obj
 0001:00040170       pkey_cmac_ctrl             0000000000040430 f   OpensslLib:cm_pmeth.obj
 0001:000401fc       pkey_cmac_ctrl_str         00000000000404bc f   OpensslLib:cm_pmeth.obj
 0001:000402cc       pkey_rsa_init              000000000004058c f   OpensslLib:rsa_pmeth.obj
 0001:00040330       pkey_rsa_copy              00000000000405f0 f   OpensslLib:rsa_pmeth.obj
 0001:000403d0       setup_tbuf                 0000000000040690 f   OpensslLib:rsa_pmeth.obj
 0001:00040448       pkey_rsa_cleanup           0000000000040708 f   OpensslLib:rsa_pmeth.obj
 0001:0004048c       pkey_rsa_sign              000000000004074c f   OpensslLib:rsa_pmeth.obj
 0001:0004069c       pkey_rsa_verifyrecover     000000000004095c f   OpensslLib:rsa_pmeth.obj
 0001:00040830       pkey_rsa_verify            0000000000040af0 f   OpensslLib:rsa_pmeth.obj
 0001:000409dc       pkey_rsa_encrypt           0000000000040c9c f   OpensslLib:rsa_pmeth.obj
 0001:00040ae0       pkey_rsa_decrypt           0000000000040da0 f   OpensslLib:rsa_pmeth.obj
 0001:00040c20       check_padding_md           0000000000040ee0 f   OpensslLib:rsa_pmeth.obj
 0001:00040cd8       pkey_rsa_ctrl              0000000000040f98 f   OpensslLib:rsa_pmeth.obj
 0001:0004106c       pkey_rsa_ctrl_str          000000000004132c f   OpensslLib:rsa_pmeth.obj
 0001:000414f8       pkey_rsa_keygen            00000000000417b8 f   OpensslLib:rsa_pmeth.obj
 0001:00041698       pkey_pss_init              0000000000041958 f   OpensslLib:rsa_pmeth.obj
 0001:00041784       pkey_tls1_prf_init         0000000000041a44 f   OpensslLib:tls1_prf.obj
 0001:000417c0       pkey_tls1_prf_cleanup      0000000000041a80 f   OpensslLib:tls1_prf.obj
 0001:00041820       pkey_tls1_prf_ctrl         0000000000041ae0 f   OpensslLib:tls1_prf.obj
 0001:00041934       pkey_tls1_prf_ctrl_str     0000000000041bf4 f   OpensslLib:tls1_prf.obj
 0001:00041a48       pkey_tls1_prf_derive       0000000000041d08 f   OpensslLib:tls1_prf.obj
 0001:00041abc       tls1_prf_P_hash            0000000000041d7c f   OpensslLib:tls1_prf.obj
 0001:00041dec       tls1_prf_alg               00000000000420ac f   OpensslLib:tls1_prf.obj
 0001:00041f5c       pkey_hkdf_init             000000000004221c f   OpensslLib:hkdf.obj
 0001:00041f98       pkey_hkdf_cleanup          0000000000042258 f   OpensslLib:hkdf.obj
 0001:00042020       pkey_hkdf_ctrl             00000000000422e0 f   OpensslLib:hkdf.obj
 0001:00042188       pkey_hkdf_ctrl_str         0000000000042448 f   OpensslLib:hkdf.obj
 0001:00042334       pkey_hkdf_derive_init      00000000000425f4 f   OpensslLib:hkdf.obj
 0001:000423c8       pkey_hkdf_derive           0000000000042688 f   OpensslLib:hkdf.obj
 0001:00042548       HKDF_Extract               0000000000042808 f   OpensslLib:hkdf.obj
 0001:00042630       HKDF_Expand                00000000000428f0 f   OpensslLib:hkdf.obj
 0001:00042818       pkey_sm2_init              0000000000042ad8 f   OpensslLib:sm2_pmeth.obj
 0001:00042854       pkey_sm2_cleanup           0000000000042b14 f   OpensslLib:sm2_pmeth.obj
 0001:00042898       pkey_sm2_copy              0000000000042b58 f   OpensslLib:sm2_pmeth.obj
 0001:0004295c       pkey_sm2_sign              0000000000042c1c f   OpensslLib:sm2_pmeth.obj
 0001:000429f0       pkey_sm2_verify            0000000000042cb0 f   OpensslLib:sm2_pmeth.obj
 0001:00042b20       pkey_sm2_encrypt           0000000000042de0 f   OpensslLib:sm2_pmeth.obj
 0001:00042c10       pkey_sm2_decrypt           0000000000042ed0 f   OpensslLib:sm2_pmeth.obj
 0001:00042ce8       pkey_sm2_ctrl              0000000000042fa8 f   OpensslLib:sm2_pmeth.obj
 0001:00042e48       pkey_sm2_ctrl_str          0000000000043108 f   OpensslLib:sm2_pmeth.obj
 0001:00042f2c       pkey_sm2_digest_custom     00000000000431ec f   OpensslLib:sm2_pmeth.obj
 0001:00042ffc       pkey_siphash_init          00000000000432bc f   OpensslLib:siphash_pmeth.obj
 0001:00043048       pkey_siphash_cleanup       0000000000043308 f   OpensslLib:siphash_pmeth.obj
 0001:000430bc       pkey_siphash_copy          000000000004337c f   OpensslLib:siphash_pmeth.obj
 0001:00043130       pkey_siphash_keygen        00000000000433f0 f   OpensslLib:siphash_pmeth.obj
 0001:0004316c       int_update                 000000000004342c f   OpensslLib:siphash_pmeth.obj
 0001:0004318c       siphash_signctx_init       000000000004344c f   OpensslLib:siphash_pmeth.obj
 0001:000431ec       siphash_signctx            00000000000434ac f   OpensslLib:siphash_pmeth.obj
 0001:00043210       pkey_siphash_ctrl          00000000000434d0 f   OpensslLib:siphash_pmeth.obj
 0001:0004330c       pkey_siphash_ctrl_str      00000000000435cc f   OpensslLib:siphash_pmeth.obj
 0001:000433c4       pkey_ec_init               0000000000043684 f   OpensslLib:ec_pmeth.obj
 0001:00043408       pkey_ec_copy               00000000000436c8 f   OpensslLib:ec_pmeth.obj
 0001:000434b0       pkey_ec_cleanup            0000000000043770 f   OpensslLib:ec_pmeth.obj
 0001:00043500       pkey_ec_sign               00000000000437c0 f   OpensslLib:ec_pmeth.obj
 0001:000435d4       pkey_ec_verify             0000000000043894 f   OpensslLib:ec_pmeth.obj
 0001:00043640       pkey_ec_derive             0000000000043900 f   OpensslLib:ec_pmeth.obj
 0001:000436fc       pkey_ec_kdf_derive         00000000000439bc f   OpensslLib:ec_pmeth.obj
 0001:00043828       pkey_ec_ctrl               0000000000043ae8 f   OpensslLib:ec_pmeth.obj
 0001:00043a88       pkey_ec_ctrl_str           0000000000043d48 f   OpensslLib:ec_pmeth.obj
 0001:00043bf8       pkey_ec_paramgen           0000000000043eb8 f   OpensslLib:ec_pmeth.obj
 0001:00043c7c       pkey_ec_keygen             0000000000043f3c f   OpensslLib:ec_pmeth.obj
 0001:00043d68       pkey_hmac_init             0000000000044028 f   OpensslLib:hm_pmeth.obj
 0001:00043dd4       pkey_hmac_copy             0000000000044094 f   OpensslLib:hm_pmeth.obj
 0001:00043e4c       pkey_hmac_cleanup          000000000004410c f   OpensslLib:hm_pmeth.obj
 0001:00043eb8       pkey_hmac_keygen           0000000000044178 f   OpensslLib:hm_pmeth.obj
 0001:00043efc       int_update                 00000000000441bc f   OpensslLib:hm_pmeth.obj
 0001:00043f34       hmac_signctx_init          00000000000441f4 f   OpensslLib:hm_pmeth.obj
 0001:00043f74       hmac_signctx               0000000000044234 f   OpensslLib:hm_pmeth.obj
 0001:00043fe0       pkey_hmac_ctrl             00000000000442a0 f   OpensslLib:hm_pmeth.obj
 0001:00044050       pkey_hmac_ctrl_str         0000000000044310 f   OpensslLib:hm_pmeth.obj
 0001:00046408       bn_get_bits                00000000000466c8 f   OpensslLib:bn_exp.obj
 0001:00046460       MOD_EXP_CTIME_COPY_TO_PREBUF 0000000000046720 f   OpensslLib:bn_exp.obj
 0001:000464b8       MOD_EXP_CTIME_COPY_FROM_PREBUF 0000000000046778 f   OpensslLib:bn_exp.obj
 0001:00047288       enc_new                    0000000000047548 f   OpensslLib:bio_enc.obj
 0001:00047308       enc_free                   00000000000475c8 f   OpensslLib:bio_enc.obj
 0001:00047380       enc_read                   0000000000047640 f   OpensslLib:bio_enc.obj
 0001:0004761c       enc_write                  00000000000478dc f   OpensslLib:bio_enc.obj
 0001:000477b8       enc_ctrl                   0000000000047a78 f   OpensslLib:bio_enc.obj
 0001:000479b0       enc_callback_ctrl          0000000000047c70 f   OpensslLib:bio_enc.obj
 0001:000479b0       md_callback_ctrl           0000000000047c70 f   OpensslLib:bio_md.obj
 0001:000479c8       update                     0000000000047c88 f   OpensslLib:m_sigver.obj
 0001:000479e8       do_sigver_init             0000000000047ca8 f   OpensslLib:m_sigver.obj
 0001:00047ee0       md_new                     00000000000481a0 f   OpensslLib:bio_md.obj
 0001:00047f0c       md_free                    00000000000481cc f   OpensslLib:bio_md.obj
 0001:00047f54       md_read                    0000000000048214 f   OpensslLib:bio_md.obj
 0001:00047ff8       md_write                   00000000000482b8 f   OpensslLib:bio_md.obj
 0001:0004809c       md_ctrl                    000000000004835c f   OpensslLib:bio_md.obj
 0001:000481c4       md_gets                    0000000000048484 f   OpensslLib:bio_md.obj
 0001:00048368       null_gets                  0000000000048628 f   OpensslLib:bss_null.obj
 0001:00048368       null_read                  0000000000048628 f   OpensslLib:bss_null.obj
 0001:0004836c       null_write                 000000000004862c f   OpensslLib:bss_null.obj
 0001:00048370       null_ctrl                  0000000000048630 f   OpensslLib:bss_null.obj
 0001:000483a8       null_puts                  0000000000048668 f   OpensslLib:bss_null.obj
 0001:00048c9c       bn_mod_inverse_no_branch   0000000000048f5c f   OpensslLib:bn_gcd.obj
 0001:0004b534       i2v_EXTENDED_KEY_USAGE     000000000004b7f4 f   OpensslLib:v3_extku.obj
 0001:0004b5c0       v2i_EXTENDED_KEY_USAGE     000000000004b880 f   OpensslLib:v3_extku.obj
 0001:0004b8cc       i2r_ocsp_crlid             000000000004bb8c f   OpensslLib:v3_ocsp.obj
 0001:0004ba20       i2r_ocsp_acutoff           000000000004bce0 f   OpensslLib:v3_ocsp.obj
 0001:0004ba6c       i2r_object                 000000000004bd2c f   OpensslLib:v3_ocsp.obj
 0001:0004bab0       ocsp_nonce_new             000000000004bd70 f   OpensslLib:v3_ocsp.obj
 0001:0004babc       i2d_ocsp_nonce             000000000004bd7c f   OpensslLib:v3_ocsp.obj
 0001:0004baf4       d2i_ocsp_nonce             000000000004bdb4 f   OpensslLib:v3_ocsp.obj
 0001:0004bb8c       i2r_ocsp_nonce             000000000004be4c f   OpensslLib:v3_ocsp.obj
 0001:0004bbd0       s2i_ocsp_nocheck           000000000004be90 f   OpensslLib:v3_ocsp.obj
 0001:0004bbdc       i2r_ocsp_serviceloc        000000000004be9c f   OpensslLib:v3_ocsp.obj
 0001:0004bce8       i2v_AUTHORITY_KEYID        000000000004bfa8 f   OpensslLib:v3_akey.obj
 0001:0004bd94       v2i_AUTHORITY_KEYID        000000000004c054 f   OpensslLib:v3_akey.obj
 0001:0004c1d4       s2i_asn1_int               000000000004c494 f   OpensslLib:v3_int.obj
 0001:0004c1dc       i2r_NAMING_AUTHORITY       000000000004c49c f   OpensslLib:v3_admis.obj
 0001:0004c388       i2r_ADMISSION_SYNTAX       000000000004c648 f   OpensslLib:v3_admis.obj
 0001:0004c7c4       s2i_skey_id                000000000004ca84 f   OpensslLib:v3_skey.obj
 0001:0004c9b0       i2r_PKEY_USAGE_PERIOD      000000000004cc70 f   OpensslLib:v3_pku.obj
 0001:0004ca7c       i2v_POLICY_MAPPINGS        000000000004cd3c f   OpensslLib:v3_pmaps.obj
 0001:0004cb34       v2i_POLICY_MAPPINGS        000000000004cdf4 f   OpensslLib:v3_pmaps.obj
 0001:0004cd1c       sxnet_i2r                  000000000004cfdc f   OpensslLib:v3_sxnet.obj
 0001:0004cde0       sxnet_v2i                  000000000004d0a0 f   OpensslLib:v3_sxnet.obj
 0001:0004d0dc       i2r_pci                    000000000004d39c f   OpensslLib:v3_pci.obj
 0001:0004d17c       process_pci_value          000000000004d43c f   OpensslLib:v3_pci.obj
 0001:0004d5c8       r2i_pci                    000000000004d888 f   OpensslLib:v3_pci.obj
 0001:0004d9b4       i2v_TLS_FEATURE            000000000004dc74 f   OpensslLib:v3_tlsf.obj
 0001:0004da68       v2i_TLS_FEATURE            000000000004dd28 f   OpensslLib:v3_tlsf.obj
 0001:0004dd34       generate_v3                000000000004dff4 f   OpensslLib:asn1_gen.obj
 0001:0004e030       asn1_cb                    000000000004e2f0 f   OpensslLib:asn1_gen.obj
 0001:0004e2ac       parse_tagging              000000000004e56c f   OpensslLib:asn1_gen.obj
 0001:0004e358       asn1_multi                 000000000004e618 f   OpensslLib:asn1_gen.obj
 0001:0004e4e0       append_exp                 000000000004e7a0 f   OpensslLib:asn1_gen.obj
 0001:0004e574       asn1_str2tag               000000000004e834 f   OpensslLib:asn1_gen.obj
 0001:0004e60c       asn1_str2type              000000000004e8cc f   OpensslLib:asn1_gen.obj
 0001:0004e9a0       bitstr_cb                  000000000004ec60 f   OpensslLib:asn1_gen.obj
 0001:0004e9f4       mask_cb                    000000000004ecb4 f   OpensslLib:asn1_gen.obj
 0001:0004f338       ecdsa_sign_setup           000000000004f5f8 f   OpensslLib:ecdsa_ossl.obj
 0001:00050404       oneshot_hash               00000000000506c4 f   OpensslLib:eddsa.obj
 0001:000504a8       hash_init_with_dom         0000000000050768 f   OpensslLib:eddsa.obj
 0001:00050bc4       fe_frombytes               0000000000050e84 f   OpensslLib:curve25519.obj
 0001:00050e7c       fe_tobytes                 000000000005113c f   OpensslLib:curve25519.obj
 0001:000510ec       fe_mul                     00000000000513ac f   OpensslLib:curve25519.obj
 0001:000519a4       fe_sq                      0000000000051c64 f   OpensslLib:curve25519.obj
 0001:00051f30       fe_invert                  00000000000521f0 f   OpensslLib:curve25519.obj
 0001:00052170       fe_sq2                     0000000000052430 f   OpensslLib:curve25519.obj
 0001:000526e0       fe_pow22523                00000000000529a0 f   OpensslLib:curve25519.obj
 0001:00052924       ge_p3_tobytes              0000000000052be4 f   OpensslLib:curve25519.obj
 0001:000529a4       ge_frombytes_vartime       0000000000052c64 f   OpensslLib:curve25519.obj
 0001:00052bfc       ge_p3_to_cached            0000000000052ebc f   OpensslLib:curve25519.obj
 0001:00052c7c       ge_p1p1_to_p2              0000000000052f3c f   OpensslLib:curve25519.obj
 0001:00052cd8       ge_p1p1_to_p3              0000000000052f98 f   OpensslLib:curve25519.obj
 0001:00052d4c       ge_p2_dbl                  000000000005300c f   OpensslLib:curve25519.obj
 0001:00052e38       ge_p3_dbl                  00000000000530f8 f   OpensslLib:curve25519.obj
 0001:00052ea8       ge_madd                    0000000000053168 f   OpensslLib:curve25519.obj
 0001:00052fe8       ge_add                     00000000000532a8 f   OpensslLib:curve25519.obj
 0001:0005313c       cmov                       00000000000533fc f   OpensslLib:curve25519.obj
 0001:000531bc       table_select               000000000005347c f   OpensslLib:curve25519.obj
 0001:000533b4       ge_scalarmult_base         0000000000053674 f   OpensslLib:curve25519.obj
 0001:000535a0       x25519_scalar_mult_generic 0000000000053860 f   OpensslLib:curve25519.obj
 0001:00053a64       slide                      0000000000053d24 f   OpensslLib:curve25519.obj
 0001:00053b64       ge_double_scalarmult_vartime 0000000000053e24 f   OpensslLib:curve25519.obj
 0001:000540cc       x25519_sc_reduce           000000000005438c f   OpensslLib:curve25519.obj
 0001:00054f04       sc_muladd                  00000000000551c4 f   OpensslLib:curve25519.obj
 0001:000572ec       gf_bias                    00000000000575ac f   OpensslLib:curve448.obj
 0001:0005734c       gf_weak_reduce             000000000005760c f   OpensslLib:curve448.obj
 0001:0005734c       gf_weak_reduce             000000000005760c f   OpensslLib:f_generic.obj
 0001:00057398       gf_sub_nr                  0000000000057658 f   OpensslLib:curve448.obj
 0001:000573dc       gf_cond_neg                000000000005769c f   OpensslLib:curve448.obj
 0001:00057454       gf_invert                  0000000000057714 f   OpensslLib:curve448.obj
 0001:000574e0       point_double_internal      00000000000577a0 f   OpensslLib:curve448.obj
 0001:000576ac       pt_to_pniels               000000000005796c f   OpensslLib:curve448.obj
 0001:0005772c       pniels_to_pt               00000000000579ec f   OpensslLib:curve448.obj
 0001:000577cc       niels_to_pt                0000000000057a8c f   OpensslLib:curve448.obj
 0001:00057868       add_niels_to_pt            0000000000057b28 f   OpensslLib:curve448.obj
 0001:000579dc       sub_niels_from_pt          0000000000057c9c f   OpensslLib:curve448.obj
 0001:00057b44       add_pniels_to_pt           0000000000057e04 f   OpensslLib:curve448.obj
 0001:000587d0       recode_wnaf                0000000000058a90 f   OpensslLib:curve448.obj
 0001:0005961c       print_bin                  00000000000598dc f   OpensslLib:eck_prn.obj
 0001:0005a2b0       dh_cb                      000000000005a570 f   OpensslLib:dh_asn1.obj
 0001:0005a6d0       hmac_ctx_cleanup           000000000005a990 f   OpensslLib:hmac.obj
 0001:0005a778       hmac_ctx_alloc_mds         000000000005aa38 f   OpensslLib:hmac.obj
 0001:0005a85c       sm4_init_key               000000000005ab1c f   OpensslLib:e_sm4.obj
 0001:0005a87c       sm4_cbc_cipher             000000000005ab3c f   OpensslLib:e_sm4.obj
 0001:0005a984       sm4_cfb128_cipher          000000000005ac44 f   OpensslLib:e_sm4.obj
 0001:0005aa34       sm4_ecb_cipher             000000000005acf4 f   OpensslLib:e_sm4.obj
 0001:0005aab8       sm4_ofb_cipher             000000000005ad78 f   OpensslLib:e_sm4.obj
 0001:0005abb8       sm4_ctr_cipher             000000000005ae78 f   OpensslLib:e_sm4.obj
 0001:0005ac20       aria_init_key              000000000005aee0 f   OpensslLib:e_aria.obj
 0001:0005ac8c       aria_128_cbc_cipher        000000000005af4c f   OpensslLib:e_aria.obj
 0001:0005ac8c       aria_192_cbc_cipher        000000000005af4c f   OpensslLib:e_aria.obj
 0001:0005ac8c       aria_256_cbc_cipher        000000000005af4c f   OpensslLib:e_aria.obj
 0001:0005ad60       aria_128_cfb128_cipher     000000000005b020 f   OpensslLib:e_aria.obj
 0001:0005ad60       aria_192_cfb128_cipher     000000000005b020 f   OpensslLib:e_aria.obj
 0001:0005ad60       aria_256_cfb128_cipher     000000000005b020 f   OpensslLib:e_aria.obj
 0001:0005ae10       aria_128_ecb_cipher        000000000005b0d0 f   OpensslLib:e_aria.obj
 0001:0005ae10       aria_192_ecb_cipher        000000000005b0d0 f   OpensslLib:e_aria.obj
 0001:0005ae10       aria_256_ecb_cipher        000000000005b0d0 f   OpensslLib:e_aria.obj
 0001:0005ae88       aria_128_ofb_cipher        000000000005b148 f   OpensslLib:e_aria.obj
 0001:0005ae88       aria_192_ofb_cipher        000000000005b148 f   OpensslLib:e_aria.obj
 0001:0005ae88       aria_256_ofb_cipher        000000000005b148 f   OpensslLib:e_aria.obj
 0001:0005af88       aria_128_cfb1_cipher       000000000005b248 f   OpensslLib:e_aria.obj
 0001:0005af88       aria_192_cfb1_cipher       000000000005b248 f   OpensslLib:e_aria.obj
 0001:0005af88       aria_256_cfb1_cipher       000000000005b248 f   OpensslLib:e_aria.obj
 0001:0005b044       aria_128_cfb8_cipher       000000000005b304 f   OpensslLib:e_aria.obj
 0001:0005b044       aria_192_cfb8_cipher       000000000005b304 f   OpensslLib:e_aria.obj
 0001:0005b044       aria_256_cfb8_cipher       000000000005b304 f   OpensslLib:e_aria.obj
 0001:0005b0f0       aria_ctr_cipher            000000000005b3b0 f   OpensslLib:e_aria.obj
 0001:0005b158       aria_gcm_init_key          000000000005b418 f   OpensslLib:e_aria.obj
 0001:0005b274       aria_gcm_ctrl              000000000005b534 f   OpensslLib:e_aria.obj
 0001:0005b664       aria_gcm_tls_cipher        000000000005b924 f   OpensslLib:e_aria.obj
 0001:0005b7a8       aria_gcm_cipher            000000000005ba68 f   OpensslLib:e_aria.obj
 0001:0005b880       aria_gcm_cleanup           000000000005bb40 f   OpensslLib:e_aria.obj
 0001:0005b8b0       aria_ccm_init_key          000000000005bb70 f   OpensslLib:e_aria.obj
 0001:0005b990       aria_ccm_ctrl              000000000005bc50 f   OpensslLib:e_aria.obj
 0001:0005bbb4       aria_ccm_tls_cipher        000000000005be74 f   OpensslLib:e_aria.obj
 0001:0005bd94       aria_ccm_cipher            000000000005c054 f   OpensslLib:e_aria.obj
 0001:0005bfc8       aes_init_key               000000000005c288 f   OpensslLib:e_aes.obj
 0001:0005c080       aes_cbc_cipher             000000000005c340 f   OpensslLib:e_aes.obj
 0001:0005c0ec       aes_ecb_cipher             000000000005c3ac f   OpensslLib:e_aes.obj
 0001:0005c164       aes_ofb_cipher             000000000005c424 f   OpensslLib:e_aes.obj
 0001:0005c1c4       aes_cfb_cipher             000000000005c484 f   OpensslLib:e_aes.obj
 0001:0005c22c       aes_cfb8_cipher            000000000005c4ec f   OpensslLib:e_aes.obj
 0001:0005c28c       aes_cfb1_cipher            000000000005c54c f   OpensslLib:e_aes.obj
 0001:0005c3c0       aes_ctr_cipher             000000000005c680 f   OpensslLib:e_aes.obj
 0001:0005c454       aes_gcm_cleanup            000000000005c714 f   OpensslLib:e_aes.obj
 0001:0005c4b0       aes_gcm_ctrl               000000000005c770 f   OpensslLib:e_aes.obj
 0001:0005c8a0       aes_gcm_init_key           000000000005cb60 f   OpensslLib:e_aes.obj
 0001:0005c998       aes_gcm_tls_cipher         000000000005cc58 f   OpensslLib:e_aes.obj
 0001:0005cae4       aes_gcm_cipher             000000000005cda4 f   OpensslLib:e_aes.obj
 0001:0005cbdc       aes_xts_ctrl               000000000005ce9c f   OpensslLib:e_aes.obj
 0001:0005cc4c       aes_xts_init_key           000000000005cf0c f   OpensslLib:e_aes.obj
 0001:0005cd98       aes_xts_cipher             000000000005d058 f   OpensslLib:e_aes.obj
 0001:0005ce30       aes_ccm_ctrl               000000000005d0f0 f   OpensslLib:e_aes.obj
 0001:0005d054       aes_ccm_init_key           000000000005d314 f   OpensslLib:e_aes.obj
 0001:0005d10c       aes_ccm_tls_cipher         000000000005d3cc f   OpensslLib:e_aes.obj
 0001:0005d2ec       aes_ccm_cipher             000000000005d5ac f   OpensslLib:e_aes.obj
 0001:0005d520       aes_wrap_init_key          000000000005d7e0 f   OpensslLib:e_aes.obj
 0001:0005d5bc       aes_wrap_cipher            000000000005d87c f   OpensslLib:e_aes.obj
 0001:0005d760       ctr_XOR                    000000000005da20 f   OpensslLib:drbg_ctr.obj
 0001:0005d7e0       ctr_BCC_block              000000000005daa0 f   OpensslLib:drbg_ctr.obj
 0001:0005d84c       ctr_BCC_blocks             000000000005db0c f   OpensslLib:drbg_ctr.obj
 0001:0005d8c8       ctr_BCC_update             000000000005db88 f   OpensslLib:drbg_ctr.obj
 0001:0005d98c       ctr_df                     000000000005dc4c f   OpensslLib:drbg_ctr.obj
 0001:0005dbf0       ctr_update                 000000000005deb0 f   OpensslLib:drbg_ctr.obj
 0001:0005dde4       drbg_ctr_instantiate       000000000005e0a4 f   OpensslLib:drbg_ctr.obj
 0001:0005dedc       drbg_ctr_reseed            000000000005e19c f   OpensslLib:drbg_ctr.obj
 0001:0005df48       drbg_ctr_generate          000000000005e208 f   OpensslLib:drbg_ctr.obj
 0001:0005e1b4       drbg_ctr_uninstantiate     000000000005e474 f   OpensslLib:drbg_ctr.obj
 0001:0005e448       init                       000000000005e708 f   OpensslLib:m_sha3.obj
 0001:0005e4c8       sha3_init                  000000000005e788 f   OpensslLib:m_sha3.obj
 0001:0005e4d0       shake_init                 000000000005e790 f   OpensslLib:m_sha3.obj
 0001:0005e4d8       sha3_update                000000000005e798 f   OpensslLib:m_sha3.obj
 0001:0005e5d0       sha3_final                 000000000005e890 f   OpensslLib:m_sha3.obj
 0001:0005e674       shake_ctrl                 000000000005e934 f   OpensslLib:m_sha3.obj
 0001:0005e694       init                       000000000005e954 f   OpensslLib:m_sm3.obj
 0001:0005e6f0       update                     000000000005e9b0 f   OpensslLib:m_sm3.obj
 0001:0005e804       final                      000000000005eac4 f   OpensslLib:m_sm3.obj
 0001:0005e814       init                       000000000005ead4 f   OpensslLib:m_md5_sha1.obj
 0001:0005e858       update                     000000000005eb18 f   OpensslLib:m_md5_sha1.obj
 0001:0005e89c       final                      000000000005eb5c f   OpensslLib:m_md5_sha1.obj
 0001:0005e8d4       ctrl                       000000000005eb94 f   OpensslLib:m_md5_sha1.obj
 0001:0005ea74       RandGetBytes               000000000005ed34 f   OpensslLib:rand_pool.obj
 0001:0005eb90       trans_cb                   000000000005ee50 f   OpensslLib:pmeth_gn.obj
 0001:0005eba8       dh_param_init              000000000005ee68 f   OpensslLib:dh_rfc7919.obj
 0001:0005ec68       dh_builtin_genparams       000000000005ef28 f   OpensslLib:dh_gen.obj
 0001:0005ef54       rsa_builtin_keygen         000000000005f214 f   OpensslLib:rsa_gen.obj
 0001:000602c8       sm2_sig_gen                0000000000060588 f   OpensslLib:sm2_sign.obj
 0001:00060574       sm2_sig_verify             0000000000060834 f   OpensslLib:sm2_sign.obj
 0001:00060980       ec_field_size              0000000000060c40 f   OpensslLib:sm2_crypt.obj
 0001:0006231c       nist_cp_bn_0               00000000000625dc f   OpensslLib:bn_nist.obj
 0001:00064864       witness                    0000000000064b24 f   OpensslLib:bn_prime.obj
 0001:00064944       probable_prime             0000000000064c04 f   OpensslLib:bn_prime.obj
 0001:00064ad8       probable_prime_dh          0000000000064d98 f   OpensslLib:bn_prime.obj
 0001:00064dc8       sc_subx                    0000000000065088 f   OpensslLib:scalar.obj
 0001:00064e54       sc_montmul                 0000000000065114 f   OpensslLib:scalar.obj
 0001:00065218       gf_sqrn                    00000000000654d8 f   OpensslLib:f_generic.obj
 0001:00065a40       SM4_T_slow                 0000000000065d00 f   OpensslLib:sm4.obj
 0001:0006734c       cfbr_encrypt_block         000000000006760c f   OpensslLib:cfb128.obj
 0001:00067618       gcm_gmult_4bit             00000000000678d8 f   OpensslLib:gcm128.obj
 0001:00068c50       rotnr                      0000000000068f10 f   OpensslLib:aria.obj
 0001:00068cd8       sl2                        0000000000068f98 f   OpensslLib:aria.obj
 0001:00068d68       a                          0000000000069028 f   OpensslLib:aria.obj
 0001:00068ee4       FO                         00000000000691a4 f   OpensslLib:aria.obj
 0001:0006acf8       crypto_128_unwrap_raw      000000000006afb8 f   OpensslLib:wrap128.obj
 0001:0006b134       alg_module_init            000000000006b3f4 f   OpensslLib:evp_cnf.obj
 0001:0006b28c       stbl_module_init           000000000006b54c f   OpensslLib:asn_mstbl.obj
 0001:0006b368       stbl_module_finish         000000000006b628 f   OpensslLib:asn_mstbl.obj
 0001:0006b394       do_tcreate                 000000000006b654 f   OpensslLib:asn_mstbl.obj
 0001:0006b6f8       ssl_module_free            000000000006b9b8 f   OpensslLib:conf_ssl.obj
 0001:0006b7b4       ssl_module_init            000000000006ba74 f   OpensslLib:conf_ssl.obj
 0001:0006bab8       oid_module_init            000000000006bd78 f   OpensslLib:asn_moid.obj
 0001:0006bcac       oid_module_finish          000000000006bf6c f   OpensslLib:asn_moid.obj
 0001:0006bcb0       Round                      000000000006bf70 f   OpensslLib:keccak1600.obj
 0001:0006c080       KeccakF1600                000000000006c340 f   OpensslLib:keccak1600.obj
 0001:000720a8       QuickSortWorker            0000000000072368 f   RuntimeCryptLib:CrtWrapper.obj
 0002:000035e0       K256                       0000000000075de0     OpensslLib:sha256.obj
 0002:000036e8       minbits_table              0000000000075ee8     OpensslLib:x509_vfy.obj
 0002:000037b0       X509_CINF_seq_tt           0000000000075fb0     OpensslLib:x_x509.obj
 0002:000038f0       X509_seq_tt                00000000000760f0     OpensslLib:x_x509.obj
 0002:00003980       X509_CINF_aux              0000000000076180     OpensslLib:x_x509.obj
 0002:000039a8       X509_aux                   00000000000761a8     OpensslLib:x_x509.obj
 0002:00003a00       sha1_md                    0000000000076200     OpensslLib:m_sha1.obj
 0002:00003a50       sha224_md                  0000000000076250     OpensslLib:m_sha1.obj
 0002:00003aa0       sha512_224_md              00000000000762a0     OpensslLib:m_sha1.obj
 0002:00003af0       sha256_md                  00000000000762f0     OpensslLib:m_sha1.obj
 0002:00003b40       sha512_md                  0000000000076340     OpensslLib:m_sha1.obj
 0002:00003b90       sha384_md                  0000000000076390     OpensslLib:m_sha1.obj
 0002:00003be0       sha512_256_md              00000000000763e0     OpensslLib:m_sha1.obj
 0002:00003cc8       X509_NAME_ENTRIES_item_tt  00000000000764c8     OpensslLib:x_name.obj
 0002:00003cf0       X509_NAME_ENTRY_seq_tt     00000000000764f0     OpensslLib:x_name.obj
 0002:00003d60       X509_NAME_INTERNAL_item_tt 0000000000076560     OpensslLib:x_name.obj
 0002:00003d80       x509_name_ff               0000000000076580     OpensslLib:x_name.obj
 0002:00003db8       X509_NAME_INTERNAL_it      00000000000765b8     OpensslLib:x_name.obj
 0002:00003de8       X509_NAME_ENTRIES_it       00000000000765e8     OpensslLib:x_name.obj
 0002:00003e20       md5_md                     0000000000076620     OpensslLib:m_md5.obj
 0002:00003ea0       tag2nbyte                  00000000000766a0     OpensslLib:a_strex.obj
 0002:00003ec0       char_type                  00000000000766c0     OpensslLib:a_strex.obj
 0002:00003fc0       ?hexdig@?1??do_hex_dump@@9@9 00000000000767c0     OpensslLib:a_strex.obj
 0002:00003fc0       ?hexdig@?1??OPENSSL_buf2hexstr@@9@9 00000000000767c0     OpensslLib:o_str.obj
 0002:00003fc0       ?hex@?1??X509_NAME_oneline@@9@9 00000000000767c0     OpensslLib:x509_obj.obj
 0002:000040a0       RSAPublicKey_seq_tt        00000000000768a0     OpensslLib:rsa_asn1.obj
 0002:000040e0       RSAPublicKey_aux           00000000000768e0     OpensslLib:rsa_asn1.obj
 0002:00004110       RSAPrivateKey_seq_tt       0000000000076910     OpensslLib:rsa_asn1.obj
 0002:00004250       RSAPrivateKey_aux          0000000000076a50     OpensslLib:rsa_asn1.obj
 0002:000042a8       RSA_PSS_PARAMS_aux         0000000000076aa8     OpensslLib:rsa_asn1.obj
 0002:000042d0       RSA_PSS_PARAMS_seq_tt      0000000000076ad0     OpensslLib:rsa_asn1.obj
 0002:000043b0       RSA_PRIME_INFO_seq_tt      0000000000076bb0     OpensslLib:rsa_asn1.obj
 0002:00004450       mem_method                 0000000000076c50     OpensslLib:bss_mem.obj
 0002:00004740       PKCS7_ENVELOPE_seq_tt      0000000000076f40     OpensslLib:pk7_asn1.obj
 0002:00004830       PKCS7_adb                  0000000000077030     OpensslLib:pk7_asn1.obj
 0002:00004860       PKCS7_SIGNER_INFO_aux      0000000000077060     OpensslLib:pk7_asn1.obj
 0002:00004890       PKCS7_SIGNER_INFO_seq_tt   0000000000077090     OpensslLib:pk7_asn1.obj
 0002:000049d0       PKCS7_ENC_CONTENT_seq_tt   00000000000771d0     OpensslLib:pk7_asn1.obj
 0002:00004a90       PKCS7_adbtbl               0000000000077290     OpensslLib:pk7_asn1.obj
 0002:00004bb0       PKCS7_RECIP_INFO_aux       00000000000773b0     OpensslLib:pk7_asn1.obj
 0002:00004c08       p7default_tt               0000000000077408     OpensslLib:pk7_asn1.obj
 0002:00004c30       PKCS7_ISSUER_AND_SERIAL_seq_tt 0000000000077430     OpensslLib:pk7_asn1.obj
 0002:00004c70       PKCS7_SIGN_ENVELOPE_seq_tt 0000000000077470     OpensslLib:pk7_asn1.obj
 0002:00004d50       PKCS7_RECIP_INFO_seq_tt    0000000000077550     OpensslLib:pk7_asn1.obj
 0002:00004e00       PKCS7_aux                  0000000000077600     OpensslLib:pk7_asn1.obj
 0002:00004e60       PKCS7_SIGNED_seq_tt        0000000000077660     OpensslLib:pk7_asn1.obj
 0002:00004f20       PKCS7_ATTR_SIGN_item_tt    0000000000077720     OpensslLib:pk7_asn1.obj
 0002:00004f40       PKCS7_DIGEST_seq_tt        0000000000077740     OpensslLib:pk7_asn1.obj
 0002:00004ff0       PKCS7_ATTR_VERIFY_item_tt  00000000000777f0     OpensslLib:pk7_asn1.obj
 0002:00005010       PKCS7_seq_tt               0000000000077810     OpensslLib:pk7_asn1.obj
 0002:00005050       PKCS7_ENCRYPT_seq_tt       0000000000077850     OpensslLib:pk7_asn1.obj
 0002:0000d330       nid_objs                   000000000007fb30     OpensslLib:obj_dat.obj
 0002:00018df0       ln_objs                    000000000008b5f0     OpensslLib:obj_dat.obj
 0002:0001a080       so                         000000000008c880     OpensslLib:obj_dat.obj
 0002:0001bee0       obj_objs                   000000000008e6e0     OpensslLib:obj_dat.obj
 0002:0001cfa0       sn_objs                    000000000008f7a0     OpensslLib:obj_dat.obj
 0002:0001e228       ?const_one@?1??BN_value_one@@9@9 0000000000090a28     OpensslLib:bn_lib.obj
 0002:0001e240       ?data_one@?1??BN_value_one@@9@9 0000000000090a40     OpensslLib:bn_lib.obj
 0002:0001e2f0       ?max@?1??asn1_time_to_tm@@9@9 0000000000090af0     OpensslLib:a_time.obj
 0002:0001e320       ?min@?1??asn1_time_to_tm@@9@9 0000000000090b20     OpensslLib:a_time.obj
 0002:0001e348       _asn1_mon                  0000000000090b48     OpensslLib:a_time.obj
 0002:0001e3a8       ?ydays@?1??determine_days@@9@9 0000000000090ba8     OpensslLib:a_time.obj
 0002:0001e3e0       ?mdays@?1??asn1_time_to_tm@@9@9 0000000000090be0     OpensslLib:a_time.obj
 0002:0001e5b8       ?supported_nids@?1??X509_supported_extension@@9@9 0000000000090db8     OpensslLib:v3_purp.obj
 0002:0001e6e0       X509_REVOKED_seq_tt        0000000000090ee0     OpensslLib:x_crl.obj
 0002:0001e740       X509_CRL_INFO_seq_tt       0000000000090f40     OpensslLib:x_crl.obj
 0002:0001e820       X509_CRL_seq_tt            0000000000091020     OpensslLib:x_crl.obj
 0002:0001e880       X509_CRL_INFO_aux          0000000000091080     OpensslLib:x_crl.obj
 0002:0001e8a8       X509_CRL_aux               00000000000910a8     OpensslLib:x_crl.obj
 0002:0001ea50       OTHERNAME_seq_tt           0000000000091250     OpensslLib:v3_genn.obj
 0002:0001ea90       EDIPARTYNAME_seq_tt        0000000000091290     OpensslLib:v3_genn.obj
 0002:0001ead0       GENERAL_NAMES_item_tt      00000000000912d0     OpensslLib:v3_genn.obj
 0002:0001eb50       GENERAL_NAME_ch_tt         0000000000091350     OpensslLib:v3_genn.obj
 0002:0001ec90       default_table              0000000000091490     OpensslLib:x509_vpm.obj
 0002:0001eef0       X509_PUBKEY_aux            00000000000916f0     OpensslLib:x_pubkey.obj
 0002:0001ef20       X509_PUBKEY_seq_tt         0000000000091720     OpensslLib:x_pubkey.obj
 0002:0001f0b0       NAME_CONSTRAINTS_seq_tt    00000000000918b0     OpensslLib:v3_ncons.obj
 0002:0001f190       GENERAL_SUBTREE_seq_tt     0000000000091990     OpensslLib:v3_ncons.obj
 0002:0001f220       ctype_char_map             0000000000091a20     OpensslLib:ctype.obj
 0002:0001f6f8       ASN1_SEQUENCE_ANY_item_tt  0000000000091ef8     OpensslLib:tasn_typ.obj
 0002:0001f808       ASN1_SET_ANY_item_tt       0000000000092008     OpensslLib:tasn_typ.obj
 0002:0001f8a0       tag2bit                    00000000000920a0     OpensslLib:tasn_dec.obj
 0002:0001f970       X509_ALGOR_seq_tt          0000000000092170     OpensslLib:x_algor.obj
 0002:0001fc28       CRL_DIST_POINTS_item_tt    0000000000092428     OpensslLib:v3_crld.obj
 0002:0001fc50       ISSUING_DIST_POINT_seq_tt  0000000000092450     OpensslLib:v3_crld.obj
 0002:0001fde0       reason_flags               00000000000925e0     OpensslLib:v3_crld.obj
 0002:0001ff70       DIST_POINT_NAME_ch_tt      0000000000092770     OpensslLib:v3_crld.obj
 0002:00020020       DIST_POINT_seq_tt          0000000000092820     OpensslLib:v3_crld.obj
 0002:000200b0       DIST_POINT_NAME_aux        00000000000928b0     OpensslLib:v3_crld.obj
 0002:00020130       X509_EXTENSION_seq_tt      0000000000092930     OpensslLib:x_exten.obj
 0002:000201d0       X509_CERT_AUX_seq_tt       00000000000929d0     OpensslLib:x_x509a.obj
 0002:000202e0       AUTHORITY_KEYID_seq_tt     0000000000092ae0     OpensslLib:v3_akeya.obj
 0002:000203a0       X509_VAL_seq_tt            0000000000092ba0     OpensslLib:x_val.obj
 0002:000203e0       K512                       0000000000092be0     OpensslLib:sha512.obj
 0002:000206b0       X509_ATTRIBUTE_seq_tt      0000000000092eb0     OpensslLib:x_attrib.obj
 0002:000206f0       ?zero_iv@?1??CMAC_Init@@9@9 0000000000092ef0     OpensslLib:cmac.obj
 0002:00020710       sigoid_srt_xref            0000000000092f10     OpensslLib:obj_xref.obj
 0002:00020870       sigoid_srt                 0000000000093070     OpensslLib:obj_xref.obj
 0002:00020ad0       tbl_standard               00000000000932d0     OpensslLib:a_strnid.obj
 0002:00020eb0       ?tag2str@?1??ASN1_tag2str@@9@9 00000000000936b0     OpensslLib:asn1_par.obj
 0002:00021c10       X509_SIG_seq_tt            0000000000094410     OpensslLib:x_sig.obj
 0002:00021e40       X9_62_CURVE_it             0000000000094640     OpensslLib:ec_asn1.obj
 0002:00021e70       X9_62_FIELDID_seq_tt       0000000000094670     OpensslLib:ec_asn1.obj
 0002:00021eb0       X9_62_PENTANOMIAL_seq_tt   00000000000946b0     OpensslLib:ec_asn1.obj
 0002:00021f10       fieldID_def_tt             0000000000094710     OpensslLib:ec_asn1.obj
 0002:00021f30       X9_62_CHARACTERISTIC_TWO_adb 0000000000094730     OpensslLib:ec_asn1.obj
 0002:00021f60       X9_62_CHARACTERISTIC_TWO_seq_tt 0000000000094760     OpensslLib:ec_asn1.obj
 0002:00021fc0       ECDSA_SIG_seq_tt           00000000000947c0     OpensslLib:ec_asn1.obj
 0002:00022000       ECPARAMETERS_seq_tt        0000000000094800     OpensslLib:ec_asn1.obj
 0002:000220c0       ECDSA_SIG_it               00000000000948c0     OpensslLib:ec_asn1.obj
 0002:000220f0       X9_62_FIELDID_it           00000000000948f0     OpensslLib:ec_asn1.obj
 0002:00022120       X9_62_CHARACTERISTIC_TWO_it 0000000000094920     OpensslLib:ec_asn1.obj
 0002:00022150       ECPKPARAMETERS_ch_tt       0000000000094950     OpensslLib:ec_asn1.obj
 0002:000221e0       EC_PRIVATEKEY_it           00000000000949e0     OpensslLib:ec_asn1.obj
 0002:00022210       X9_62_FIELDID_adb          0000000000094a10     OpensslLib:ec_asn1.obj
 0002:00022240       EC_PRIVATEKEY_seq_tt       0000000000094a40     OpensslLib:ec_asn1.obj
 0002:000222c0       X9_62_CURVE_seq_tt         0000000000094ac0     OpensslLib:ec_asn1.obj
 0002:00022320       X9_62_PENTANOMIAL_it       0000000000094b20     OpensslLib:ec_asn1.obj
 0002:00022350       X9_62_CHARACTERISTIC_TWO_adbtbl 0000000000094b50     OpensslLib:ec_asn1.obj
 0002:000223c8       char_two_def_tt            0000000000094bc8     OpensslLib:ec_asn1.obj
 0002:000223f0       X9_62_FIELDID_adbtbl       0000000000094bf0     OpensslLib:ec_asn1.obj
 0002:00022460       Hex                        0000000000094c60     OpensslLib:bn_print.obj
 0002:00022550       ACCESS_DESCRIPTION_seq_tt  0000000000094d50     OpensslLib:v3_info.obj
 0002:00022668       AUTHORITY_INFO_ACCESS_item_tt 0000000000094e68     OpensslLib:v3_info.obj
 0002:00022710       PROXY_POLICY_seq_tt        0000000000094f10     OpensslLib:v3_pcia.obj
 0002:00022780       PROXY_CERT_INFO_EXTENSION_seq_tt 0000000000094f80     OpensslLib:v3_pcia.obj
 0002:00022880       BASIC_CONSTRAINTS_seq_tt   0000000000095080     OpensslLib:v3_bcons.obj
 0002:00022ff0       _EC_brainpoolP512t1        00000000000957f0     OpensslLib:ec_curve.obj
 0002:00023180       _EC_WTLS_8                 0000000000095980     OpensslLib:ec_curve.obj
 0002:000231f0       _EC_brainpoolP512r1        00000000000959f0     OpensslLib:ec_curve.obj
 0002:00023380       _EC_X9_62_PRIME_239V3      0000000000095b80     OpensslLib:ec_curve.obj
 0002:00023460       _EC_SECG_PRIME_224K1       0000000000095c60     OpensslLib:ec_curve.obj
 0002:00023520       _EC_SECG_PRIME_128R2       0000000000095d20     OpensslLib:ec_curve.obj
 0002:000235b0       _EC_sm2p256v1              0000000000095db0     OpensslLib:ec_curve.obj
 0002:00023680       curve_list                 0000000000095e80     OpensslLib:ec_curve.obj
 0002:00023b80       _EC_brainpoolP256t1        0000000000096380     OpensslLib:ec_curve.obj
 0002:00023c50       _EC_SECG_PRIME_112R1       0000000000096450     OpensslLib:ec_curve.obj
 0002:00023cd0       _EC_NIST_PRIME_521         00000000000964d0     OpensslLib:ec_curve.obj
 0002:00023e80       _EC_NIST_PRIME_192         0000000000096680     OpensslLib:ec_curve.obj
 0002:00023f40       _EC_NIST_PRIME_384         0000000000096740     OpensslLib:ec_curve.obj
 0002:00024090       _EC_SECG_PRIME_128R1       0000000000096890     OpensslLib:ec_curve.obj
 0002:00024120       _EC_WTLS_9                 0000000000096920     OpensslLib:ec_curve.obj
 0002:000241b0       _EC_SECG_PRIME_160R2       00000000000969b0     OpensslLib:ec_curve.obj
 0002:00024260       _EC_SECG_PRIME_192K1       0000000000096a60     OpensslLib:ec_curve.obj
 0002:00024300       _EC_NIST_PRIME_224         0000000000096b00     OpensslLib:ec_curve.obj
 0002:000243d0       _EC_brainpoolP160t1        0000000000096bd0     OpensslLib:ec_curve.obj
 0002:00024460       _EC_brainpoolP384r1        0000000000096c60     OpensslLib:ec_curve.obj
 0002:00024590       _EC_WTLS_12                0000000000096d90     OpensslLib:ec_curve.obj
 0002:00024650       _EC_SECG_PRIME_160K1       0000000000096e50     OpensslLib:ec_curve.obj
 0002:000246e0       _EC_X9_62_PRIME_239V1      0000000000096ee0     OpensslLib:ec_curve.obj
 0002:000247c0       _EC_brainpoolP160r1        0000000000096fc0     OpensslLib:ec_curve.obj
 0002:00024850       _EC_brainpoolP224t1        0000000000097050     OpensslLib:ec_curve.obj
 0002:00024910       _EC_X9_62_PRIME_239V2      0000000000097110     OpensslLib:ec_curve.obj
 0002:000249f0       _EC_X9_62_PRIME_192V2      00000000000971f0     OpensslLib:ec_curve.obj
 0002:00024ab0       _EC_SECG_PRIME_256K1       00000000000972b0     OpensslLib:ec_curve.obj
 0002:00024b80       _EC_brainpoolP224r1        0000000000097380     OpensslLib:ec_curve.obj
 0002:00024c40       _EC_SECG_PRIME_112R2       0000000000097440     OpensslLib:ec_curve.obj
 0002:00024cc0       _EC_brainpoolP192r1        00000000000974c0     OpensslLib:ec_curve.obj
 0002:00024d60       _EC_brainpoolP320t1        0000000000097560     OpensslLib:ec_curve.obj
 0002:00024e60       _EC_brainpoolP320r1        0000000000097660     OpensslLib:ec_curve.obj
 0002:00024f60       _EC_SECG_PRIME_160R1       0000000000097760     OpensslLib:ec_curve.obj
 0002:00025010       _EC_brainpoolP256r1        0000000000097810     OpensslLib:ec_curve.obj
 0002:000250e0       _EC_brainpoolP384t1        00000000000978e0     OpensslLib:ec_curve.obj
 0002:00025210       _EC_brainpoolP192t1        0000000000097a10     OpensslLib:ec_curve.obj
 0002:000252b0       _EC_X9_62_PRIME_192V3      0000000000097ab0     OpensslLib:ec_curve.obj
 0002:00025370       _EC_X9_62_PRIME_256V1      0000000000097b70     OpensslLib:ec_curve.obj
 0002:00025470       openssl_ec_key_method      0000000000097c70     OpensslLib:ec_kmeth.obj
 0002:00025600       POLICY_CONSTRAINTS_seq_tt  0000000000097e00     OpensslLib:v3_pcons.obj
 0002:00025878       POLICYQUALINFO_adb         0000000000098078     OpensslLib:v3_cpols.obj
 0002:000258b0       POLICYQUALINFO_adbtbl      00000000000980b0     OpensslLib:v3_cpols.obj
 0002:00025930       POLICYQUALINFO_seq_tt      0000000000098130     OpensslLib:v3_cpols.obj
 0002:00025970       NOTICEREF_seq_tt           0000000000098170     OpensslLib:v3_cpols.obj
 0002:000259b0       policydefault_tt           00000000000981b0     OpensslLib:v3_cpols.obj
 0002:000259d0       USERNOTICE_seq_tt          00000000000981d0     OpensslLib:v3_cpols.obj
 0002:00025a10       CERTIFICATEPOLICIES_item_tt 0000000000098210     OpensslLib:v3_cpols.obj
 0002:00025a60       POLICYINFO_seq_tt          0000000000098260     OpensslLib:v3_cpols.obj
 0002:00027488       ossl_pers_string           0000000000099c88     OpensslLib:drbg_lib.obj
 0002:000282c0       methods_enc                000000000009aac0     OpensslLib:bio_enc.obj
 0002:00028330       methods_md                 000000000009ab30     OpensslLib:bio_md.obj
 0002:00028390       null_method                000000000009ab90     OpensslLib:bss_null.obj
 0002:00028430       OCSP_SERVICELOC_seq_tt     000000000009ac30     OpensslLib:ocsp_asn.obj
 0002:00028470       OCSP_CRLID_seq_tt          000000000009ac70     OpensslLib:ocsp_asn.obj
 0002:00028620       EXTENDED_KEY_USAGE_item_tt 000000000009ae20     OpensslLib:v3_extku.obj
 0002:000294c0       ADMISSIONS_seq_tt          000000000009bcc0     OpensslLib:v3_admis.obj
 0002:00029580       NAMING_AUTHORITY_seq_tt    000000000009bd80     OpensslLib:v3_admis.obj
 0002:000295e0       PROFESSION_INFO_seq_tt     000000000009bde0     OpensslLib:v3_admis.obj
 0002:00029680       ADMISSION_SYNTAX_seq_tt    000000000009be80     OpensslLib:v3_admis.obj
 0002:000298b0       PKEY_USAGE_PERIOD_seq_tt   000000000009c0b0     OpensslLib:v3_pku.obj
 0002:000299e0       POLICY_MAPPING_seq_tt      000000000009c1e0     OpensslLib:v3_pmaps.obj
 0002:00029a80       POLICY_MAPPINGS_item_tt    000000000009c280     OpensslLib:v3_pmaps.obj
 0002:00029b50       SXNET_seq_tt               000000000009c350     OpensslLib:v3_sxnet.obj
 0002:00029bc0       SXNETID_seq_tt             000000000009c3c0     OpensslLib:v3_sxnet.obj
 0002:00029d80       TLS_FEATURE_it             000000000009c580     OpensslLib:v3_tlsf.obj
 0002:00029db0       TLS_FEATURE_item_tt        000000000009c5b0     OpensslLib:v3_tlsf.obj
 0002:00029f00       ?tnst@?1??asn1_str2tag@@9@9 000000000009c700     OpensslLib:asn1_gen.obj
 0002:0002a210       null_md                    000000000009ca10     OpensslLib:m_null.obj
 0002:0002a270       ?order@?1??c448_ed448_verify@@9@9 000000000009ca70     OpensslLib:eddsa.obj
 0002:0002a2b0       ?zero@?1??fe_isnonzero@@9@9 000000000009cab0     OpensslLib:curve25519.obj
 0002:0002a2d0       d                          000000000009cad0     OpensslLib:curve25519.obj
 0002:0002a2f8       d2                         000000000009caf8     OpensslLib:curve25519.obj
 0002:0002a320       k25519Precomp              000000000009cb20     OpensslLib:curve25519.obj
 0002:00031b20       sqrtm1                     00000000000a4320     OpensslLib:curve25519.obj
 0002:00031b48       ?kZeros@?1??X25519@@9@9    00000000000a4348     OpensslLib:curve25519.obj
 0002:00031b70       Bi                         00000000000a4370     OpensslLib:curve25519.obj
 0002:00031f70       ONE                        00000000000a4770     OpensslLib:curve448.obj
 0002:00031fb0       precomputed_scalarmul_adjustment 00000000000a47b0     OpensslLib:curve448.obj
 0002:000320f0       ZERO                       00000000000a48f0     OpensslLib:curve448.obj
 0002:00032260       DHvparams_it               00000000000a4a60     OpensslLib:dh_asn1.obj
 0002:00032290       DHxparams_seq_tt           00000000000a4a90     OpensslLib:dh_asn1.obj
 0002:00032360       DHparams_seq_tt            00000000000a4b60     OpensslLib:dh_asn1.obj
 0002:000323c0       DHvparams_seq_tt           00000000000a4bc0     OpensslLib:dh_asn1.obj
 0002:00032400       DHparams_aux               00000000000a4c00     OpensslLib:dh_asn1.obj
 0002:00032428       DHxparams_it               00000000000a4c28     OpensslLib:dh_asn1.obj
 0002:00032458       ?dummy_key@?1??HMAC@@9@9   00000000000a4c58     OpensslLib:hmac.obj
 0002:00032460       sm4_ecb                    00000000000a4c60     OpensslLib:e_sm4.obj
 0002:000324c0       sm4_ctr_mode               00000000000a4cc0     OpensslLib:e_sm4.obj
 0002:00032520       sm4_cfb128                 00000000000a4d20     OpensslLib:e_sm4.obj
 0002:00032580       sm4_cbc                    00000000000a4d80     OpensslLib:e_sm4.obj
 0002:000325e0       sm4_ofb                    00000000000a4de0     OpensslLib:e_sm4.obj
 0002:00032640       aria_256_ctr               00000000000a4e40     OpensslLib:e_aria.obj
 0002:000326a0       aria_192_ofb               00000000000a4ea0     OpensslLib:e_aria.obj
 0002:00032700       aria_128_cbc               00000000000a4f00     OpensslLib:e_aria.obj
 0002:00032760       aria_192_ccm               00000000000a4f60     OpensslLib:e_aria.obj
 0002:000327c0       aria_128_ofb               00000000000a4fc0     OpensslLib:e_aria.obj
 0002:00032820       aria_128_gcm               00000000000a5020     OpensslLib:e_aria.obj
 0002:00032880       aria_192_cfb8              00000000000a5080     OpensslLib:e_aria.obj
 0002:000328e0       aria_256_cbc               00000000000a50e0     OpensslLib:e_aria.obj
 0002:00032940       aria_192_cfb1              00000000000a5140     OpensslLib:e_aria.obj
 0002:000329a0       aria_128_ecb               00000000000a51a0     OpensslLib:e_aria.obj
 0002:00032a00       aria_256_ecb               00000000000a5200     OpensslLib:e_aria.obj
 0002:00032a60       aria_192_ecb               00000000000a5260     OpensslLib:e_aria.obj
 0002:00032ac0       aria_128_cfb1              00000000000a52c0     OpensslLib:e_aria.obj
 0002:00032b20       aria_256_cfb8              00000000000a5320     OpensslLib:e_aria.obj
 0002:00032b80       aria_256_gcm               00000000000a5380     OpensslLib:e_aria.obj
 0002:00032be0       aria_256_cfb1              00000000000a53e0     OpensslLib:e_aria.obj
 0002:00032c40       aria_128_cfb128            00000000000a5440     OpensslLib:e_aria.obj
 0002:00032ca0       aria_256_cfb128            00000000000a54a0     OpensslLib:e_aria.obj
 0002:00032d00       aria_128_ctr               00000000000a5500     OpensslLib:e_aria.obj
 0002:00032d60       aria_128_cfb8              00000000000a5560     OpensslLib:e_aria.obj
 0002:00032dc0       aria_192_cfb128            00000000000a55c0     OpensslLib:e_aria.obj
 0002:00032e20       aria_192_cbc               00000000000a5620     OpensslLib:e_aria.obj
 0002:00032e80       aria_192_ctr               00000000000a5680     OpensslLib:e_aria.obj
 0002:00032ee0       aria_128_ccm               00000000000a56e0     OpensslLib:e_aria.obj
 0002:00032f40       aria_256_ofb               00000000000a5740     OpensslLib:e_aria.obj
 0002:00032fa0       aria_256_ccm               00000000000a57a0     OpensslLib:e_aria.obj
 0002:00033000       aria_192_gcm               00000000000a5800     OpensslLib:e_aria.obj
 0002:00033060       aes_192_ecb                00000000000a5860     OpensslLib:e_aes.obj
 0002:000330c0       aes_192_ccm                00000000000a58c0     OpensslLib:e_aes.obj
 0002:00033120       aes_192_ctr                00000000000a5920     OpensslLib:e_aes.obj
 0002:00033180       aes_128_ofb                00000000000a5980     OpensslLib:e_aes.obj
 0002:000331e0       aes_256_ccm                00000000000a59e0     OpensslLib:e_aes.obj
 0002:00033240       aes_192_gcm                00000000000a5a40     OpensslLib:e_aes.obj
 0002:000332a0       aes_128_wrap_pad           00000000000a5aa0     OpensslLib:e_aes.obj
 0002:00033300       aes_256_ctr                00000000000a5b00     OpensslLib:e_aes.obj
 0002:00033360       aes_192_cfb8               00000000000a5b60     OpensslLib:e_aes.obj
 0002:000333c0       aes_192_cfb                00000000000a5bc0     OpensslLib:e_aes.obj
 0002:00033420       aes_256_gcm                00000000000a5c20     OpensslLib:e_aes.obj
 0002:00033480       aes_128_gcm                00000000000a5c80     OpensslLib:e_aes.obj
 0002:000334e0       aes_128_cfb1               00000000000a5ce0     OpensslLib:e_aes.obj
 0002:00033540       aes_192_cbc                00000000000a5d40     OpensslLib:e_aes.obj
 0002:000335a0       aes_128_xts                00000000000a5da0     OpensslLib:e_aes.obj
 0002:00033600       aes_128_ctr                00000000000a5e00     OpensslLib:e_aes.obj
 0002:00033660       aes_256_wrap               00000000000a5e60     OpensslLib:e_aes.obj
 0002:000336c0       aes_256_cbc                00000000000a5ec0     OpensslLib:e_aes.obj
 0002:00033720       aes_192_ofb                00000000000a5f20     OpensslLib:e_aes.obj
 0002:00033780       aes_256_wrap_pad           00000000000a5f80     OpensslLib:e_aes.obj
 0002:000337e0       aes_128_ecb                00000000000a5fe0     OpensslLib:e_aes.obj
 0002:00033840       aes_256_ofb                00000000000a6040     OpensslLib:e_aes.obj
 0002:000338a0       aes_256_cfb                00000000000a60a0     OpensslLib:e_aes.obj
 0002:00033900       aes_128_wrap               00000000000a6100     OpensslLib:e_aes.obj
 0002:00033960       aes_256_cfb1               00000000000a6160     OpensslLib:e_aes.obj
 0002:000339c0       aes_128_cbc                00000000000a61c0     OpensslLib:e_aes.obj
 0002:00033a20       aes_192_wrap_pad           00000000000a6220     OpensslLib:e_aes.obj
 0002:00033a80       aes_256_cfb8               00000000000a6280     OpensslLib:e_aes.obj
 0002:00033ae0       aes_128_cfb8               00000000000a62e0     OpensslLib:e_aes.obj
 0002:00033b40       aes_256_ecb                00000000000a6340     OpensslLib:e_aes.obj
 0002:00033ba0       aes_256_xts                00000000000a63a0     OpensslLib:e_aes.obj
 0002:00033c00       aes_128_cfb                00000000000a6400     OpensslLib:e_aes.obj
 0002:00033c60       aes_192_wrap               00000000000a6460     OpensslLib:e_aes.obj
 0002:00033cc0       aes_192_cfb1               00000000000a64c0     OpensslLib:e_aes.obj
 0002:00033d20       aes_128_ccm                00000000000a6520     OpensslLib:e_aes.obj
 0002:00033d78       ?df_key@?3??drbg_ctr_init@@9@9 00000000000a6578     OpensslLib:drbg_ctr.obj
 0002:00033da0       ?shake128_md@?1??EVP_shake128@@9@9 00000000000a65a0     OpensslLib:m_sha3.obj
 0002:00033df0       ?shake256_md@?1??EVP_shake256@@9@9 00000000000a65f0     OpensslLib:m_sha3.obj
 0002:00033e40       ?sha3_224_md@?1??EVP_sha3_224@@9@9 00000000000a6640     OpensslLib:m_sha3.obj
 0002:00033e90       ?sha3_384_md@?1??EVP_sha3_384@@9@9 00000000000a6690     OpensslLib:m_sha3.obj
 0002:00033ee0       ?sha3_256_md@?1??EVP_sha3_256@@9@9 00000000000a66e0     OpensslLib:m_sha3.obj
 0002:00033f30       ?sha3_512_md@?1??EVP_sha3_512@@9@9 00000000000a6730     OpensslLib:m_sha3.obj
 0002:00033f80       sm3_md                     00000000000a6780     OpensslLib:m_sm3.obj
 0002:00033fd0       md5_sha1_md                00000000000a67d0     OpensslLib:m_md5_sha1.obj
 0002:000340e0       zeroes                     00000000000a68e0     OpensslLib:rsa_pss.obj
 0002:00034110       SM2_Ciphertext_seq_tt      00000000000a6910     OpensslLib:sm2_crypt.obj
 0002:000341c0       ?ret@?1??EC_GFp_nist_method@@9@9 00000000000a69c0     OpensslLib:ecp_nist.obj
 0002:00034370       _nist_p_256                00000000000a6b70     OpensslLib:bn_nist.obj
 0002:00034410       ?_bignum_nist_p_256_sqr@?1??BN_nist_mod_256@@9@9 00000000000a6c10     OpensslLib:bn_nist.obj
 0002:00034430       _nist_p_521                00000000000a6c30     OpensslLib:bn_nist.obj
 0002:00034478       _nist_p_192_sqr            00000000000a6c78     OpensslLib:bn_nist.obj
 0002:000344a8       _nist_p_224_sqr            00000000000a6ca8     OpensslLib:bn_nist.obj
 0002:000344e0       _bignum_nist_p_521         00000000000a6ce0     OpensslLib:bn_nist.obj
 0002:000344f8       _bignum_nist_p_256         00000000000a6cf8     OpensslLib:bn_nist.obj
 0002:00034510       _bignum_nist_p_384         00000000000a6d10     OpensslLib:bn_nist.obj
 0002:00034528       ?_bignum_nist_p_521_sqr@?1??BN_nist_mod_521@@9@9 00000000000a6d28     OpensslLib:bn_nist.obj
 0002:00034540       _nist_p_384_sqr            00000000000a6d40     OpensslLib:bn_nist.obj
 0002:000345a0       ?_bignum_nist_p_224_sqr@?1??BN_nist_mod_224@@9@9 00000000000a6da0     OpensslLib:bn_nist.obj
 0002:000345c0       _nist_p_224                00000000000a6dc0     OpensslLib:bn_nist.obj
 0002:00034600       ?_bignum_nist_p_384_sqr@?1??BN_nist_mod_384@@9@9 00000000000a6e00     OpensslLib:bn_nist.obj
 0002:00034618       ?_bignum_nist_p_192_sqr@?1??BN_nist_mod_192@@9@9 00000000000a6e18     OpensslLib:bn_nist.obj
 0002:00034630       _nist_p_521_sqr            00000000000a6e30     OpensslLib:bn_nist.obj
 0002:000346c0       _nist_p_256_sqr            00000000000a6ec0     OpensslLib:bn_nist.obj
 0002:00034700       _bignum_nist_p_224         00000000000a6f00     OpensslLib:bn_nist.obj
 0002:00034718       _bignum_nist_p_192         00000000000a6f18     OpensslLib:bn_nist.obj
 0002:00034730       _nist_p_384                00000000000a6f30     OpensslLib:bn_nist.obj
 0002:00034820       _nist_p_192                00000000000a7020     OpensslLib:bn_nist.obj
 0002:00034870       ?ret@?1??EC_GFp_mont_method@@9@9 00000000000a7070     OpensslLib:ecp_mont.obj
 0002:00034a20       ?tab@?1??BN_kronecker@@9@9 00000000000a7220     OpensslLib:bn_kron.obj
 0002:00034a40       primes                     00000000000a7240     OpensslLib:bn_prime.obj
 0002:00035a80       sc_p                       00000000000a8280     OpensslLib:scalar.obj
 0002:00035b00       sc_r2                      00000000000a8300     OpensslLib:scalar.obj
 0002:00035b40       curve448_wnaf_base_table   00000000000a8340     OpensslLib:curve448_tables.obj
 0002:00037340       curve448_precomputed_base_table 00000000000a9b40     OpensslLib:curve448_tables.obj
 0002:0003af40       MODULUS                    00000000000ad740     OpensslLib:f_generic.obj
 0002:0003af80       ONE                        00000000000ad780     OpensslLib:f_generic.obj
 0002:0003afc0       ?CK@?1??SM4_set_key@@9@9   00000000000ad7c0     OpensslLib:sm4.obj
 0002:0003b040       SM4_S                      00000000000ad840     OpensslLib:sm4.obj
 0002:0003b140       SM4_SBOX_T                 00000000000ad940     OpensslLib:sm4.obj
 0002:0003b540       rem_4bit                   00000000000add40     OpensslLib:gcm128.obj
 0002:0003b5c0       sb4                        00000000000addc0     OpensslLib:aria.obj
 0002:0003b6c0       c3                         00000000000adec0     OpensslLib:aria.obj
 0002:0003b6d0       Td4                        00000000000aded0     OpensslLib:aes_core.obj
 0002:0003b6d0       sb3                        00000000000aded0     OpensslLib:aria.obj
 0002:0003b7d0       c2                         00000000000adfd0     OpensslLib:aria.obj
 0002:0003b7e0       c1                         00000000000adfe0     OpensslLib:aria.obj
 0002:0003b7f0       sb2                        00000000000adff0     OpensslLib:aria.obj
 0002:0003b8f0       sb1                        00000000000ae0f0     OpensslLib:aria.obj
 0002:0003b9f0       Td2                        00000000000ae1f0     OpensslLib:aes_core.obj
 0002:0003bdf0       Td1                        00000000000ae5f0     OpensslLib:aes_core.obj
 0002:0003c1f0       Td0                        00000000000ae9f0     OpensslLib:aes_core.obj
 0002:0003c5f0       Te0                        00000000000aedf0     OpensslLib:aes_core.obj
 0002:0003c9f0       rcon                       00000000000af1f0     OpensslLib:aes_core.obj
 0002:0003ca20       Te3                        00000000000af220     OpensslLib:aes_core.obj
 0002:0003ce20       Te2                        00000000000af620     OpensslLib:aes_core.obj
 0002:0003d220       Td3                        00000000000afa20     OpensslLib:aes_core.obj
 0002:0003d620       Te1                        00000000000afe20     OpensslLib:aes_core.obj
 0002:0003da20       default_aiv                00000000000b0220     OpensslLib:wrap128.obj
 0002:0003da28       default_iv                 00000000000b0228     OpensslLib:wrap128.obj
 0002:0003dab0       iotas                      00000000000b02b0     OpensslLib:keccak1600.obj
 0002:0003dce0       dh1024_160_g               00000000000b04e0     OpensslLib:bn_dh.obj
 0002:0003dd60       ffdhe4096_p                00000000000b0560     OpensslLib:bn_dh.obj
 0002:0003df60       dh2048_256_q               00000000000b0760     OpensslLib:bn_dh.obj
 0002:0003df80       ffdhe3072_p                00000000000b0780     OpensslLib:bn_dh.obj
 0002:0003e100       dh2048_256_p               00000000000b0900     OpensslLib:bn_dh.obj
 0002:0003e200       dh2048_256_g               00000000000b0a00     OpensslLib:bn_dh.obj
 0002:0003e300       dh2048_224_g               00000000000b0b00     OpensslLib:bn_dh.obj
 0002:0003e400       value_2                    00000000000b0c00     OpensslLib:bn_dh.obj
 0002:0003e408       dh2048_224_q               00000000000b0c08     OpensslLib:bn_dh.obj
 0002:0003e428       dh1024_160_q               00000000000b0c28     OpensslLib:bn_dh.obj
 0002:0003e440       dh2048_224_p               00000000000b0c40     OpensslLib:bn_dh.obj
 0002:0003e540       ffdhe8192_p                00000000000b0d40     OpensslLib:bn_dh.obj
 0002:0003e940       ffdhe2048_p                00000000000b1140     OpensslLib:bn_dh.obj
 0002:0003ea40       ffdhe6144_p                00000000000b1240     OpensslLib:bn_dh.obj
 0002:0003ed40       dh1024_160_p               00000000000b1540     OpensslLib:bn_dh.obj
 0002:0003f080       allzeroes                  00000000000b1880     OpensslLib:curve25519.obj
 0003:00000cd4       allow_customize            00000000000b2c94     OpensslLib:mem.obj
 0003:00000cd8       new_nid                    00000000000b2c98     OpensslLib:obj_dat.obj
 0003:00000ce0       memset_func                00000000000b2ca0     OpensslLib:mem_clr.obj
 0003:00000cf0       xstandard                  00000000000b2cb0     OpensslLib:v3_purp.obj
 0003:00000ea0       int_crl_meth               00000000000b2e60     OpensslLib:x_crl.obj
 0003:00000ed0       trstandard                 00000000000b2e90     OpensslLib:x509_trs.obj
 0003:00001010       standard_methods           00000000000b2fd0     OpensslLib:ameth_lib.obj
 0003:00001080       destructor_key             00000000000b3040     OpensslLib:init.obj
 0003:00001090       standard_methods           00000000000b3050     OpensslLib:pmeth_lib.obj
 0003:00001110       bignum_pf                  00000000000b30d0     OpensslLib:x_bignum.obj
 0003:00001150       cbignum_pf                 00000000000b3110     OpensslLib:x_bignum.obj
 0003:00001190       uint32_pf                  00000000000b3150     OpensslLib:x_int64.obj
 0003:000011d0       rsa_pkcs1_ossl_meth        00000000000b3190     OpensslLib:rsa_ossl.obj
 0003:00001250       standard_exts              00000000000b3210     OpensslLib:v3_lib.obj
 0003:000013a0       nist_curves                00000000000b3360     OpensslLib:ec_curve.obj
 0003:00001490       dh_ossl                    00000000000b3450     OpensslLib:dh_key.obj
 0003:00001510       key_usage_type_table       00000000000b34d0     OpensslLib:v3_bitst.obj
 0003:00001600       ns_cert_type_table         00000000000b35c0     OpensslLib:v3_bitst.obj
 0003:000016e0       crl_reasons                00000000000b36a0     OpensslLib:v3_enum.obj
 0003:000017f0       tls_feature_tbl            00000000000b37b0     OpensslLib:v3_tlsf.obj
 0003:00001810       drbg_ctr_meth              00000000000b37d0     OpensslLib:drbg_ctr.obj
 0003:00001830       ?c80@?1??ctr_df@@9@9       00000000000b37f0     OpensslLib:drbg_ctr.obj
 0003:000018d0       mInterfaceLocked           00000000000b3890     VariablePolicyLibRuntimeDxe:VariablePolicyLib.obj
 0003:000018d4       mCurrentTableUsage         00000000000b3894     VariablePolicyLibRuntimeDxe:VariablePolicyLib.obj
 0003:000018e0       mCurrentTableSize          00000000000b38a0     VariablePolicyLibRuntimeDxe:VariablePolicyLib.obj
 0003:000018e4       mProtectionDisabled        00000000000b38a4     VariablePolicyLibRuntimeDxe:VariablePolicyLib.obj
 0003:000018e8       mCurrentTableCount         00000000000b38a8     VariablePolicyLibRuntimeDxe:VariablePolicyLib.obj
 0003:000018f0       mVariablePolicyLibVirtualAddressChangeEvent 00000000000b38b0     VariablePolicyLibRuntimeDxe:VariablePolicyExtraInitRuntimeDxe.obj
 0003:00001990       names_lh                   00000000000b3950     OpensslLib:o_names.obj
 0003:00001998       init                       00000000000b3958     OpensslLib:o_names.obj
 0003:000019a0       obj_lock                   00000000000b3960     OpensslLib:o_names.obj
 0003:000019a8       o_names_init_ossl_ret_     00000000000b3968     OpensslLib:o_names.obj
 0003:000019b0       added                      00000000000b3970     OpensslLib:obj_dat.obj
 0003:000019b8       err_init                   00000000000b3978     OpensslLib:err.obj
 0003:000019bc       err_do_init_ossl_ret_      00000000000b397c     OpensslLib:err.obj
 0003:000019c0       xptable                    00000000000b3980     OpensslLib:v3_purp.obj
 0003:000019c8       param_table                00000000000b3988     OpensslLib:x509_vpm.obj
 0003:000019d0       trtable                    00000000000b3990     OpensslLib:x509_trs.obj
 0003:000019d8       ex_data_lock               00000000000b3998     OpensslLib:ex_data.obj
 0003:000019e0       do_ex_data_init_ossl_ret_  00000000000b39a0     OpensslLib:ex_data.obj
 0003:000019e4       ex_data_init               00000000000b39a4     OpensslLib:ex_data.obj
 0003:000019e8       app_methods                00000000000b39a8     OpensslLib:ameth_lib.obj
 0003:000019f0       ?thread_local_key@?1??CRYPTO_THREAD_init_local@@9@9 00000000000b39b0     OpensslLib:threads_none.obj
 0003:000019f4       add_all_digests            00000000000b39b4     OpensslLib:init.obj
 0003:000019f8       ossl_init_load_crypto_strings_ossl_ret_ 00000000000b39b8     OpensslLib:init.obj
 0003:000019fc       ossl_init_base_ossl_ret_   00000000000b39bc     OpensslLib:init.obj
 0003:00001a00       ossl_init_config_ossl_ret_ 00000000000b39c0     OpensslLib:init.obj
 0003:00001a08       init_lock                  00000000000b39c8     OpensslLib:init.obj
 0003:00001a10       register_atexit            00000000000b39d0     OpensslLib:init.obj
 0003:00001a18       conf_settings              00000000000b39d8     OpensslLib:init.obj
 0003:00001a20       ossl_init_async_ossl_ret_  00000000000b39e0     OpensslLib:init.obj
 0003:00001a24       ossl_init_zlib_ossl_ret_   00000000000b39e4     OpensslLib:init.obj
 0003:00001a28       zlib                       00000000000b39e8     OpensslLib:init.obj
 0003:00001a2c       ossl_init_register_atexit_ossl_ret_ 00000000000b39ec     OpensslLib:init.obj
 0003:00001a30       add_all_ciphers            00000000000b39f0     OpensslLib:init.obj
 0003:00001a34       ossl_init_load_crypto_nodelete_ossl_ret_ 00000000000b39f4     OpensslLib:init.obj
 0003:00001a38       config                     00000000000b39f8     OpensslLib:init.obj
 0003:00001a3c       load_crypto_nodelete       00000000000b39fc     OpensslLib:init.obj
 0003:00001a40       async                      00000000000b3a00     OpensslLib:init.obj
 0003:00001a44       ossl_init_add_all_ciphers_ossl_ret_ 00000000000b3a04     OpensslLib:init.obj
 0003:00001a48       stopped                    00000000000b3a08     OpensslLib:init.obj
 0003:00001a4c       load_crypto_strings        00000000000b3a0c     OpensslLib:init.obj
 0003:00001a50       ossl_init_add_all_digests_ossl_ret_ 00000000000b3a10     OpensslLib:init.obj
 0003:00001a54       base                       00000000000b3a14     OpensslLib:init.obj
 0003:00001a58       app_pkey_methods           00000000000b3a18     OpensslLib:pmeth_lib.obj
 0003:00001a60       stable                     00000000000b3a20     OpensslLib:a_strnid.obj
 0003:00001a68       supported_modules          00000000000b3a28     OpensslLib:conf_mod.obj
 0003:00001a70       ext_list                   00000000000b3a30     OpensslLib:v3_lib.obj
 0003:00001a78       openssl_configured         00000000000b3a38     OpensslLib:conf_sap.obj
 0003:00001a7c       do_rand_drbg_init_ossl_ret_ 00000000000b3a3c     OpensslLib:drbg_lib.obj
 0003:00001a80       rand_drbg_init             00000000000b3a40     OpensslLib:drbg_lib.obj
 0003:00001a84       rand_drbg_flags            00000000000b3a44     OpensslLib:drbg_lib.obj
 0003:00001a88       rand_init                  00000000000b3a48     OpensslLib:rand_lib.obj
 0003:00001a8c       do_rand_init_ossl_ret_     00000000000b3a4c     OpensslLib:rand_lib.obj
 0003:00001a90       ?zeros@?1??CRYPTO_128_unwrap_pad@@9@9 00000000000b3a50     OpensslLib:wrap128.obj
 0003:00001aa0       ?Reclaimed@?1??ReclaimForOS@@9@9 00000000000b3a60     VariableRuntimeDxe:Variable.obj
 0003:00001aa1       mRunningOnQ35              00000000000b3a61     DxePciLibI440FxQ35:PciLib.obj
 0003:00001aa4       mAcpiTimerIoAddr           00000000000b3a64     DxeAcpiTimerLib:DxeAcpiTimerLib.obj
 0003:00001aa8       mVirtualAddressChangeEvent 00000000000b3a68     RuntimeCryptLib:RuntimeMemAllocation.obj
 0003:00001ab0       free_type                  00000000000b3a70     OpensslLib:o_names.obj
 0003:00001ab4       err_thread_local           00000000000b3a74     OpensslLib:err.obj
 0003:00001ab8       name_funcs_stack           00000000000b3a78     OpensslLib:o_names.obj
 0003:00001ac0       ?nilbn@?1??bn_init@@9@9    00000000000b3a80     OpensslLib:bn_lib.obj
 0003:00001ad8       err_string_lock            00000000000b3a98     OpensslLib:err.obj
 0003:00001ae0       ex_data                    00000000000b3aa0     OpensslLib:ex_data.obj
 0003:00001b60       ?m@?1??SHA512@@9@9         00000000000b3b20     OpensslLib:sha512.obj
 0003:00001ba0       thread_local_storage       00000000000b3b60     OpensslLib:threads_none.obj
 0003:000023a0       pbe_algs                   00000000000b4360     OpensslLib:evp_pbe.obj
 0003:000023a8       sigx_app                   00000000000b4368     OpensslLib:obj_xref.obj
 0003:000023b0       sig_app                    00000000000b4370     OpensslLib:obj_xref.obj
 0003:000023b8       ctxkey                     00000000000b4378     OpensslLib:async.obj
 0003:000023bc       poolkey                    00000000000b437c     OpensslLib:async.obj
 0003:000023c0       private_drbg               00000000000b4380     OpensslLib:drbg_lib.obj
 0003:000023c4       public_drbg                00000000000b4384     OpensslLib:drbg_lib.obj
 0003:000023c8       master_drbg                00000000000b4388     OpensslLib:drbg_lib.obj
 0003:000023d0       rand_nonce_count           00000000000b4390     OpensslLib:rand_lib.obj
 0003:000023d8       default_RAND_meth          00000000000b4398     OpensslLib:rand_lib.obj
 0003:000023e0       rand_nonce_lock            00000000000b43a0     OpensslLib:rand_lib.obj
 0003:000023e8       rand_meth_lock             00000000000b43a8     OpensslLib:rand_lib.obj
 0003:000023f0       ?tntmp@?1??asn1_str2tag@@9@9 00000000000b43b0     OpensslLib:asn1_gen.obj
 0003:000023f8       ssl_names_count            00000000000b43b8     OpensslLib:conf_ssl.obj
 0003:00002400       ?m@?1??HMAC@@9@9           00000000000b43c0     OpensslLib:hmac.obj
 0003:00002440       ssl_names                  00000000000b4400     OpensslLib:conf_ssl.obj
 0005:00000000       $unwind$X509ConstructCertificate 00000000000b8600     RuntimeCryptLib:CryptX509.obj
 0005:00000000       $unwind$ASN1_INTEGER_cmp   00000000000b8600     OpensslLib:a_int.obj
 0005:00000000       $unwind$cpy_utf8           00000000000b8600     OpensslLib:a_mbstr.obj
 0005:00000000       $unwind$out_utf8           00000000000b8600     OpensslLib:a_mbstr.obj
 0005:00000000       $unwind$send_bio_chars     00000000000b8600     OpensslLib:a_strex.obj
 0005:00000000       $unwind$ASN1_item_new      00000000000b8600     OpensslLib:tasn_new.obj
 0005:00000000       $unwind$bn_free            00000000000b8600     OpensslLib:x_bignum.obj
 0005:00000000       $unwind$bn_new             00000000000b8600     OpensslLib:x_bignum.obj
 0005:00000000       $unwind$bn_secure_new      00000000000b8600     OpensslLib:x_bignum.obj
 0005:00000000       $unwind$BIO_push           00000000000b8600     OpensslLib:bio_lib.obj
 0005:00000000       $unwind$bread_conv         00000000000b8600     OpensslLib:bio_meth.obj
 0005:00000000       $unwind$bwrite_conv        00000000000b8600     OpensslLib:bio_meth.obj
 0005:00000000       $unwind$mem_buf_sync       00000000000b8600     OpensslLib:bss_mem.obj
 0005:00000000       $unwind$mem_free           00000000000b8600     OpensslLib:bss_mem.obj
 0005:00000000       $unwind$mem_gets           00000000000b8600     OpensslLib:bss_mem.obj
 0005:00000000       $unwind$bn_free_d          00000000000b8600     OpensslLib:bn_lib.obj
 0005:00000000       $unwind$nist_cp_bn_0       00000000000b8600     OpensslLib:bn_nist.obj
 0005:00000000       $unwind$pkey_cmac_init     00000000000b8600     OpensslLib:cm_pmeth.obj
 0005:00000000       $unwind$dh_cb              00000000000b8600     OpensslLib:dh_asn1.obj
 0005:00000000       $unwind$pkey_dh_cleanup    00000000000b8600     OpensslLib:dh_pmeth.obj
 0005:00000000       $unwind$ec_cmp_parameters  00000000000b8600     OpensslLib:ec_ameth.obj
 0005:00000000       $unwind$ec_GFp_mont_group_clear_finish 00000000000b8600     OpensslLib:ecp_mont.obj
 0005:00000000       $unwind$ec_GFp_mont_group_finish 00000000000b8600     OpensslLib:ecp_mont.obj
 0005:00000000       $unwind$ec_GFp_mont_group_init 00000000000b8600     OpensslLib:ecp_mont.obj
 0005:00000000       $unwind$ec_GFp_simple_group_clear_finish 00000000000b8600     OpensslLib:ecp_smpl.obj
 0005:00000000       $unwind$ec_GFp_simple_group_finish 00000000000b8600     OpensslLib:ecp_smpl.obj
 0005:00000000       $unwind$ec_GFp_simple_group_init 00000000000b8600     OpensslLib:ecp_smpl.obj
 0005:00000000       $unwind$ec_GFp_simple_point_clear_finish 00000000000b8600     OpensslLib:ecp_smpl.obj
 0005:00000000       $unwind$ec_GFp_simple_point_finish 00000000000b8600     OpensslLib:ecp_smpl.obj
 0005:00000000       $unwind$ec_GFp_simple_point_init 00000000000b8600     OpensslLib:ecp_smpl.obj
 0005:00000000       $unwind$ecd_item_sign25519 00000000000b8600     OpensslLib:ecx_meth.obj
 0005:00000000       $unwind$ecd_item_sign448   00000000000b8600     OpensslLib:ecx_meth.obj
 0005:00000000       $unwind$err_clear_last_constant_time 00000000000b8600     OpensslLib:err.obj
 0005:00000000       $unwind$err_set_error_data_int 00000000000b8600     OpensslLib:err.obj
 0005:00000000       $unwind$md_new             00000000000b8600     OpensslLib:bio_md.obj
 0005:00000000       $unwind$openssl_add_all_ciphers_int 00000000000b8600     OpensslLib:c_allc.obj
 0005:00000000       $unwind$EVP_CIPHER_CTX_reset 00000000000b8600     OpensslLib:evp_enc.obj
 0005:00000000       $unwind$init               00000000000b8600     OpensslLib:m_md5.obj
 0005:00000000       $unwind$init               00000000000b8600     OpensslLib:m_md5_sha1.obj
 0005:00000000       $unwind$EVP_add_cipher     00000000000b8600     OpensslLib:names.obj
 0005:00000000       $unwind$EVP_get_cipherbyname 00000000000b8600     OpensslLib:names.obj
 0005:00000000       $unwind$EVP_get_digestbyname 00000000000b8600     OpensslLib:names.obj
 0005:00000000       $unwind$do_ex_data_init_ossl_ 00000000000b8600     OpensslLib:ex_data.obj
 0005:00000000       $unwind$hmac_key_free      00000000000b8600     OpensslLib:hm_ameth.obj
 0005:00000000       $unwind$pkey_hmac_keygen   00000000000b8600     OpensslLib:hm_pmeth.obj
 0005:00000000       $unwind$HMAC_CTX_new       00000000000b8600     OpensslLib:hmac.obj
 0005:00000000       $unwind$hmac_ctx_cleanup   00000000000b8600     OpensslLib:hmac.obj
 0005:00000000       $unwind$ossl_init_thread_start 00000000000b8600     OpensslLib:init.obj
 0005:00000000       $unwind$OPENSSL_LH_retrieve 00000000000b8600     OpensslLib:lhash.obj
 0005:00000000       $unwind$CRYPTO_ccm128_setiv 00000000000b8600     OpensslLib:ccm128.obj
 0005:00000000       $unwind$CRYPTO_ccm128_tag  00000000000b8600     OpensslLib:ccm128.obj
 0005:00000000       $unwind$obj_name_hash      00000000000b8600     OpensslLib:o_names.obj
 0005:00000000       $unwind$added_obj_hash     00000000000b8600     OpensslLib:obj_dat.obj
 0005:00000000       $unwind$PKCS7_get_octet_string 00000000000b8600     OpensslLib:pk7_doit.obj
 0005:00000000       $unwind$PKCS7_get_signer_info 00000000000b8600     OpensslLib:pk7_lib.obj
 0005:00000000       $unwind$do_rand_drbg_init_ossl_ 00000000000b8600     OpensslLib:drbg_lib.obj
 0005:00000000       $unwind$do_rand_init_ossl_ 00000000000b8600     OpensslLib:rand_lib.obj
 0005:00000000       $unwind$rand_drbg_cleanup_entropy 00000000000b8600     OpensslLib:rand_lib.obj
 0005:00000000       $unwind$rsa_param_encode   00000000000b8600     OpensslLib:rsa_ameth.obj
 0005:00000000       $unwind$rsa_security_bits  00000000000b8600     OpensslLib:rsa_ameth.obj
 0005:00000000       $unwind$rsa_multip_info_free 00000000000b8600     OpensslLib:rsa_mp.obj
 0005:00000000       $unwind$pkey_rsa_cleanup   00000000000b8600     OpensslLib:rsa_pmeth.obj
 0005:00000000       $unwind$pkey_rsa_init      00000000000b8600     OpensslLib:rsa_pmeth.obj
 0005:00000000       $unwind$SHA1_Init          00000000000b8600     OpensslLib:sha1dgst.obj
 0005:00000000       $unwind$SHA224_Init        00000000000b8600     OpensslLib:sha256.obj
 0005:00000000       $unwind$SHA256_Init        00000000000b8600     OpensslLib:sha256.obj
 0005:00000000       $unwind$siphash_get_priv_key 00000000000b8600     OpensslLib:siphash_ameth.obj
 0005:00000000       $unwind$siphash_key_free   00000000000b8600     OpensslLib:siphash_ameth.obj
 0005:00000000       $unwind$pkey_siphash_keygen 00000000000b8600     OpensslLib:siphash_pmeth.obj
 0005:00000000       $unwind$init               00000000000b8600     OpensslLib:m_sm3.obj
 0005:00000000       $unwind$X509_PUBKEY_set0_param 00000000000b8600     OpensslLib:x_pubkey.obj
 0005:00000000       $unwind$X509V3_EXT_d2i     00000000000b8600     OpensslLib:v3_lib.obj
 0005:00000000       $unwind$check_purpose_timestamp_sign 00000000000b8600     OpensslLib:v3_purp.obj
 0005:00000000       $unwind$equal_case         00000000000b8600     OpensslLib:v3_utl.obj
 0005:00000000       $unwind$ipv6_cb            00000000000b8600     OpensslLib:v3_utl.obj
 0005:00000000       $unwind$DumpVariablePolicy 00000000000b8600     VariablePolicyLibRuntimeDxe:VariablePolicyLib.obj
 0005:00000000       $unwind$VarCheckRegisterSetVariableCheckHandler 00000000000b8600     VariableRuntimeDxe:VarCheck.obj
 0005:00000000       $unwind$AcquireLockOnlyAtBootTime 00000000000b8600     VariableRuntimeDxe:VariableDxe.obj
 0005:00000000       $unwind$OnEndOfDxe         00000000000b8600     VariableRuntimeDxe:VariableDxe.obj
 0005:00000000       $unwind$OnReadyToBoot      00000000000b8600     VariableRuntimeDxe:VariableDxe.obj
 0005:00000000       $unwind$ReleaseLockOnlyAtBootTime 00000000000b8600     VariableRuntimeDxe:VariableDxe.obj
 0005:00000000       $unwind$VariableWriteServiceInitializeDxe 00000000000b8600     VariableRuntimeDxe:VariableDxe.obj
 0005:00000000       $unwind$GetVariableStoreStatus 00000000000b8600     VariableRuntimeDxe:VariableParsing.obj
 0005:00000000       $unwind$FlushPendingRuntimeVariableCacheUpdates 00000000000b8600     VariableRuntimeDxe:VariableRuntimeCache.obj
 0005:00000000       $unwind$MmioRead32         00000000000b8600     BaseIoLibIntrinsicSev:IoLib.obj
 0005:00000000       $unwind$IoRead32           00000000000b8600     BaseIoLibIntrinsicSev:IoLibMsc.obj
 0005:00000000       $unwind$SaveAndDisableInterrupts 00000000000b8600     BaseLib:Cpu.obj
 0005:00000000       $unwind$PciExpressRead32   00000000000b8600     BasePciExpressLib:PciExpressLib.obj
 0005:00000000       $unwind$_ModuleEntryPoint  00000000000b8600     UefiDriverEntryPoint:DriverEntryPoint.obj
 0005:00000000       $unwind$InternalAllocateZeroPool 00000000000b8600     UefiMemoryAllocationLib:MemoryAllocationLib.obj
 0005:00000008       $unwind$asn1_multi         00000000000b8608     OpensslLib:asn1_gen.obj
 0005:00000008       $unwind$probable_prime     00000000000b8608     OpensslLib:bn_prime.obj
 0005:00000008       $unwind$BN_bn2dec          00000000000b8608     OpensslLib:bn_print.obj
 0005:00000008       $unwind$ec_GFp_simple_group_set_curve 00000000000b8608     OpensslLib:ecp_smpl.obj
 0005:00000008       $unwind$aria_128_cbc_cipher 00000000000b8608     OpensslLib:e_aria.obj
 0005:00000008       $unwind$aria_192_cbc_cipher 00000000000b8608     OpensslLib:e_aria.obj
 0005:00000008       $unwind$aria_256_cbc_cipher 00000000000b8608     OpensslLib:e_aria.obj
 0005:00000008       $unwind$sm4_cbc_cipher     00000000000b8608     OpensslLib:e_sm4.obj
 0005:00000008       $unwind$EVP_DecryptUpdate  00000000000b8608     OpensslLib:evp_enc.obj
 0005:00000008       $unwind$check_hosts        00000000000b8608     OpensslLib:x509_vfy.obj
 0005:00000008       $unwind$X509V3_NAME_from_section 00000000000b8608     OpensslLib:v3_utl.obj
 0005:00000008       $unwind$ProcessLibraryConstructorList 00000000000b8608     VariableRuntimeDxe:AutoGen.obj
 0005:00000008       $unwind$MeasureVariable    00000000000b8608     VariableRuntimeDxe:Measurement.obj
 0005:00000024       $unwind$ProcessLibraryDestructorList 00000000000b8624     VariableRuntimeDxe:AutoGen.obj
 0005:00000030       $unwind$strchr             00000000000b8630     RuntimeCryptLib:CrtWrapper.obj
 0005:00000030       $unwind$RuntimeAllocateMem 00000000000b8630     RuntimeCryptLib:RuntimeMemAllocation.obj
 0005:00000030       $unwind$AES_set_decrypt_key 00000000000b8630     OpensslLib:aes_core.obj
 0005:00000030       $unwind$ASN1_STRING_cmp    00000000000b8630     OpensslLib:asn1_lib.obj
 0005:00000030       $unwind$ASN1_STRING_copy   00000000000b8630     OpensslLib:asn1_lib.obj
 0005:00000030       $unwind$ASN1_STRING_dup    00000000000b8630     OpensslLib:asn1_lib.obj
 0005:00000030       $unwind$der_cmp            00000000000b8630     OpensslLib:tasn_enc.obj
 0005:00000030       $unwind$asn1_primitive_free 00000000000b8630     OpensslLib:tasn_fre.obj
 0005:00000030       $unwind$BIO_indent         00000000000b8630     OpensslLib:bio_lib.obj
 0005:00000030       $unwind$BIO_pop            00000000000b8630     OpensslLib:bio_lib.obj
 0005:00000030       $unwind$mem_buf_free       00000000000b8630     OpensslLib:bss_mem.obj
 0005:00000030       $unwind$BN_dup             00000000000b8630     OpensslLib:bn_lib.obj
 0005:00000030       $unwind$BN_set_word        00000000000b8630     OpensslLib:bn_lib.obj
 0005:00000030       $unwind$BN_mod_lshift1_quick 00000000000b8630     OpensslLib:bn_mod.obj
 0005:00000030       $unwind$BN_mod_sub_quick   00000000000b8630     OpensslLib:bn_mod.obj
 0005:00000030       $unwind$BN_MONT_CTX_copy   00000000000b8630     OpensslLib:bn_mont.obj
 0005:00000030       $unwind$BN_lshift1         00000000000b8630     OpensslLib:bn_shift.obj
 0005:00000030       $unwind$BN_mod_word        00000000000b8630     OpensslLib:bn_word.obj
 0005:00000030       $unwind$pkey_cmac_copy     00000000000b8630     OpensslLib:cm_pmeth.obj
 0005:00000030       $unwind$dh_pub_cmp         00000000000b8630     OpensslLib:dh_ameth.obj
 0005:00000030       $unwind$dh_security_bits   00000000000b8630     OpensslLib:dh_ameth.obj
 0005:00000030       $unwind$int_dh_bn_cpy      00000000000b8630     OpensslLib:dh_ameth.obj
 0005:00000030       $unwind$pkey_dh_copy       00000000000b8630     OpensslLib:dh_pmeth.obj
 0005:00000030       $unwind$pkey_dh_ctrl       00000000000b8630     OpensslLib:dh_pmeth.obj
 0005:00000030       $unwind$dh_param_init      00000000000b8630     OpensslLib:dh_rfc7919.obj
 0005:00000030       $unwind$ge_p3_to_cached    00000000000b8630     OpensslLib:curve25519.obj
 0005:00000030       $unwind$gf_strong_reduce   00000000000b8630     OpensslLib:f_generic.obj
 0005:00000030       $unwind$ec_copy_parameters 00000000000b8630     OpensslLib:ec_ameth.obj
 0005:00000030       $unwind$EC_KEY_dup         00000000000b8630     OpensslLib:ec_key.obj
 0005:00000030       $unwind$EC_GROUP_dup       00000000000b8630     OpensslLib:ec_lib.obj
 0005:00000030       $unwind$pkey_ec_cleanup    00000000000b8630     OpensslLib:ec_pmeth.obj
 0005:00000030       $unwind$pkey_ec_copy       00000000000b8630     OpensslLib:ec_pmeth.obj
 0005:00000030       $unwind$ec_GFp_mont_group_copy 00000000000b8630     OpensslLib:ecp_mont.obj
 0005:00000030       $unwind$ec_GFp_simple_group_copy 00000000000b8630     OpensslLib:ecp_smpl.obj
 0005:00000030       $unwind$ec_GFp_simple_invert 00000000000b8630     OpensslLib:ecp_smpl.obj
 0005:00000030       $unwind$ec_GFp_simple_point_copy 00000000000b8630     OpensslLib:ecp_smpl.obj
 0005:00000030       $unwind$ecx_free           00000000000b8630     OpensslLib:ecx_meth.obj
 0005:00000030       $unwind$ERR_clear_error    00000000000b8630     OpensslLib:err.obj
 0005:00000030       $unwind$md_free            00000000000b8630     OpensslLib:bio_md.obj
 0005:00000030       $unwind$EVP_MD_CTX_reset   00000000000b8630     OpensslLib:digest.obj
 0005:00000030       $unwind$aes_gcm_cipher     00000000000b8630     OpensslLib:e_aes.obj
 0005:00000030       $unwind$aes_gcm_cleanup    00000000000b8630     OpensslLib:e_aes.obj
 0005:00000030       $unwind$aria_gcm_cipher    00000000000b8630     OpensslLib:e_aria.obj
 0005:00000030       $unwind$EVP_CIPHER_type    00000000000b8630     OpensslLib:evp_lib.obj
 0005:00000030       $unwind$final              00000000000b8630     OpensslLib:m_md5_sha1.obj
 0005:00000030       $unwind$EVP_add_digest     00000000000b8630     OpensslLib:names.obj
 0005:00000030       $unwind$HMAC_CTX_copy      00000000000b8630     OpensslLib:hmac.obj
 0005:00000030       $unwind$hmac_ctx_alloc_mds 00000000000b8630     OpensslLib:hmac.obj
 0005:00000030       $unwind$ossl_init_base_ossl_ 00000000000b8630     OpensslLib:init.obj
 0005:00000030       $unwind$pkey_hkdf_cleanup  00000000000b8630     OpensslLib:hkdf.obj
 0005:00000030       $unwind$pkey_hkdf_derive_init 00000000000b8630     OpensslLib:hkdf.obj
 0005:00000030       $unwind$pkey_tls1_prf_cleanup 00000000000b8630     OpensslLib:tls1_prf.obj
 0005:00000030       $unwind$CRYPTO_zalloc      00000000000b8630     OpensslLib:mem.obj
 0005:00000030       $unwind$CRYPTO_gcm128_tag  00000000000b8630     OpensslLib:gcm128.obj
 0005:00000030       $unwind$CRYPTO_strdup      00000000000b8630     OpensslLib:o_str.obj
 0005:00000030       $unwind$i2d_ocsp_nonce     00000000000b8630     OpensslLib:v3_ocsp.obj
 0005:00000030       $unwind$pk7_cb             00000000000b8630     OpensslLib:pk7_asn1.obj
 0005:00000030       $unwind$get_attribute      00000000000b8630     OpensslLib:pk7_doit.obj
 0005:00000030       $unwind$PKCS7_stream       00000000000b8630     OpensslLib:pk7_lib.obj
 0005:00000030       $unwind$RAND_priv_bytes    00000000000b8630     OpensslLib:rand_lib.obj
 0005:00000030       $unwind$rsa_pub_cmp        00000000000b8630     OpensslLib:rsa_ameth.obj
 0005:00000030       $unwind$pkey_rsa_copy      00000000000b8630     OpensslLib:rsa_pmeth.obj
 0005:00000030       $unwind$pkey_sm2_cleanup   00000000000b8630     OpensslLib:sm2_pmeth.obj
 0005:00000030       $unwind$internal_delete    00000000000b8630     OpensslLib:stack.obj
 0005:00000030       $unwind$X509_NAME_cmp      00000000000b8630     OpensslLib:x509_cmp.obj
 0005:00000030       $unwind$X509_cmp           00000000000b8630     OpensslLib:x509_cmp.obj
 0005:00000030       $unwind$check_suite_b      00000000000b8630     OpensslLib:x509_cmp.obj
 0005:00000030       $unwind$trust_compat       00000000000b8630     OpensslLib:x509_trs.obj
 0005:00000030       $unwind$X509v3_get_ext_by_NID 00000000000b8630     OpensslLib:x509_v3.obj
 0005:00000030       $unwind$X509_STORE_CTX_cleanup 00000000000b8630     OpensslLib:x509_vfy.obj
 0005:00000030       $unwind$check_dane_issuer  00000000000b8630     OpensslLib:x509_vfy.obj
 0005:00000030       $unwind$check_key_level    00000000000b8630     OpensslLib:x509_vfy.obj
 0005:00000030       $unwind$verify_chain       00000000000b8630     OpensslLib:x509_vfy.obj
 0005:00000030       $unwind$X509_NAME_get_index_by_NID 00000000000b8630     OpensslLib:x509name.obj
 0005:00000030       $unwind$pubkey_cb          00000000000b8630     OpensslLib:x_pubkey.obj
 0005:00000030       $unwind$displaytext_str2tag 00000000000b8630     OpensslLib:v3_cpols.obj
 0005:00000030       $unwind$i2r_idp            00000000000b8630     OpensslLib:v3_crld.obj
 0005:00000030       $unwind$i2r_PKEY_USAGE_PERIOD 00000000000b8630     OpensslLib:v3_pku.obj
 0005:00000030       $unwind$X509_check_akid    00000000000b8630     OpensslLib:v3_purp.obj
 0005:00000030       $unwind$check_purpose_ns_ssl_server 00000000000b8630     OpensslLib:v3_purp.obj
 0005:00000030       $unwind$x509_likely_issued 00000000000b8630     OpensslLib:v3_purp.obj
 0005:00000030       $unwind$a2i_ipadd          00000000000b8630     OpensslLib:v3_utl.obj
 0005:00000030       $unwind$name_cmp           00000000000b8630     OpensslLib:v3_utl.obj
 0005:00000030       $unwind$VarCheckLibInitializeAtEndOfDxe 00000000000b8630     VarCheckLib:VarCheckLib.obj
 0005:00000030       $unwind$VarCheckLibRegisterSetVariableCheckHandler 00000000000b8630     VarCheckLib:VarCheckLib.obj
 0005:00000030       $unwind$VarCheckLibVariablePropertyGet 00000000000b8630     VarCheckLib:VarCheckLib.obj
 0005:00000030       $unwind$IsHwErrRecVariable 00000000000b8630     VarCheckUefiLib:VarCheckUefiLibNullClass.obj
 0005:00000030       $unwind$VariableClassAddressChangeEvent 00000000000b8630     VariableRuntimeDxe:VariableDxe.obj
 0005:00000030       $unwind$StrnLenS           00000000000b8630     BaseLib:SafeString.obj
 0005:00000030       $unwind$AsciiStrCmp        00000000000b8630     BaseLib:String.obj
 0005:00000030       $unwind$AsciiStrLen        00000000000b8630     BaseLib:String.obj
 0005:00000030       $unwind$AsciiStriCmp       00000000000b8630     BaseLib:String.obj
 0005:00000030       $unwind$ZeroMem            00000000000b8630     BaseMemoryLibRepStr:ZeroMemWrapper.obj
 0005:00000030       $unwind$GetRandomNumber64  00000000000b8630     BaseRngLibTimerLib:RngLibTimer.obj
 0005:00000030       $unwind$NextDevicePathNode 00000000000b8630     UefiDevicePathLibDevicePathProtocol:UefiDevicePathLib.obj
 0005:0000003c       $unwind$FtwNotificationEvent 00000000000b863c     VariableRuntimeDxe:VariableDxe.obj
 0005:0000003c       $unwind$VariableExLibFindVariable 00000000000b863c     VariableRuntimeDxe:VariableExLib.obj
 0005:0000004c       $unwind$VariableServiceInitialize 00000000000b864c     VariableRuntimeDxe:VariableDxe.obj
 0005:00000060       $unwind$UpdateVariableStore 00000000000b8660     VariableRuntimeDxe:Variable.obj
 0005:00000078       $unwind$RecordVarErrorFlag 00000000000b8678     VariableRuntimeDxe:Variable.obj
 0005:00000088       $unwind$InitializeVarErrorFlag 00000000000b8688     VariableRuntimeDxe:Variable.obj
 0005:00000090       $unwind$pkey_ecd_digestverify448 00000000000b8690     OpensslLib:ecx_meth.obj
 0005:00000090       $unwind$pkey_tls1_prf_derive 00000000000b8690     OpensslLib:tls1_prf.obj
 0005:00000090       $unwind$IsUserVariable     00000000000b8690     VariableRuntimeDxe:Variable.obj
 0005:00000098       $unwind$OBJ_find_sigid_algs 00000000000b8698     OpensslLib:obj_xref.obj
 0005:00000098       $unwind$drbg_ctr_reseed    00000000000b8698     OpensslLib:drbg_ctr.obj
 0005:00000098       $unwind$X509V3_get_value_int 00000000000b8698     OpensslLib:v3_utl.obj
 0005:00000098       $unwind$CalculateCommonUserVariableTotalSize 00000000000b8698     VariableRuntimeDxe:Variable.obj
 0005:000000a4       $unwind$Reclaim            00000000000b86a4     VariableRuntimeDxe:Variable.obj
 0005:000000bc       $unwind$ge_p2_dbl          00000000000b86bc     OpensslLib:curve25519.obj
 0005:000000bc       $unwind$cfbr_encrypt_block 00000000000b86bc     OpensslLib:cfb128.obj
 0005:000000bc       $unwind$FindVariable       00000000000b86bc     VariableRuntimeDxe:Variable.obj
 0005:000000bc       $unwind$ProcessVarWithKek  00000000000b86bc     AuthVariableLib:AuthService.obj
 0005:000000d4       $unwind$i2c_ASN1_BIT_STRING 00000000000b86d4     OpensslLib:a_bitstr.obj
 0005:000000d4       $unwind$mem_ctrl           00000000000b86d4     OpensslLib:bss_mem.obj
 0005:000000d4       $unwind$BN_mul_word        00000000000b86d4     OpensslLib:bn_word.obj
 0005:000000d4       $unwind$cmac_signctx       00000000000b86d4     OpensslLib:cm_pmeth.obj
 0005:000000d4       $unwind$DH_check_params    00000000000b86d4     OpensslLib:dh_check.obj
 0005:000000d4       $unwind$ge_p1p1_to_p3      00000000000b86d4     OpensslLib:curve25519.obj
 0005:000000d4       $unwind$EVP_CIPHER_set_asn1_iv 00000000000b86d4     OpensslLib:evp_lib.obj
 0005:000000d4       $unwind$sha3_update        00000000000b86d4     OpensslLib:m_sha3.obj
 0005:000000d4       $unwind$expand             00000000000b86d4     OpensslLib:lhash.obj
 0005:000000d4       $unwind$MD5_Final          00000000000b86d4     OpensslLib:md5_dgst.obj
 0005:000000d4       $unwind$MD5_Update         00000000000b86d4     OpensslLib:md5_dgst.obj
 0005:000000d4       $unwind$SHA3_absorb        00000000000b86d4     OpensslLib:keccak1600.obj
 0005:000000d4       $unwind$SHA1_Update        00000000000b86d4     OpensslLib:sha1dgst.obj
 0005:000000d4       $unwind$SHA256_Update      00000000000b86d4     OpensslLib:sha256.obj
 0005:000000d4       $unwind$SHA512_Update      00000000000b86d4     OpensslLib:sha512.obj
 0005:000000d4       $unwind$update             00000000000b86d4     OpensslLib:m_sm3.obj
 0005:000000d4       $unwind$sm3_final          00000000000b86d4     OpensslLib:sm3.obj
 0005:000000d4       $unwind$check_crl          00000000000b86d4     OpensslLib:x509_vfy.obj
 0005:000000d4       $unwind$dane_verify        00000000000b86d4     OpensslLib:x509_vfy.obj
 0005:000000d4       $unwind$internal_verify    00000000000b86d4     OpensslLib:x509_vfy.obj
 0005:000000d4       $unwind$X509_VERIFY_PARAM_inherit 00000000000b86d4     OpensslLib:x509_vpm.obj
 0005:000000d4       $unwind$i2v_GENERAL_NAMES  00000000000b86d4     OpensslLib:v3_alt.obj
 0005:000000d4       $unwind$i2r_crldp          00000000000b86d4     OpensslLib:v3_crld.obj
 0005:000000d4       $unwind$SXNET_get_id_INTEGER 00000000000b86d4     OpensslLib:v3_sxnet.obj
 0005:000000d4       $unwind$GetHobVariableStore 00000000000b86d4     VariableRuntimeDxe:Variable.obj
 0005:000000d4       $unwind$GetIndexFromSupportedLangCodes 00000000000b86d4     VariableRuntimeDxe:Variable.obj
 0005:000000d4       $unwind$EfiGetSystemConfigurationTable 00000000000b86d4     UefiLib:UefiLib.obj
 0005:000000ec       $unwind$RuntimeCryptLibAddressChangeEvent 00000000000b86ec     RuntimeCryptLib:RuntimeMemAllocation.obj
 0005:000000ec       $unwind$ASN1_ENUMERATED_get 00000000000b86ec     OpensslLib:a_int.obj
 0005:000000ec       $unwind$ASN1_INTEGER_get   00000000000b86ec     OpensslLib:a_int.obj
 0005:000000ec       $unwind$asn1_string_set_int64 00000000000b86ec     OpensslLib:a_int.obj
 0005:000000ec       $unwind$ASN1_OBJECT_free   00000000000b86ec     OpensslLib:a_object.obj
 0005:000000ec       $unwind$st_free            00000000000b86ec     OpensslLib:a_strnid.obj
 0005:000000ec       $unwind$ASN1_STRING_free   00000000000b86ec     OpensslLib:asn1_lib.obj
 0005:000000ec       $unwind$stbl_module_finish 00000000000b86ec     OpensslLib:asn_mstbl.obj
 0005:000000ec       $unwind$ASN1_TYPE_free     00000000000b86ec     OpensslLib:tasn_typ.obj
 0005:000000ec       $unwind$X509_ALGOR_free    00000000000b86ec     OpensslLib:x_algor.obj
 0005:000000ec       $unwind$uint32_free        00000000000b86ec     OpensslLib:x_int64.obj
 0005:000000ec       $unwind$BN_GENCB_call      00000000000b86ec     OpensslLib:bn_prime.obj
 0005:000000ec       $unwind$int_dh_size        00000000000b86ec     OpensslLib:dh_ameth.obj
 0005:000000ec       $unwind$dh_finish          00000000000b86ec     OpensslLib:dh_key.obj
 0005:000000ec       $unwind$gf_sub_nr          00000000000b86ec     OpensslLib:curve448.obj
 0005:000000ec       $unwind$ec_security_bits   00000000000b86ec     OpensslLib:ec_ameth.obj
 0005:000000ec       $unwind$eckey_pub_cmp      00000000000b86ec     OpensslLib:ec_ameth.obj
 0005:000000ec       $unwind$ERR_pop_to_mark    00000000000b86ec     OpensslLib:err.obj
 0005:000000ec       $unwind$ERR_set_mark       00000000000b86ec     OpensslLib:err.obj
 0005:000000ec       $unwind$get_error_values   00000000000b86ec     OpensslLib:err.obj
 0005:000000ec       $unwind$md_gets            00000000000b86ec     OpensslLib:bio_md.obj
 0005:000000ec       $unwind$aria_gcm_cleanup   00000000000b86ec     OpensslLib:e_aria.obj
 0005:000000ec       $unwind$sm4_init_key       00000000000b86ec     OpensslLib:e_sm4.obj
 0005:000000ec       $unwind$EVP_CIPHER_CTX_iv_length 00000000000b86ec     OpensslLib:evp_lib.obj
 0005:000000ec       $unwind$hmac_get_priv_key  00000000000b86ec     OpensslLib:hm_ameth.obj
 0005:000000ec       $unwind$int_update         00000000000b86ec     OpensslLib:hm_pmeth.obj
 0005:000000ec       $unwind$ossl_init_add_all_digests_ossl_ 00000000000b86ec     OpensslLib:init.obj
 0005:000000ec       $unwind$ossl_init_config_ossl_ 00000000000b86ec     OpensslLib:init.obj
 0005:000000ec       $unwind$openssl_lh_strcasehash 00000000000b86ec     OpensslLib:lhash.obj
 0005:000000ec       $unwind$o_names_init_ossl_ 00000000000b86ec     OpensslLib:o_names.obj
 0005:000000ec       $unwind$obj_name_cmp       00000000000b86ec     OpensslLib:o_names.obj
 0005:000000ec       $unwind$added_obj_cmp      00000000000b86ec     OpensslLib:obj_dat.obj
 0005:000000ec       $unwind$obj_cmp_BSEARCH_CMP_FN 00000000000b86ec     OpensslLib:obj_dat.obj
 0005:000000ec       $unwind$i2r_object         00000000000b86ec     OpensslLib:v3_ocsp.obj
 0005:000000ec       $unwind$i2r_ocsp_acutoff   00000000000b86ec     OpensslLib:v3_ocsp.obj
 0005:000000ec       $unwind$i2r_ocsp_nonce     00000000000b86ec     OpensslLib:v3_ocsp.obj
 0005:000000ec       $unwind$ri_cb              00000000000b86ec     OpensslLib:pk7_asn1.obj
 0005:000000ec       $unwind$si_cb              00000000000b86ec     OpensslLib:pk7_asn1.obj
 0005:000000ec       $unwind$RAND_DRBG_get0_master 00000000000b86ec     OpensslLib:drbg_lib.obj
 0005:000000ec       $unwind$drbg_status        00000000000b86ec     OpensslLib:drbg_lib.obj
 0005:000000ec       $unwind$RAND_get_rand_method 00000000000b86ec     OpensslLib:rand_lib.obj
 0005:000000ec       $unwind$int_rsa_size       00000000000b86ec     OpensslLib:rsa_ameth.obj
 0005:000000ec       $unwind$rsa_pss_cb         00000000000b86ec     OpensslLib:rsa_asn1.obj
 0005:000000ec       $unwind$int_update         00000000000b86ec     OpensslLib:siphash_pmeth.obj
 0005:000000ec       $unwind$x509_object_cmp    00000000000b86ec     OpensslLib:x509_lu.obj
 0005:000000ec       $unwind$check_issued       00000000000b86ec     OpensslLib:x509_vfy.obj
 0005:000000ec       $unwind$str_free           00000000000b86ec     OpensslLib:x509_vpm.obj
 0005:000000ec       $unwind$X509_ATTRIBUTE_free 00000000000b86ec     OpensslLib:x_attrib.obj
 0005:000000ec       $unwind$X509_CRL_free      00000000000b86ec     OpensslLib:x_crl.obj
 0005:000000ec       $unwind$X509_NAME_ENTRY_free 00000000000b86ec     OpensslLib:x_name.obj
 0005:000000ec       $unwind$local_sk_X509_NAME_ENTRY_free 00000000000b86ec     OpensslLib:x_name.obj
 0005:000000ec       $unwind$X509_free          00000000000b86ec     OpensslLib:x_x509.obj
 0005:000000ec       $unwind$policy_data_cmp    00000000000b86ec     OpensslLib:pcy_cache.obj
 0005:000000ec       $unwind$node_cmp           00000000000b86ec     OpensslLib:pcy_node.obj
 0005:000000ec       $unwind$policy_node_free   00000000000b86ec     OpensslLib:pcy_node.obj
 0005:000000ec       $unwind$exnode_free        00000000000b86ec     OpensslLib:pcy_tree.obj
 0005:000000ec       $unwind$POLICYINFO_free    00000000000b86ec     OpensslLib:v3_cpols.obj
 0005:000000ec       $unwind$POLICYQUALINFO_free 00000000000b86ec     OpensslLib:v3_cpols.obj
 0005:000000ec       $unwind$DIST_POINT_free    00000000000b86ec     OpensslLib:v3_crld.obj
 0005:000000ec       $unwind$dpn_cb             00000000000b86ec     OpensslLib:v3_crld.obj
 0005:000000ec       $unwind$GENERAL_NAMES_free 00000000000b86ec     OpensslLib:v3_genn.obj
 0005:000000ec       $unwind$GENERAL_NAME_free  00000000000b86ec     OpensslLib:v3_genn.obj
 0005:000000ec       $unwind$ACCESS_DESCRIPTION_free 00000000000b86ec     OpensslLib:v3_info.obj
 0005:000000ec       $unwind$POLICY_MAPPING_free 00000000000b86ec     OpensslLib:v3_pmaps.obj
 0005:000000ec       $unwind$check_purpose_crl_sign 00000000000b86ec     OpensslLib:v3_purp.obj
 0005:000000ec       $unwind$check_purpose_smime_encrypt 00000000000b86ec     OpensslLib:v3_purp.obj
 0005:000000ec       $unwind$check_purpose_smime_sign 00000000000b86ec     OpensslLib:v3_purp.obj
 0005:000000ec       $unwind$check_purpose_ssl_client 00000000000b86ec     OpensslLib:v3_purp.obj
 0005:000000ec       $unwind$check_purpose_ssl_server 00000000000b86ec     OpensslLib:v3_purp.obj
 0005:000000ec       $unwind$purpose_smime      00000000000b86ec     OpensslLib:v3_purp.obj
 0005:000000ec       $unwind$X509V3_conf_free   00000000000b86ec     OpensslLib:v3_utl.obj
 0005:000000ec       $unwind$InternalVarCheckDevicePath 00000000000b86ec     VarCheckUefiLib:VarCheckUefiLibNullClass.obj
 0005:000000ec       $unwind$InternalVarCheckLoadOption 00000000000b86ec     VarCheckUefiLib:VarCheckUefiLibNullClass.obj
 0005:000000ec       $unwind$VariablePolicyLibVirtualAddressCallback 00000000000b86ec     VariablePolicyLibRuntimeDxe:VariablePolicyExtraInitRuntimeDxe.obj
 0005:000000ec       $unwind$GetLangFromSupportedLangCodes 00000000000b86ec     VariableRuntimeDxe:Variable.obj
 0005:000000ec       $unwind$InitNonVolatileVariableStore 00000000000b86ec     VariableRuntimeDxe:VariableNonVolatile.obj
 0005:000000ec       $unwind$GetHobList         00000000000b86ec     DxeHobLib:HobLib.obj
 0005:000000ec       $unwind$GetPcdProtocol     00000000000b86ec     DxePcdLib:DxePcdLib.obj
 0005:000000ec       $unwind$AllocatePool       00000000000b86ec     UefiMemoryAllocationLib:MemoryAllocationLib.obj
 0005:000000ec       $unwind$AllocateRuntimePool 00000000000b86ec     UefiMemoryAllocationLib:MemoryAllocationLib.obj
 0005:000000ec       $unwind$FreePool           00000000000b86ec     UefiMemoryAllocationLib:MemoryAllocationLib.obj
 0005:000000f4       $unwind$VariableGetBestLanguage 00000000000b86f4     VariableRuntimeDxe:Variable.obj
 0005:00000108       $unwind$CheckRemainingSpaceForConsistencyInternal 00000000000b8708     VariableRuntimeDxe:Variable.obj
 0005:00000118       $unwind$CheckRemainingSpaceForConsistency 00000000000b8718     VariableRuntimeDxe:Variable.obj
 0005:00000118       $unwind$VariableExLibCheckRemainingSpaceForConsistency 00000000000b8718     VariableRuntimeDxe:VariableExLib.obj
 0005:00000120       $unwind$AutoUpdateLangVariable 00000000000b8720     VariableRuntimeDxe:Variable.obj
 0005:00000140       $unwind$UpdateVariable     00000000000b8740     VariableRuntimeDxe:Variable.obj
 0005:0000015c       $unwind$VariableServiceGetVariable 00000000000b875c     VariableRuntimeDxe:Variable.obj
 0005:00000174       $unwind$NAME_CONSTRAINTS_check_CN 00000000000b8774     OpensslLib:v3_ncons.obj
 0005:00000174       $unwind$VariableServiceGetNextVariableName 00000000000b8774     VariableRuntimeDxe:Variable.obj
 0005:0000018c       $unwind$FlushHobVariableToFlash 00000000000b878c     VariableRuntimeDxe:Variable.obj
 0005:0000018c       $unwind$VariableServiceSetVariable 00000000000b878c     VariableRuntimeDxe:Variable.obj
 0005:000001a8       $unwind$VariableServiceQueryVariableInfoInternal 00000000000b87a8     VariableRuntimeDxe:Variable.obj
 0005:000001c0       $unwind$X509_ALGOR_set0    00000000000b87c0     OpensslLib:x_algor.obj
 0005:000001c0       $unwind$BN_set_bit         00000000000b87c0     OpensslLib:bn_lib.obj
 0005:000001c0       $unwind$BN_MONT_CTX_set_locked 00000000000b87c0     OpensslLib:bn_mont.obj
 0005:000001c0       $unwind$BN_add_word        00000000000b87c0     OpensslLib:bn_word.obj
 0005:000001c0       $unwind$ge_p1p1_to_p2      00000000000b87c0     OpensslLib:curve25519.obj
 0005:000001c0       $unwind$niels_to_pt        00000000000b87c0     OpensslLib:curve448.obj
 0005:000001c0       $unwind$oneshot_hash       00000000000b87c0     OpensslLib:eddsa.obj
 0005:000001c0       $unwind$EC_curve_nist2nid  00000000000b87c0     OpensslLib:ec_curve.obj
 0005:000001c0       $unwind$ec_precompute_mont_data 00000000000b87c0     OpensslLib:ec_lib.obj
 0005:000001c0       $unwind$aes_ccm_ctrl       00000000000b87c0     OpensslLib:e_aes.obj
 0005:000001c0       $unwind$aes_wrap_init_key  00000000000b87c0     OpensslLib:e_aes.obj
 0005:000001c0       $unwind$aria_ccm_ctrl      00000000000b87c0     OpensslLib:e_aria.obj
 0005:000001c0       $unwind$init               00000000000b87c0     OpensslLib:m_sha3.obj
 0005:000001c0       $unwind$sha3_final         00000000000b87c0     OpensslLib:m_sha3.obj
 0005:000001c0       $unwind$hmac_set_priv_key  00000000000b87c0     OpensslLib:hm_ameth.obj
 0005:000001c0       $unwind$pkey_hkdf_ctrl     00000000000b87c0     OpensslLib:hkdf.obj
 0005:000001c0       $unwind$pkey_tls1_prf_ctrl 00000000000b87c0     OpensslLib:tls1_prf.obj
 0005:000001c0       $unwind$CRYPTO_clear_realloc 00000000000b87c0     OpensslLib:mem.obj
 0005:000001c0       $unwind$CRYPTO_ccm128_init 00000000000b87c0     OpensslLib:ccm128.obj
 0005:000001c0       $unwind$PKCS7_add1_attrib_digest 00000000000b87c0     OpensslLib:pk7_attr.obj
 0005:000001c0       $unwind$ctr_BCC_update     00000000000b87c0     OpensslLib:drbg_ctr.obj
 0005:000001c0       $unwind$rsa_pss_params_create 00000000000b87c0     OpensslLib:rsa_ameth.obj
 0005:000001c0       $unwind$OPENSSL_sk_insert  00000000000b87c0     OpensslLib:stack.obj
 0005:000001c0       $unwind$x509_store_add     00000000000b87c0     OpensslLib:x509_lu.obj
 0005:000001c0       $unwind$X509_check_trust   00000000000b87c0     OpensslLib:x509_trs.obj
 0005:000001c0       $unwind$check_crl_time     00000000000b87c0     OpensslLib:x509_vfy.obj
 0005:000001c0       $unwind$crl_extension_match 00000000000b87c0     OpensslLib:x509_vfy.obj
 0005:000001c0       $unwind$x509_check_cert_time 00000000000b87c0     OpensslLib:x509_vfy.obj
 0005:000001c0       $unwind$X509_ATTRIBUTE_create 00000000000b87c0     OpensslLib:x_attrib.obj
 0005:000001c0       $unwind$tree_add_unmatched 00000000000b87c0     OpensslLib:pcy_tree.obj
 0005:000001c0       $unwind$do_othername       00000000000b87c0     OpensslLib:v3_alt.obj
 0005:000001c0       $unwind$print_gens         00000000000b87c0     OpensslLib:v3_crld.obj
 0005:000001c0       $unwind$print_reasons      00000000000b87c0     OpensslLib:v3_crld.obj
 0005:000001c0       $unwind$VarCheckAddTableEntry 00000000000b87c0     VarCheckLib:VarCheckLib.obj
 0005:000001c0       $unwind$VariableServiceQueryVariableInfo 00000000000b87c0     VariableRuntimeDxe:Variable.obj
 0005:000001c0       $unwind$StrnCmp            00000000000b87c0     BaseLib:String.obj
 0005:000001c0       $unwind$CompareMem         00000000000b87c0     BaseMemoryLibRepStr:CompareMemWrapper.obj
 0005:000001c0       $unwind$CopyMem            00000000000b87c0     BaseMemoryLibRepStr:CopyMemWrapper.obj
 0005:000001c0       $unwind$GetNextGuidHob     00000000000b87c0     DxeHobLib:HobLib.obj
 0005:000001c0       $unwind$InternalReallocatePool 00000000000b87c0     UefiMemoryAllocationLib:MemoryAllocationLib.obj
 0005:000001d4       $unwind$asn1_get_uint64    00000000000b87d4     OpensslLib:a_int.obj
 0005:000001d4       $unwind$bitstr_cb          00000000000b87d4     OpensslLib:asn1_gen.obj
 0005:000001d4       $unwind$parse_tagging      00000000000b87d4     OpensslLib:asn1_gen.obj
 0005:000001d4       $unwind$BN_CTX_new         00000000000b87d4     OpensslLib:bn_ctx.obj
 0005:000001d4       $unwind$BN_mod_exp         00000000000b87d4     OpensslLib:bn_exp.obj
 0005:000001d4       $unwind$BN_new             00000000000b87d4     OpensslLib:bn_lib.obj
 0005:000001d4       $unwind$BN_MONT_CTX_new    00000000000b87d4     OpensslLib:bn_mont.obj
 0005:000001d4       $unwind$BUF_MEM_new        00000000000b87d4     OpensslLib:buffer.obj
 0005:000001d4       $unwind$DH_new_by_nid      00000000000b87d4     OpensslLib:dh_rfc7919.obj
 0005:000001d4       $unwind$ec_pkey_check      00000000000b87d4     OpensslLib:ec_ameth.obj
 0005:000001d4       $unwind$ec_pkey_param_check 00000000000b87d4     OpensslLib:ec_ameth.obj
 0005:000001d4       $unwind$EC_GROUP_new_from_ecpkparameters 00000000000b87d4     OpensslLib:ec_asn1.obj
 0005:000001d4       $unwind$EC_KEY_check_key   00000000000b87d4     OpensslLib:ec_key.obj
 0005:000001d4       $unwind$ec_key_simple_generate_public_key 00000000000b87d4     OpensslLib:ec_key.obj
 0005:000001d4       $unwind$EC_POINT_add       00000000000b87d4     OpensslLib:ec_lib.obj
 0005:000001d4       $unwind$EC_POINT_cmp       00000000000b87d4     OpensslLib:ec_lib.obj
 0005:000001d4       $unwind$EC_POINT_copy      00000000000b87d4     OpensslLib:ec_lib.obj
 0005:000001d4       $unwind$EC_POINT_dbl       00000000000b87d4     OpensslLib:ec_lib.obj
 0005:000001d4       $unwind$EC_POINT_invert    00000000000b87d4     OpensslLib:ec_lib.obj
 0005:000001d4       $unwind$EC_POINT_is_at_infinity 00000000000b87d4     OpensslLib:ec_lib.obj
 0005:000001d4       $unwind$EC_POINT_is_on_curve 00000000000b87d4     OpensslLib:ec_lib.obj
 0005:000001d4       $unwind$EC_POINT_set_to_infinity 00000000000b87d4     OpensslLib:ec_lib.obj
 0005:000001d4       $unwind$EC_POINT_oct2point 00000000000b87d4     OpensslLib:ec_oct.obj
 0005:000001d4       $unwind$EC_POINT_point2oct 00000000000b87d4     OpensslLib:ec_oct.obj
 0005:000001d4       $unwind$EC_POINT_set_compressed_coordinates 00000000000b87d4     OpensslLib:ec_oct.obj
 0005:000001d4       $unwind$ossl_ecdh_compute_key 00000000000b87d4     OpensslLib:ecdh_ossl.obj
 0005:000001d4       $unwind$ossl_ecdsa_sign_setup 00000000000b87d4     OpensslLib:ecdsa_ossl.obj
 0005:000001d4       $unwind$ecx_priv_print     00000000000b87d4     OpensslLib:ecx_meth.obj
 0005:000001d4       $unwind$ecx_pub_decode     00000000000b87d4     OpensslLib:ecx_meth.obj
 0005:000001d4       $unwind$ecx_pub_print      00000000000b87d4     OpensslLib:ecx_meth.obj
 0005:000001d4       $unwind$ecx_set_priv_key   00000000000b87d4     OpensslLib:ecx_meth.obj
 0005:000001d4       $unwind$ecx_set_pub_key    00000000000b87d4     OpensslLib:ecx_meth.obj
 0005:000001d4       $unwind$pkey_ecd_ctrl      00000000000b87d4     OpensslLib:ecx_meth.obj
 0005:000001d4       $unwind$pkey_ecx_keygen    00000000000b87d4     OpensslLib:ecx_meth.obj
 0005:000001d4       $unwind$validate_ecx_derive 00000000000b87d4     OpensslLib:ecx_meth.obj
 0005:000001d4       $unwind$aria_init_key      00000000000b87d4     OpensslLib:e_aria.obj
 0005:000001d4       $unwind$EVP_CIPHER_CTX_ctrl 00000000000b87d4     OpensslLib:evp_enc.obj
 0005:000001d4       $unwind$EVP_CIPHER_CTX_set_key_length 00000000000b87d4     OpensslLib:evp_enc.obj
 0005:000001d4       $unwind$update             00000000000b87d4     OpensslLib:m_sigver.obj
 0005:000001d4       $unwind$EVP_PKEY_get0_EC_KEY 00000000000b87d4     OpensslLib:p_lib.obj
 0005:000001d4       $unwind$EVP_PKEY_verify    00000000000b87d4     OpensslLib:pmeth_fn.obj
 0005:000001d4       $unwind$pkey_hmac_ctrl     00000000000b87d4     OpensslLib:hm_pmeth.obj
 0005:000001d4       $unwind$rand_pool_add_end  00000000000b87d4     OpensslLib:rand_lib.obj
 0005:000001d4       $unwind$RSA_pkey_ctx_ctrl  00000000000b87d4     OpensslLib:rsa_lib.obj
 0005:000001d4       $unwind$check_padding_md   00000000000b87d4     OpensslLib:rsa_pmeth.obj
 0005:000001d4       $unwind$siphash_signctx_init 00000000000b87d4     OpensslLib:siphash_pmeth.obj
 0005:000001d4       $unwind$X509_OBJECT_new    00000000000b87d4     OpensslLib:x509_lu.obj
 0005:000001d4       $unwind$def_crl_verify     00000000000b87d4     OpensslLib:x_crl.obj
 0005:000001d4       $unwind$GENERAL_NAME_print 00000000000b87d4     OpensslLib:v3_alt.obj
 0005:000001d4       $unwind$X509V3_get_section 00000000000b87d4     OpensslLib:v3_conf.obj
 0005:000001d4       $unwind$ReclaimForOS       00000000000b87d4     VariableRuntimeDxe:Variable.obj
 0005:000001d4       $unwind$VendorKeyIsModified 00000000000b87d4     AuthVariableLib:AuthService.obj
 0005:000001dc       $unwind$eckey_param2type   00000000000b87dc     OpensslLib:ec_ameth.obj
 0005:000001dc       $unwind$EC_KEY_priv2buf    00000000000b87dc     OpensslLib:ec_key.obj
 0005:000001dc       $unwind$CRYPTO_gcm128_init 00000000000b87dc     OpensslLib:gcm128.obj
 0005:000001dc       $unwind$VariableWriteServiceInitialize 00000000000b87dc     VariableRuntimeDxe:Variable.obj
 0005:000001f0       $unwind$CreateBasicVariablePolicy 00000000000b87f0     VariablePolicyHelperLib:VariablePolicyHelperLib.obj
 0005:000001f0       $unwind$ConvertNormalVarStorageToAuthVarStorage 00000000000b87f0     VariableRuntimeDxe:Variable.obj
 0005:0000020c       $unwind$strncasecmp        00000000000b880c     RuntimeCryptLib:CrtWrapper.obj
 0005:0000020c       $unwind$realloc            00000000000b880c     RuntimeCryptLib:RuntimeMemAllocation.obj
 0005:0000020c       $unwind$asn1_str2tag       00000000000b880c     OpensslLib:asn1_gen.obj
 0005:0000020c       $unwind$mask_cb            00000000000b880c     OpensslLib:asn1_gen.obj
 0005:0000020c       $unwind$PKCS8_pkey_set0    00000000000b880c     OpensslLib:p8_pkey.obj
 0005:0000020c       $unwind$bn_c2i             00000000000b880c     OpensslLib:x_bignum.obj
 0005:0000020c       $unwind$bn_i2c             00000000000b880c     OpensslLib:x_bignum.obj
 0005:0000020c       $unwind$mem_init           00000000000b880c     OpensslLib:bss_mem.obj
 0005:0000020c       $unwind$mem_read           00000000000b880c     OpensslLib:bss_mem.obj
 0005:0000020c       $unwind$BN_add             00000000000b880c     OpensslLib:bn_add.obj
 0005:0000020c       $unwind$BN_sub             00000000000b880c     OpensslLib:bn_add.obj
 0005:0000020c       $unwind$BN_copy            00000000000b880c     OpensslLib:bn_lib.obj
 0005:0000020c       $unwind$BN_sub_word        00000000000b880c     OpensslLib:bn_word.obj
 0005:0000020c       $unwind$sec_alloc_realloc  00000000000b880c     OpensslLib:buffer.obj
 0005:0000020c       $unwind$pkey_cmac_keygen   00000000000b880c     OpensslLib:cm_pmeth.obj
 0005:0000020c       $unwind$CMAC_CTX_copy      00000000000b880c     OpensslLib:cmac.obj
 0005:0000020c       $unwind$ssl_module_free    00000000000b880c     OpensslLib:conf_ssl.obj
 0005:0000020c       $unwind$dh_cmp_parameters  00000000000b880c     OpensslLib:dh_ameth.obj
 0005:0000020c       $unwind$dh_copy_parameters 00000000000b880c     OpensslLib:dh_ameth.obj
 0005:0000020c       $unwind$int_dh_param_copy  00000000000b880c     OpensslLib:dh_ameth.obj
 0005:0000020c       $unwind$d2i_DHxparams      00000000000b880c     OpensslLib:dh_asn1.obj
 0005:0000020c       $unwind$pt_to_pniels       00000000000b880c     OpensslLib:curve448.obj
 0005:0000020c       $unwind$EC_KEY_set_group   00000000000b880c     OpensslLib:ec_key.obj
 0005:0000020c       $unwind$ecx_get_priv_key   00000000000b880c     OpensslLib:ecx_meth.obj
 0005:0000020c       $unwind$ecx_get_pub_key    00000000000b880c     OpensslLib:ecx_meth.obj
 0005:0000020c       $unwind$ERR_put_error      00000000000b880c     OpensslLib:err.obj
 0005:0000020c       $unwind$enc_free           00000000000b880c     OpensslLib:bio_enc.obj
 0005:0000020c       $unwind$EVP_DigestFinal_ex 00000000000b880c     OpensslLib:digest.obj
 0005:0000020c       $unwind$aes_gcm_init_key   00000000000b880c     OpensslLib:e_aes.obj
 0005:0000020c       $unwind$update             00000000000b880c     OpensslLib:m_md5_sha1.obj
 0005:0000020c       $unwind$EVP_PKEY_CTX_hex2ctrl 00000000000b880c     OpensslLib:pmeth_lib.obj
 0005:0000020c       $unwind$pkey_hmac_cleanup  00000000000b880c     OpensslLib:hm_pmeth.obj
 0005:0000020c       $unwind$pkey_hmac_copy     00000000000b880c     OpensslLib:hm_pmeth.obj
 0005:0000020c       $unwind$pkey_hmac_ctrl_str 00000000000b880c     OpensslLib:hm_pmeth.obj
 0005:0000020c       $unwind$OPENSSL_LH_new     00000000000b880c     OpensslLib:lhash.obj
 0005:0000020c       $unwind$CRYPTO_strndup     00000000000b880c     OpensslLib:o_str.obj
 0005:0000020c       $unwind$drbg_ctr_uninstantiate 00000000000b880c     OpensslLib:drbg_ctr.obj
 0005:0000020c       $unwind$rsa_md_to_algor    00000000000b880c     OpensslLib:rsa_ameth.obj
 0005:0000020c       $unwind$rsa_cb             00000000000b880c     OpensslLib:rsa_asn1.obj
 0005:0000020c       $unwind$rsa_get_blinding   00000000000b880c     OpensslLib:rsa_ossl.obj
 0005:0000020c       $unwind$rsa_ossl_finish    00000000000b880c     OpensslLib:rsa_ossl.obj
 0005:0000020c       $unwind$siphash_set_priv_key 00000000000b880c     OpensslLib:siphash_ameth.obj
 0005:0000020c       $unwind$pkey_siphash_cleanup 00000000000b880c     OpensslLib:siphash_pmeth.obj
 0005:0000020c       $unwind$pkey_siphash_copy  00000000000b880c     OpensslLib:siphash_pmeth.obj
 0005:0000020c       $unwind$pkey_siphash_ctrl_str 00000000000b880c     OpensslLib:siphash_pmeth.obj
 0005:0000020c       $unwind$OPENSSL_sk_new_reserve 00000000000b880c     OpensslLib:stack.obj
 0005:0000020c       $unwind$check_revocation   00000000000b880c     OpensslLib:x509_vfy.obj
 0005:0000020c       $unwind$int_x509_param_set1 00000000000b880c     OpensslLib:x509_vpm.obj
 0005:0000020c       $unwind$X509_NAME_delete_entry 00000000000b880c     OpensslLib:x509name.obj
 0005:0000020c       $unwind$x509_name_ex_i2d   00000000000b880c     OpensslLib:x_name.obj
 0005:0000020c       $unwind$tree_add_auth_node 00000000000b880c     OpensslLib:pcy_tree.obj
 0005:0000020c       $unwind$nc_match_single    00000000000b880c     OpensslLib:v3_ncons.obj
 0005:0000020c       $unwind$nc_uri             00000000000b880c     OpensslLib:v3_ncons.obj
 0005:0000020c       $unwind$X509_check_purpose 00000000000b880c     OpensslLib:v3_purp.obj
 0005:0000020c       $unwind$X509V3_add_value_int 00000000000b880c     OpensslLib:v3_utl.obj
 0005:0000020c       $unwind$rand_pool_acquire_entropy 00000000000b880c     OpensslLib:rand_pool.obj
 0005:0000020c       $unwind$VarCheckVariablePropertyGet 00000000000b880c     VariableRuntimeDxe:VarCheck.obj
 0005:0000020c       $unwind$VarCheckVariablePropertySet 00000000000b880c     VariableRuntimeDxe:VarCheck.obj
 0005:0000020c       $unwind$VariableCommonInitialize 00000000000b880c     VariableRuntimeDxe:Variable.obj
 0005:0000020c       $unwind$DivU64x32Remainder 00000000000b880c     BaseLib:DivU64x32Remainder.obj
 0005:0000020c       $unwind$AsciiStrnCmp       00000000000b880c     BaseLib:String.obj
 0005:0000020c       $unwind$StrCmp             00000000000b880c     BaseLib:String.obj
 0005:0000020c       $unwind$StrLen             00000000000b880c     BaseLib:String.obj
 0005:0000020c       $unwind$CopyGuid           00000000000b880c     BaseMemoryLibRepStr:MemLibGuid.obj
 0005:0000020c       $unwind$ScanMem8           00000000000b880c     BaseMemoryLibRepStr:ScanMem8Wrapper.obj
 0005:0000020c       $unwind$SetMem             00000000000b880c     BaseMemoryLibRepStr:SetMemWrapper.obj
 0005:0000020c       $unwind$PciCf8Read32       00000000000b880c     BasePciCf8Lib:PciCf8Lib.obj
 0005:0000020c       $unwind$InternalAllocateCopyPool 00000000000b880c     UefiMemoryAllocationLib:MemoryAllocationLib.obj
 0005:0000020c       $unwind$InternalAcpiDelay  00000000000b880c     DxeAcpiTimerLib:AcpiTimerLib.obj
 0005:0000021c       $unwind$GetFvbInfoByAddress 00000000000b881c     VariableRuntimeDxe:Variable.obj
 0005:00000234       $unwind$VariableLockRequestToLock 00000000000b8834     VariableRuntimeDxe:VariableLockRequestToLock.obj
 0005:00000248       $unwind$BIO_free           00000000000b8848     OpensslLib:bio_lib.obj
 0005:00000248       $unwind$pkey_ecd_digestsign448 00000000000b8848     OpensslLib:ecx_meth.obj
 0005:00000248       $unwind$aes_ctr_cipher     00000000000b8848     OpensslLib:e_aes.obj
 0005:00000248       $unwind$MorLockInitAtEndOfDxe 00000000000b8848     VariableRuntimeDxe:TcgMorLockDxe.obj
 0005:00000248       $unwind$AsciiStrCatS       00000000000b8848     BaseLib:SafeString.obj
 0005:00000248       $unwind$AsciiStrCpyS       00000000000b8848     BaseLib:SafeString.obj
 0005:00000248       $unwind$AsciiStrDecimalToUintnS 00000000000b8848     BaseLib:SafeString.obj
 0005:00000248       $unwind$AsciiStrnCpyS      00000000000b8848     BaseLib:SafeString.obj
 0005:00000250       $unwind$OBJ_txt2obj        00000000000b8850     OpensslLib:obj_dat.obj
 0005:00000250       $unwind$sxnet_v2i          00000000000b8850     OpensslLib:v3_sxnet.obj
 0005:00000250       $unwind$InternalGetVariable 00000000000b8850     VariableRuntimeDxe:Measurement.obj
 0005:00000264       $unwind$asn1_template_free 00000000000b8864     OpensslLib:tasn_fre.obj
 0005:00000264       $unwind$SecureBootHook     00000000000b8864     VariableRuntimeDxe:Measurement.obj
 0005:00000278       $unwind$gmtime             00000000000b8878     RuntimeCryptLib:TimerWrapper.obj
 0005:00000278       $unwind$BN_kronecker       00000000000b8878     OpensslLib:bn_kron.obj
 0005:00000278       $unwind$bn_lshift_fixed_top 00000000000b8878     OpensslLib:bn_shift.obj
 0005:00000278       $unwind$bn_rshift_fixed_top 00000000000b8878     OpensslLib:bn_shift.obj
 0005:00000278       $unwind$aes_gcm_tls_cipher 00000000000b8878     OpensslLib:e_aes.obj
 0005:00000278       $unwind$aria_gcm_tls_cipher 00000000000b8878     OpensslLib:e_aria.obj
 0005:00000278       $unwind$CRYPTO_ctr128_encrypt 00000000000b8878     OpensslLib:ctr128.obj
 0005:00000278       $unwind$CRYPTO_gcm128_aad  00000000000b8878     OpensslLib:gcm128.obj
 0005:00000278       $unwind$rsa_pss_param_print 00000000000b8878     OpensslLib:rsa_ameth.obj
 0005:00000278       $unwind$rsa_get_public_exp 00000000000b8878     OpensslLib:rsa_crpt.obj
 0005:00000278       $unwind$SipHash_Update     00000000000b8878     OpensslLib:siphash.obj
 0005:00000278       $unwind$X509_chain_check_suiteb 00000000000b8878     OpensslLib:x509_cmp.obj
 0005:00000278       $unwind$check_auth_level   00000000000b8878     OpensslLib:x509_vfy.obj
 0005:00000278       $unwind$crl_akid_check     00000000000b8878     OpensslLib:x509_vfy.obj
 0005:00000278       $unwind$X509_VERIFY_PARAM_set1_policies 00000000000b8878     OpensslLib:x509_vpm.obj
 0005:00000278       $unwind$X509V3_get_d2i     00000000000b8878     OpensslLib:v3_lib.obj
 0005:00000278       $unwind$VariablePropertyGetFunction 00000000000b8878     VarCheckLib:VarCheckLib.obj
 0005:00000278       $unwind$GetBestPolicyMatch 00000000000b8878     VariablePolicyLibRuntimeDxe:VariablePolicyLib.obj
 0005:00000278       $unwind$FindVariableEx     00000000000b8878     VariableRuntimeDxe:VariableParsing.obj
 0005:00000278       $unwind$CheckSignatureListFormat 00000000000b8878     AuthVariableLib:AuthService.obj
 0005:00000294       $unwind$VariableServiceGetNextVariableInternal 00000000000b8894     VariableRuntimeDxe:VariableParsing.obj
 0005:000002b0       $unwind$bn_mul_fixed_top   00000000000b88b0     OpensslLib:bn_mul.obj
 0005:000002b0       $unwind$InitRealNonVolatileVariableStore 00000000000b88b0     VariableRuntimeDxe:VariableNonVolatile.obj
 0005:000002cc       $unwind$GetLbaAndOffsetByAddress 00000000000b88cc     VariableRuntimeDxe:Reclaim.obj
 0005:000002dc       $unwind$FtwVariableSpace   00000000000b88dc     VariableRuntimeDxe:Reclaim.obj
 0005:000002e8       $unwind$OBJ_add_object     00000000000b88e8     OpensslLib:obj_dat.obj
 0005:000002e8       $unwind$rsa_priv_encode    00000000000b88e8     OpensslLib:rsa_ameth.obj
 0005:000002e8       $unwind$VariableExLibFindNextVariable 00000000000b88e8     VariableRuntimeDxe:VariableExLib.obj
 0005:000002f8       $unwind$VariableExLibUpdateVariable 00000000000b88f8     VariableRuntimeDxe:VariableExLib.obj
 0005:00000300       $unwind$nc_match           00000000000b8900     OpensslLib:v3_ncons.obj
 0005:00000300       $unwind$CompareGuid        00000000000b8900     BaseMemoryLibRepStr:MemLibGuid.obj
 0005:00000318       $unwind$c2i_uint64_int     00000000000b8918     OpensslLib:a_int.obj
 0005:00000318       $unwind$OBJ_NAME_get       00000000000b8918     OpensslLib:o_names.obj
 0005:00000318       $unwind$equal_wildcard     00000000000b8918     OpensslLib:v3_utl.obj
 0005:00000318       $unwind$StrCpyS            00000000000b8918     BaseLib:SafeString.obj
 0005:00000330       $unwind$DebugPrint         00000000000b8930     BaseDebugLibSerialPort:DebugLib.obj
 0005:00000338       $unwind$DebugPrintMarker   00000000000b8938     BaseDebugLibSerialPort:DebugLib.obj
 0005:0000034c       $unwind$DebugAssert        00000000000b894c     BaseDebugLibSerialPort:DebugLib.obj
 0005:00000354       $unwind$BN_uadd            00000000000b8954     OpensslLib:bn_add.obj
 0005:00000354       $unwind$bn_div_words       00000000000b8954     OpensslLib:bn_asm.obj
 0005:00000354       $unwind$BN_bin2bn          00000000000b8954     OpensslLib:bn_lib.obj
 0005:00000354       $unwind$BN_num_bits        00000000000b8954     OpensslLib:bn_lib.obj
 0005:00000354       $unwind$bn_from_mont_fixed_top 00000000000b8954     OpensslLib:bn_mont.obj
 0005:00000354       $unwind$BN_div_word        00000000000b8954     OpensslLib:bn_word.obj
 0005:00000354       $unwind$int_update         00000000000b8954     OpensslLib:cm_pmeth.obj
 0005:00000354       $unwind$ec_GFp_simple_group_get_curve 00000000000b8954     OpensslLib:ecp_smpl.obj
 0005:00000354       $unwind$md_ctrl            00000000000b8954     OpensslLib:bio_md.obj
 0005:00000354       $unwind$EVP_Digest         00000000000b8954     OpensslLib:digest.obj
 0005:00000354       $unwind$aes_ecb_cipher     00000000000b8954     OpensslLib:e_aes.obj
 0005:00000354       $unwind$aria_128_ecb_cipher 00000000000b8954     OpensslLib:e_aria.obj
 0005:00000354       $unwind$aria_192_ecb_cipher 00000000000b8954     OpensslLib:e_aria.obj
 0005:00000354       $unwind$aria_256_ecb_cipher 00000000000b8954     OpensslLib:e_aria.obj
 0005:00000354       $unwind$sm4_ecb_cipher     00000000000b8954     OpensslLib:e_sm4.obj
 0005:00000354       $unwind$getrn              00000000000b8954     OpensslLib:lhash.obj
 0005:00000354       $unwind$OBJ_NAME_add       00000000000b8954     OpensslLib:o_names.obj
 0005:00000354       $unwind$SHA1_Final         00000000000b8954     OpensslLib:sha1dgst.obj
 0005:00000354       $unwind$SHA256_Final       00000000000b8954     OpensslLib:sha256.obj
 0005:00000354       $unwind$SM4_decrypt        00000000000b8954     OpensslLib:sm4.obj
 0005:00000354       $unwind$SM4_encrypt        00000000000b8954     OpensslLib:sm4.obj
 0005:00000354       $unwind$obj_trust          00000000000b8954     OpensslLib:x509_trs.obj
 0005:00000354       $unwind$i2r_certpol        00000000000b8954     OpensslLib:v3_cpols.obj
 0005:00000354       $unwind$crldp_from_section 00000000000b8954     OpensslLib:v3_crld.obj
 0005:00000354       $unwind$nc_email           00000000000b8954     OpensslLib:v3_ncons.obj
 0005:00000354       $unwind$VarCheckLibVariablePropertySet 00000000000b8954     VarCheckLib:VarCheckLib.obj
 0005:00000354       $unwind$IsDevicePathValid  00000000000b8954     UefiDevicePathLibDevicePathProtocol:UefiDevicePathLib.obj
 0005:0000036c       $unwind$hash_init_with_dom 00000000000b896c     OpensslLib:eddsa.obj
 0005:0000036c       $unwind$ossl_ecdsa_sign    00000000000b896c     OpensslLib:ecdsa_ossl.obj
 0005:0000036c       $unwind$EfiCreateProtocolNotifyEvent 00000000000b896c     UefiLib:UefiLib.obj
 0005:00000374       $unwind$ASN1_item_dup      00000000000b8974     OpensslLib:a_dup.obj
 0005:00000374       $unwind$asn1_string_to_bn  00000000000b8974     OpensslLib:a_int.obj
 0005:00000374       $unwind$ASN1_TYPE_unpack_sequence 00000000000b8974     OpensslLib:a_type.obj
 0005:00000374       $unwind$ASN1_generate_v3   00000000000b8974     OpensslLib:asn1_gen.obj
 0005:00000374       $unwind$append_exp         00000000000b8974     OpensslLib:asn1_gen.obj
 0005:00000374       $unwind$ASN1_STRING_type_new 00000000000b8974     OpensslLib:asn1_lib.obj
 0005:00000374       $unwind$uint32_new         00000000000b8974     OpensslLib:x_int64.obj
 0005:00000374       $unwind$uint64_new         00000000000b8974     OpensslLib:x_int64.obj
 0005:00000374       $unwind$BN_CTX_get         00000000000b8974     OpensslLib:bn_ctx.obj
 0005:00000374       $unwind$BN_CTX_start       00000000000b8974     OpensslLib:bn_ctx.obj
 0005:00000374       $unwind$BN_lshift          00000000000b8974     OpensslLib:bn_shift.obj
 0005:00000374       $unwind$BN_rshift          00000000000b8974     OpensslLib:bn_shift.obj
 0005:00000374       $unwind$pkey_cmac_ctrl     00000000000b8974     OpensslLib:cm_pmeth.obj
 0005:00000374       $unwind$CMAC_CTX_new       00000000000b8974     OpensslLib:cmac.obj
 0005:00000374       $unwind$dh_param_decode    00000000000b8974     OpensslLib:dh_ameth.obj
 0005:00000374       $unwind$dh_pkey_public_check 00000000000b8974     OpensslLib:dh_ameth.obj
 0005:00000374       $unwind$dh_bn_mod_exp      00000000000b8974     OpensslLib:dh_key.obj
 0005:00000374       $unwind$pkey_dh_init       00000000000b8974     OpensslLib:dh_pmeth.obj
 0005:00000374       $unwind$curve448_scalar_add 00000000000b8974     OpensslLib:scalar.obj
 0005:00000374       $unwind$eckey_param_decode 00000000000b8974     OpensslLib:ec_ameth.obj
 0005:00000374       $unwind$old_ec_priv_decode 00000000000b8974     OpensslLib:ec_ameth.obj
 0005:00000374       $unwind$ECDSA_SIG_new      00000000000b8974     OpensslLib:ec_asn1.obj
 0005:00000374       $unwind$pkey_ec_init       00000000000b8974     OpensslLib:ec_pmeth.obj
 0005:00000374       $unwind$pkey_ec_verify     00000000000b8974     OpensslLib:ec_pmeth.obj
 0005:00000374       $unwind$ec_GFp_mont_field_decode 00000000000b8974     OpensslLib:ecp_mont.obj
 0005:00000374       $unwind$ec_GFp_mont_field_encode 00000000000b8974     OpensslLib:ecp_mont.obj
 0005:00000374       $unwind$ec_GFp_mont_field_mul 00000000000b8974     OpensslLib:ecp_mont.obj
 0005:00000374       $unwind$ec_GFp_mont_field_set_to_one 00000000000b8974     OpensslLib:ecp_mont.obj
 0005:00000374       $unwind$ec_GFp_mont_field_sqr 00000000000b8974     OpensslLib:ecp_mont.obj
 0005:00000374       $unwind$ec_GFp_simple_point_set_affine_coordinates 00000000000b8974     OpensslLib:ecp_smpl.obj
 0005:00000374       $unwind$pkey_ecd_digestsign25519 00000000000b8974     OpensslLib:ecx_meth.obj
 0005:00000374       $unwind$aes_cbc_cipher     00000000000b8974     OpensslLib:e_aes.obj
 0005:00000374       $unwind$EVP_PKEY_new       00000000000b8974     OpensslLib:p_lib.obj
 0005:00000374       $unwind$EVP_PKEY_sign_init 00000000000b8974     OpensslLib:pmeth_fn.obj
 0005:00000374       $unwind$EVP_PKEY_verify_init 00000000000b8974     OpensslLib:pmeth_fn.obj
 0005:00000374       $unwind$EVP_PKEY_CTX_ctrl  00000000000b8974     OpensslLib:pmeth_lib.obj
 0005:00000374       $unwind$hmac_signctx       00000000000b8974     OpensslLib:hm_pmeth.obj
 0005:00000374       $unwind$pkey_hkdf_init     00000000000b8974     OpensslLib:hkdf.obj
 0005:00000374       $unwind$pkey_tls1_prf_init 00000000000b8974     OpensslLib:tls1_prf.obj
 0005:00000374       $unwind$PKCS7_ctrl         00000000000b8974     OpensslLib:pk7_lib.obj
 0005:00000374       $unwind$ctr_BCC_block      00000000000b8974     OpensslLib:drbg_ctr.obj
 0005:00000374       $unwind$rand_pool_add_begin 00000000000b8974     OpensslLib:rand_lib.obj
 0005:00000374       $unwind$old_rsa_priv_decode 00000000000b8974     OpensslLib:rsa_ameth.obj
 0005:00000374       $unwind$rsa_multip_info_new 00000000000b8974     OpensslLib:rsa_mp.obj
 0005:00000374       $unwind$RSA_padding_check_PKCS1_type_1 00000000000b8974     OpensslLib:rsa_pk1.obj
 0005:00000374       $unwind$setup_tbuf         00000000000b8974     OpensslLib:rsa_pmeth.obj
 0005:00000374       $unwind$pkey_siphash_init  00000000000b8974     OpensslLib:siphash_pmeth.obj
 0005:00000374       $unwind$pkey_sm2_init      00000000000b8974     OpensslLib:sm2_pmeth.obj
 0005:00000374       $unwind$X509_STORE_new     00000000000b8974     OpensslLib:x509_lu.obj
 0005:00000374       $unwind$x509_name_ex_print 00000000000b8974     OpensslLib:x_name.obj
 0005:00000374       $unwind$X509_PUBKEY_get0   00000000000b8974     OpensslLib:x_pubkey.obj
 0005:00000374       $unwind$EfiCreateEventReadyToBootEx 00000000000b8974     UefiLib:UefiNotTiano.obj
 0005:0000037c       $unwind$RandGetBytes       00000000000b897c     OpensslLib:rand_pool.obj
 0005:0000037c       $unwind$RegisterVariablePolicy 00000000000b897c     VariablePolicyLibRuntimeDxe:VariablePolicyLib.obj
 0005:0000038c       $unwind$v2i_ASN1_BIT_STRING 00000000000b898c     OpensslLib:v3_bitst.obj
 0005:0000038c       $unwind$ValidateSetVariable 00000000000b898c     VariablePolicyLibRuntimeDxe:VariablePolicyLib.obj
 0005:000003a8       $unwind$ASN1_item_verify   00000000000b89a8     OpensslLib:a_verify.obj
 0005:000003a8       $unwind$ASN1_bn_print      00000000000b89a8     OpensslLib:t_pkey.obj
 0005:000003a8       $unwind$aes_cfb1_cipher    00000000000b89a8     OpensslLib:e_aes.obj
 0005:000003a8       $unwind$aria_128_ofb_cipher 00000000000b89a8     OpensslLib:e_aria.obj
 0005:000003a8       $unwind$aria_192_ofb_cipher 00000000000b89a8     OpensslLib:e_aria.obj
 0005:000003a8       $unwind$aria_256_ofb_cipher 00000000000b89a8     OpensslLib:e_aria.obj
 0005:000003a8       $unwind$sm4_ofb_cipher     00000000000b89a8     OpensslLib:e_sm4.obj
 0005:000003a8       $unwind$tls1_prf_alg       00000000000b89a8     OpensslLib:tls1_prf.obj
 0005:000003a8       $unwind$int_rsa_verify     00000000000b89a8     OpensslLib:rsa_sign.obj
 0005:000003a8       $unwind$policy_cache_set_mapping 00000000000b89a8     OpensslLib:pcy_map.obj
 0005:000003a8       $unwind$policy_section     00000000000b89a8     OpensslLib:v3_cpols.obj
 0005:000003a8       $unwind$r2i_certpol        00000000000b89a8     OpensslLib:v3_cpols.obj
 0005:000003a8       $unwind$v2i_idp            00000000000b89a8     OpensslLib:v3_crld.obj
 0005:000003a8       $unwind$v2i_POLICY_MAPPINGS 00000000000b89a8     OpensslLib:v3_pmaps.obj
 0005:000003a8       $unwind$v2i_TLS_FEATURE    00000000000b89a8     OpensslLib:v3_tlsf.obj
 0005:000003a8       $unwind$VarCheckLibSetVariableCheck 00000000000b89a8     VarCheckLib:VarCheckLib.obj
 0005:000003c4       $unwind$Tpm12MeasureAndLogData 00000000000b89c4     DxeTpmMeasurementLib:DxeTpmMeasurementLib.obj
 0005:000003d8       $unwind$BIO_ctrl           00000000000b89d8     OpensslLib:bio_lib.obj
 0005:000003d8       $unwind$bio_read_intern    00000000000b89d8     OpensslLib:bio_lib.obj
 0005:000003d8       $unwind$bio_write_intern   00000000000b89d8     OpensslLib:bio_lib.obj
 0005:000003d8       $unwind$ossl_ecdsa_verify  00000000000b89d8     OpensslLib:ecdsa_ossl.obj
 0005:000003d8       $unwind$rand_drbg_get_nonce 00000000000b89d8     OpensslLib:rand_lib.obj
 0005:000003d8       $unwind$a2i_IPADDRESS_NC   00000000000b89d8     OpensslLib:v3_utl.obj
 0005:000003d8       $unwind$Tpm20MeasureAndLogData 00000000000b89d8     DxeTpmMeasurementLib:DxeTpmMeasurementLib.obj
 0005:000003ec       $unwind$CcMeasureAndLogData 00000000000b89ec     DxeTpmMeasurementLib:DxeTpmMeasurementLib.obj
 0005:00000400       $unwind$SetVariableCheckHandlerUefiDefined 00000000000b8a00     VarCheckUefiLib:VarCheckUefiLibNullClass.obj
 0005:00000400       $unwind$TpmMeasureAndLogData 00000000000b8a00     DxeTpmMeasurementLib:DxeTpmMeasurementLib.obj
 0005:00000414       $unwind$AuthVariableLibInitialize 00000000000b8a14     AuthVariableLib:AuthVariableLib.obj
 0005:0000042c       $unwind$qsort              00000000000b8a2c     RuntimeCryptLib:CrtWrapper.obj
 0005:0000042c       $unwind$ASN1_STRING_set    00000000000b8a2c     OpensslLib:asn1_lib.obj
 0005:0000042c       $unwind$ASN1_item_pack     00000000000b8a2c     OpensslLib:asn_pack.obj
 0005:0000042c       $unwind$bn_secure_c2i      00000000000b8a2c     OpensslLib:x_bignum.obj
 0005:0000042c       $unwind$mem_write          00000000000b8a2c     OpensslLib:bss_mem.obj
 0005:0000042c       $unwind$witness            00000000000b8a2c     OpensslLib:bn_prime.obj
 0005:0000042c       $unwind$CONF_parse_list    00000000000b8a2c     OpensslLib:conf_mod.obj
 0005:0000042c       $unwind$ec_asn1_group2fieldid 00000000000b8a2c     OpensslLib:ec_asn1.obj
 0005:0000042c       $unwind$EC_GROUP_new_curve_GFp 00000000000b8a2c     OpensslLib:ec_cvt.obj
 0005:0000042c       $unwind$ec_key_simple_check_key 00000000000b8a2c     OpensslLib:ec_key.obj
 0005:0000042c       $unwind$EC_GROUP_set_generator 00000000000b8a2c     OpensslLib:ec_lib.obj
 0005:0000042c       $unwind$pkey_ec_keygen     00000000000b8a2c     OpensslLib:ec_pmeth.obj
 0005:0000042c       $unwind$ecx_key_print      00000000000b8a2c     OpensslLib:ecx_meth.obj
 0005:0000042c       $unwind$EVP_CipherInit_ex  00000000000b8a2c     OpensslLib:evp_enc.obj
 0005:0000042c       $unwind$PKCS7_get0_signers 00000000000b8a2c     OpensslLib:pk7_smime.obj
 0005:0000042c       $unwind$rand_pool_new      00000000000b8a2c     OpensslLib:rand_lib.obj
 0005:0000042c       $unwind$RSA_padding_add_PKCS1_type_2 00000000000b8a2c     OpensslLib:rsa_pk1.obj
 0005:0000042c       $unwind$RSA_padding_add_SSLv23 00000000000b8a2c     OpensslLib:rsa_ssl.obj
 0005:0000042c       $unwind$ec_field_size      00000000000b8a2c     OpensslLib:sm2_crypt.obj
 0005:0000042c       $unwind$check_id           00000000000b8a2c     OpensslLib:x509_vfy.obj
 0005:0000042c       $unwind$level_add_node     00000000000b8a2c     OpensslLib:pcy_node.obj
 0005:0000042c       $unwind$copy_issuer        00000000000b8a2c     OpensslLib:v3_alt.obj
 0005:0000042c       $unwind$v2i_GENERAL_NAME_ex 00000000000b8a2c     OpensslLib:v3_alt.obj
 0005:0000042c       $unwind$NAME_CONSTRAINTS_check 00000000000b8a2c     OpensslLib:v3_ncons.obj
 0005:0000042c       $unwind$do_i2r_name_constraints 00000000000b8a2c     OpensslLib:v3_ncons.obj
 0005:0000042c       $unwind$AuthVariableLibProcessVariable 00000000000b8a2c     AuthVariableLib:AuthVariableLib.obj
 0005:00000444       $unwind$AuthServiceInternalFindVariable 00000000000b8a44     AuthVariableLib:AuthService.obj
 0005:00000458       $unwind$add_pniels_to_pt   00000000000b8a58     OpensslLib:curve448.obj
 0005:00000458       $unwind$pniels_to_pt       00000000000b8a58     OpensslLib:curve448.obj
 0005:00000458       $unwind$gf_serialize       00000000000b8a58     OpensslLib:f_generic.obj
 0005:00000458       $unwind$AuthServiceInternalUpdateVariable 00000000000b8a58     AuthVariableLib:AuthService.obj
 0005:0000046c       $unwind$AuthServiceInternalUpdateVariableWithTimeStamp 00000000000b8a6c     AuthVariableLib:AuthService.obj
 0005:00000480       $unwind$UpdatePlatformMode 00000000000b8a80     AuthVariableLib:AuthService.obj
 0005:00000490       $unwind$ProcessVarWithPk   00000000000b8a90     AuthVariableLib:AuthService.obj
 0005:000004ac       $unwind$PKCS7_signatureVerify 00000000000b8aac     OpensslLib:pk7_doit.obj
 0005:000004ac       $unwind$ProcessVariable    00000000000b8aac     AuthVariableLib:AuthService.obj
 0005:000004c8       $unwind$FilterSignatureList 00000000000b8ac8     AuthVariableLib:AuthService.obj
 0005:000004e0       $unwind$CalculatePrivAuthVarSignChainSHA256Digest 00000000000b8ae0     AuthVariableLib:AuthService.obj
 0005:000004f8       $unwind$FindCertsFromDb    00000000000b8af8     AuthVariableLib:AuthService.obj
 0005:00000510       $unwind$GetCertsFromDb     00000000000b8b10     AuthVariableLib:AuthService.obj
 0005:00000524       $unwind$DeleteCertsFromDb  00000000000b8b24     AuthVariableLib:AuthService.obj
 0005:0000053c       $unwind$CleanCertsFromDb   00000000000b8b3c     AuthVariableLib:AuthService.obj
 0005:00000550       $unwind$VerifyTimeBasedPayload 00000000000b8b50     AuthVariableLib:AuthService.obj
 0005:00000568       $unwind$table_select       00000000000b8b68     OpensslLib:curve25519.obj
 0005:00000568       $unwind$VerifyTimeBasedPayloadAndUpdate 00000000000b8b68     AuthVariableLib:AuthService.obj
 0005:00000588       $unwind$RegisterBasicVariablePolicy 00000000000b8b88     VariablePolicyHelperLib:VariablePolicyHelperLib.obj
 0005:00000594       $unwind$WrapPkcs7Data      00000000000b8b94     RuntimeCryptLib:CryptPkcs7VerifyCommon.obj
 0005:00000594       $unwind$bn_mul_normal      00000000000b8b94     OpensslLib:bn_mul.obj
 0005:00000594       $unwind$BN_hex2bn          00000000000b8b94     OpensslLib:bn_print.obj
 0005:00000594       $unwind$ec_GFp_simple_get_Jprojective_coordinates_GFp 00000000000b8b94     OpensslLib:ecp_smpl.obj
 0005:00000594       $unwind$ec_GFp_simple_set_Jprojective_coordinates_GFp 00000000000b8b94     OpensslLib:ecp_smpl.obj
 0005:00000594       $unwind$CRYPTO_cfb128_encrypt 00000000000b8b94     OpensslLib:cfb128.obj
 0005:00000594       $unwind$CRYPTO_gcm128_finish 00000000000b8b94     OpensslLib:gcm128.obj
 0005:00000594       $unwind$CRYPTO_ofb128_encrypt 00000000000b8b94     OpensslLib:ofb128.obj
 0005:00000594       $unwind$OBJ_bsearch_ex_    00000000000b8b94     OpensslLib:obj_dat.obj
 0005:00000594       $unwind$add_attribute      00000000000b8b94     OpensslLib:pk7_doit.obj
 0005:00000594       $unwind$SHA512_Final       00000000000b8b94     OpensslLib:sha512.obj
 0005:00000594       $unwind$tree_evaluate      00000000000b8b94     OpensslLib:pcy_tree.obj
 0005:00000594       $unwind$set_reasons        00000000000b8b94     OpensslLib:v3_crld.obj
 0005:00000594       $unwind$valid_star         00000000000b8b94     OpensslLib:v3_utl.obj
 0005:00000594       $unwind$GetUefiDefinedVarCheckFunction 00000000000b8b94     VarCheckUefiLib:VarCheckUefiLibNullClass.obj
 0005:000005b0       $unwind$AsciiSPrint        00000000000b8bb0     BasePrintLib:PrintLib.obj
 0005:000005b8       $unwind$rsa_pss_decode     00000000000b8bb8     OpensslLib:rsa_ameth.obj
 0005:000005b8       $unwind$BasePrintLibValueToString 00000000000b8bb8     BasePrintLib:PrintLibInternal.obj
 0005:000005c4       $unwind$BasePrintLibSPrintMarker 00000000000b8bc4     BasePrintLib:PrintLibInternal.obj
 0005:000005e0       $unwind$i2d_X509_NAME      00000000000b8be0     OpensslLib:x_name.obj
 0005:000005e0       $unwind$BasePrintLibSPrint 00000000000b8be0     BasePrintLib:PrintLibInternal.obj
 0005:000005e8       $unwind$InternalX509GetNIDName 00000000000b8be8     RuntimeCryptLib:CryptX509.obj
 0005:00000600       $unwind$RsaGetPublicKeyFromX509 00000000000b8c00     RuntimeCryptLib:CryptX509.obj
 0005:00000614       $unwind$X509PopCertificate 00000000000b8c14     RuntimeCryptLib:CryptPkcs7VerifyCommon.obj
 0005:0000062c       $unwind$Pkcs7GetSigners    00000000000b8c2c     RuntimeCryptLib:CryptPkcs7VerifyCommon.obj
 0005:00000644       $unwind$sha256_block_data_order 00000000000b8c44     OpensslLib:sha256.obj
 0005:0000065c       $unwind$time               00000000000b8c5c     RuntimeCryptLib:TimerWrapper.obj
 0005:0000065c       $unwind$ASN1_item_digest   00000000000b8c5c     OpensslLib:a_digest.obj
 0005:0000065c       $unwind$asn1_template_new  00000000000b8c5c     OpensslLib:tasn_new.obj
 0005:0000065c       $unwind$asn1_do_adb        00000000000b8c5c     OpensslLib:tasn_utl.obj
 0005:0000065c       $unwind$asn1_do_lock       00000000000b8c5c     OpensslLib:tasn_utl.obj
 0005:0000065c       $unwind$BIO_new_mem_buf    00000000000b8c5c     OpensslLib:bss_mem.obj
 0005:0000065c       $unwind$BN_BLINDING_new    00000000000b8c5c     OpensslLib:bn_blind.obj
 0005:0000065c       $unwind$BN_POOL_get        00000000000b8c5c     OpensslLib:bn_ctx.obj
 0005:0000065c       $unwind$BN_div             00000000000b8c5c     OpensslLib:bn_div.obj
 0005:0000065c       $unwind$BN_nnmod           00000000000b8c5c     OpensslLib:bn_mod.obj
 0005:0000065c       $unwind$pkey_dh_keygen     00000000000b8c5c     OpensslLib:dh_pmeth.obj
 0005:0000065c       $unwind$EC_GROUP_get_ecpkparameters 00000000000b8c5c     OpensslLib:ec_asn1.obj
 0005:0000065c       $unwind$EC_KEY_new_method  00000000000b8c5c     OpensslLib:ec_kmeth.obj
 0005:0000065c       $unwind$EC_GROUP_new       00000000000b8c5c     OpensslLib:ec_lib.obj
 0005:0000065c       $unwind$EC_POINT_new       00000000000b8c5c     OpensslLib:ec_lib.obj
 0005:0000065c       $unwind$EC_POINTs_make_affine 00000000000b8c5c     OpensslLib:ec_lib.obj
 0005:0000065c       $unwind$pkey_ec_ctrl       00000000000b8c5c     OpensslLib:ec_pmeth.obj
 0005:0000065c       $unwind$pkey_ec_derive     00000000000b8c5c     OpensslLib:ec_pmeth.obj
 0005:0000065c       $unwind$ecd_item_verify    00000000000b8c5c     OpensslLib:ecx_meth.obj
 0005:0000065c       $unwind$enc_new            00000000000b8c5c     OpensslLib:bio_enc.obj
 0005:0000065c       $unwind$aes_init_key       00000000000b8c5c     OpensslLib:e_aes.obj
 0005:0000065c       $unwind$aes_xts_cipher     00000000000b8c5c     OpensslLib:e_aes.obj
 0005:0000065c       $unwind$EVP_CIPHER_CTX_copy 00000000000b8c5c     OpensslLib:evp_enc.obj
 0005:0000065c       $unwind$EVP_DecryptFinal_ex 00000000000b8c5c     OpensslLib:evp_enc.obj
 0005:0000065c       $unwind$EVP_CIPHER_param_to_asn1 00000000000b8c5c     OpensslLib:evp_lib.obj
 0005:0000065c       $unwind$EVP_PKEY_copy_parameters 00000000000b8c5c     OpensslLib:p_lib.obj
 0005:0000065c       $unwind$EVP_PKEY_CTX_dup   00000000000b8c5c     OpensslLib:pmeth_lib.obj
 0005:0000065c       $unwind$pkey_hmac_init     00000000000b8c5c     OpensslLib:hm_pmeth.obj
 0005:0000065c       $unwind$CRYPTO_memdup      00000000000b8c5c     OpensslLib:o_str.obj
 0005:0000065c       $unwind$OPENSSL_buf2hexstr 00000000000b8c5c     OpensslLib:o_str.obj
 0005:0000065c       $unwind$OBJ_dup            00000000000b8c5c     OpensslLib:obj_lib.obj
 0005:0000065c       $unwind$drbg_setup         00000000000b8c5c     OpensslLib:drbg_lib.obj
 0005:0000065c       $unwind$rand_drbg_new      00000000000b8c5c     OpensslLib:drbg_lib.obj
 0005:0000065c       $unwind$RAND_bytes         00000000000b8c5c     OpensslLib:rand_lib.obj
 0005:0000065c       $unwind$rand_pool_add      00000000000b8c5c     OpensslLib:rand_lib.obj
 0005:0000065c       $unwind$rand_pool_bytes_needed 00000000000b8c5c     OpensslLib:rand_lib.obj
 0005:0000065c       $unwind$rsa_item_verify    00000000000b8c5c     OpensslLib:rsa_ameth.obj
 0005:0000065c       $unwind$pkey_siphash_ctrl  00000000000b8c5c     OpensslLib:siphash_pmeth.obj
 0005:0000065c       $unwind$pkey_sm2_decrypt   00000000000b8c5c     OpensslLib:sm2_pmeth.obj
 0005:0000065c       $unwind$OPENSSL_sk_dup     00000000000b8c5c     OpensslLib:stack.obj
 0005:0000065c       $unwind$sk_reserve         00000000000b8c5c     OpensslLib:stack.obj
 0005:0000065c       $unwind$X509_verify_cert   00000000000b8c5c     OpensslLib:x509_vfy.obj
 0005:0000065c       $unwind$x509_name_ex_new   00000000000b8c5c     OpensslLib:x_name.obj
 0005:0000065c       $unwind$i2s_ASN1_IA5STRING 00000000000b8c5c     OpensslLib:v3_ia5.obj
 0005:0000065c       $unwind$s2i_ASN1_IA5STRING 00000000000b8c5c     OpensslLib:v3_ia5.obj
 0005:0000065c       $unwind$bignum_to_string   00000000000b8c5c     OpensslLib:v3_utl.obj
 0005:0000065c       $unwind$i2s_ASN1_INTEGER   00000000000b8c5c     OpensslLib:v3_utl.obj
 0005:00000668       $unwind$find_issuer        00000000000b8c68     OpensslLib:x509_vfy.obj
 0005:00000680       $unwind$rsa_multip_calc_product 00000000000b8c80     OpensslLib:rsa_mp.obj
 0005:00000680       $unwind$check_chain_extensions 00000000000b8c80     OpensslLib:x509_vfy.obj
 0005:00000698       $unwind$EC_GROUP_new_from_ecparameters 00000000000b8c98     OpensslLib:ec_asn1.obj
 0005:00000698       $unwind$ec_asn1_group2curve 00000000000b8c98     OpensslLib:ec_asn1.obj
 0005:00000698       $unwind$ec_GFp_simple_group_check_discriminant 00000000000b8c98     OpensslLib:ecp_smpl.obj
 0005:00000698       $unwind$enc_write          00000000000b8c98     OpensslLib:bio_enc.obj
 0005:00000698       $unwind$rand_drbg_restart  00000000000b8c98     OpensslLib:drbg_lib.obj
 0005:00000698       $unwind$check_name_constraints 00000000000b8c98     OpensslLib:x509_vfy.obj
 0005:000006b4       $unwind$CRYPTO_gcm128_decrypt 00000000000b8cb4     OpensslLib:gcm128.obj
 0005:000006b4       $unwind$CRYPTO_gcm128_encrypt 00000000000b8cb4     OpensslLib:gcm128.obj
 0005:000006b4       $unwind$CRYPTO_gcm128_setiv 00000000000b8cb4     OpensslLib:gcm128.obj
 0005:000006b4       $unwind$check_dane_pkeys   00000000000b8cb4     OpensslLib:x509_vfy.obj
 0005:000006b4       $unwind$check_trust        00000000000b8cb4     OpensslLib:x509_vfy.obj
 0005:000006b4       $unwind$tree_calculate_authority_set 00000000000b8cb4     OpensslLib:pcy_tree.obj
 0005:000006d0       $unwind$check_cert         00000000000b8cd0     OpensslLib:x509_vfy.obj
 0005:000006e4       $unwind$get_crl_sk         00000000000b8ce4     OpensslLib:x509_vfy.obj
 0005:000006fc       $unwind$check_crl_path     00000000000b8cfc     OpensslLib:x509_vfy.obj
 0005:0000070c       $unwind$bn_mod_sub_fixed_top 00000000000b8d0c     OpensslLib:bn_mod.obj
 0005:0000070c       $unwind$idp_check_dp       00000000000b8d0c     OpensslLib:x509_vfy.obj
 0005:00000724       $unwind$crl_crldp_check    00000000000b8d24     OpensslLib:x509_vfy.obj
 0005:0000073c       $unwind$cert_crl           00000000000b8d3c     OpensslLib:x509_vfy.obj
 0005:0000073c       $unwind$check_leaf_suiteb  00000000000b8d3c     OpensslLib:x509_vfy.obj
 0005:0000073c       $unwind$check_sig_alg_match 00000000000b8d3c     OpensslLib:v3_purp.obj
 0005:0000074c       $unwind$c2i_ibuf           00000000000b8d4c     OpensslLib:a_int.obj
 0005:0000074c       $unwind$BIO_new            00000000000b8d4c     OpensslLib:bio_lib.obj
 0005:0000074c       $unwind$bn_expand2         00000000000b8d4c     OpensslLib:bn_lib.obj
 0005:0000074c       $unwind$BN_mod_sqr         00000000000b8d4c     OpensslLib:bn_mod.obj
 0005:0000074c       $unwind$BN_bn2hex          00000000000b8d4c     OpensslLib:bn_print.obj
 0005:0000074c       $unwind$BUF_MEM_grow       00000000000b8d4c     OpensslLib:buffer.obj
 0005:0000074c       $unwind$BUF_MEM_grow_clean 00000000000b8d4c     OpensslLib:buffer.obj
 0005:0000074c       $unwind$DH_new             00000000000b8d4c     OpensslLib:dh_lib.obj
 0005:0000074c       $unwind$d2i_ECParameters   00000000000b8d4c     OpensslLib:ec_asn1.obj
 0005:0000074c       $unwind$EC_KEY_copy        00000000000b8d4c     OpensslLib:ec_key.obj
 0005:0000074c       $unwind$EC_KEY_oct2key     00000000000b8d4c     OpensslLib:ec_key.obj
 0005:0000074c       $unwind$ec_key_simple_oct2priv 00000000000b8d4c     OpensslLib:ec_key.obj
 0005:0000074c       $unwind$EC_GROUP_copy      00000000000b8d4c     OpensslLib:ec_lib.obj
 0005:0000074c       $unwind$EC_GROUP_set_seed  00000000000b8d4c     OpensslLib:ec_lib.obj
 0005:0000074c       $unwind$EC_POINT_set_affine_coordinates 00000000000b8d4c     OpensslLib:ec_lib.obj
 0005:0000074c       $unwind$pkey_ec_ctrl_str   00000000000b8d4c     OpensslLib:ec_pmeth.obj
 0005:0000074c       $unwind$pkey_ec_paramgen   00000000000b8d4c     OpensslLib:ec_pmeth.obj
 0005:0000074c       $unwind$ecx_ctrl           00000000000b8d4c     OpensslLib:ecx_meth.obj
 0005:0000074c       $unwind$EVP_DigestFinalXOF 00000000000b8d4c     OpensslLib:digest.obj
 0005:0000074c       $unwind$EVP_DigestInit_ex  00000000000b8d4c     OpensslLib:digest.obj
 0005:0000074c       $unwind$EVP_MD_CTX_copy_ex 00000000000b8d4c     OpensslLib:digest.obj
 0005:0000074c       $unwind$aes_ccm_init_key   00000000000b8d4c     OpensslLib:e_aes.obj
 0005:0000074c       $unwind$EVP_PKEY_assign    00000000000b8d4c     OpensslLib:p_lib.obj
 0005:0000074c       $unwind$EVP_PKEY_CTX_md    00000000000b8d4c     OpensslLib:pmeth_lib.obj
 0005:0000074c       $unwind$OPENSSL_init_crypto 00000000000b8d4c     OpensslLib:init.obj
 0005:0000074c       $unwind$pkey_hkdf_ctrl_str 00000000000b8d4c     OpensslLib:hkdf.obj
 0005:0000074c       $unwind$pkey_tls1_prf_ctrl_str 00000000000b8d4c     OpensslLib:tls1_prf.obj
 0005:0000074c       $unwind$OPENSSL_hexstr2buf 00000000000b8d4c     OpensslLib:o_str.obj
 0005:0000074c       $unwind$PKCS7_bio_add_digest 00000000000b8d4c     OpensslLib:pk7_doit.obj
 0005:0000074c       $unwind$PKCS7_find_digest  00000000000b8d4c     OpensslLib:pk7_doit.obj
 0005:0000074c       $unwind$rsa_param_decode   00000000000b8d4c     OpensslLib:rsa_ameth.obj
 0005:0000074c       $unwind$pkey_sm2_copy      00000000000b8d4c     OpensslLib:sm2_pmeth.obj
 0005:0000074c       $unwind$pkey_sm2_ctrl_str  00000000000b8d4c     OpensslLib:sm2_pmeth.obj
 0005:0000074c       $unwind$pkey_sm2_encrypt   00000000000b8d4c     OpensslLib:sm2_pmeth.obj
 0005:0000074c       $unwind$check_policy       00000000000b8d4c     OpensslLib:x509_vfy.obj
 0005:0000074c       $unwind$X509_NAME_ENTRY_create_by_OBJ 00000000000b8d4c     OpensslLib:x509name.obj
 0005:0000074c       $unwind$x509_pubkey_decode 00000000000b8d4c     OpensslLib:x_pubkey.obj
 0005:0000074c       $unwind$i2s_ASN1_ENUMERATED_TABLE 00000000000b8d4c     OpensslLib:v3_enum.obj
 0005:0000074c       $unwind$i2r_NAME_CONSTRAINTS 00000000000b8d4c     OpensslLib:v3_ncons.obj
 0005:0000074c       $unwind$i2r_pci            00000000000b8d4c     OpensslLib:v3_pci.obj
 0005:0000075c       $unwind$X509_cmp_time      00000000000b8d5c     OpensslLib:x509_vfy.obj
 0005:0000076c       $unwind$bn_to_asn1_string  00000000000b8d6c     OpensslLib:a_int.obj
 0005:0000076c       $unwind$BN_BLINDING_convert_ex 00000000000b8d6c     OpensslLib:bn_blind.obj
 0005:0000076c       $unwind$BN_BLINDING_invert_ex 00000000000b8d6c     OpensslLib:bn_blind.obj
 0005:0000076c       $unwind$BN_BLINDING_update 00000000000b8d6c     OpensslLib:bn_blind.obj
 0005:0000076c       $unwind$BN_STACK_push      00000000000b8d6c     OpensslLib:bn_ctx.obj
 0005:0000076c       $unwind$BN_mod_inverse     00000000000b8d6c     OpensslLib:bn_gcd.obj
 0005:0000076c       $unwind$BN_mod_lshift_quick 00000000000b8d6c     OpensslLib:bn_mod.obj
 0005:0000076c       $unwind$bnrand_range       00000000000b8d6c     OpensslLib:bn_rand.obj
 0005:0000076c       $unwind$pkey_cmac_ctrl_str 00000000000b8d6c     OpensslLib:cm_pmeth.obj
 0005:0000076c       $unwind$module_add         00000000000b8d6c     OpensslLib:conf_mod.obj
 0005:0000076c       $unwind$i2o_ECPublicKey    00000000000b8d6c     OpensslLib:ec_asn1.obj
 0005:0000076c       $unwind$EC_GROUP_check     00000000000b8d6c     OpensslLib:ec_check.obj
 0005:0000076c       $unwind$ec_key_simple_priv2oct 00000000000b8d6c     OpensslLib:ec_key.obj
 0005:0000076c       $unwind$EC_POINT_get_affine_coordinates 00000000000b8d6c     OpensslLib:ec_lib.obj
 0005:0000076c       $unwind$ecx_pub_encode     00000000000b8d6c     OpensslLib:ecx_meth.obj
 0005:0000076c       $unwind$aria_ccm_init_key  00000000000b8d6c     OpensslLib:e_aria.obj
 0005:0000076c       $unwind$aria_gcm_init_key  00000000000b8d6c     OpensslLib:e_aria.obj
 0005:0000076c       $unwind$EVP_EncryptFinal_ex 00000000000b8d6c     OpensslLib:evp_enc.obj
 0005:0000076c       $unwind$EVP_CIPHER_get_asn1_iv 00000000000b8d6c     OpensslLib:evp_lib.obj
 0005:0000076c       $unwind$EVP_PKEY_sign      00000000000b8d6c     OpensslLib:pmeth_fn.obj
 0005:0000076c       $unwind$CRYPTO_set_ex_data 00000000000b8d6c     OpensslLib:ex_data.obj
 0005:0000076c       $unwind$OBJ_create         00000000000b8d6c     OpensslLib:obj_dat.obj
 0005:0000076c       $unwind$d2i_ocsp_nonce     00000000000b8d6c     OpensslLib:v3_ocsp.obj
 0005:0000076c       $unwind$RAND_DRBG_set      00000000000b8d6c     OpensslLib:drbg_lib.obj
 0005:0000076c       $unwind$drbg_bytes         00000000000b8d6c     OpensslLib:drbg_lib.obj
 0005:0000076c       $unwind$rand_pool_grow     00000000000b8d6c     OpensslLib:rand_lib.obj
 0005:0000076c       $unwind$pkey_sm2_ctrl      00000000000b8d6c     OpensslLib:sm2_pmeth.obj
 0005:0000076c       $unwind$X509_STORE_CTX_init 00000000000b8d6c     OpensslLib:x509_vfy.obj
 0005:0000076c       $unwind$X509_get_pubkey_parameters 00000000000b8d6c     OpensslLib:x509_vfy.obj
 0005:0000076c       $unwind$policy_data_new    00000000000b8d6c     OpensslLib:pcy_data.obj
 0005:0000076c       $unwind$gnames_from_sectname 00000000000b8d6c     OpensslLib:v3_crld.obj
 0005:0000076c       $unwind$equal_email        00000000000b8d6c     OpensslLib:v3_utl.obj
 0005:00000780       $unwind$dane_match         00000000000b8d80     OpensslLib:x509_vfy.obj
 0005:0000079c       $unwind$build_chain        00000000000b8d9c     OpensslLib:x509_vfy.obj
 0005:000007b4       $unwind$x509_cb            00000000000b8db4     OpensslLib:x_x509.obj
 0005:000007c4       $unwind$ECDH_compute_key   00000000000b8dc4     OpensslLib:ec_kmeth.obj
 0005:000007c4       $unwind$pkey_set_type      00000000000b8dc4     OpensslLib:p_lib.obj
 0005:000007c4       $unwind$internal_find      00000000000b8dc4     OpensslLib:stack.obj
 0005:000007d0       $unwind$OPENSSL_sk_pop_free 00000000000b8dd0     OpensslLib:stack.obj
 0005:000007e4       $unwind$ASN1_STRING_clear_free 00000000000b8de4     OpensslLib:asn1_lib.obj
 0005:000007e4       $unwind$asn1_ex_i2c        00000000000b8de4     OpensslLib:tasn_enc.obj
 0005:000007e4       $unwind$BN_BLINDING_free   00000000000b8de4     OpensslLib:bn_blind.obj
 0005:000007e4       $unwind$BN_clear_free      00000000000b8de4     OpensslLib:bn_lib.obj
 0005:000007e4       $unwind$BN_MONT_CTX_free   00000000000b8de4     OpensslLib:bn_mont.obj
 0005:000007e4       $unwind$EC_GROUP_free      00000000000b8de4     OpensslLib:ec_lib.obj
 0005:000007e4       $unwind$EC_POINT_clear_free 00000000000b8de4     OpensslLib:ec_lib.obj
 0005:000007e4       $unwind$EC_POINT_free      00000000000b8de4     OpensslLib:ec_lib.obj
 0005:000007e4       $unwind$EVP_PKEY_free      00000000000b8de4     OpensslLib:p_lib.obj
 0005:000007e4       $unwind$EVP_PKEY_CTX_free  00000000000b8de4     OpensslLib:pmeth_lib.obj
 0005:000007e4       $unwind$RAND_DRBG_free     00000000000b8de4     OpensslLib:drbg_lib.obj
 0005:000007e4       $unwind$rand_drbg_cleanup_nonce 00000000000b8de4     OpensslLib:rand_lib.obj
 0005:000007e4       $unwind$OPENSSL_sk_sort    00000000000b8de4     OpensslLib:stack.obj
 0005:000007e4       $unwind$X509_OBJECT_free   00000000000b8de4     OpensslLib:x509_lu.obj
 0005:000007e4       $unwind$X509_VERIFY_PARAM_free 00000000000b8de4     OpensslLib:x509_vpm.obj
 0005:000007e4       $unwind$policy_data_free   00000000000b8de4     OpensslLib:pcy_data.obj
 0005:000007e4       $unwind$i2v_BASIC_CONSTRAINTS 00000000000b8de4     OpensslLib:v3_bcons.obj
 0005:000007e4       $unwind$i2v_POLICY_CONSTRAINTS 00000000000b8de4     OpensslLib:v3_pcons.obj
 0005:000007ec       $unwind$ctrl               00000000000b8dec     OpensslLib:m_sha1.obj
 0005:000007fc       $unwind$BIO_free_all       00000000000b8dfc     OpensslLib:bio_lib.obj
 0005:000007fc       $unwind$BN_free            00000000000b8dfc     OpensslLib:bn_lib.obj
 0005:000007fc       $unwind$BUF_MEM_free       00000000000b8dfc     OpensslLib:buffer.obj
 0005:000007fc       $unwind$EC_ec_pre_comp_free 00000000000b8dfc     OpensslLib:ec_mult.obj
 0005:000007fc       $unwind$ERR_STATE_free     00000000000b8dfc     OpensslLib:err.obj
 0005:000007fc       $unwind$HMAC_CTX_free      00000000000b8dfc     OpensslLib:hmac.obj
 0005:000007fc       $unwind$rand_pool_free     00000000000b8dfc     OpensslLib:rand_lib.obj
 0005:000007fc       $unwind$x509_name_ex_free  00000000000b8dfc     OpensslLib:x_name.obj
 0005:000007fc       $unwind$i2v_AUTHORITY_KEYID 00000000000b8dfc     OpensslLib:v3_akey.obj
 0005:000007fc       $unwind$i2v_ASN1_BIT_STRING 00000000000b8dfc     OpensslLib:v3_bitst.obj
 0005:00000808       $unwind$x509_name_ex_d2i   00000000000b8e08     OpensslLib:x_name.obj
 0005:00000824       $unwind$x509_name_encode   00000000000b8e24     OpensslLib:x_name.obj
 0005:0000083c       $unwind$x509_name_canon    00000000000b8e3c     OpensslLib:x_name.obj
 0005:00000854       $unwind$asn1_string_canon  00000000000b8e54     OpensslLib:x_name.obj
 0005:00000864       $unwind$BN_BLINDING_create_param 00000000000b8e64     OpensslLib:bn_blind.obj
 0005:00000864       $unwind$pkey_dh_derive     00000000000b8e64     OpensslLib:dh_pmeth.obj
 0005:00000864       $unwind$aes_wrap_cipher    00000000000b8e64     OpensslLib:e_aes.obj
 0005:00000864       $unwind$RAND_DRBG_reseed   00000000000b8e64     OpensslLib:drbg_lib.obj
 0005:00000864       $unwind$i2d_name_canon     00000000000b8e64     OpensslLib:x_name.obj
 0005:00000864       $unwind$do_check_string    00000000000b8e64     OpensslLib:v3_utl.obj
 0005:00000878       $unwind$X509_NAME_print    00000000000b8e78     OpensslLib:x_name.obj
 0005:00000890       $unwind$X509v3_get_ext_by_OBJ 00000000000b8e90     OpensslLib:x509_v3.obj
 0005:00000890       $unwind$X509_NAME_get_index_by_OBJ 00000000000b8e90     OpensslLib:x509name.obj
 0005:000008a4       $unwind$CRYPTO_128_wrap_pad 00000000000b8ea4     OpensslLib:wrap128.obj
 0005:000008a4       $unwind$RAND_DRBG_generate 00000000000b8ea4     OpensslLib:drbg_lib.obj
 0005:000008a4       $unwind$X509_NAME_add_entry 00000000000b8ea4     OpensslLib:x509name.obj
 0005:000008c0       $unwind$X509_find_by_issuer_and_serial 00000000000b8ec0     OpensslLib:x509_cmp.obj
 0005:000008dc       $unwind$CRYPTO_cbc128_encrypt 00000000000b8edc     OpensslLib:cbc128.obj
 0005:000008dc       $unwind$CRYPTO_ccm128_aad  00000000000b8edc     OpensslLib:ccm128.obj
 0005:000008dc       $unwind$X509_STORE_free    00000000000b8edc     OpensslLib:x509_lu.obj
 0005:000008f4       $unwind$ASN1_BIT_STRING_set_bit 00000000000b8ef4     OpensslLib:a_bitstr.obj
 0005:000008f4       $unwind$BN_usub            00000000000b8ef4     OpensslLib:bn_add.obj
 0005:000008f4       $unwind$BN_mod_mul_reciprocal 00000000000b8ef4     OpensslLib:bn_recp.obj
 0005:000008f4       $unwind$DH_check_pub_key   00000000000b8ef4     OpensslLib:dh_check.obj
 0005:000008f4       $unwind$ec_field_inverse_mod_ord 00000000000b8ef4     OpensslLib:ec_lib.obj
 0005:000008f4       $unwind$ec_guess_cofactor  00000000000b8ef4     OpensslLib:ec_lib.obj
 0005:000008f4       $unwind$ec_GFp_mont_field_inv 00000000000b8ef4     OpensslLib:ecp_mont.obj
 0005:000008f4       $unwind$ec_GFp_nist_field_mul 00000000000b8ef4     OpensslLib:ecp_nist.obj
 0005:000008f4       $unwind$ec_GFp_nist_group_set_curve 00000000000b8ef4     OpensslLib:ecp_nist.obj
 0005:000008f4       $unwind$ec_GFp_simple_field_inv 00000000000b8ef4     OpensslLib:ecp_smpl.obj
 0005:000008f4       $unwind$ec_GFp_simple_make_affine 00000000000b8ef4     OpensslLib:ecp_smpl.obj
 0005:000008f4       $unwind$X509_STORE_CTX_get_by_subject 00000000000b8ef4     OpensslLib:x509_lu.obj
 0005:000008f4       $unwind$v2i_issuer_alt     00000000000b8ef4     OpensslLib:v3_alt.obj
 0005:000008f4       $unwind$v2i_subject_alt    00000000000b8ef4     OpensslLib:v3_alt.obj
 0005:00000910       $unwind$ED25519_sign       00000000000b8f10     OpensslLib:curve25519.obj
 0005:00000910       $unwind$x509_object_idx_cnt 00000000000b8f10     OpensslLib:x509_lu.obj
 0005:0000092c       $unwind$X509_STORE_CTX_get1_certs 00000000000b8f2c     OpensslLib:x509_lu.obj
 0005:00000948       $unwind$X509_STORE_CTX_get1_crls 00000000000b8f48     OpensslLib:x509_lu.obj
 0005:00000964       $unwind$X509_OBJECT_retrieve_match 00000000000b8f64     OpensslLib:x509_lu.obj
 0005:0000097c       $unwind$X509_STORE_CTX_get1_issuer 00000000000b8f7c     OpensslLib:x509_lu.obj
 0005:00000998       $unwind$ASN1_get_object    00000000000b8f98     OpensslLib:asn1_lib.obj
 0005:00000998       $unwind$asn1_item_embed_new 00000000000b8f98     OpensslLib:tasn_new.obj
 0005:00000998       $unwind$DH_check           00000000000b8f98     OpensslLib:dh_check.obj
 0005:00000998       $unwind$pkey_dh_paramgen   00000000000b8f98     OpensslLib:dh_pmeth.obj
 0005:00000998       $unwind$ec_key_simple_generate_key 00000000000b8f98     OpensslLib:ec_key.obj
 0005:00000998       $unwind$EC_POINT_point2buf 00000000000b8f98     OpensslLib:ec_oct.obj
 0005:00000998       $unwind$ec_GFp_nist_field_sqr 00000000000b8f98     OpensslLib:ecp_nist.obj
 0005:00000998       $unwind$ec_GFp_simple_blind_coordinates 00000000000b8f98     OpensslLib:ecp_smpl.obj
 0005:00000998       $unwind$aes_xts_init_key   00000000000b8f98     OpensslLib:e_aes.obj
 0005:00000998       $unwind$i2r_ocsp_serviceloc 00000000000b8f98     OpensslLib:v3_ocsp.obj
 0005:00000998       $unwind$RSA_setup_blinding 00000000000b8f98     OpensslLib:rsa_crpt.obj
 0005:00000998       $unwind$pkey_rsa_ctrl      00000000000b8f98     OpensslLib:rsa_pmeth.obj
 0005:00000998       $unwind$pkey_rsa_keygen    00000000000b8f98     OpensslLib:rsa_pmeth.obj
 0005:00000998       $unwind$sk_OPENSSL_STRING_deep_copy 00000000000b8f98     OpensslLib:x509_vpm.obj
 0005:00000998       $unwind$copy_email         00000000000b8f98     OpensslLib:v3_alt.obj
 0005:00000998       $unwind$do_dirname         00000000000b8f98     OpensslLib:v3_alt.obj
 0005:00000998       $unwind$v2i_GENERAL_NAMES  00000000000b8f98     OpensslLib:v3_alt.obj
 0005:00000998       $unwind$sxnet_i2r          00000000000b8f98     OpensslLib:v3_sxnet.obj
 0005:00000998       $unwind$X509V3_add_value   00000000000b8f98     OpensslLib:v3_utl.obj
 0005:000009b0       $unwind$i2c_ibuf           00000000000b8fb0     OpensslLib:a_int.obj
 0005:000009b0       $unwind$ASN1_put_object    00000000000b8fb0     OpensslLib:asn1_lib.obj
 0005:000009b0       $unwind$make_kn            00000000000b8fb0     OpensslLib:cmac.obj
 0005:000009b0       $unwind$gf_mulw_unsigned   00000000000b8fb0     OpensslLib:f_impl.obj
 0005:000009b0       $unwind$sc_subx            00000000000b8fb0     OpensslLib:scalar.obj
 0005:000009b0       $unwind$gcm_gmult_4bit     00000000000b8fb0     OpensslLib:gcm128.obj
 0005:000009b0       $unwind$julian_to_date     00000000000b8fb0     OpensslLib:o_time.obj
 0005:000009b0       $unwind$SipHash_Final      00000000000b8fb0     OpensslLib:siphash.obj
 0005:000009c0       $unwind$do_esc_char        00000000000b8fc0     OpensslLib:a_strex.obj
 0005:000009c8       $unwind$do_buf             00000000000b8fc8     OpensslLib:a_strex.obj
 0005:000009e0       $unwind$do_hex_dump        00000000000b8fe0     OpensslLib:a_strex.obj
 0005:000009f4       $unwind$do_dump            00000000000b8ff4     OpensslLib:a_strex.obj
 0005:00000a04       $unwind$do_print_ex        00000000000b9004     OpensslLib:a_strex.obj
 0005:00000a1c       $unwind$do_indent          00000000000b901c     OpensslLib:a_strex.obj
 0005:00000a2c       $unwind$do_name_ex         00000000000b902c     OpensslLib:a_strex.obj
 0005:00000a48       $unwind$ASN1_STRING_to_UTF8 00000000000b9048     OpensslLib:a_strex.obj
 0005:00000a48       $unwind$ASN1_item_d2i      00000000000b9048     OpensslLib:tasn_dec.obj
 0005:00000a50       $unwind$bio_call_callback  00000000000b9050     OpensslLib:bio_lib.obj
 0005:00000a50       $unwind$aes_cfb8_cipher    00000000000b9050     OpensslLib:e_aes.obj
 0005:00000a50       $unwind$X509V3_get_value_bool 00000000000b9050     OpensslLib:v3_utl.obj
 0005:00000a60       $unwind$BIO_puts           00000000000b9060     OpensslLib:bio_lib.obj
 0005:00000a70       $unwind$BIO_callback_ctrl  00000000000b9070     OpensslLib:bio_lib.obj
 0005:00000a78       $unwind$BN_div_recp        00000000000b9078     OpensslLib:bn_recp.obj
 0005:00000a78       $unwind$PKCS7_verify       00000000000b9078     OpensslLib:pk7_smime.obj
 0005:00000a90       $unwind$uint32_i2c         00000000000b9090     OpensslLib:x_int64.obj
 0005:00000a90       $unwind$X509_verify        00000000000b9090     OpensslLib:x_all.obj
 0005:00000aa0       $unwind$OBJ_nid2ln         00000000000b90a0     OpensslLib:obj_dat.obj
 0005:00000aa0       $unwind$OBJ_nid2obj        00000000000b90a0     OpensslLib:obj_dat.obj
 0005:00000aa0       $unwind$OBJ_nid2sn         00000000000b90a0     OpensslLib:obj_dat.obj
 0005:00000aa8       $unwind$OBJ_obj2nid        00000000000b90a8     OpensslLib:obj_dat.obj
 0005:00000ab0       $unwind$CRYPTO_ccm128_decrypt_ccm64 00000000000b90b0     OpensslLib:ccm128.obj
 0005:00000ab0       $unwind$CRYPTO_ccm128_encrypt_ccm64 00000000000b90b0     OpensslLib:ccm128.obj
 0005:00000ab0       $unwind$OBJ_obj2txt        00000000000b90b0     OpensslLib:obj_dat.obj
 0005:00000ac8       $unwind$OBJ_ln2nid         00000000000b90c8     OpensslLib:obj_dat.obj
 0005:00000ac8       $unwind$OBJ_sn2nid         00000000000b90c8     OpensslLib:obj_dat.obj
 0005:00000ad0       $unwind$aria_encrypt       00000000000b90d0     OpensslLib:aria.obj
 0005:00000ad0       $unwind$bn2binpad          00000000000b90d0     OpensslLib:bn_lib.obj
 0005:00000ad0       $unwind$aria_128_cfb1_cipher 00000000000b90d0     OpensslLib:e_aria.obj
 0005:00000ad0       $unwind$aria_128_cfb8_cipher 00000000000b90d0     OpensslLib:e_aria.obj
 0005:00000ad0       $unwind$aria_192_cfb1_cipher 00000000000b90d0     OpensslLib:e_aria.obj
 0005:00000ad0       $unwind$aria_192_cfb8_cipher 00000000000b90d0     OpensslLib:e_aria.obj
 0005:00000ad0       $unwind$aria_256_cfb1_cipher 00000000000b90d0     OpensslLib:e_aria.obj
 0005:00000ad0       $unwind$aria_256_cfb8_cipher 00000000000b90d0     OpensslLib:e_aria.obj
 0005:00000ad0       $unwind$pkey_rsa_encrypt   00000000000b90d0     OpensslLib:rsa_pmeth.obj
 0005:00000ad0       $unwind$RSA_sign           00000000000b90d0     OpensslLib:rsa_sign.obj
 0005:00000ad0       $unwind$a2i_GENERAL_NAME   00000000000b90d0     OpensslLib:v3_alt.obj
 0005:00000ad0       $unwind$v2i_EXTENDED_KEY_USAGE 00000000000b90d0     OpensslLib:v3_extku.obj
 0005:00000ae8       $unwind$BN_consttime_swap  00000000000b90e8     OpensslLib:bn_lib.obj
 0005:00000af4       $unwind$RSA_new_method     00000000000b90f4     OpensslLib:rsa_lib.obj
 0005:00000b00       $unwind$DH_free            00000000000b9100     OpensslLib:dh_lib.obj
 0005:00000b00       $unwind$EC_KEY_free        00000000000b9100     OpensslLib:ec_key.obj
 0005:00000b00       $unwind$RSA_free           00000000000b9100     OpensslLib:rsa_lib.obj
 0005:00000b08       $unwind$encode_pkcs1       00000000000b9108     OpensslLib:rsa_sign.obj
 0005:00000b1c       $unwind$determine_days     00000000000b911c     OpensslLib:a_time.obj
 0005:00000b1c       $unwind$BN_rshift1         00000000000b911c     OpensslLib:bn_shift.obj
 0005:00000b30       $unwind$asn1_time_to_tm    00000000000b9130     OpensslLib:a_time.obj
 0005:00000b48       $unwind$asn1_time_from_tm  00000000000b9148     OpensslLib:a_time.obj
 0005:00000b60       $unwind$ASN1_TIME_adj      00000000000b9160     OpensslLib:a_time.obj
 0005:00000b68       $unwind$ASN1_TIME_diff     00000000000b9168     OpensslLib:a_time.obj
 0005:00000b7c       $unwind$ASN1_TIME_print    00000000000b917c     OpensslLib:a_time.obj
 0005:00000b94       $unwind$s2i_ASN1_INTEGER   00000000000b9194     OpensslLib:v3_utl.obj
 0005:00000ba4       $unwind$bn_print           00000000000b91a4     OpensslLib:x_bignum.obj
 0005:00000ba4       $unwind$X509V3_parse_list  00000000000b91a4     OpensslLib:v3_utl.obj
 0005:00000bbc       $unwind$wildcard_match     00000000000b91bc     OpensslLib:v3_utl.obj
 0005:00000bd8       $unwind$BN_is_prime_fasttest_ex 00000000000b91d8     OpensslLib:bn_prime.obj
 0005:00000bd8       $unwind$BN_mod_sqrt        00000000000b91d8     OpensslLib:bn_sqrt.obj
 0005:00000bd8       $unwind$do_x509_check      00000000000b91d8     OpensslLib:v3_utl.obj
 0005:00000bf0       $unwind$ipv4_from_asc      00000000000b91f0     OpensslLib:v3_utl.obj
 0005:00000bf8       $unwind$ipv6_from_asc      00000000000b91f8     OpensslLib:v3_utl.obj
 0005:00000c08       $unwind$ERR_get_state      00000000000b9208     OpensslLib:err.obj
 0005:00000c1c       $unwind$ERR_add_error_data 00000000000b921c     OpensslLib:err.obj
 0005:00000c30       $unwind$ECDSA_size         00000000000b9230     OpensslLib:ec_asn1.obj
 0005:00000c30       $unwind$EC_GROUP_new_by_curve_name 00000000000b9230     OpensslLib:ec_curve.obj
 0005:00000c30       $unwind$X509_TRUST_get_by_id 00000000000b9230     OpensslLib:x509_trs.obj
 0005:00000c30       $unwind$X509_PURPOSE_get_by_id 00000000000b9230     OpensslLib:v3_purp.obj
 0005:00000c38       $unwind$x509v3_cache_extensions 00000000000b9238     OpensslLib:v3_purp.obj
 0005:00000c50       $unwind$crl_cb             00000000000b9250     OpensslLib:x_crl.obj
 0005:00000c68       $unwind$def_crl_lookup     00000000000b9268     OpensslLib:x_crl.obj
 0005:00000c80       $unwind$X509_VERIFY_PARAM_lookup 00000000000b9280     OpensslLib:x509_vpm.obj
 0005:00000c8c       $unwind$RSA_check_key_ex   00000000000b928c     OpensslLib:rsa_chk.obj
 0005:00000c8c       $unwind$tree_init          00000000000b928c     OpensslLib:pcy_tree.obj
 0005:00000ca4       $unwind$rsa_ossl_public_encrypt 00000000000b92a4     OpensslLib:rsa_ossl.obj
 0005:00000ca4       $unwind$RSA_padding_add_PKCS1_PSS_mgf1 00000000000b92a4     OpensslLib:rsa_pss.obj
 0005:00000ca4       $unwind$tree_link_nodes    00000000000b92a4     OpensslLib:pcy_tree.obj
 0005:00000cbc       $unwind$CRYPTO_ccm128_decrypt 00000000000b92bc     OpensslLib:ccm128.obj
 0005:00000cbc       $unwind$tree_link_any      00000000000b92bc     OpensslLib:pcy_tree.obj
 0005:00000cd4       $unwind$c2i_ASN1_OBJECT    00000000000b92d4     OpensslLib:a_object.obj
 0005:00000cd4       $unwind$BN_nist_mod_256    00000000000b92d4     OpensslLib:bn_nist.obj
 0005:00000cd4       $unwind$ec_GFp_simple_dbl  00000000000b92d4     OpensslLib:ecp_smpl.obj
 0005:00000cd4       $unwind$tree_calculate_user_set 00000000000b92d4     OpensslLib:pcy_tree.obj
 0005:00000cf0       $unwind$X509_policy_tree_free 00000000000b92f0     OpensslLib:pcy_tree.obj
 0005:00000d00       $unwind$X509_policy_check  00000000000b9300     OpensslLib:pcy_tree.obj
 0005:00000d14       $unwind$get_and_lock       00000000000b9314     OpensslLib:ex_data.obj
 0005:00000d1c       $unwind$CRYPTO_new_ex_data 00000000000b931c     OpensslLib:ex_data.obj
 0005:00000d34       $unwind$CRYPTO_dup_ex_data 00000000000b9334     OpensslLib:ex_data.obj
 0005:00000d50       $unwind$CRYPTO_free_ex_data 00000000000b9350     OpensslLib:ex_data.obj
 0005:00000d50       $unwind$i2v_AUTHORITY_INFO_ACCESS 00000000000b9350     OpensslLib:v3_info.obj
 0005:00000d6c       $unwind$v2i_NAME_CONSTRAINTS 00000000000b936c     OpensslLib:v3_ncons.obj
 0005:00000d84       $unwind$c2i_ASN1_INTEGER   00000000000b9384     OpensslLib:a_int.obj
 0005:00000d98       $unwind$asn1_string_get_int64 00000000000b9398     OpensslLib:a_int.obj
 0005:00000d98       $unwind$ec_pkey_ctrl       00000000000b9398     OpensslLib:ec_ameth.obj
 0005:00000da8       $unwind$stbl_module_init   00000000000b93a8     OpensslLib:asn_mstbl.obj
 0005:00000da8       $unwind$ASN1_item_ex_d2i   00000000000b93a8     OpensslLib:tasn_dec.obj
 0005:00000da8       $unwind$ctr_BCC_blocks     00000000000b93a8     OpensslLib:drbg_ctr.obj
 0005:00000db8       $unwind$asn1_item_embed_d2i 00000000000b93b8     OpensslLib:tasn_dec.obj
 0005:00000dd0       $unwind$asn1_template_ex_d2i 00000000000b93d0     OpensslLib:tasn_dec.obj
 0005:00000de8       $unwind$asn1_template_noexp_d2i 00000000000b93e8     OpensslLib:tasn_dec.obj
 0005:00000e00       $unwind$asn1_d2i_ex_primitive 00000000000b9400     OpensslLib:tasn_dec.obj
 0005:00000e20       $unwind$asn1_ex_c2i        00000000000b9420     OpensslLib:tasn_dec.obj
 0005:00000e20       $unwind$evp_EncryptDecryptUpdate 00000000000b9420     OpensslLib:evp_enc.obj
 0005:00000e3c       $unwind$asn1_find_end      00000000000b943c     OpensslLib:tasn_dec.obj
 0005:00000e4c       $unwind$asn1_collect       00000000000b944c     OpensslLib:tasn_dec.obj
 0005:00000e64       $unwind$asn1_check_tlen    00000000000b9464     OpensslLib:tasn_dec.obj
 0005:00000e64       $unwind$sha1_block_data_order 00000000000b9464     OpensslLib:sha1dgst.obj
 0005:00000e80       $unwind$set_dist_point_name 00000000000b9480     OpensslLib:v3_crld.obj
 0005:00000e98       $unwind$c2i_ASN1_BIT_STRING 00000000000b9498     OpensslLib:a_bitstr.obj
 0005:00000e98       $unwind$v2i_crld           00000000000b9498     OpensslLib:v3_crld.obj
 0005:00000eb4       $unwind$print_distpoint    00000000000b94b4     OpensslLib:v3_crld.obj
 0005:00000ebc       $unwind$DIST_POINT_set_dpname 00000000000b94bc     OpensslLib:v3_crld.obj
 0005:00000ed0       $unwind$asn1_primitive_new 00000000000b94d0     OpensslLib:tasn_new.obj
 0005:00000ee4       $unwind$ec_GFp_mont_group_set_curve 00000000000b94e4     OpensslLib:ecp_mont.obj
 0005:00000ee4       $unwind$policy_cache_create 00000000000b94e4     OpensslLib:pcy_cache.obj
 0005:00000f00       $unwind$policy_cache_new   00000000000b9500     OpensslLib:pcy_cache.obj
 0005:00000f14       $unwind$asn1_item_embed_free 00000000000b9514     OpensslLib:tasn_fre.obj
 0005:00000f2c       $unwind$asn1_item_flags_i2d 00000000000b952c     OpensslLib:tasn_enc.obj
 0005:00000f40       $unwind$ASN1_item_ex_i2d   00000000000b9540     OpensslLib:tasn_enc.obj
 0005:00000f5c       $unwind$asn1_template_ex_i2d 00000000000b955c     OpensslLib:tasn_enc.obj
 0005:00000f78       $unwind$asn1_set_seq_out   00000000000b9578     OpensslLib:tasn_enc.obj
 0005:00000f78       $unwind$BN_generate_prime_ex 00000000000b9578     OpensslLib:bn_prime.obj
 0005:00000f78       $unwind$rsa_ossl_private_encrypt 00000000000b9578     OpensslLib:rsa_ossl.obj
 0005:00000f90       $unwind$asn1_i2d_ex_primitive 00000000000b9590     OpensslLib:tasn_enc.obj
 0005:00000fa8       $unwind$sha512_block_data_order 00000000000b95a8     OpensslLib:sha512.obj
 0005:00000fc0       $unwind$EVP_PKEY_asn1_find 00000000000b95c0     OpensslLib:ameth_lib.obj
 0005:00000fcc       $unwind$CMAC_CTX_free      00000000000b95cc     OpensslLib:cmac.obj
 0005:00000fcc       $unwind$EC_GROUP_clear_free 00000000000b95cc     OpensslLib:ec_lib.obj
 0005:00000fd8       $unwind$CMAC_Init          00000000000b95d8     OpensslLib:cmac.obj
 0005:00000ff0       $unwind$ossl_init_get_thread_local 00000000000b95f0     OpensslLib:init.obj
 0005:00000ff8       $unwind$OBJ_find_sigid_by_algs 00000000000b95f8     OpensslLib:obj_xref.obj
 0005:00001000       $unwind$int_ctx_new        00000000000b9600     OpensslLib:pmeth_lib.obj
 0005:00001014       $unwind$X509_NAME_oneline  00000000000b9614     OpensslLib:x509_obj.obj
 0005:00001030       $unwind$a2d_ASN1_OBJECT    00000000000b9630     OpensslLib:a_object.obj
 0005:00001048       $unwind$i2a_ASN1_OBJECT    00000000000b9648     OpensslLib:a_object.obj
 0005:0000105c       $unwind$d2i_ASN1_OBJECT    00000000000b965c     OpensslLib:a_object.obj
 0005:00001064       $unwind$ASN1_STRING_set_by_NID 00000000000b9664     OpensslLib:a_strnid.obj
 0005:00001064       $unwind$aes_cfb_cipher     00000000000b9664     OpensslLib:e_aes.obj
 0005:00001064       $unwind$aes_ofb_cipher     00000000000b9664     OpensslLib:e_aes.obj
 0005:00001064       $unwind$aria_ctr_cipher    00000000000b9664     OpensslLib:e_aria.obj
 0005:00001064       $unwind$sm4_ctr_cipher     00000000000b9664     OpensslLib:e_sm4.obj
 0005:00001070       $unwind$ASN1_STRING_TABLE_get 00000000000b9670     OpensslLib:a_strnid.obj
 0005:00001078       $unwind$ASN1_STRING_print  00000000000b9678     OpensslLib:a_print.obj
 0005:0000108c       $unwind$md5_block_data_order 00000000000b968c     OpensslLib:md5_dgst.obj
 0005:000010a4       $unwind$EC_GROUP_cmp       00000000000b96a4     OpensslLib:ec_lib.obj
 0005:000010bc       $unwind$EC_POINT_mul       00000000000b96bc     OpensslLib:ec_lib.obj
 0005:000010d4       $unwind$UTF8_getc          00000000000b96d4     OpensslLib:a_utf8.obj
 0005:000010d4       $unwind$bn_add_words       00000000000b96d4     OpensslLib:bn_asm.obj
 0005:000010d4       $unwind$MOD_EXP_CTIME_COPY_TO_PREBUF 00000000000b96d4     OpensslLib:bn_exp.obj
 0005:000010d4       $unwind$cmov               00000000000b96d4     OpensslLib:curve25519.obj
 0005:000010d4       $unwind$ctr_XOR            00000000000b96d4     OpensslLib:drbg_ctr.obj
 0005:000010dc       $unwind$ASN1_mbstring_ncopy 00000000000b96dc     OpensslLib:a_mbstr.obj
 0005:000010f4       $unwind$traverse_string    00000000000b96f4     OpensslLib:a_mbstr.obj
 0005:000010f4       $unwind$md_read            00000000000b96f4     OpensslLib:bio_md.obj
 0005:00001108       $unwind$uint32_c2i         00000000000b9708     OpensslLib:x_int64.obj
 0005:0000111c       $unwind$pkcs7_encode_rinfo 00000000000b971c     OpensslLib:pk7_doit.obj
 0005:00001138       $unwind$PKCS7_dataInit     00000000000b9738     OpensslLib:pk7_doit.obj
 0005:00001154       $unwind$do_pkcs7_signed_attrib 00000000000b9754     OpensslLib:pk7_doit.obj
 0005:00001168       $unwind$ec_curve_nid_from_params 00000000000b9768     OpensslLib:ec_curve.obj
 0005:00001168       $unwind$PKCS7_dataFinal    00000000000b9768     OpensslLib:pk7_doit.obj
 0005:00001180       $unwind$PKCS7_SIGNER_INFO_sign 00000000000b9780     OpensslLib:pk7_doit.obj
 0005:00001194       $unwind$OPENSSL_LH_insert  00000000000b9794     OpensslLib:lhash.obj
 0005:000011a8       $unwind$EC_GROUP_get_ecparameters 00000000000b97a8     OpensslLib:ec_asn1.obj
 0005:000011b8       $unwind$d2i_ECPKParameters 00000000000b97b8     OpensslLib:ec_asn1.obj
 0005:000011b8       $unwind$d2i_ECPrivateKey   00000000000b97b8     OpensslLib:ec_asn1.obj
 0005:000011c8       $unwind$i2d_ECPrivateKey   00000000000b97c8     OpensslLib:ec_asn1.obj
 0005:000011e0       $unwind$i2d_ECParameters   00000000000b97e0     OpensslLib:ec_asn1.obj
 0005:000011f0       $unwind$ASN1_item_i2d_bio  00000000000b97f0     OpensslLib:a_i2d_fp.obj
 0005:00001200       $unwind$BN_dec2bn          00000000000b9800     OpensslLib:bn_print.obj
 0005:00001218       $unwind$BN_mod_mul         00000000000b9818     OpensslLib:bn_mod.obj
 0005:00001218       $unwind$bn_mul_mont_fixed_top 00000000000b9818     OpensslLib:bn_mont.obj
 0005:00001230       $unwind$bn_from_montgomery_word 00000000000b9830     OpensslLib:bn_mont.obj
 0005:00001248       $unwind$BN_MONT_CTX_set    00000000000b9848     OpensslLib:bn_mont.obj
 0005:00001264       $unwind$rsa_ossl_private_decrypt 00000000000b9864     OpensslLib:rsa_ossl.obj
 0005:0000127c       $unwind$rsa_ossl_public_decrypt 00000000000b987c     OpensslLib:rsa_ossl.obj
 0005:00001294       $unwind$rsa_ossl_mod_exp   00000000000b9894     OpensslLib:rsa_ossl.obj
 0005:000012b0       $unwind$OPENSSL_gmtime_adj 00000000000b98b0     OpensslLib:o_time.obj
 0005:000012b8       $unwind$OPENSSL_gmtime_diff 00000000000b98b8     OpensslLib:o_time.obj
 0005:000012c8       $unwind$bn_sub_words       00000000000b98c8     OpensslLib:bn_asm.obj
 0005:000012c8       $unwind$curve448_scalar_halve 00000000000b98c8     OpensslLib:scalar.obj
 0005:000012c8       $unwind$julian_adj         00000000000b98c8     OpensslLib:o_time.obj
 0005:000012d4       $unwind$v2i_AUTHORITY_INFO_ACCESS 00000000000b98d4     OpensslLib:v3_info.obj
 0005:000012f0       $unwind$X509V3_EXT_get_nid 00000000000b98f0     OpensslLib:v3_lib.obj
 0005:000012fc       $unwind$dh_priv_encode     00000000000b98fc     OpensslLib:dh_ameth.obj
 0005:000012fc       $unwind$aria_128_cfb128_cipher 00000000000b98fc     OpensslLib:e_aria.obj
 0005:000012fc       $unwind$aria_192_cfb128_cipher 00000000000b98fc     OpensslLib:e_aria.obj
 0005:000012fc       $unwind$aria_256_cfb128_cipher 00000000000b98fc     OpensslLib:e_aria.obj
 0005:000012fc       $unwind$sm4_cfb128_cipher  00000000000b98fc     OpensslLib:e_sm4.obj
 0005:000012fc       $unwind$v2i_BASIC_CONSTRAINTS 00000000000b98fc     OpensslLib:v3_bcons.obj
 0005:000012fc       $unwind$v2i_POLICY_CONSTRAINTS 00000000000b98fc     OpensslLib:v3_pcons.obj
 0005:00001310       $unwind$ASN1_TYPE_set      00000000000b9910     OpensslLib:a_type.obj
 0005:0000131c       $unwind$i2v_GENERAL_NAME   00000000000b991c     OpensslLib:v3_alt.obj
 0005:0000132c       $unwind$BN_CTX_free        00000000000b992c     OpensslLib:bn_ctx.obj
 0005:0000133c       $unwind$ec_group_new_from_data 00000000000b993c     OpensslLib:ec_curve.obj
 0005:00001354       $unwind$bn_compute_wNAF    00000000000b9954     OpensslLib:bn_intern.obj
 0005:0000136c       $unwind$bnrand             00000000000b996c     OpensslLib:bn_rand.obj
 0005:00001388       $unwind$BN_generate_dsa_nonce 00000000000b9988     OpensslLib:bn_rand.obj
 0005:000013a8       $unwind$bn_div_fixed_top   00000000000b99a8     OpensslLib:bn_div.obj
 0005:000013a8       $unwind$notice_section     00000000000b99a8     OpensslLib:v3_cpols.obj
 0005:000013c0       $unwind$BN_gcd             00000000000b99c0     OpensslLib:bn_gcd.obj
 0005:000013c0       $unwind$ec_GFp_simple_oct2point 00000000000b99c0     OpensslLib:ecp_oct.obj
 0005:000013c0       $unwind$ec_GFp_simple_ladder_pre 00000000000b99c0     OpensslLib:ecp_smpl.obj
 0005:000013c0       $unwind$CRYPTO_ctr128_encrypt_ctr32 00000000000b99c0     OpensslLib:ctr128.obj
 0005:000013c0       $unwind$print_qualifiers   00000000000b99c0     OpensslLib:v3_cpols.obj
 0005:000013d8       $unwind$BN_nist_mod_192    00000000000b99d8     OpensslLib:bn_nist.obj
 0005:000013d8       $unwind$generate_key       00000000000b99d8     OpensslLib:dh_key.obj
 0005:000013d8       $unwind$aes_ccm_cipher     00000000000b99d8     OpensslLib:e_aes.obj
 0005:000013d8       $unwind$aes_ccm_tls_cipher 00000000000b99d8     OpensslLib:e_aes.obj
 0005:000013d8       $unwind$aria_ccm_cipher    00000000000b99d8     OpensslLib:e_aria.obj
 0005:000013d8       $unwind$aria_ccm_tls_cipher 00000000000b99d8     OpensslLib:e_aria.obj
 0005:000013d8       $unwind$drbg_ctr_instantiate 00000000000b99d8     OpensslLib:drbg_ctr.obj
 0005:000013d8       $unwind$RAND_DRBG_bytes    00000000000b99d8     OpensslLib:drbg_lib.obj
 0005:000013f4       $unwind$compute_key        00000000000b99f4     OpensslLib:dh_key.obj
 0005:0000140c       $unwind$ecx_key_op         00000000000b9a0c     OpensslLib:ecx_meth.obj
 0005:0000142c       $unwind$ecx_priv_decode    00000000000b9a2c     OpensslLib:ecx_meth.obj
 0005:0000143c       $unwind$ecx_priv_encode    00000000000b9a3c     OpensslLib:ecx_meth.obj
 0005:0000144c       $unwind$pkey_ecx_derive25519 00000000000b9a4c     OpensslLib:ecx_meth.obj
 0005:0000144c       $unwind$pkey_ecx_derive448 00000000000b9a4c     OpensslLib:ecx_meth.obj
 0005:0000144c       $unwind$rsa_pkey_ctrl      00000000000b9a4c     OpensslLib:rsa_ameth.obj
 0005:00001458       $unwind$dh_pub_decode      00000000000b9a58     OpensslLib:dh_ameth.obj
 0005:00001458       $unwind$eckey_pub_encode   00000000000b9a58     OpensslLib:ec_ameth.obj
 0005:00001458       $unwind$rsa_pub_encode     00000000000b9a58     OpensslLib:rsa_ameth.obj
 0005:00001468       $unwind$eckey_priv_decode  00000000000b9a68     OpensslLib:ec_ameth.obj
 0005:00001468       $unwind$eckey_pub_decode   00000000000b9a68     OpensslLib:ec_ameth.obj
 0005:00001480       $unwind$eckey_priv_encode  00000000000b9a80     OpensslLib:ec_ameth.obj
 0005:00001494       $unwind$do_EC_KEY_print    00000000000b9a94     OpensslLib:ec_ameth.obj
 0005:000014b0       $unwind$FO                 00000000000b9ab0     OpensslLib:aria.obj
 0005:000014b0       $unwind$rsa_priv_decode    00000000000b9ab0     OpensslLib:rsa_ameth.obj
 0005:000014b0       $unwind$rsa_pub_decode     00000000000b9ab0     OpensslLib:rsa_ameth.obj
 0005:000014c0       $unwind$ec_GFp_simple_point2oct 00000000000b9ac0     OpensslLib:ecp_oct.obj
 0005:000014c0       $unwind$ec_GFp_simple_set_compressed_coordinates 00000000000b9ac0     OpensslLib:ecp_oct.obj
 0005:000014c0       $unwind$pkey_rsa_print     00000000000b9ac0     OpensslLib:rsa_ameth.obj
 0005:000014dc       $unwind$md_write           00000000000b9adc     OpensslLib:bio_md.obj
 0005:000014dc       $unwind$rsa_sig_print      00000000000b9adc     OpensslLib:rsa_ameth.obj
 0005:000014f0       $unwind$rsa_md_to_mgf1     00000000000b9af0     OpensslLib:rsa_ameth.obj
 0005:00001500       $unwind$rsa_ctx_to_pss_string 00000000000b9b00     OpensslLib:rsa_ameth.obj
 0005:00001510       $unwind$rsa_pss_to_ctx     00000000000b9b10     OpensslLib:rsa_ameth.obj
 0005:00001528       $unwind$enc_ctrl           00000000000b9b28     OpensslLib:bio_enc.obj
 0005:00001528       $unwind$rsa_pss_get_param  00000000000b9b28     OpensslLib:rsa_ameth.obj
 0005:00001540       $unwind$rsa_item_sign      00000000000b9b40     OpensslLib:rsa_ameth.obj
 0005:00001550       $unwind$rsa_sig_info_set   00000000000b9b50     OpensslLib:rsa_ameth.obj
 0005:00001560       $unwind$i2d_dhp            00000000000b9b60     OpensslLib:dh_ameth.obj
 0005:00001568       $unwind$dh_pub_encode      00000000000b9b68     OpensslLib:dh_ameth.obj
 0005:0000157c       $unwind$dh_priv_decode     00000000000b9b7c     OpensslLib:dh_ameth.obj
 0005:00001590       $unwind$do_dh_print        00000000000b9b90     OpensslLib:dh_ameth.obj
 0005:000015a8       $unwind$dh_pkey_param_check 00000000000b9ba8     OpensslLib:dh_ameth.obj
 0005:000015a8       $unwind$pkey_sm2_sign      00000000000b9ba8     OpensslLib:sm2_pmeth.obj
 0005:000015bc       $unwind$RAND_DRBG_instantiate 00000000000b9bbc     OpensslLib:drbg_lib.obj
 0005:000015d0       $unwind$drbg_add           00000000000b9bd0     OpensslLib:drbg_lib.obj
 0005:000015e0       $unwind$RAND_DRBG_get0_private 00000000000b9be0     OpensslLib:drbg_lib.obj
 0005:000015f0       $unwind$rand_drbg_get_entropy 00000000000b9bf0     OpensslLib:rand_lib.obj
 0005:00001604       $unwind$pkey_dh_ctrl_str   00000000000b9c04     OpensslLib:dh_pmeth.obj
 0005:00001618       $unwind$pkey_rsa_sign      00000000000b9c18     OpensslLib:rsa_pmeth.obj
 0005:00001618       $unwind$SXNET_add_id_INTEGER 00000000000b9c18     OpensslLib:v3_sxnet.obj
 0005:00001630       $unwind$pkey_ec_sign       00000000000b9c30     OpensslLib:ec_pmeth.obj
 0005:00001630       $unwind$pkey_rsa_verifyrecover 00000000000b9c30     OpensslLib:rsa_pmeth.obj
 0005:00001644       $unwind$pkey_rsa_verify    00000000000b9c44     OpensslLib:rsa_pmeth.obj
 0005:00001658       $unwind$pkey_rsa_decrypt   00000000000b9c58     OpensslLib:rsa_pmeth.obj
 0005:0000166c       $unwind$pkey_rsa_ctrl_str  00000000000b9c6c     OpensslLib:rsa_pmeth.obj
 0005:00001684       $unwind$pkey_pss_init      00000000000b9c84     OpensslLib:rsa_pmeth.obj
 0005:00001694       $unwind$tls1_prf_P_hash    00000000000b9c94     OpensslLib:tls1_prf.obj
 0005:000016b0       $unwind$pkey_hkdf_derive   00000000000b9cb0     OpensslLib:hkdf.obj
 0005:000016c8       $unwind$HKDF_Extract       00000000000b9cc8     OpensslLib:hkdf.obj
 0005:000016e0       $unwind$HKDF_Expand        00000000000b9ce0     OpensslLib:hkdf.obj
 0005:000016f8       $unwind$pkey_sm2_verify    00000000000b9cf8     OpensslLib:sm2_pmeth.obj
 0005:0000170c       $unwind$pkey_sm2_digest_custom 00000000000b9d0c     OpensslLib:sm2_pmeth.obj
 0005:00001724       $unwind$pkey_ec_kdf_derive 00000000000b9d24     OpensslLib:ec_pmeth.obj
 0005:00001724       $unwind$drbg_ctr_generate  00000000000b9d24     OpensslLib:drbg_ctr.obj
 0005:0000173c       $unwind$BIO_dump_indent_cb 00000000000b9d3c     OpensslLib:b_dump.obj
 0005:00001758       $unwind$ec_scalar_mul_ladder 00000000000b9d58     OpensslLib:ec_mult.obj
 0005:00001758       $unwind$ec_GFp_simple_ladder_post 00000000000b9d58     OpensslLib:ecp_smpl.obj
 0005:00001758       $unwind$ec_GFp_simple_points_make_affine 00000000000b9d58     OpensslLib:ecp_smpl.obj
 0005:00001770       $unwind$ec_wNAF_mul        00000000000b9d70     OpensslLib:ec_mult.obj
 0005:0000178c       $unwind$BN_mod_exp_recp    00000000000b9d8c     OpensslLib:bn_exp.obj
 0005:000017a8       $unwind$BN_mod_exp_mont    00000000000b9da8     OpensslLib:bn_exp.obj
 0005:000017c8       $unwind$MOD_EXP_CTIME_COPY_FROM_PREBUF 00000000000b9dc8     OpensslLib:bn_exp.obj
 0005:000017e0       $unwind$BN_mod_exp_mont_consttime 00000000000b9de0     OpensslLib:bn_exp.obj
 0005:000017e0       $unwind$bn_mod_inverse_no_branch 00000000000b9de0     OpensslLib:bn_gcd.obj
 0005:000017f8       $unwind$BN_mod_exp_mont_word 00000000000b9df8     OpensslLib:bn_exp.obj
 0005:000017f8       $unwind$ec_GFp_simple_ladder_step 00000000000b9df8     OpensslLib:ecp_smpl.obj
 0005:00001810       $unwind$enc_read           00000000000b9e10     OpensslLib:bio_enc.obj
 0005:00001810       $unwind$v2i_AUTHORITY_KEYID 00000000000b9e10     OpensslLib:v3_akey.obj
 0005:00001828       $unwind$do_sigver_init     00000000000b9e28     OpensslLib:m_sigver.obj
 0005:0000183c       $unwind$EVP_DigestSignFinal 00000000000b9e3c     OpensslLib:m_sigver.obj
 0005:0000183c       $unwind$EVP_DigestVerifyFinal 00000000000b9e3c     OpensslLib:m_sigver.obj
 0005:0000183c       $unwind$EVP_VerifyFinal    00000000000b9e3c     OpensslLib:p_verify.obj
 0005:00001854       $unwind$EVP_SignFinal      00000000000b9e54     OpensslLib:p_sign.obj
 0005:00001868       $unwind$ASN1_buf_print     00000000000b9e68     OpensslLib:t_pkey.obj
 0005:00001868       $unwind$X509at_get_attr_by_OBJ 00000000000b9e68     OpensslLib:x509_att.obj
 0005:0000187c       $unwind$bn_mul_add_words   00000000000b9e7c     OpensslLib:bn_asm.obj
 0005:0000187c       $unwind$gf_deserialize     00000000000b9e7c     OpensslLib:f_generic.obj
 0005:00001890       $unwind$bn_mul_words       00000000000b9e90     OpensslLib:bn_asm.obj
 0005:000018a8       $unwind$int_bn_mod_inverse 00000000000b9ea8     OpensslLib:bn_gcd.obj
 0005:000018a8       $unwind$ossl_ecdsa_sign_sig 00000000000b9ea8     OpensslLib:ecdsa_ossl.obj
 0005:000018c0       $unwind$bn_sqr_fixed_top   00000000000b9ec0     OpensslLib:bn_sqr.obj
 0005:000018e0       $unwind$bn_sqr_normal      00000000000b9ee0     OpensslLib:bn_sqr.obj
 0005:000018f8       $unwind$RSA_padding_check_PKCS1_type_2 00000000000b9ef8     OpensslLib:rsa_pk1.obj
 0005:00001914       $unwind$RSA_padding_check_SSLv23 00000000000b9f14     OpensslLib:rsa_ssl.obj
 0005:00001930       $unwind$bn_mod_add_fixed_top 00000000000b9f30     OpensslLib:bn_mod.obj
 0005:0000194c       $unwind$RSA_padding_add_PKCS1_OAEP_mgf1 00000000000b9f4c     OpensslLib:rsa_oaep.obj
 0005:00001964       $unwind$RSA_padding_check_PKCS1_OAEP_mgf1 00000000000b9f64     OpensslLib:rsa_oaep.obj
 0005:00001980       $unwind$PKCS1_MGF1         00000000000b9f80     OpensslLib:rsa_oaep.obj
 0005:00001998       $unwind$i2v_EXTENDED_KEY_USAGE 00000000000b9f98     OpensslLib:v3_extku.obj
 0005:000019a8       $unwind$i2r_ocsp_crlid     00000000000b9fa8     OpensslLib:v3_ocsp.obj
 0005:000019bc       $unwind$i2r_NAMING_AUTHORITY 00000000000b9fbc     OpensslLib:v3_admis.obj
 0005:000019d8       $unwind$i2r_ADMISSION_SYNTAX 00000000000b9fd8     OpensslLib:v3_admis.obj
 0005:000019f8       $unwind$s2i_skey_id        00000000000b9ff8     OpensslLib:v3_skey.obj
 0005:00001a08       $unwind$i2v_POLICY_MAPPINGS 00000000000ba008     OpensslLib:v3_pmaps.obj
 0005:00001a20       $unwind$process_pci_value  00000000000ba020     OpensslLib:v3_pci.obj
 0005:00001a3c       $unwind$r2i_pci            00000000000ba03c     OpensslLib:v3_pci.obj
 0005:00001a54       $unwind$i2v_TLS_FEATURE    00000000000ba054     OpensslLib:v3_tlsf.obj
 0005:00001a68       $unwind$generate_v3        00000000000ba068     OpensslLib:asn1_gen.obj
 0005:00001a88       $unwind$asn1_cb            00000000000ba088     OpensslLib:asn1_gen.obj
 0005:00001aa0       $unwind$asn1_str2type      00000000000ba0a0     OpensslLib:asn1_gen.obj
 0005:00001ab4       $unwind$ecdsa_sign_setup   00000000000ba0b4     OpensslLib:ecdsa_ossl.obj
 0005:00001acc       $unwind$ossl_ecdsa_verify_sig 00000000000ba0cc     OpensslLib:ecdsa_ossl.obj
 0005:00001ae4       $unwind$ecdh_simple_compute_key 00000000000ba0e4     OpensslLib:ecdh_ossl.obj
 0005:00001afc       $unwind$c448_ed448_sign    00000000000ba0fc     OpensslLib:eddsa.obj
 0005:00001b1c       $unwind$c448_ed448_verify  00000000000ba11c     OpensslLib:eddsa.obj
 0005:00001b3c       $unwind$ED448_public_from_private 00000000000ba13c     OpensslLib:eddsa.obj
 0005:00001b58       $unwind$fe_frombytes       00000000000ba158     OpensslLib:curve25519.obj
 0005:00001b70       $unwind$fe_tobytes         00000000000ba170     OpensslLib:curve25519.obj
 0005:00001b8c       $unwind$fe_mul             00000000000ba18c     OpensslLib:curve25519.obj
 0005:00001ba4       $unwind$fe_sq              00000000000ba1a4     OpensslLib:curve25519.obj
 0005:00001ba4       $unwind$fe_sq2             00000000000ba1a4     OpensslLib:curve25519.obj
 0005:00001bbc       $unwind$fe_invert          00000000000ba1bc     OpensslLib:curve25519.obj
 0005:00001bd8       $unwind$fe_pow22523        00000000000ba1d8     OpensslLib:curve25519.obj
 0005:00001bf4       $unwind$ge_p3_tobytes      00000000000ba1f4     OpensslLib:curve25519.obj
 0005:00001c04       $unwind$ge_frombytes_vartime 00000000000ba204     OpensslLib:curve25519.obj
 0005:00001c20       $unwind$ge_p3_dbl          00000000000ba220     OpensslLib:curve25519.obj
 0005:00001c34       $unwind$ge_add             00000000000ba234     OpensslLib:curve25519.obj
 0005:00001c34       $unwind$ge_madd            00000000000ba234     OpensslLib:curve25519.obj
 0005:00001c50       $unwind$ge_scalarmult_base 00000000000ba250     OpensslLib:curve25519.obj
 0005:00001c6c       $unwind$x25519_scalar_mult_generic 00000000000ba26c     OpensslLib:curve25519.obj
 0005:00001c88       $unwind$slide              00000000000ba288     OpensslLib:curve25519.obj
 0005:00001ca0       $unwind$ge_double_scalarmult_vartime 00000000000ba2a0     OpensslLib:curve25519.obj
 0005:00001cc0       $unwind$x25519_sc_reduce   00000000000ba2c0     OpensslLib:curve25519.obj
 0005:00001cd8       $unwind$sc_muladd          00000000000ba2d8     OpensslLib:curve25519.obj
 0005:00001cf0       $unwind$ED25519_verify     00000000000ba2f0     OpensslLib:curve25519.obj
 0005:00001d10       $unwind$X25519_public_from_private 00000000000ba310     OpensslLib:curve25519.obj
 0005:00001d20       $unwind$gf_cond_neg        00000000000ba320     OpensslLib:curve448.obj
 0005:00001d20       $unwind$gf_sqrn            00000000000ba320     OpensslLib:f_generic.obj
 0005:00001d2c       $unwind$gf_invert          00000000000ba32c     OpensslLib:curve448.obj
 0005:00001d40       $unwind$point_double_internal 00000000000ba340     OpensslLib:curve448.obj
 0005:00001d60       $unwind$add_niels_to_pt    00000000000ba360     OpensslLib:curve448.obj
 0005:00001d60       $unwind$sub_niels_from_pt  00000000000ba360     OpensslLib:curve448.obj
 0005:00001d80       $unwind$curve448_precomputed_scalarmul 00000000000ba380     OpensslLib:curve448.obj
 0005:00001d9c       $unwind$curve448_point_mul_by_ratio_and_encode_like_eddsa 00000000000ba39c     OpensslLib:curve448.obj
 0005:00001db0       $unwind$curve448_point_decode_like_eddsa_and_mul_by_ratio 00000000000ba3b0     OpensslLib:curve448.obj
 0005:00001dd0       $unwind$x448_int           00000000000ba3d0     OpensslLib:curve448.obj
 0005:00001df0       $unwind$recode_wnaf        00000000000ba3f0     OpensslLib:curve448.obj
 0005:00001e0c       $unwind$curve448_base_double_scalarmul_non_secret 00000000000ba40c     OpensslLib:curve448.obj
 0005:00001e2c       $unwind$X448_public_from_private 00000000000ba42c     OpensslLib:curve448.obj
 0005:00001e44       $unwind$ECPKParameters_print 00000000000ba444     OpensslLib:eck_prn.obj
 0005:00001e5c       $unwind$print_bin          00000000000ba45c     OpensslLib:eck_prn.obj
 0005:00001e78       $unwind$X509_signature_dump 00000000000ba478     OpensslLib:t_x509.obj
 0005:00001e94       $unwind$i2a_ASN1_INTEGER   00000000000ba494     OpensslLib:f_int.obj
 0005:00001ea8       $unwind$HMAC_Init_ex       00000000000ba4a8     OpensslLib:hmac.obj
 0005:00001ec8       $unwind$HMAC_Final         00000000000ba4c8     OpensslLib:hmac.obj
 0005:00001ed8       $unwind$aes_gcm_ctrl       00000000000ba4d8     OpensslLib:e_aes.obj
 0005:00001ed8       $unwind$aria_gcm_ctrl      00000000000ba4d8     OpensslLib:e_aria.obj
 0005:00001ef0       $unwind$ctr_df             00000000000ba4f0     OpensslLib:drbg_ctr.obj
 0005:00001f08       $unwind$ctr_update         00000000000ba508     OpensslLib:drbg_ctr.obj
 0005:00001f28       $unwind$drbg_ctr_init      00000000000ba528     OpensslLib:drbg_ctr.obj
 0005:00001f40       $unwind$ctrl               00000000000ba540     OpensslLib:m_md5_sha1.obj
 0005:00001f58       $unwind$dh_builtin_genparams 00000000000ba558     OpensslLib:dh_gen.obj
 0005:00001f74       $unwind$RSA_sign_ASN1_OCTET_STRING 00000000000ba574     OpensslLib:rsa_saos.obj
 0005:00001f8c       $unwind$rsa_builtin_keygen 00000000000ba58c     OpensslLib:rsa_gen.obj
 0005:00001fa8       $unwind$RSA_verify_PKCS1_PSS_mgf1 00000000000ba5a8     OpensslLib:rsa_pss.obj
 0005:00001fc4       $unwind$sm2_compute_z_digest 00000000000ba5c4     OpensslLib:sm2_sign.obj
 0005:00001fe0       $unwind$sm2_sig_gen        00000000000ba5e0     OpensslLib:sm2_sign.obj
 0005:00001ff8       $unwind$sm2_sig_verify     00000000000ba5f8     OpensslLib:sm2_sign.obj
 0005:00002010       $unwind$sm2_sign           00000000000ba610     OpensslLib:sm2_sign.obj
 0005:00002024       $unwind$sm2_encrypt        00000000000ba624     OpensslLib:sm2_crypt.obj
 0005:00002040       $unwind$sm2_decrypt        00000000000ba640     OpensslLib:sm2_crypt.obj
 0005:0000205c       $unwind$ecdh_KDF_X9_63     00000000000ba65c     OpensslLib:ecdh_kdf.obj
 0005:00002074       $unwind$BN_nist_mod_224    00000000000ba674     OpensslLib:bn_nist.obj
 0005:00002090       $unwind$BN_nist_mod_384    00000000000ba690     OpensslLib:bn_nist.obj
 0005:000020a8       $unwind$BN_nist_mod_521    00000000000ba6a8     OpensslLib:bn_nist.obj
 0005:000020c4       $unwind$i2a_ASN1_STRING    00000000000ba6c4     OpensslLib:f_string.obj
 0005:000020d8       $unwind$probable_prime_dh  00000000000ba6d8     OpensslLib:bn_prime.obj
 0005:000020f0       $unwind$sc_montmul         00000000000ba6f0     OpensslLib:scalar.obj
 0005:00002108       $unwind$curve448_scalar_decode_long 00000000000ba708     OpensslLib:scalar.obj
 0005:00002124       $unwind$gf_eq              00000000000ba724     OpensslLib:f_generic.obj
 0005:0000212c       $unwind$gf_isr             00000000000ba72c     OpensslLib:f_generic.obj
 0005:00002140       $unwind$gf_mul             00000000000ba740     OpensslLib:f_impl.obj
 0005:00002158       $unwind$SM4_set_key        00000000000ba758     OpensslLib:sm4.obj
 0005:00002168       $unwind$CRYPTO_cbc128_decrypt 00000000000ba768     OpensslLib:cbc128.obj
 0005:00002180       $unwind$CRYPTO_cfb128_1_encrypt 00000000000ba780     OpensslLib:cfb128.obj
 0005:00002198       $unwind$CRYPTO_cfb128_8_encrypt 00000000000ba798     OpensslLib:cfb128.obj
 0005:000021b4       $unwind$CRYPTO_ccm128_encrypt 00000000000ba7b4     OpensslLib:ccm128.obj
 0005:000021cc       $unwind$rotnr              00000000000ba7cc     OpensslLib:aria.obj
 0005:000021d8       $unwind$aria_set_encrypt_key 00000000000ba7d8     OpensslLib:aria.obj
 0005:000021fc       $unwind$aria_set_decrypt_key 00000000000ba7fc     OpensslLib:aria.obj
 0005:00002214       $unwind$CRYPTO_xts128_encrypt 00000000000ba814     OpensslLib:xts128.obj
 0005:00002230       $unwind$AES_set_encrypt_key 00000000000ba830     OpensslLib:aes_core.obj
 0005:0000224c       $unwind$AES_decrypt        00000000000ba84c     OpensslLib:aes_core.obj
 0005:0000224c       $unwind$AES_encrypt        00000000000ba84c     OpensslLib:aes_core.obj
 0005:00002268       $unwind$CRYPTO_128_wrap    00000000000ba868     OpensslLib:wrap128.obj
 0005:00002284       $unwind$crypto_128_unwrap_raw 00000000000ba884     OpensslLib:wrap128.obj
 0005:0000229c       $unwind$CRYPTO_128_unwrap_pad 00000000000ba89c     OpensslLib:wrap128.obj
 0005:000022b4       $unwind$alg_module_init    00000000000ba8b4     OpensslLib:evp_cnf.obj
 0005:000022c8       $unwind$do_tcreate         00000000000ba8c8     OpensslLib:asn_mstbl.obj
 0005:000022e0       $unwind$ssl_module_init    00000000000ba8e0     OpensslLib:conf_ssl.obj
 0005:000022f8       $unwind$oid_module_init    00000000000ba8f8     OpensslLib:asn_moid.obj
 0005:000022f8       $unwind$ec_GFp_simple_is_on_curve 00000000000ba8f8     OpensslLib:ecp_smpl.obj
 0005:000022f8       $unwind$ec_GFp_simple_point_get_affine_coordinates 00000000000ba8f8     OpensslLib:ecp_smpl.obj
 0005:00002314       $unwind$Round              00000000000ba914     OpensslLib:keccak1600.obj
 0005:0000232c       $unwind$KeccakF1600        00000000000ba92c     OpensslLib:keccak1600.obj
 0005:0000233c       $unwind$SHA3_squeeze       00000000000ba93c     OpensslLib:keccak1600.obj
 0005:00002350       $unwind$sm3_block_data_order 00000000000ba950     OpensslLib:sm3.obj
 0005:00002368       $unwind$ec_GFp_simple_add  00000000000ba968     OpensslLib:ecp_smpl.obj
 0005:00002380       $unwind$ec_GFp_simple_cmp  00000000000ba980     OpensslLib:ecp_smpl.obj
 0005:0000239c       $unwind$QuickSortWorker    00000000000ba99c     RuntimeCryptLib:CrtWrapper.obj
