 AtaAtapiPassThruDxe

 Timestamp is 62b57334 (Fri Jun 24 16:17:56 2022)

 Preferred load address is 0000000000000000

 Start         Length     Name                   Class
 0001:00000000 00000114H .text                   CODE
 0001:00000114 0000905aH .text$mn                CODE
 0002:00000000 00002300H .rdata                  DATA
 0002:00002300 0000002cH .rdata$voltmd           DATA
 0002:0000232c 00000158H .rdata$zzzdbg           DATA
 0003:00000000 00000360H .data                   DATA
 0003:00000360 00000050H .bss                    DATA
 0004:00000000 000005a0H .pdata                  DATA
 0005:00000000 000004a8H .xdata                  DATA

  Address         Publics by Value              Rva+Base               Lib:Object

 0000:00000000       __arm64x_extra_rfe_table_size 0000000000000000     <absolute>
 0000:00000000       __guard_iat_table          0000000000000000     <absolute>
 0000:00000000       __x64_code_ranges_to_entry_points_count 0000000000000000     <absolute>
 0000:00000000       __guard_iat_count          0000000000000000     <absolute>
 0000:00000000       __guard_longjmp_count      0000000000000000     <absolute>
 0000:00000000       __guard_flags              0000000000000000     <absolute>
 0000:00000000       __dynamic_value_reloc_table 0000000000000000     <absolute>
 0000:00000000       __arm64x_extra_rfe_table   0000000000000000     <absolute>
 0000:00000000       __guard_eh_cont_count      0000000000000000     <absolute>
 0000:00000000       __hybrid_auxiliary_iat     0000000000000000     <absolute>
 0000:00000000       __hybrid_code_map          0000000000000000     <absolute>
 0000:00000000       __hybrid_auxiliary_iat_copy 0000000000000000     <absolute>
 0000:00000000       __arm64x_redirection_metadata 0000000000000000     <absolute>
 0000:00000000       __hybrid_code_map_count    0000000000000000     <absolute>
 0000:00000000       __x64_code_ranges_to_entry_points 0000000000000000     <absolute>
 0000:00000000       __AbsoluteZero             0000000000000000     <absolute>
 0000:00000000       __guard_check_icall_a64n_fptr 0000000000000000     <absolute>
 0000:00000000       __guard_fids_table         0000000000000000     <absolute>
 0000:00000000       __guard_fids_count         0000000000000000     <absolute>
 0000:00000000       __arm64x_redirection_metadata_count 0000000000000000     <absolute>
 0000:00000000       __guard_longjmp_table      0000000000000000     <absolute>
 0000:00000000       __enclave_config           0000000000000000     <absolute>
 0000:00000000       __guard_eh_cont_table      0000000000000000     <absolute>
 0000:00000000       __arm64x_native_entrypoint 0000000000000000     <absolute>
 0001:00000000       InternalMemCopyMem         00000000000002c0     BaseMemoryLibRepStr:CopyMem.obj
 0001:00000040       InternalMemZeroMem         0000000000000300     BaseMemoryLibRepStr:ZeroMem.obj
 0001:00000060       InternalMemCompareMem      0000000000000320     BaseMemoryLibRepStr:CompareMem.obj
 0001:00000080       InternalMemSetMem          0000000000000340     BaseMemoryLibRepStr:SetMem.obj
 0001:000000a0       InternalMemSetMem64        0000000000000360     BaseMemoryLibRepStr:SetMem64.obj
 0001:000000c0       InternalMemSetMem32        0000000000000380     BaseMemoryLibRepStr:SetMem32.obj
 0001:000000e0       CpuPause                   00000000000003a0     BaseLib:CpuPause.obj
 0001:000000f0       EnableInterrupts           00000000000003b0     BaseLib:EnableInterrupts.obj
 0001:00000100       DisableInterrupts          00000000000003c0     BaseLib:DisableInterrupts.obj
 0001:00000110       AsmReadEflags              00000000000003d0     BaseLib:ReadEflags.obj
 0001:00000114       _ModuleEntryPoint          00000000000003d4 f   UefiDriverEntryPoint:DriverEntryPoint.obj
 0001:00000130       ProcessLibraryConstructorList 00000000000003f0 f   AtaAtapiPassThruDxe:AutoGen.obj
 0001:000003ac       ProcessModuleEntryPointList 000000000000066c f   AtaAtapiPassThruDxe:AutoGen.obj
 0001:00000484       AtaPassThruPassThruExecute 0000000000000744 f   AtaAtapiPassThruDxe:AtaAtapiPassThru.obj
 0001:000007f0       AsyncNonBlockingTransferRoutine 0000000000000ab0 f   AtaAtapiPassThruDxe:AtaAtapiPassThru.obj
 0001:000008b8       AtaAtapiPassThruSupported  0000000000000b78 f   AtaAtapiPassThruDxe:AtaAtapiPassThru.obj
 0001:00000a00       AtaAtapiPassThruStart      0000000000000cc0 f   AtaAtapiPassThruDxe:AtaAtapiPassThru.obj
 0001:00000d50       AtaAtapiPassThruStop       0000000000001010 f   AtaAtapiPassThruDxe:AtaAtapiPassThru.obj
 0001:00000f98       SearchDeviceInfoList       0000000000001258 f   AtaAtapiPassThruDxe:AtaAtapiPassThru.obj
 0001:00001064       CreateNewDeviceInfo        0000000000001324 f   AtaAtapiPassThruDxe:AtaAtapiPassThru.obj
 0001:00001120       DestroyDeviceInfoList      00000000000013e0 f   AtaAtapiPassThruDxe:AtaAtapiPassThru.obj
 0001:000011bc       DestroyAsynTaskList        000000000000147c f   AtaAtapiPassThruDxe:AtaAtapiPassThru.obj
 0001:0000128c       EnumerateAttachedDevice    000000000000154c f   AtaAtapiPassThruDxe:AtaAtapiPassThru.obj
 0001:00001354       AtaPassThruPassThru        0000000000001614 f   AtaAtapiPassThruDxe:AtaAtapiPassThru.obj
 0001:000015f0       AtaPassThruGetNextPort     00000000000018b0 f   AtaAtapiPassThruDxe:AtaAtapiPassThru.obj
 0001:00001750       AtaPassThruGetNextDevice   0000000000001a10 f   AtaAtapiPassThruDxe:AtaAtapiPassThru.obj
 0001:000018e0       AtaPassThruBuildDevicePath 0000000000001ba0 f   AtaAtapiPassThruDxe:AtaAtapiPassThru.obj
 0001:000019e4       AtaPassThruGetDevice       0000000000001ca4 f   AtaAtapiPassThruDxe:AtaAtapiPassThru.obj
 0001:00001af0       AtaPassThruResetPort       0000000000001db0 f   AtaAtapiPassThruDxe:AtaAtapiPassThru.obj
 0001:00001af0       ExtScsiPassThruResetChannel 0000000000001db0 f   AtaAtapiPassThruDxe:AtaAtapiPassThru.obj
 0001:00001af4       AtaPassThruResetDevice     0000000000001db4 f   AtaAtapiPassThruDxe:AtaAtapiPassThru.obj
 0001:00001b70       AtaPacketRequestSense      0000000000001e30 f   AtaAtapiPassThruDxe:AtaAtapiPassThru.obj
 0001:00001c14       ExtScsiPassThruPassThru    0000000000001ed4 f   AtaAtapiPassThruDxe:AtaAtapiPassThru.obj
 0001:00001ee0       ExtScsiPassThruGetNextTargetLun 00000000000021a0 f   AtaAtapiPassThruDxe:AtaAtapiPassThru.obj
 0001:000020cc       ExtScsiPassThruBuildDevicePath 000000000000238c f   AtaAtapiPassThruDxe:AtaAtapiPassThru.obj
 0001:000021f8       ExtScsiPassThruGetTargetLun 00000000000024b8 f   AtaAtapiPassThruDxe:AtaAtapiPassThru.obj
 0001:00002378       ExtScsiPassThruResetTargetLun 0000000000002638 f   AtaAtapiPassThruDxe:AtaAtapiPassThru.obj
 0001:000023f4       ExtScsiPassThruGetNextTarget 00000000000026b4 f   AtaAtapiPassThruDxe:AtaAtapiPassThru.obj
 0001:000025a8       AhciReadReg                0000000000002868 f   AtaAtapiPassThruDxe:AhciMode.obj
 0001:0000260c       AhciWriteReg               00000000000028cc f   AtaAtapiPassThruDxe:AhciMode.obj
 0001:0000266c       AhciAndReg                 000000000000292c f   AtaAtapiPassThruDxe:AhciMode.obj
 0001:000026c8       AhciOrReg                  0000000000002988 f   AtaAtapiPassThruDxe:AhciMode.obj
 0001:00002724       AhciWaitMmioSet            00000000000029e4 f   AtaAtapiPassThruDxe:AhciMode.obj
 0001:000027c4       AhciDumpPortStatus         0000000000002a84 f   AtaAtapiPassThruDxe:AhciMode.obj
 0001:00002874       AhciDisableFisReceive      0000000000002b34 f   AtaAtapiPassThruDxe:AhciMode.obj
 0001:000028f4       AhciBuildCommand           0000000000002bb4 f   AtaAtapiPassThruDxe:AhciMode.obj
 0001:00002abc       AhciBuildCommandFis        0000000000002d7c f   AtaAtapiPassThruDxe:AhciMode.obj
 0001:00002b34       AhciWaitDeviceReady        0000000000002df4 f   AtaAtapiPassThruDxe:AhciMode.obj
 0001:00002bf8       AhciRecoverPortError       0000000000002eb8 f   AtaAtapiPassThruDxe:AhciMode.obj
 0001:00002d34       AhciCheckFisReceived       0000000000002ff4 f   AtaAtapiPassThruDxe:AhciMode.obj
 0001:00002ddc       AhciWaitUntilFisReceived   000000000000309c f   AtaAtapiPassThruDxe:AhciMode.obj
 0001:00002e7c       AhciPrintCommandBlock      000000000000313c f   AtaAtapiPassThruDxe:AhciMode.obj
 0001:00002f90       AhciPrintStatusBlock       0000000000003250 f   AtaAtapiPassThruDxe:AhciMode.obj
 0001:00002fe8       AhciPioTransfer            00000000000032a8 f   AtaAtapiPassThruDxe:AhciMode.obj
 0001:00003264       AhciDmaTransfer            0000000000003524 f   AtaAtapiPassThruDxe:AhciMode.obj
 0001:0000368c       AhciNonDataTransfer        000000000000394c f   AtaAtapiPassThruDxe:AhciMode.obj
 0001:00003874       AhciStopCommand            0000000000003b34 f   AtaAtapiPassThruDxe:AhciMode.obj
 0001:000038e4       AhciStartCommand           0000000000003ba4 f   AtaAtapiPassThruDxe:AhciMode.obj
 0001:00003a34       AhciAtaSmartReturnStatusCheck 0000000000003cf4 f   AtaAtapiPassThruDxe:AhciMode.obj
 0001:00003b44       AhciAtaSmartSupport        0000000000003e04 f   AtaAtapiPassThruDxe:AhciMode.obj
 0001:00003c98       AhciIdentify               0000000000003f58 f   AtaAtapiPassThruDxe:AhciMode.obj
 0001:00003d74       AhciIdentifyPacket         0000000000004034 f   AtaAtapiPassThruDxe:AhciMode.obj
 0001:00003e44       AhciDeviceSetFeature       0000000000004104 f   AtaAtapiPassThruDxe:AhciMode.obj
 0001:00003f0c       AhciPacketCommandExecute   00000000000041cc f   AtaAtapiPassThruDxe:AhciMode.obj
 0001:00004050       AhciCreateTransferDescriptor 0000000000004310 f   AtaAtapiPassThruDxe:AhciMode.obj
 0001:00004390       AhciReadLogExt             0000000000004650 f   AtaAtapiPassThruDxe:AhciMode.obj
 0001:00004484       AhciEnableDevSlp           0000000000004744 f   AtaAtapiPassThruDxe:AhciMode.obj
 0001:000047b8       AhciSpinUpDisk             0000000000004a78 f   AtaAtapiPassThruDxe:AhciMode.obj
 0001:0000499c       AhciModeInitialization     0000000000004c5c f   AtaAtapiPassThruDxe:AhciMode.obj
 0001:00005014       IdeReadPortB               00000000000052d4 f   AtaAtapiPassThruDxe:IdeMode.obj
 0001:00005074       IdeWritePortB              0000000000005334 f   AtaAtapiPassThruDxe:IdeMode.obj
 0001:000050d0       DumpAllIdeRegisters        0000000000005390 f   AtaAtapiPassThruDxe:IdeMode.obj
 0001:000052e8       CheckStatusRegister        00000000000055a8 f   AtaAtapiPassThruDxe:IdeMode.obj
 0001:00005360       DRQClear                   0000000000005620 f   AtaAtapiPassThruDxe:IdeMode.obj
 0001:00005434       DRQReady                   00000000000056f4 f   AtaAtapiPassThruDxe:IdeMode.obj
 0001:00005534       DRQReady2                  00000000000057f4 f   AtaAtapiPassThruDxe:IdeMode.obj
 0001:00005634       WaitForBSYClear            00000000000058f4 f   AtaAtapiPassThruDxe:IdeMode.obj
 0001:000056f8       GetIdeRegisterIoAddr       00000000000059b8 f   AtaAtapiPassThruDxe:IdeMode.obj
 0001:00005874       AtaIssueCommand            0000000000005b34 f   AtaAtapiPassThruDxe:IdeMode.obj
 0001:00005a68       AtaPioDataInOut            0000000000005d28 f   AtaAtapiPassThruDxe:IdeMode.obj
 0001:00005c24       AtaNonDataCommandIn        0000000000005ee4 f   AtaAtapiPassThruDxe:IdeMode.obj
 0001:00005cd4       AtaUdmStatusWait           0000000000005f94 f   AtaAtapiPassThruDxe:IdeMode.obj
 0001:00005d98       AtaUdmaInOut               0000000000006058 f   AtaAtapiPassThruDxe:IdeMode.obj
 0001:00006354       AtaPacketReadWrite         0000000000006614 f   AtaAtapiPassThruDxe:IdeMode.obj
 0001:000065d4       AtaPacketCommandExecute    0000000000006894 f   AtaAtapiPassThruDxe:IdeMode.obj
 0001:0000676c       SetDeviceTransferMode      0000000000006a2c f   AtaAtapiPassThruDxe:IdeMode.obj
 0001:000067f4       SetDriveParameters         0000000000006ab4 f   AtaAtapiPassThruDxe:IdeMode.obj
 0001:000068b8       IdeAtaSmartReturnStatusCheck 0000000000006b78 f   AtaAtapiPassThruDxe:IdeMode.obj
 0001:000069d0       IdeAtaSmartSupport         0000000000006c90 f   AtaAtapiPassThruDxe:IdeMode.obj
 0001:00006b6c       AtaIdentify                0000000000006e2c f   AtaAtapiPassThruDxe:IdeMode.obj
 0001:00006bfc       AtaIdentifyPacket          0000000000006ebc f   AtaAtapiPassThruDxe:IdeMode.obj
 0001:00006c8c       DetectAndConfigIdeDevice   0000000000006f4c f   AtaAtapiPassThruDxe:IdeMode.obj
 0001:00007038       IdeModeInitialization      00000000000072f8 f   AtaAtapiPassThruDxe:IdeMode.obj
 0001:00007144       AtaAtapiPassThruComponentNameGetDriverName 0000000000007404 f   AtaAtapiPassThruDxe:ComponentName.obj
 0001:00007178       AtaAtapiPassThruComponentNameGetControllerName 0000000000007438 f   AtaAtapiPassThruDxe:ComponentName.obj
 0001:000072ec       InternalBaseLibIsListValid 00000000000075ac f   BaseLib:LinkedList.obj
 0001:00007358       InsertTailList             0000000000007618 f   BaseLib:LinkedList.obj
 0001:000073ac       GetFirstNode               000000000000766c f   BaseLib:LinkedList.obj
 0001:000073e0       GetNextNode                00000000000076a0 f   BaseLib:LinkedList.obj
 0001:00007414       IsListEmpty                00000000000076d4 f   BaseLib:LinkedList.obj
 0001:0000744c       IsNull                     000000000000770c f   BaseLib:LinkedList.obj
 0001:00007490       RemoveEntryList            0000000000007750 f   BaseLib:LinkedList.obj
 0001:000074d8       CopyMem                    0000000000007798 f   BaseMemoryLibRepStr:CopyMemWrapper.obj
 0001:00007574       ZeroMem                    0000000000007834 f   BaseMemoryLibRepStr:ZeroMemWrapper.obj
 0001:000075e4       CompareMem                 00000000000078a4 f   BaseMemoryLibRepStr:CompareMemWrapper.obj
 0001:000076b4       DebugPrint                 0000000000007974 f   BaseDebugLibSerialPort:DebugLib.obj
 0001:000076d8       DebugPrintMarker           0000000000007998 f   BaseDebugLibSerialPort:DebugLib.obj
 0001:00007788       DebugAssert                0000000000007a48 f   BaseDebugLibSerialPort:DebugLib.obj
 0001:00007800       InternalAllocateAlignedPages 0000000000007ac0 f   UefiMemoryAllocationLib:MemoryAllocationLib.obj
 0001:000079ac       InternalAllocatePool       0000000000007c6c f   UefiMemoryAllocationLib:MemoryAllocationLib.obj
 0001:000079dc       InternalAllocateCopyPool   0000000000007c9c f   UefiMemoryAllocationLib:MemoryAllocationLib.obj
 0001:00007a54       FreePool                   0000000000007d14 f   UefiMemoryAllocationLib:MemoryAllocationLib.obj
 0001:00007a98       DevicePathNodeLength       0000000000007d58 f   UefiDevicePathLibDevicePathProtocol:UefiDevicePathLib.obj
 0001:00007ae0       IsLanguageSupported        0000000000007da0 f   UefiLib:UefiLib.obj
 0001:00007b68       LookupUnicodeString2       0000000000007e28 f   UefiLib:UefiLib.obj
 0001:00007c5c       InternalAcpiDelay          0000000000007f1c f   DxeAcpiTimerLib:AcpiTimerLib.obj
 0001:00007cc0       MicroSecondDelay           0000000000007f80 f   DxeAcpiTimerLib:AcpiTimerLib.obj
 0001:00007cf4       InternalReportStatusCode   0000000000007fb4 f   DxeReportStatusCodeLib:ReportStatusCodeLib.obj
 0001:00007d9c       GetPcdProtocol             000000000000805c f   DxePcdLib:DxePcdLib.obj
 0001:00007e28       AsciiStrLen                00000000000080e8 f   BaseLib:String.obj
 0001:00007e94       AsciiStrnCmp               0000000000008154 f   BaseLib:String.obj
 0001:00007f60       DivU64x32Remainder         0000000000008220 f   BaseLib:DivU64x32Remainder.obj
 0001:00007fc0       StrnLenS                   0000000000008280 f   BaseLib:SafeString.obj
 0001:00008018       IoRead32                   00000000000082d8 f   BaseIoLibIntrinsicSev:IoLibMsc.obj
 0001:0000804c       AsciiSPrint                000000000000830c f   BasePrintLib:PrintLib.obj
 0001:00008078       BasePrintLibFillBuffer     0000000000008338 f   BasePrintLib:PrintLibInternal.obj
 0001:000080ac       BasePrintLibValueToString  000000000000836c f   BasePrintLib:PrintLibInternal.obj
 0001:000080fc       BasePrintLibSPrintMarker   00000000000083bc f   BasePrintLib:PrintLibInternal.obj
 0001:00009008       BasePrintLibSPrint         00000000000092c8 f   BasePrintLib:PrintLibInternal.obj
 0001:0000902c       PciExpressRead32           00000000000092ec f   BasePciExpressLib:PciExpressLib.obj
 0001:0000907c       PciCf8Read32               000000000000933c f   BasePciCf8Lib:PciCf8Lib.obj
 0001:0000911c       SaveAndDisableInterrupts   00000000000093dc f   BaseLib:Cpu.obj
 0001:00009140       MmioRead32                 0000000000009400 f   BaseIoLibIntrinsicSev:IoLib.obj
 0002:00000000       ??_C@_0CB@DMEJJJHA@?6ASSERT_EFI_ERROR?5?$CIStatus?5?$DN?5?$CFr?$CJ@ 0000000000009440     UefiDriverEntryPoint:DriverEntryPoint.obj
 0002:00000028       ??_C@_0CH@BBNBJKHK@?$CB?$CI?$CI?$CIINTN?$CJ?$CIRETURN_STATUS?$CJ?$CIStatus@ 0000000000009468     UefiDriverEntryPoint:DriverEntryPoint.obj
 0002:00000050       ??_C@_0BE@EBHDAGEC@AtaAtapiPassThruDxe@ 0000000000009490     AtaAtapiPassThruDxe:AutoGen.obj
 0002:00000068       ??_C@_0CE@IBFOBMLB@?6ASSERT_RETURN_ERROR?5?$CIStatus?5?$DN?5@ 00000000000094a8     AtaAtapiPassThruDxe:AutoGen.obj
 0002:00000090       ??_C@_0HD@KBAABDEB@d?3?2edk2?2edk2?2Build?2OvmfX64?2DEBU@ 00000000000094d0     AtaAtapiPassThruDxe:AutoGen.obj
 0002:00000108       ??_C@_0BF@NDBIKIKC@CR?5has?5Bad?5Signature@ 0000000000009548     AtaAtapiPassThruDxe:AtaAtapiPassThru.obj
 0002:00000120       ??_C@_0EG@KFLCMLJE@d?3?2edk2?2edk2?2MdeModulePkg?2Bus?2A@ 0000000000009560     AtaAtapiPassThruDxe:AtaAtapiPassThru.obj
 0002:00000168       ??_C@_0CM@DGNDOAGH@?$DN?$DNAtaAtapiPassThru?5Start?$DN?$DN?5Cont@ 00000000000095a8     AtaAtapiPassThruDxe:AtaAtapiPassThru.obj
 0002:00000198       ??_C@_0CK@PPBHLAGJ@Open?5Ide_Controller_Init?5Error?0@ 00000000000095d8     AtaAtapiPassThruDxe:AtaAtapiPassThru.obj
 0002:000001c8       ??_C@_0CF@OLDOAHDA@Get?5Pci_Io?5Protocol?5Error?0?5Stat@ 0000000000009608     AtaAtapiPassThruDxe:AtaAtapiPassThru.obj
 0002:000001f0       ??_C@_0CL@DOPFHFJC@?$DN?$DNAtaAtapiPassThru?5Stop?$DN?$DN?5Contr@ 0000000000009630     AtaAtapiPassThruDxe:AtaAtapiPassThru.obj
 0002:00000220       ??_C@_0BG@BDDIFCPF@PciIo?5?$CB?$DN?5?$CI?$CIvoid?5?$CK?$CJ?50?$CJ@ 0000000000009660     AtaAtapiPassThruDxe:AhciMode.obj
 0002:00000238       ??_C@_0DO@MDBGDOCD@d?3?2edk2?2edk2?2MdeModulePkg?2Bus?2A@ 0000000000009678     AtaAtapiPassThruDxe:AhciMode.obj
 0002:00000278       ??_C@_0CF@DNANAGMC@Port?5?$CFd?5Device?5not?5ready?5?$CITFD?$DN0@ 00000000000096b8     AtaAtapiPassThruDxe:AhciMode.obj
 0002:000002a0       ??_C@_0DC@KODFHADD@Ahci?5port?5?$CFd?5is?5in?5hung?5state?0?5@ 00000000000096e0     AtaAtapiPassThruDxe:AhciMode.obj
 0002:000002d8       ??_C@_0BN@FKKHOKFJ@Failed?5to?5reset?5the?5port?5?$CFd?6@ 0000000000009718     AtaAtapiPassThruDxe:AhciMode.obj
 0002:000002f8       ??_C@_0CJ@BCNKNPBM@AHCI?3?5Error?5interrupt?5reported?5@ 0000000000009738     AtaAtapiPassThruDxe:AhciMode.obj
 0002:00000328       ??_C@_0BE@FFNMKGEM@ATA?5COMMAND?5BLOCK?3?6@ 0000000000009768     AtaAtapiPassThruDxe:AhciMode.obj
 0002:00000340       ??_C@_0BA@FMAFMIJP@AtaCommand?3?5?$CFd?6@ 0000000000009780     AtaAtapiPassThruDxe:AhciMode.obj
 0002:00000350       ??_C@_0BB@KLPLBHNL@AtaFeatures?3?5?$CFX?6@ 0000000000009790     AtaAtapiPassThruDxe:AhciMode.obj
 0002:00000368       ??_C@_0BF@CIIAGMPJ@AtaSectorNumber?3?5?$CFd?6@ 00000000000097a8     AtaAtapiPassThruDxe:AhciMode.obj
 0002:00000380       ??_C@_0BE@GPFLLDDI@AtaCylinderLow?3?5?$CFX?6@ 00000000000097c0     AtaAtapiPassThruDxe:AhciMode.obj
 0002:00000398       ??_C@_0BF@PMECDHPA@AtaCylinderHigh?3?5?$CFX?6@ 00000000000097d8     AtaAtapiPassThruDxe:AhciMode.obj
 0002:000003b0       ??_C@_0BD@FJDAPMOI@AtaDeviceHead?3?5?$CFd?6@ 00000000000097f0     AtaAtapiPassThruDxe:AhciMode.obj
 0002:000003c8       ??_C@_0BI@NJPJEHMD@AtaSectorNumberExp?3?5?$CFd?6@ 0000000000009808     AtaAtapiPassThruDxe:AhciMode.obj
 0002:000003e0       ??_C@_0BH@PMLCFN@AtaCylinderLowExp?3?5?$CFX?6@ 0000000000009820     AtaAtapiPassThruDxe:AhciMode.obj
 0002:000003f8       ??_C@_0BI@KEMEIALJ@AtaCylinderHighExp?3?5?$CFX?6@ 0000000000009838     AtaAtapiPassThruDxe:AhciMode.obj
 0002:00000410       ??_C@_0BE@LHOFAGGF@AtaFeaturesExp?3?5?$CFX?6@ 0000000000009850     AtaAtapiPassThruDxe:AhciMode.obj
 0002:00000428       ??_C@_0BE@GMKEOGJC@AtaSectorCount?3?5?$CFd?6@ 0000000000009868     AtaAtapiPassThruDxe:AhciMode.obj
 0002:00000440       ??_C@_0BH@GABEPHFG@AtaSectorCountExp?3?5?$CFd?6@ 0000000000009880     AtaAtapiPassThruDxe:AhciMode.obj
 0002:00000458       ??_C@_0BD@FMBCEOAH@ATA?5STATUS?5BLOCK?3?6@ 0000000000009898     AtaAtapiPassThruDxe:AhciMode.obj
 0002:00000470       ??_C@_0P@JCDDLNOF@AtaStatus?3?5?$CFd?6@ 00000000000098b0     AtaAtapiPassThruDxe:AhciMode.obj
 0002:00000480       ??_C@_0O@IEHPABDB@AtaError?3?5?$CFd?6@ 00000000000098c0     AtaAtapiPassThruDxe:AhciMode.obj
 0002:00000490       ??_C@_0CE@EKOAHAPA@Starting?5command?5for?5PIO?5transf@ 00000000000098d0     AtaAtapiPassThruDxe:AhciMode.obj
 0002:000004b8       ??_C@_0CA@NOEGOAFK@PIO?5command?5failed?5at?5retry?5?$CFd?6@ 00000000000098f8     AtaAtapiPassThruDxe:AhciMode.obj
 0002:000004d8       ??_C@_0CN@LBHODCPO@Failed?5to?5execute?5command?5for?5P@ 0000000000009918     AtaAtapiPassThruDxe:AhciMode.obj
 0002:00000508       ??_C@_0CJ@OFAIOMND@Starting?5command?5for?5sync?5DMA?5t@ 0000000000009948     AtaAtapiPassThruDxe:AhciMode.obj
 0002:00000538       ??_C@_0CB@FICHAPEF@DMA?5command?5failed?5at?5retry?3?5?$CFd@ 0000000000009978     AtaAtapiPassThruDxe:AhciMode.obj
 0002:00000560       ??_C@_0CK@ODFDLAAD@Starting?5command?5for?5async?5DMA?5@ 00000000000099a0     AtaAtapiPassThruDxe:AhciMode.obj
 0002:00000590       ??_C@_0CN@JMCKELHJ@Failed?5to?5execute?5command?5for?5D@ 00000000000099d0     AtaAtapiPassThruDxe:AhciMode.obj
 0002:000005c0       ??_C@_0CJ@MECOIFFL@Starting?5command?5for?5non?5data?5t@ 0000000000009a00     AtaAtapiPassThruDxe:AhciMode.obj
 0002:000005f0       ??_C@_0CG@IGOEKLAI@Non?5data?5transfer?5failed?5at?5ret@ 0000000000009a30     AtaAtapiPassThruDxe:AhciMode.obj
 0002:00000618       ??_C@_0DC@EKMGAGAA@Failed?5to?5execute?5command?5for?5n@ 0000000000009a58     AtaAtapiPassThruDxe:AhciMode.obj
 0002:00000650       ??_C@_0DM@BIALJCJN@The?5S?4M?4A?4R?4T?5threshold?5exceede@ 0000000000009a90     AtaAtapiPassThruDxe:AhciMode.obj
 0002:00000690       ??_C@_0DI@GJOGFJCJ@The?5S?4M?4A?4R?4T?5threshold?5exceede@ 0000000000009ad0     AtaAtapiPassThruDxe:AhciMode.obj
 0002:000006d0       ??_C@_0EG@BPMDGPHA@S?4M?4A?4R?4T?5feature?5is?5not?5suppor@ 0000000000009b10     AtaAtapiPassThruDxe:AhciMode.obj
 0002:00000718       ??_C@_0DN@OJCBAOBK@Enabled?5S?4M?4A?4R?4T?5feature?5at?5po@ 0000000000009b58     AtaAtapiPassThruDxe:AhciMode.obj
 0002:00000758       ??_C@_0BJ@BGCNBJEC@AHCI?5CAPABILITY2?5?$DN?5?$CF08x?6@ 0000000000009b98     AtaAtapiPassThruDxe:AhciMode.obj
 0002:00000778       ??_C@_0BP@FLHCGBJE@Port?5CMD?1DEVSLP?5?$DN?5?$CF08x?5?1?5?$CF08x?6@ 0000000000009bb8     AtaAtapiPassThruDxe:AhciMode.obj
 0002:00000798       ??_C@_0DI@NPDAMADO@IDENTIFY?5DEVICE?3?5?$FL77?$FN?5?$DN?5?$CF04x?0?5?$FL@ 0000000000009bd8     AtaAtapiPassThruDxe:AhciMode.obj
 0002:000007d0       ??_C@_0EO@NOBLCLFA@DevSlp?5feature?5is?5not?5supported@ 0000000000009c10     AtaAtapiPassThruDxe:AhciMode.obj
 0002:00000820       ??_C@_0EF@LGHLHJPH@DevSlp?5set?5feature?5for?5device?5a@ 0000000000009c60     AtaAtapiPassThruDxe:AhciMode.obj
 0002:00000868       ??_C@_0DE@ILCHDKEG@Read?5Log?5Ext?5at?5port?5?$FL?$CFd?$FN?5PortM@ 0000000000009ca8     AtaAtapiPassThruDxe:AhciMode.obj
 0002:000008a0       ??_C@_0DB@MEGMMEMN@DevSlpTiming?3?5Supported?$CI?$CFd?$CJ?0?5De@ 0000000000009ce0     AtaAtapiPassThruDxe:AhciMode.obj
 0002:000008e0       ??_C@_0FI@MKNPLLNE@Enabled?5DevSlp?5feature?5at?5port?5@ 0000000000009d20     AtaAtapiPassThruDxe:AhciMode.obj
 0002:00000940       ??_C@_0EO@NMNMFMJK@CMD_PUIS_SET_DEVICE_SPINUP?5for?5@ 0000000000009d80     AtaAtapiPassThruDxe:AhciMode.obj
 0002:00000990       ??_C@_0DA@EBGMGAFO@IdentifyData?9?$DOAtaData?4specific_@ 0000000000009dd0     AtaAtapiPassThruDxe:AhciMode.obj
 0002:000009c0       ??_C@_0DO@DNBPELFA@Read?5LBA?50?5for?5device?5at?5port?5?$FL@ 0000000000009e00     AtaAtapiPassThruDxe:AhciMode.obj
 0002:00000a00       ??_C@_0ED@DGKNNPKI@Read?5IDD?5failed?5for?5device?5at?5p@ 0000000000009e40     AtaAtapiPassThruDxe:AhciMode.obj
 0002:00000a50       ??_C@_0EH@IBMCBEOD@IDENTIFY?5DEVICE?3?5?$FL0?$FN?5?$DN?5?$CF016x?0?5?$FL@ 0000000000009e90     AtaAtapiPassThruDxe:AhciMode.obj
 0002:00000a98       ??_C@_07MIKIFGAL@Disable@  0000000000009ed8     AtaAtapiPassThruDxe:AhciMode.obj
 0002:00000aa0       ??_C@_06CKGENIKG@Enable@   0000000000009ee0     AtaAtapiPassThruDxe:AhciMode.obj
 0002:00000aa8       ??_C@_04MCHAEEKC@Skip@     0000000000009ee8     AtaAtapiPassThruDxe:AhciMode.obj
 0002:00000ab0       ??_C@_0DI@DPKPPIFP@?$CFa?5PUIS?5feature?5at?5port?5?$FL?$CFd?$FN?5Po@ 0000000000009ef0     AtaAtapiPassThruDxe:AhciMode.obj
 0002:00000af0       ??_C@_0FH@GPMDEPCN@AhciModeInitialization?3?5failed?5@ 0000000000009f30     AtaAtapiPassThruDxe:AhciMode.obj
 0002:00000b48       ??_C@_0BC@FEDIJHFF@?$CI?$CIBOOLEAN?$CJ?$CI0?$DN?$DN1?$CJ?$CJ@ 0000000000009f88     AtaAtapiPassThruDxe:AhciMode.obj
 0002:00000b60       ??_C@_0CE@LDOHCBHC@Spin?5up?5standby?5device?5failed?5?9@ 0000000000009fa0     AtaAtapiPassThruDxe:AhciMode.obj
 0002:00000b84       ??_C@_05POABADMF@cdrom@    0000000000009fc4     AtaAtapiPassThruDxe:AhciMode.obj
 0002:00000b90       ??_C@_08PALMOJOH@harddisk@ 0000000000009fd0     AtaAtapiPassThruDxe:AhciMode.obj
 0002:00000ba0       ??_C@_0CM@KHHIKCIO@port?5?$FL?$CFd?$FN?5port?5multitplier?5?$FL?$CFd?$FN@ 0000000000009fe0     AtaAtapiPassThruDxe:AhciMode.obj
 0002:00000bd0       ??_C@_0CC@GGCKBEOK@Calculate?5Mode?5Fail?0?5Status?5?$DN?5?$CF@ 000000000000a010     AtaAtapiPassThruDxe:AhciMode.obj
 0002:00000bf8       ??_C@_0CF@ONEKJMPC@Set?5transfer?5Mode?5Fail?0?5Status?5@ 000000000000a038     AtaAtapiPassThruDxe:AhciMode.obj
 0002:00000c20       ??_C@_0CJ@NBDDGPEK@PUIS?5enable?1disable?5failed?0?5Sta@ 000000000000a060     AtaAtapiPassThruDxe:AhciMode.obj
 0002:00000c50       ??_C@_0DN@HKGFLENH@d?3?2edk2?2edk2?2MdeModulePkg?2Bus?2A@ 000000000000a090     AtaAtapiPassThruDxe:IdeMode.obj
 0002:00000c90       ??_C@_0BH@IACGKAP@Buffer?5?$CB?$DN?5?$CI?$CIvoid?5?$CK?$CJ?50?$CJ@ 000000000000a0d0     AtaAtapiPassThruDxe:IdeMode.obj
 0002:00000ca8       ??_C@_0BN@PBAGALLH@IdeRegisters?5?$CB?$DN?5?$CI?$CIvoid?5?$CK?$CJ?50?$CJ@ 000000000000a0e8     AtaAtapiPassThruDxe:IdeMode.obj
 0002:00000cc8       ??_C@_0DE@DMPLFKLN@CheckRegisterStatus?$CI?$CJ?9?9?5?$CF02x?5?3?5@ 000000000000a108     AtaAtapiPassThruDxe:IdeMode.obj
 0002:00000d00       ??_C@_0DH@FEGNNJML@CheckRegisterStatus?$CI?$CJ?9?9?5?$CF02x?5?3?5@ 000000000000a140     AtaAtapiPassThruDxe:IdeMode.obj
 0002:00000d38       ??_C@_0DL@KGNJKAMB@CheckRegisterStatus?$CI?$CJ?9?9?5?$CF02x?5?3?5@ 000000000000a178     AtaAtapiPassThruDxe:IdeMode.obj
 0002:00000d78       ??_C@_0DL@GJFPLKNG@CheckRegisterStatus?$CI?$CJ?9?9?5?$CF02x?5?3?5@ 000000000000a1b8     AtaAtapiPassThruDxe:IdeMode.obj
 0002:00000db8       ??_C@_0DF@POAMJOPK@CheckRegisterStatus?$CI?$CJ?9?9?5?$CF02x?5?3?5@ 000000000000a1f8     AtaAtapiPassThruDxe:IdeMode.obj
 0002:00000df0       ??_C@_0CO@PANIFIFC@CheckRegisterStatus?$CI?$CJ?9?9?5?$CF02x?5?3?5@ 000000000000a230     AtaAtapiPassThruDxe:IdeMode.obj
 0002:00000e20       ??_C@_0DK@KDJEIFAM@CheckRegisterStatus?$CI?$CJ?9?9?5?$CF02x?5?3?5@ 000000000000a260     AtaAtapiPassThruDxe:IdeMode.obj
 0002:00000e60       ??_C@_0DP@FHOJHGEF@CheckRegisterStatus?$CI?$CJ?9?9?5?$CF02x?5?3?5@ 000000000000a2a0     AtaAtapiPassThruDxe:IdeMode.obj
 0002:00000ea0       ??_C@_0CA@LDLEOENP@AtaCommandBlock?5?$CB?$DN?5?$CI?$CIvoid?5?$CK?$CJ?50?$CJ@ 000000000000a2e0     AtaAtapiPassThruDxe:IdeMode.obj
 0002:00000ec0       ??_C@_0BK@KEBEKLPO@ATA?5UDMA?5operation?5fails?6@ 000000000000a300     AtaAtapiPassThruDxe:IdeMode.obj
 0002:00000ee0       ??_C@_0BK@MGNDMAKE@RealPageCount?5?$DO?5PageCount@ 000000000000a320     AtaAtapiPassThruDxe:IdeMode.obj
 0002:00000f00       ??_C@_0BO@MKAHNPBE@?$CIBufferMapAddress?5?$CG?50x1?$CJ?5?$DN?$DN?50@ 000000000000a340     AtaAtapiPassThruDxe:IdeMode.obj
 0002:00000f20       ??_C@_0BH@HIHPLAJL@?$CIByteCount?5?$CG?50x1?$CJ?5?$DN?$DN?50@ 000000000000a360     AtaAtapiPassThruDxe:IdeMode.obj
 0002:00000f38       ??_C@_05FECFKABJ@slave@    000000000000a378     AtaAtapiPassThruDxe:IdeMode.obj
 0002:00000f40       ??_C@_06ECGAGODA@master@   000000000000a380     AtaAtapiPassThruDxe:IdeMode.obj
 0002:00000f48       ??_C@_09EADLKHON@secondary@ 000000000000a388     AtaAtapiPassThruDxe:IdeMode.obj
 0002:00000f58       ??_C@_07CJDBHDIN@primary@  000000000000a398     AtaAtapiPassThruDxe:IdeMode.obj
 0002:00000f60       ??_C@_0EB@JEODCBJI@S?4M?4A?4R?4T?5feature?5is?5not?5suppor@ 000000000000a3a0     AtaAtapiPassThruDxe:IdeMode.obj
 0002:00000fa8       ??_C@_0DI@IGHDPKJH@Enabled?5S?4M?4A?4R?4T?5feature?5at?5?$FL?$CF@ 000000000000a3e8     AtaAtapiPassThruDxe:IdeMode.obj
 0002:00000fe0       ??_C@_0FE@NGINKIOM@New?5detecting?5method?3?5Send?5Exec@ 000000000000a420     AtaAtapiPassThruDxe:IdeMode.obj
 0002:00001038       ??_C@_08MGLFPKHM@cdrom?5?5?5@ 000000000000a478     AtaAtapiPassThruDxe:IdeMode.obj
 0002:00001044       ??_C@_06PBLLKJMC@slave?5@  000000000000a484     AtaAtapiPassThruDxe:IdeMode.obj
 0002:00001050       ??_C@_09OKOIINPD@primary?5?5@ 000000000000a490     AtaAtapiPassThruDxe:IdeMode.obj
 0002:00001060       ??_C@_0BP@FPLKOKIB@?$FL?$CFa?$FN?5channel?5?$FL?$CFa?$FN?5?$FL?$CFa?$FN?5device?6@ 000000000000a4a0     AtaAtapiPassThruDxe:IdeMode.obj
 0002:00001080       ??_C@_0BI@CHLGLNHM@?$FLGetChannel?0?5Status?$DN?$CFx?$FN@ 000000000000a4c0     AtaAtapiPassThruDxe:IdeMode.obj
 0002:00001098       ??_C@_0BA@HEEHNPAK@MaxDevices?5?$DM?$DN?52@ 000000000000a4d8     AtaAtapiPassThruDxe:IdeMode.obj
 0002:000010a8       ??_C@_06DALJLGPG@eng?$DLen@ 000000000000a4e8     AtaAtapiPassThruDxe:ComponentName.obj
 0002:000010b0       ??_C@_1DA@EOBAEKJJ@?$AAA?$AAt?$AAa?$AAA?$AAt?$AAa?$AAp?$AAi?$AAP?$AAa?$AAs?$AAs?$AAT?$AAh?$AAr@ 000000000000a4f0     AtaAtapiPassThruDxe:ComponentName.obj
 0002:000010e0       ??_C@_1BO@KOEKNILH@?$AAI?$AAD?$AAE?$AA?5?$AAC?$AAo?$AAn?$AAt?$AAr?$AAo?$AAl?$AAl?$AAe?$AAr@ 000000000000a520     AtaAtapiPassThruDxe:ComponentName.obj
 0002:00001100       ??_C@_1CA@HECPKGJI@?$AAA?$AAH?$AAC?$AAI?$AA?5?$AAC?$AAo?$AAn?$AAt?$AAr?$AAo?$AAl?$AAl?$AAe?$AAr@ 000000000000a540     AtaAtapiPassThruDxe:ComponentName.obj
 0002:00001120       ??_C@_03LKLGDMJI@eng@      000000000000a560     AtaAtapiPassThruDxe:ComponentName.obj
 0002:00001124       ??_C@_02LFNMGJAP@en@       000000000000a564     AtaAtapiPassThruDxe:ComponentName.obj
 0002:00001130       ??_C@_0ED@GKCPLBGI@d?3?2edk2?2edk2?2MdeModulePkg?2Bus?2A@ 000000000000a570     AtaAtapiPassThruDxe:ComponentName.obj
 0002:00001178       ??_C@_0BF@NJNGJMPC@List?5?$CB?$DN?5?$CI?$CIvoid?5?$CK?$CJ?50?$CJ@ 000000000000a5b8     BaseLib:LinkedList.obj
 0002:00001190       ??_C@_0DB@MIDNNFCL@d?3?2edk2?2edk2?2MdePkg?2Library?2Bas@ 000000000000a5d0     BaseLib:LinkedList.obj
 0002:000011c8       ??_C@_0CC@KDLPLAED@List?9?$DOForwardLink?5?$CB?$DN?5?$CI?$CIvoid?5?$CK?$CJ?5@ 000000000000a608     BaseLib:LinkedList.obj
 0002:000011f0       ??_C@_0BP@IJJCCMAK@List?9?$DOBackLink?5?$CB?$DN?5?$CI?$CIvoid?5?$CK?$CJ?50?$CJ@ 000000000000a630     BaseLib:LinkedList.obj
 0002:00001210       ??_C@_0BJ@NJABNCDK@ListHead?5?$CB?$DN?5?$CI?$CIvoid?5?$CK?$CJ?50?$CJ@ 000000000000a650     BaseLib:LinkedList.obj
 0002:00001230       ??_C@_0CG@LGIALJFK@InternalBaseLibIsListValid?5?$CILis@ 000000000000a670     BaseLib:LinkedList.obj
 0002:00001258       ??_C@_0CC@JLDICICM@InternalBaseLibIsListValid?5?$CILis@ 000000000000a698     BaseLib:LinkedList.obj
 0002:00001280       ??_C@_0BF@NMBJJECB@?$CBIsListEmpty?5?$CIEntry?$CJ@ 000000000000a6c0     BaseLib:LinkedList.obj
 0002:00001298       ??_C@_0N@KGHEHMDL@Divisor?5?$CB?$DN?50@ 000000000000a6d8     BaseLib:DivU64x32.obj
 0002:000012b0       ??_C@_0ED@MKGCMJG@?$CILength?5?9?51?$CJ?5?$DM?$DN?5?$CI0xFFFFFFFFFFFF@ 000000000000a6f0     BaseMemoryLibRepStr:CopyMemWrapper.obj
 0002:00001300       ??_C@_0EB@LOHEEPCE@d?3?2edk2?2edk2?2MdePkg?2Library?2Bas@ 000000000000a740     BaseMemoryLibRepStr:CopyMemWrapper.obj
 0002:00001348       ??_C@_0DO@MAOBOFEG@?$CILength?5?9?51?$CJ?5?$DM?$DN?5?$CI0xFFFFFFFFFFFF@ 000000000000a788     BaseMemoryLibRepStr:CopyMemWrapper.obj
 0002:00001390       ??_C@_0EB@KNGCOOD@d?3?2edk2?2edk2?2MdePkg?2Library?2Bas@ 000000000000a7d0     BaseMemoryLibRepStr:ZeroMemWrapper.obj
 0002:000013d8       ??_C@_0DG@EEENIGGL@Length?5?$DM?$DN?5?$CI0xFFFFFFFFFFFFFFFFUL@ 000000000000a818     BaseMemoryLibRepStr:ZeroMemWrapper.obj
 0002:00001410       ??_C@_0CC@JOEHDGKB@DestinationBuffer?5?$CB?$DN?5?$CI?$CIvoid?5?$CK?$CJ?5@ 000000000000a850     BaseMemoryLibRepStr:CompareMemWrapper.obj
 0002:00001440       ??_C@_0EE@JHMFOHJP@d?3?2edk2?2edk2?2MdePkg?2Library?2Bas@ 000000000000a880     BaseMemoryLibRepStr:CompareMemWrapper.obj
 0002:00001488       ??_C@_0BN@MDMCNBCC@SourceBuffer?5?$CB?$DN?5?$CI?$CIvoid?5?$CK?$CJ?50?$CJ@ 000000000000a8c8     BaseMemoryLibRepStr:CompareMemWrapper.obj
 0002:000014a8       ??_C@_0DI@DAGDPLPG@?$CILength?5?9?51?$CJ?5?$DM?$DN?5?$CI0xFFFFFFFFFFFF@ 000000000000a8e8     BaseMemoryLibRepStr:SetMemWrapper.obj
 0002:000014e0       ??_C@_0EA@JBMLOGBO@d?3?2edk2?2edk2?2MdePkg?2Library?2Bas@ 000000000000a920     BaseMemoryLibRepStr:SetMemWrapper.obj
 0002:00001520       ??_C@_0BH@LKMBFCBF@Format?5?$CB?$DN?5?$CI?$CIvoid?5?$CK?$CJ?50?$CJ@ 000000000000a960     BaseDebugLibSerialPort:DebugLib.obj
 0002:00001538       ??_C@_0DO@CKBIDOOL@d?3?2edk2?2edk2?2MdePkg?2Library?2Bas@ 000000000000a978     BaseDebugLibSerialPort:DebugLib.obj
 0002:00001578       ??_C@_0BI@NOCKJDBJ@ASSERT?5?$FL?$CFa?$FN?5?$CFa?$CI?$CFd?$CJ?3?5?$CFa?6@ 000000000000a9b8     BaseDebugLibSerialPort:DebugLib.obj
 0002:00001590       ??_C@_0BN@COECPDCC@gImageHandle?5?$CB?$DN?5?$CI?$CIvoid?5?$CK?$CJ?50?$CJ@ 000000000000a9d0     UefiBootServicesTableLib:UefiBootServicesTableLib.obj
 0002:000015b0       ??_C@_0FA@FOIHGFBE@d?3?2edk2?2edk2?2MdePkg?2Library?2Uef@ 000000000000a9f0     UefiBootServicesTableLib:UefiBootServicesTableLib.obj
 0002:00001600       ??_C@_0BE@DGNHAHIL@gST?5?$CB?$DN?5?$CI?$CIvoid?5?$CK?$CJ?50?$CJ@ 000000000000aa40     UefiBootServicesTableLib:UefiBootServicesTableLib.obj
 0002:00001618       ??_C@_0BE@BDFJLGLN@gBS?5?$CB?$DN?5?$CI?$CIvoid?5?$CK?$CJ?50?$CJ@ 000000000000aa58     UefiBootServicesTableLib:UefiBootServicesTableLib.obj
 0002:00001630       ??_C@_0EK@GCCICMAJ@d?3?2edk2?2edk2?2MdePkg?2Library?2Uef@ 000000000000aa70     UefiMemoryAllocationLib:MemoryAllocationLib.obj
 0002:00001680       ??_C@_0CD@GECBLADO@?$CIAlignment?5?$CG?5?$CIAlignment?5?9?51?$CJ?$CJ?5?$DN@ 000000000000aac0     UefiMemoryAllocationLib:MemoryAllocationLib.obj
 0002:000016a8       ??_C@_0BC@BDMGDFME@RealPages?5?$DO?5Pages@ 000000000000aae8     UefiMemoryAllocationLib:MemoryAllocationLib.obj
 0002:000016c0       ??_C@_0DO@GEEICOOO@AllocationSize?5?$DM?$DN?5?$CI0xFFFFFFFFFF@ 000000000000ab00     UefiMemoryAllocationLib:MemoryAllocationLib.obj
 0002:00001700       ??_C@_0BE@OBDFIHND@gRT?5?$CB?$DN?5?$CI?$CIvoid?5?$CK?$CJ?50?$CJ@ 000000000000ab40     UefiRuntimeServicesTableLib:UefiRuntimeServicesTableLib.obj
 0002:00001720       ??_C@_0FG@JGJCMPKB@d?3?2edk2?2edk2?2MdePkg?2Library?2Uef@ 000000000000ab60     UefiRuntimeServicesTableLib:UefiRuntimeServicesTableLib.obj
 0002:00001780       ??_C@_0FE@ELFDCAAP@d?3?2edk2?2edk2?2MdePkg?2Library?2Uef@ 000000000000abc0     UefiDevicePathLibDevicePathProtocol:UefiDevicePathLib.obj
 0002:000017d8       ??_C@_0DC@CNNBPJA@mDevicePathLibDevicePathUtiliti@ 000000000000ac18     UefiDevicePathLibDevicePathProtocol:UefiDevicePathLib.obj
 0002:00001810       ??_C@_0BF@CBLMFKOC@Node?5?$CB?$DN?5?$CI?$CIvoid?5?$CK?$CJ?50?$CJ@ 000000000000ac50     UefiDevicePathLibDevicePathProtocol:UefiDevicePathLib.obj
 0002:00001828       ??_C@_0DG@PIJIOFBF@d?3?2edk2?2edk2?2MdePkg?2Library?2Uef@ 000000000000ac68     UefiLib:UefiDriverModel.obj
 0002:00001860       ??_C@_0BI@HAGPDMHJ@AcpiTimerLibConstructor@ 000000000000aca0     DxeAcpiTimerLib:DxeAcpiTimerLib.obj
 0002:00001878       ??_C@_0CL@DGCOIACG@?$CFa?3?5Unknown?5Host?5Bridge?5Device?5@ 000000000000acb8     DxeAcpiTimerLib:DxeAcpiTimerLib.obj
 0002:000018a8       ??_C@_0DM@NIEBGAOD@d?3?2edk2?2edk2?2OvmfPkg?2Library?2Ac@ 000000000000ace8     DxeAcpiTimerLib:DxeAcpiTimerLib.obj
 0002:000018e8       ??_C@_0DC@FABBJIGJ@d?3?2edk2?2edk2?2MdePkg?2Library?2Dxe@ 000000000000ad28     DxePcdLib:DxePcdLib.obj
 0002:00001920       ??_C@_0BF@OOKDELHM@mPcd?5?$CB?$DN?5?$CI?$CIvoid?5?$CK?$CJ?50?$CJ@ 000000000000ad60     DxePcdLib:DxePcdLib.obj
 0002:00001938       ??_C@_0BH@MAAHKCPC@String?5?$CB?$DN?5?$CI?$CIvoid?5?$CK?$CJ?50?$CJ@ 000000000000ad78     BaseLib:String.obj
 0002:00001950       ??_C@_0CN@LHBFELAO@d?3?2edk2?2edk2?2MdePkg?2Library?2Bas@ 000000000000ad90     BaseLib:String.obj
 0002:00001980       ??_C@_0CC@GFNLNIOC@?$CI?$CIUINTN?$CJString?5?$CG?50x00000001?$CJ?5?$DN?$DN@ 000000000000adc0     BaseLib:String.obj
 0002:000019a8       ??_C@_0DI@MDIKFADO@Length?5?$DM?5_gPcd_FixedAtBuild_Pcd@ 000000000000ade8     BaseLib:String.obj
 0002:000019e0       ??_C@_0BL@IKFBNFIL@AsciiStrSize?5?$CIFirstString?$CJ@ 000000000000ae20     BaseLib:String.obj
 0002:00001a00       ??_C@_0BM@EDNOKLLE@AsciiStrSize?5?$CISecondString?$CJ@ 000000000000ae40     BaseLib:String.obj
 0002:00001a20       ??_C@_0DJ@JJHGIFMP@Length?5?$DM?$DN?5_gPcd_FixedAtBuild_Pc@ 000000000000ae60     BaseLib:String.obj
 0002:00001a60       ??_C@_0DA@BDDONMJM@d?3?2edk2?2edk2?2MdePkg?2Library?2Bas@ 000000000000aea0     BaseLib:Unaligned.obj
 0002:00001a90       ??_C@_0DJ@FHIMIJAH@d?3?2edk2?2edk2?2MdePkg?2Library?2Bas@ 000000000000aed0     BaseLib:DivU64x32Remainder.obj
 0002:00001ad0       ??_C@_0DB@PKFMPMPC@d?3?2edk2?2edk2?2MdePkg?2Library?2Bas@ 000000000000af10     BaseLib:SafeString.obj
 0002:00001b08       ??_C@_0BJ@CNKJJNE@?$CIBuffer?5?$CB?$DN?5?$CI?$CIvoid?5?$CK?$CJ?50?$CJ?$CJ@ 000000000000af48     BaseLib:SafeString.obj
 0002:00001b28       ??_C@_0DK@HAPDFBOC@d?3?2edk2?2edk2?2MdePkg?2Library?2Bas@ 000000000000af68     BaseIoLibIntrinsicSev:IoLibMsc.obj
 0002:00001b68       ??_C@_0BA@HCECIDGN@?$CIPort?5?$CG?53?$CJ?5?$DN?$DN?50@ 000000000000afa8     BaseIoLibIntrinsicSev:IoLibMsc.obj
 0002:00001b78       ??_C@_0DM@OAJIKNNG@d?3?2edk2?2edk2?2MdePkg?2Library?2Bas@ 000000000000afb8     BasePrintLib:PrintLibInternal.obj
 0002:00001bc0       ??_C@_0EB@HDGIDCIO@?$CIBufferSize?5?$DM?$DN?5?$CI_gPcd_FixedAtBu@ 000000000000b000     BasePrintLib:PrintLibInternal.obj
 0002:00001c08       ??_C@_0BJ@PPAKKDJG@?$CIFormat?5?$CB?$DN?5?$CI?$CIvoid?5?$CK?$CJ?50?$CJ?$CJ@ 000000000000b048     BasePrintLib:PrintLibInternal.obj
 0002:00001c30       ??_C@_0ED@LPDDCECB@?$CIBufferSize?5?$DM?$DN?5?$CI_gPcd_FixedAtBu@ 000000000000b070     BasePrintLib:PrintLibInternal.obj
 0002:00001c80       ??_C@_0IM@BFJJFLGB@?$CIStrnLenS?5?$CI?$CICHAR16?5?$CK?$CJFormat?0?5?$CI_@ 000000000000b0c0     BasePrintLib:PrintLibInternal.obj
 0002:00001d10       ??_C@_0ID@PLGJGION@?$CIAsciiStrnLenS?5?$CIFormat?0?5?$CI_gPcd_@ 000000000000b150     BasePrintLib:PrintLibInternal.obj
 0002:00001d98       ??_C@_0O@MLOLIMFM@?$DMnull?5string?$DO@ 000000000000b1d8     BasePrintLib:PrintLibInternal.obj
 0002:00001da8       ??_C@_0M@BJJDNPHK@?$DMnull?5guid?$DO@ 000000000000b1e8     BasePrintLib:PrintLibInternal.obj
 0002:00001db8       ??_C@_0DB@PMLHLBMO@?$CF08x?9?$CF04x?9?$CF04x?9?$CF02x?$CF02x?9?$CF02x?$CF02@ 000000000000b1f8     BasePrintLib:PrintLibInternal.obj
 0002:00001df0       ??_C@_0M@LHGBCIKM@?$DMnull?5time?$DO@ 000000000000b230     BasePrintLib:PrintLibInternal.obj
 0002:00001e00       ??_C@_0BK@FCPKCIDD@?$CF02d?1?$CF02d?1?$CF04d?5?5?$CF02d?3?$CF02d@ 000000000000b240     BasePrintLib:PrintLibInternal.obj
 0002:00001e1c       ??_C@_04JIMNDDED@?$CF08X@  000000000000b25c     BasePrintLib:PrintLibInternal.obj
 0002:00001e24       ??_C@_02PCIJFNDE@?$AN?6@   000000000000b264     BasePrintLib:PrintLibInternal.obj
 0002:00001e28       ??_C@_01LIIJDEN@?$AN@      000000000000b268     BasePrintLib:PrintLibInternal.obj
 0002:00001e30       mWarningString             000000000000b270     BasePrintLib:PrintLibInternal.obj
 0002:00001ed0       mErrorString               000000000000b310     BasePrintLib:PrintLibInternal.obj
 0002:00002190       mHexStr                    000000000000b5d0     BasePrintLib:PrintLibInternal.obj
 0002:000021a0       ??_C@_0BO@BAKALPJK@?$CI?$CIAddress?$CJ?5?$CG?5?$HO0xfffffff?$CJ?5?$DN?$DN?50@ 000000000000b5e0     BasePciExpressLib:PciExpressLib.obj
 0002:000021c0       ??_C@_0DO@IIAFMEOI@d?3?2edk2?2edk2?2MdePkg?2Library?2Bas@ 000000000000b600     BasePciExpressLib:PciExpressLib.obj
 0002:00002200       ??_C@_0DG@KOAEBPEO@d?3?2edk2?2edk2?2MdePkg?2Library?2Bas@ 000000000000b640     BasePciCf8Lib:PciCf8Lib.obj
 0002:00002238       ??_C@_0CG@EDKLCMBO@?$CI?$CIAddress?$CJ?5?$CG?5?$CI?$HO0xffff0ff?5?$HM?5?$CI3?$CJ?$CJ@ 000000000000b678     BasePciCf8Lib:PciCf8Lib.obj
 0002:00002260       ??_C@_0DH@FEKOHHMP@d?3?2edk2?2edk2?2MdePkg?2Library?2Bas@ 000000000000b6a0     BaseIoLibIntrinsicSev:IoLib.obj
 0002:00002298       ??_C@_0BD@OMMAJMCK@?$CIAddress?5?$CG?53?$CJ?5?$DN?$DN?50@ 000000000000b6d8     BaseIoLibIntrinsicSev:IoLib.obj
 0002:00002300       __volatile_metadata        000000000000b740     <linker-defined>
 0003:00000000       gEfiStatusCodeRuntimeProtocolGuid 000000000000b8e0     AtaAtapiPassThruDxe:AutoGen.obj
 0003:00000010       gEfiExtScsiPassThruProtocolGuid 000000000000b8f0     AtaAtapiPassThruDxe:AutoGen.obj
 0003:00000020       gEfiAtaPassThruProtocolGuid 000000000000b900     AtaAtapiPassThruDxe:AutoGen.obj
 0003:00000030       gEfiComponentName2ProtocolGuid 000000000000b910     AtaAtapiPassThruDxe:AutoGen.obj
 0003:00000040       gPcdProtocolGuid           000000000000b920     AtaAtapiPassThruDxe:AutoGen.obj
 0003:00000050       gEfiDevicePathProtocolGuid 000000000000b930     AtaAtapiPassThruDxe:AutoGen.obj
 0003:00000060       gEfiPciIoProtocolGuid      000000000000b940     AtaAtapiPassThruDxe:AutoGen.obj
 0003:00000070       gEfiDevicePathUtilitiesProtocolGuid 000000000000b950     AtaAtapiPassThruDxe:AutoGen.obj
 0003:00000080       gEdkiiAtaAtapiPolicyProtocolGuid 000000000000b960     AtaAtapiPassThruDxe:AutoGen.obj
 0003:00000090       gEfiDriverBindingProtocolGuid 000000000000b970     AtaAtapiPassThruDxe:AutoGen.obj
 0003:000000a0       gEfiIdeControllerInitProtocolGuid 000000000000b980     AtaAtapiPassThruDxe:AutoGen.obj
 0003:000000b0       gEfiComponentNameProtocolGuid 000000000000b990     AtaAtapiPassThruDxe:AutoGen.obj
 0003:000000c0       gEfiCallerIdGuid           000000000000b9a0     AtaAtapiPassThruDxe:AutoGen.obj
 0003:000000d0       mAtapiDevicePathTemplate   000000000000b9b0     AtaAtapiPassThruDxe:AtaAtapiPassThru.obj
 0003:000000e0       gAtaAtapiPassThruInstanceTemplate 000000000000b9c0     AtaAtapiPassThruDxe:AtaAtapiPassThru.obj
 0003:00000270       mSataDevicePathTemplate    000000000000bb50     AtaAtapiPassThruDxe:AtaAtapiPassThru.obj
 0003:00000280       mScsiId                    000000000000bb60     AtaAtapiPassThruDxe:AtaAtapiPassThru.obj
 0003:00000290       mDefaultAtaAtapiPolicy     000000000000bb70     AtaAtapiPassThruDxe:AtaAtapiPassThru.obj
 0003:00000298       gAtaAtapiPassThruDriverBinding 000000000000bb78     AtaAtapiPassThruDxe:AtaAtapiPassThru.obj
 0003:000002c8       gAtaAtapiPassThruComponentName 000000000000bba8     AtaAtapiPassThruDxe:ComponentName.obj
 0003:000002e0       gAtaAtapiPassThruComponentName2 000000000000bbc0     AtaAtapiPassThruDxe:ComponentName.obj
 0003:00000300       mAtaAtapiPassThruAhciControllerNameTable 000000000000bbe0     AtaAtapiPassThruDxe:ComponentName.obj
 0003:00000320       mAtaAtapiPassThruIdeControllerNameTable 000000000000bc00     AtaAtapiPassThruDxe:ComponentName.obj
 0003:00000340       mAtaAtapiPassThruDriverNameTable 000000000000bc20     AtaAtapiPassThruDxe:ComponentName.obj
 0003:00000360       gST                        000000000000bc40     UefiBootServicesTableLib:UefiBootServicesTableLib.obj
 0003:00000368       gBS                        000000000000bc48     UefiBootServicesTableLib:UefiBootServicesTableLib.obj
 0003:00000370       gImageHandle               000000000000bc50     UefiBootServicesTableLib:UefiBootServicesTableLib.obj
 0003:00000378       gRT                        000000000000bc58     UefiRuntimeServicesTableLib:UefiRuntimeServicesTableLib.obj
 0003:00000380       mDevicePathLibDevicePathUtilities 000000000000bc60     UefiDevicePathLibDevicePathProtocol:UefiDevicePathLib.obj
 0003:00000388       mReportStatusCodeLibStatusCodeProtocol 000000000000bc68     DxeReportStatusCodeLib:ReportStatusCodeLib.obj
 0003:00000390       mPcd                       000000000000bc70     DxePcdLib:DxePcdLib.obj
 0003:00000398       gParity                    000000000000bc78     PcAtSerialPortLib:SerialPortLib.obj
 0003:00000399       gBreakSet                  000000000000bc79     PcAtSerialPortLib:SerialPortLib.obj
 0003:000003a8       mAtaAtapiPolicy            000000000000bc88     <common>

 entry point at        0001:00000114

 Static symbols

 0001:0000001a       InternalMemCopyMem.0       00000000000002da     BaseMemoryLibRepStr:CopyMem.obj
 0001:0000002a       @CopyBackward              00000000000002ea     BaseMemoryLibRepStr:CopyMem.obj
 0001:00000033       @CopyBytes                 00000000000002f3     BaseMemoryLibRepStr:CopyMem.obj
 0003:0000039c       mRunningOnQ35              000000000000bc7c     DxePciLibI440FxQ35:PciLib.obj
 0003:000003a0       mAcpiTimerIoAddr           000000000000bc80     DxeAcpiTimerLib:DxeAcpiTimerLib.obj
 0005:00000000       $unwind$MmioRead32         000000000000c240     BaseIoLibIntrinsicSev:IoLib.obj
 0005:00000000       $unwind$IoRead32           000000000000c240     BaseIoLibIntrinsicSev:IoLibMsc.obj
 0005:00000000       $unwind$SaveAndDisableInterrupts 000000000000c240     BaseLib:Cpu.obj
 0005:00000000       $unwind$GetFirstNode       000000000000c240     BaseLib:LinkedList.obj
 0005:00000000       $unwind$GetNextNode        000000000000c240     BaseLib:LinkedList.obj
 0005:00000000       $unwind$InternalBaseLibIsListValid 000000000000c240     BaseLib:LinkedList.obj
 0005:00000000       $unwind$IsListEmpty        000000000000c240     BaseLib:LinkedList.obj
 0005:00000000       $unwind$RemoveEntryList    000000000000c240     BaseLib:LinkedList.obj
 0005:00000000       $unwind$StrnLenS           000000000000c240     BaseLib:SafeString.obj
 0005:00000000       $unwind$PciExpressRead32   000000000000c240     BasePciExpressLib:PciExpressLib.obj
 0005:00000000       $unwind$DevicePathNodeLength 000000000000c240     UefiDevicePathLibDevicePathProtocol:UefiDevicePathLib.obj
 0005:00000000       $unwind$_ModuleEntryPoint  000000000000c240     UefiDriverEntryPoint:DriverEntryPoint.obj
 0005:00000000       $unwind$MicroSecondDelay   000000000000c240     DxeAcpiTimerLib:AcpiTimerLib.obj
 0005:00000008       $unwind$ProcessLibraryConstructorList 000000000000c248     AtaAtapiPassThruDxe:AutoGen.obj
 0005:00000018       $unwind$ProcessModuleEntryPointList 000000000000c258     AtaAtapiPassThruDxe:AutoGen.obj
 0005:00000024       $unwind$AtaPassThruPassThruExecute 000000000000c264     AtaAtapiPassThruDxe:AtaAtapiPassThru.obj
 0005:00000024       $unwind$AtaIdentify        000000000000c264     AtaAtapiPassThruDxe:IdeMode.obj
 0005:00000024       $unwind$AtaIdentifyPacket  000000000000c264     AtaAtapiPassThruDxe:IdeMode.obj
 0005:00000038       $unwind$AhciDisableFisReceive 000000000000c278     AtaAtapiPassThruDxe:AhciMode.obj
 0005:00000038       $unwind$AhciStopCommand    000000000000c278     AtaAtapiPassThruDxe:AhciMode.obj
 0005:00000038       $unwind$AsyncNonBlockingTransferRoutine 000000000000c278     AtaAtapiPassThruDxe:AtaAtapiPassThru.obj
 0005:00000038       $unwind$InternalReportStatusCode 000000000000c278     DxeReportStatusCodeLib:ReportStatusCodeLib.obj
 0005:00000048       $unwind$AtaAtapiPassThruSupported 000000000000c288     AtaAtapiPassThruDxe:AtaAtapiPassThru.obj
 0005:00000054       $unwind$AtaAtapiPassThruStart 000000000000c294     AtaAtapiPassThruDxe:AtaAtapiPassThru.obj
 0005:00000068       $unwind$AtaAtapiPassThruStop 000000000000c2a8     AtaAtapiPassThruDxe:AtaAtapiPassThru.obj
 0005:00000078       $unwind$AhciWaitDeviceReady 000000000000c2b8     AtaAtapiPassThruDxe:AhciMode.obj
 0005:00000078       $unwind$AtaPassThruGetNextDevice 000000000000c2b8     AtaAtapiPassThruDxe:AtaAtapiPassThru.obj
 0005:00000078       $unwind$DestroyAsynTaskList 000000000000c2b8     AtaAtapiPassThruDxe:AtaAtapiPassThru.obj
 0005:00000078       $unwind$SearchDeviceInfoList 000000000000c2b8     AtaAtapiPassThruDxe:AtaAtapiPassThru.obj
 0005:00000078       $unwind$AtaIssueCommand    000000000000c2b8     AtaAtapiPassThruDxe:IdeMode.obj
 0005:00000090       $unwind$AhciWaitUntilFisReceived 000000000000c2d0     AtaAtapiPassThruDxe:AhciMode.obj
 0005:00000090       $unwind$AtaPassThruBuildDevicePath 000000000000c2d0     AtaAtapiPassThruDxe:AtaAtapiPassThru.obj
 0005:00000090       $unwind$CreateNewDeviceInfo 000000000000c2d0     AtaAtapiPassThruDxe:AtaAtapiPassThru.obj
 0005:00000090       $unwind$ExtScsiPassThruGetNextTargetLun 000000000000c2d0     AtaAtapiPassThruDxe:AtaAtapiPassThru.obj
 0005:00000090       $unwind$ExtScsiPassThruGetTargetLun 000000000000c2d0     AtaAtapiPassThruDxe:AtaAtapiPassThru.obj
 0005:00000090       $unwind$AtaUdmStatusWait   000000000000c2d0     AtaAtapiPassThruDxe:IdeMode.obj
 0005:000000a8       $unwind$AhciAndReg         000000000000c2e8     AtaAtapiPassThruDxe:AhciMode.obj
 0005:000000a8       $unwind$AhciCheckFisReceived 000000000000c2e8     AtaAtapiPassThruDxe:AhciMode.obj
 0005:000000a8       $unwind$AhciOrReg          000000000000c2e8     AtaAtapiPassThruDxe:AhciMode.obj
 0005:000000a8       $unwind$AtaPassThruResetDevice 000000000000c2e8     AtaAtapiPassThruDxe:AtaAtapiPassThru.obj
 0005:000000a8       $unwind$DestroyDeviceInfoList 000000000000c2e8     AtaAtapiPassThruDxe:AtaAtapiPassThru.obj
 0005:000000a8       $unwind$ExtScsiPassThruResetTargetLun 000000000000c2e8     AtaAtapiPassThruDxe:AtaAtapiPassThru.obj
 0005:000000a8       $unwind$DivU64x32Remainder 000000000000c2e8     BaseLib:DivU64x32Remainder.obj
 0005:000000a8       $unwind$AsciiStrnCmp       000000000000c2e8     BaseLib:String.obj
 0005:000000a8       $unwind$PciCf8Read32       000000000000c2e8     BasePciCf8Lib:PciCf8Lib.obj
 0005:000000a8       $unwind$IsLanguageSupported 000000000000c2e8     UefiLib:UefiLib.obj
 0005:000000a8       $unwind$InternalAcpiDelay  000000000000c2e8     DxeAcpiTimerLib:AcpiTimerLib.obj
 0005:000000b8       $unwind$EnumerateAttachedDevice 000000000000c2f8     AtaAtapiPassThruDxe:AtaAtapiPassThru.obj
 0005:000000c0       $unwind$AhciStartCommand   000000000000c300     AtaAtapiPassThruDxe:AhciMode.obj
 0005:000000c0       $unwind$AtaPassThruPassThru 000000000000c300     AtaAtapiPassThruDxe:AtaAtapiPassThru.obj
 0005:000000d8       $unwind$AtaPassThruGetNextPort 000000000000c318     AtaAtapiPassThruDxe:AtaAtapiPassThru.obj
 0005:000000d8       $unwind$ExtScsiPassThruGetNextTarget 000000000000c318     AtaAtapiPassThruDxe:AtaAtapiPassThru.obj
 0005:000000d8       $unwind$AtaNonDataCommandIn 000000000000c318     AtaAtapiPassThruDxe:IdeMode.obj
 0005:000000d8       $unwind$DRQClear           000000000000c318     AtaAtapiPassThruDxe:IdeMode.obj
 0005:000000d8       $unwind$DRQReady           000000000000c318     AtaAtapiPassThruDxe:IdeMode.obj
 0005:000000d8       $unwind$DRQReady2          000000000000c318     AtaAtapiPassThruDxe:IdeMode.obj
 0005:000000d8       $unwind$WaitForBSYClear    000000000000c318     AtaAtapiPassThruDxe:IdeMode.obj
 0005:000000d8       $unwind$CompareMem         000000000000c318     BaseMemoryLibRepStr:CompareMemWrapper.obj
 0005:000000d8       $unwind$CopyMem            000000000000c318     BaseMemoryLibRepStr:CopyMemWrapper.obj
 0005:000000ec       $unwind$AhciDumpPortStatus 000000000000c32c     AtaAtapiPassThruDxe:AhciMode.obj
 0005:000000ec       $unwind$AtaPassThruGetDevice 000000000000c32c     AtaAtapiPassThruDxe:AtaAtapiPassThru.obj
 0005:00000100       $unwind$AtaPacketRequestSense 000000000000c340     AtaAtapiPassThruDxe:AtaAtapiPassThru.obj
 0005:00000118       $unwind$ExtScsiPassThruPassThru 000000000000c358     AtaAtapiPassThruDxe:AtaAtapiPassThru.obj
 0005:00000134       $unwind$ExtScsiPassThruBuildDevicePath 000000000000c374     AtaAtapiPassThruDxe:AtaAtapiPassThru.obj
 0005:00000150       $unwind$AhciReadReg        000000000000c390     AtaAtapiPassThruDxe:AhciMode.obj
 0005:00000150       $unwind$IdeReadPortB       000000000000c390     AtaAtapiPassThruDxe:IdeMode.obj
 0005:0000015c       $unwind$AhciWriteReg       000000000000c39c     AtaAtapiPassThruDxe:AhciMode.obj
 0005:0000015c       $unwind$IdeWritePortB      000000000000c39c     AtaAtapiPassThruDxe:IdeMode.obj
 0005:00000168       $unwind$AhciWaitMmioSet    000000000000c3a8     AtaAtapiPassThruDxe:AhciMode.obj
 0005:00000180       $unwind$AhciBuildCommand   000000000000c3c0     AtaAtapiPassThruDxe:AhciMode.obj
 0005:0000019c       $unwind$AhciBuildCommandFis 000000000000c3dc     AtaAtapiPassThruDxe:AhciMode.obj
 0005:0000019c       $unwind$CheckStatusRegister 000000000000c3dc     AtaAtapiPassThruDxe:IdeMode.obj
 0005:0000019c       $unwind$InsertTailList     000000000000c3dc     BaseLib:LinkedList.obj
 0005:0000019c       $unwind$IsNull             000000000000c3dc     BaseLib:LinkedList.obj
 0005:0000019c       $unwind$AsciiStrLen        000000000000c3dc     BaseLib:String.obj
 0005:0000019c       $unwind$ZeroMem            000000000000c3dc     BaseMemoryLibRepStr:ZeroMemWrapper.obj
 0005:0000019c       $unwind$InternalAllocateCopyPool 000000000000c3dc     UefiMemoryAllocationLib:MemoryAllocationLib.obj
 0005:000001a8       $unwind$AhciRecoverPortError 000000000000c3e8     AtaAtapiPassThruDxe:AhciMode.obj
 0005:000001c0       $unwind$AhciPrintCommandBlock 000000000000c400     AtaAtapiPassThruDxe:AhciMode.obj
 0005:000001cc       $unwind$AhciPrintStatusBlock 000000000000c40c     AtaAtapiPassThruDxe:AhciMode.obj
 0005:000001d8       $unwind$AhciPioTransfer    000000000000c418     AtaAtapiPassThruDxe:AhciMode.obj
 0005:000001f0       $unwind$AhciDmaTransfer    000000000000c430     AtaAtapiPassThruDxe:AhciMode.obj
 0005:0000020c       $unwind$AhciNonDataTransfer 000000000000c44c     AtaAtapiPassThruDxe:AhciMode.obj
 0005:00000228       $unwind$AhciAtaSmartReturnStatusCheck 000000000000c468     AtaAtapiPassThruDxe:AhciMode.obj
 0005:00000238       $unwind$AhciAtaSmartSupport 000000000000c478     AtaAtapiPassThruDxe:AhciMode.obj
 0005:0000024c       $unwind$AhciIdentify       000000000000c48c     AtaAtapiPassThruDxe:AhciMode.obj
 0005:0000024c       $unwind$AhciReadLogExt     000000000000c48c     AtaAtapiPassThruDxe:AhciMode.obj
 0005:00000264       $unwind$AhciIdentifyPacket 000000000000c4a4     AtaAtapiPassThruDxe:AhciMode.obj
 0005:00000278       $unwind$AhciDeviceSetFeature 000000000000c4b8     AtaAtapiPassThruDxe:AhciMode.obj
 0005:00000288       $unwind$AhciPacketCommandExecute 000000000000c4c8     AtaAtapiPassThruDxe:AhciMode.obj
 0005:000002a4       $unwind$AhciCreateTransferDescriptor 000000000000c4e4     AtaAtapiPassThruDxe:AhciMode.obj
 0005:000002bc       $unwind$AhciEnableDevSlp   000000000000c4fc     AtaAtapiPassThruDxe:AhciMode.obj
 0005:000002d8       $unwind$AhciSpinUpDisk     000000000000c518     AtaAtapiPassThruDxe:AhciMode.obj
 0005:000002f4       $unwind$AhciModeInitialization 000000000000c534     AtaAtapiPassThruDxe:AhciMode.obj
 0005:0000030c       $unwind$DumpAllIdeRegisters 000000000000c54c     AtaAtapiPassThruDxe:IdeMode.obj
 0005:00000320       $unwind$GetIdeRegisterIoAddr 000000000000c560     AtaAtapiPassThruDxe:IdeMode.obj
 0005:0000032c       $unwind$AtaPioDataInOut    000000000000c56c     AtaAtapiPassThruDxe:IdeMode.obj
 0005:00000348       $unwind$AtaUdmaInOut       000000000000c588     AtaAtapiPassThruDxe:IdeMode.obj
 0005:00000360       $unwind$AtaPacketReadWrite 000000000000c5a0     AtaAtapiPassThruDxe:IdeMode.obj
 0005:0000037c       $unwind$AtaPacketCommandExecute 000000000000c5bc     AtaAtapiPassThruDxe:IdeMode.obj
 0005:00000394       $unwind$SetDeviceTransferMode 000000000000c5d4     AtaAtapiPassThruDxe:IdeMode.obj
 0005:00000394       $unwind$SetDriveParameters 000000000000c5d4     AtaAtapiPassThruDxe:IdeMode.obj
 0005:000003a8       $unwind$IdeAtaSmartReturnStatusCheck 000000000000c5e8     AtaAtapiPassThruDxe:IdeMode.obj
 0005:000003b8       $unwind$IdeAtaSmartSupport 000000000000c5f8     AtaAtapiPassThruDxe:IdeMode.obj
 0005:000003d0       $unwind$DetectAndConfigIdeDevice 000000000000c610     AtaAtapiPassThruDxe:IdeMode.obj
 0005:000003e8       $unwind$IdeModeInitialization 000000000000c628     AtaAtapiPassThruDxe:IdeMode.obj
 0005:000003fc       $unwind$AtaAtapiPassThruComponentNameGetDriverName 000000000000c63c     AtaAtapiPassThruDxe:ComponentName.obj
 0005:00000404       $unwind$AtaAtapiPassThruComponentNameGetControllerName 000000000000c644     AtaAtapiPassThruDxe:ComponentName.obj
 0005:00000418       $unwind$DebugPrint         000000000000c658     BaseDebugLibSerialPort:DebugLib.obj
 0005:00000420       $unwind$DebugPrintMarker   000000000000c660     BaseDebugLibSerialPort:DebugLib.obj
 0005:00000434       $unwind$DebugAssert        000000000000c674     BaseDebugLibSerialPort:DebugLib.obj
 0005:0000043c       $unwind$InternalAllocateAlignedPages 000000000000c67c     UefiMemoryAllocationLib:MemoryAllocationLib.obj
 0005:00000450       $unwind$GetPcdProtocol     000000000000c690     DxePcdLib:DxePcdLib.obj
 0005:00000450       $unwind$FreePool           000000000000c690     UefiMemoryAllocationLib:MemoryAllocationLib.obj
 0005:00000450       $unwind$InternalAllocatePool 000000000000c690     UefiMemoryAllocationLib:MemoryAllocationLib.obj
 0005:00000458       $unwind$LookupUnicodeString2 000000000000c698     UefiLib:UefiLib.obj
 0005:00000470       $unwind$AsciiSPrint        000000000000c6b0     BasePrintLib:PrintLib.obj
 0005:00000478       $unwind$BasePrintLibValueToString 000000000000c6b8     BasePrintLib:PrintLibInternal.obj
 0005:00000484       $unwind$BasePrintLibSPrintMarker 000000000000c6c4     BasePrintLib:PrintLibInternal.obj
 0005:000004a0       $unwind$BasePrintLibSPrint 000000000000c6e0     BasePrintLib:PrintLibInternal.obj
