 MonotonicCounterRuntimeDxe

 Timestamp is 62b57349 (Fri Jun 24 16:18:17 2022)

 Preferred load address is 0000000000000000

 Start         Length     Name                   Class
 0001:00000000 000000d0H .text                   CODE
 0001:000000d0 00001822H .text$mn                CODE
 0002:00000000 00000b80H .rdata                  DATA
 0002:00000b80 00000020H .rdata$voltmd           DATA
 0002:00000ba0 00000174H .rdata$zzzdbg           DATA
 0003:00000000 00000020H .data                   DATA
 0003:00000020 00000058H .bss                    DATA
 0004:00000000 000000c0H .pdata                  DATA
 0005:00000000 000000acH .xdata                  DATA

  Address         Publics by Value              Rva+Base               Lib:Object

 0000:00000000       __guard_longjmp_table      0000000000000000     <absolute>
 0000:00000000       __x64_code_ranges_to_entry_points_count 0000000000000000     <absolute>
 0000:00000000       __guard_fids_count         0000000000000000     <absolute>
 0000:00000000       __arm64x_extra_rfe_table   0000000000000000     <absolute>
 0000:00000000       __arm64x_redirection_metadata 0000000000000000     <absolute>
 0000:00000000       __hybrid_code_map_count    0000000000000000     <absolute>
 0000:00000000       __guard_iat_table          0000000000000000     <absolute>
 0000:00000000       __hybrid_code_map          0000000000000000     <absolute>
 0000:00000000       __guard_iat_count          0000000000000000     <absolute>
 0000:00000000       __arm64x_extra_rfe_table_size 0000000000000000     <absolute>
 0000:00000000       __guard_longjmp_count      0000000000000000     <absolute>
 0000:00000000       __x64_code_ranges_to_entry_points 0000000000000000     <absolute>
 0000:00000000       __arm64x_native_entrypoint 0000000000000000     <absolute>
 0000:00000000       __dynamic_value_reloc_table 0000000000000000     <absolute>
 0000:00000000       __hybrid_auxiliary_iat     0000000000000000     <absolute>
 0000:00000000       __guard_eh_cont_table      0000000000000000     <absolute>
 0000:00000000       __hybrid_auxiliary_iat_copy 0000000000000000     <absolute>
 0000:00000000       __AbsoluteZero             0000000000000000     <absolute>
 0000:00000000       __guard_check_icall_a64n_fptr 0000000000000000     <absolute>
 0000:00000000       __guard_fids_table         0000000000000000     <absolute>
 0000:00000000       __enclave_config           0000000000000000     <absolute>
 0000:00000000       __guard_flags              0000000000000000     <absolute>
 0000:00000000       __arm64x_redirection_metadata_count 0000000000000000     <absolute>
 0000:00000000       __guard_eh_cont_count      0000000000000000     <absolute>
 0001:00000000       InternalMemSetMem          0000000000000280     BaseMemoryLibRepStr:SetMem.obj
 0001:00000020       InternalMemSetMem64        00000000000002a0     BaseMemoryLibRepStr:SetMem64.obj
 0001:00000040       InternalMemSetMem32        00000000000002c0     BaseMemoryLibRepStr:SetMem32.obj
 0001:00000060       CpuPause                   00000000000002e0     BaseLib:CpuPause.obj
 0001:00000070       InternalMemCopyMem         00000000000002f0     BaseMemoryLibRepStr:CopyMem.obj
 0001:000000b0       InternalMemZeroMem         0000000000000330     BaseMemoryLibRepStr:ZeroMem.obj
 0001:000000d0       _ModuleEntryPoint          0000000000000350 f   UefiDriverEntryPoint:DriverEntryPoint.obj
 0001:000000f8       ProcessLibraryConstructorList 0000000000000378 f   MonotonicCounterRuntimeDxe:AutoGen.obj
 0001:0000031c       ProcessLibraryDestructorList 000000000000059c f   MonotonicCounterRuntimeDxe:AutoGen.obj
 0001:00000408       ProcessModuleEntryPointList 0000000000000688 f   MonotonicCounterRuntimeDxe:AutoGen.obj
 0001:00000588       MonotonicCounterDriverGetNextMonotonicCount 0000000000000808 f   MonotonicCounterRuntimeDxe:MonotonicCounter.obj
 0001:0000060c       MonotonicCounterDriverGetNextHighMonotonicCount 000000000000088c f   MonotonicCounterRuntimeDxe:MonotonicCounter.obj
 0001:000006b8       EfiMtcEventHandler         0000000000000938 f   MonotonicCounterRuntimeDxe:MonotonicCounter.obj
 0001:000006cc       DebugPrint                 000000000000094c f   BaseDebugLibSerialPort:DebugLib.obj
 0001:000006f0       DebugPrintMarker           0000000000000970 f   BaseDebugLibSerialPort:DebugLib.obj
 0001:000007a0       DebugAssert                0000000000000a20 f   BaseDebugLibSerialPort:DebugLib.obj
 0001:00000818       RuntimeLibExitBootServicesEvent 0000000000000a98 f   UefiRuntimeLib:RuntimeLib.obj
 0001:00000820       RuntimeLibVirtualNotifyEvent 0000000000000aa0 f   UefiRuntimeLib:RuntimeLib.obj
 0001:00000834       AsciiStrLen                0000000000000ab4 f   BaseLib:String.obj
 0001:000008a0       StrnLenS                   0000000000000b20 f   BaseLib:SafeString.obj
 0001:000008f8       AsciiSPrint                0000000000000b78 f   BasePrintLib:PrintLib.obj
 0001:00000924       BasePrintLibFillBuffer     0000000000000ba4 f   BasePrintLib:PrintLibInternal.obj
 0001:00000958       BasePrintLibValueToString  0000000000000bd8 f   BasePrintLib:PrintLibInternal.obj
 0001:000009c4       BasePrintLibSPrintMarker   0000000000000c44 f   BasePrintLib:PrintLibInternal.obj
 0001:000018d0       BasePrintLibSPrint         0000000000001b50 f   BasePrintLib:PrintLibInternal.obj
 0002:00000000       ??_C@_0CB@DMEJJJHA@?6ASSERT_EFI_ERROR?5?$CIStatus?5?$DN?5?$CFr?$CJ@ 0000000000001b80     UefiDriverEntryPoint:DriverEntryPoint.obj
 0002:00000028       ??_C@_0CH@BBNBJKHK@?$CB?$CI?$CI?$CIINTN?$CJ?$CIRETURN_STATUS?$CJ?$CIStatus@ 0000000000001ba8     UefiDriverEntryPoint:DriverEntryPoint.obj
 0002:00000050       ??_C@_0BL@OKHPCBIJ@MonotonicCounterRuntimeDxe@ 0000000000001bd0     MonotonicCounterRuntimeDxe:AutoGen.obj
 0002:00000070       ??_C@_0IJ@HBFDLBMD@d?3?2edk2?2edk2?2Build?2OvmfX64?2DEBU@ 0000000000001bf0     MonotonicCounterRuntimeDxe:AutoGen.obj
 0002:00000100       ??_C@_17DGPLEKJI@?$AAM?$AAT?$AAC@ 0000000000001c80     MonotonicCounterRuntimeDxe:MonotonicCounter.obj
 0002:00000110       ??_C@_0FC@EFMGBBBM@d?3?2edk2?2edk2?2MdeModulePkg?2Unive@ 0000000000001c90     MonotonicCounterRuntimeDxe:MonotonicCounter.obj
 0002:00000170       ??_C@_0EE@KLEMMEOM@?$CGgEfiMonotonicCounterArchProtoc@ 0000000000001cf0     MonotonicCounterRuntimeDxe:MonotonicCounter.obj
 0002:000001b8       ??_C@_0BH@LKMBFCBF@Format?5?$CB?$DN?5?$CI?$CIvoid?5?$CK?$CJ?50?$CJ@ 0000000000001d38     BaseDebugLibSerialPort:DebugLib.obj
 0002:000001d0       ??_C@_0DO@CKBIDOOL@d?3?2edk2?2edk2?2MdePkg?2Library?2Bas@ 0000000000001d50     BaseDebugLibSerialPort:DebugLib.obj
 0002:00000210       ??_C@_0BI@NOCKJDBJ@ASSERT?5?$FL?$CFa?$FN?5?$CFa?$CI?$CFd?$CJ?3?5?$CFa?6@ 0000000000001d90     BaseDebugLibSerialPort:DebugLib.obj
 0002:00000228       ??_C@_0BH@IACGKAP@Buffer?5?$CB?$DN?5?$CI?$CIvoid?5?$CK?$CJ?50?$CJ@ 0000000000001da8     BaseDebugLibSerialPort:DebugLib.obj
 0002:00000240       ??_C@_0BN@COECPDCC@gImageHandle?5?$CB?$DN?5?$CI?$CIvoid?5?$CK?$CJ?50?$CJ@ 0000000000001dc0     UefiBootServicesTableLib:UefiBootServicesTableLib.obj
 0002:00000260       ??_C@_0FA@FOIHGFBE@d?3?2edk2?2edk2?2MdePkg?2Library?2Uef@ 0000000000001de0     UefiBootServicesTableLib:UefiBootServicesTableLib.obj
 0002:000002b0       ??_C@_0BE@DGNHAHIL@gST?5?$CB?$DN?5?$CI?$CIvoid?5?$CK?$CJ?50?$CJ@ 0000000000001e30     UefiBootServicesTableLib:UefiBootServicesTableLib.obj
 0002:000002c8       ??_C@_0BE@BDFJLGLN@gBS?5?$CB?$DN?5?$CI?$CIvoid?5?$CK?$CJ?50?$CJ@ 0000000000001e48     UefiBootServicesTableLib:UefiBootServicesTableLib.obj
 0002:000002e0       ??_C@_0BE@OBDFIHND@gRT?5?$CB?$DN?5?$CI?$CIvoid?5?$CK?$CJ?50?$CJ@ 0000000000001e60     UefiRuntimeServicesTableLib:UefiRuntimeServicesTableLib.obj
 0002:00000300       ??_C@_0FG@JGJCMPKB@d?3?2edk2?2edk2?2MdePkg?2Library?2Uef@ 0000000000001e80     UefiRuntimeServicesTableLib:UefiRuntimeServicesTableLib.obj
 0002:00000358       ??_C@_0DI@MDMFFEFN@d?3?2edk2?2edk2?2MdePkg?2Library?2Uef@ 0000000000001ed8     UefiRuntimeLib:RuntimeLib.obj
 0002:00000390       ??_C@_0BH@MAAHKCPC@String?5?$CB?$DN?5?$CI?$CIvoid?5?$CK?$CJ?50?$CJ@ 0000000000001f10     BaseLib:String.obj
 0002:000003a8       ??_C@_0CN@LHBFELAO@d?3?2edk2?2edk2?2MdePkg?2Library?2Bas@ 0000000000001f28     BaseLib:String.obj
 0002:000003d8       ??_C@_0CC@GFNLNIOC@?$CI?$CIUINTN?$CJString?5?$CG?50x00000001?$CJ?5?$DN?$DN@ 0000000000001f58     BaseLib:String.obj
 0002:00000400       ??_C@_0DI@MDIKFADO@Length?5?$DM?5_gPcd_FixedAtBuild_Pcd@ 0000000000001f80     BaseLib:String.obj
 0002:00000438       ??_C@_0DB@PKFMPMPC@d?3?2edk2?2edk2?2MdePkg?2Library?2Bas@ 0000000000001fb8     BaseLib:SafeString.obj
 0002:00000470       ??_C@_0BJ@CNKJJNE@?$CIBuffer?5?$CB?$DN?5?$CI?$CIvoid?5?$CK?$CJ?50?$CJ?$CJ@ 0000000000001ff0     BaseLib:SafeString.obj
 0002:00000490       ??_C@_0N@KGHEHMDL@Divisor?5?$CB?$DN?50@ 0000000000002010     BaseLib:DivU64x32.obj
 0002:000004a0       ??_C@_0DM@OAJIKNNG@d?3?2edk2?2edk2?2MdePkg?2Library?2Bas@ 0000000000002020     BasePrintLib:PrintLibInternal.obj
 0002:000004e0       ??_C@_0EB@HDGIDCIO@?$CIBufferSize?5?$DM?$DN?5?$CI_gPcd_FixedAtBu@ 0000000000002060     BasePrintLib:PrintLibInternal.obj
 0002:00000528       ??_C@_0BJ@PPAKKDJG@?$CIFormat?5?$CB?$DN?5?$CI?$CIvoid?5?$CK?$CJ?50?$CJ?$CJ@ 00000000000020a8     BasePrintLib:PrintLibInternal.obj
 0002:00000550       ??_C@_0ED@LPDDCECB@?$CIBufferSize?5?$DM?$DN?5?$CI_gPcd_FixedAtBu@ 00000000000020d0     BasePrintLib:PrintLibInternal.obj
 0002:000005a0       ??_C@_0IM@BFJJFLGB@?$CIStrnLenS?5?$CI?$CICHAR16?5?$CK?$CJFormat?0?5?$CI_@ 0000000000002120     BasePrintLib:PrintLibInternal.obj
 0002:00000630       ??_C@_0ID@PLGJGION@?$CIAsciiStrnLenS?5?$CIFormat?0?5?$CI_gPcd_@ 00000000000021b0     BasePrintLib:PrintLibInternal.obj
 0002:000006b8       ??_C@_0O@MLOLIMFM@?$DMnull?5string?$DO@ 0000000000002238     BasePrintLib:PrintLibInternal.obj
 0002:000006c8       ??_C@_0M@BJJDNPHK@?$DMnull?5guid?$DO@ 0000000000002248     BasePrintLib:PrintLibInternal.obj
 0002:000006d8       ??_C@_0DB@PMLHLBMO@?$CF08x?9?$CF04x?9?$CF04x?9?$CF02x?$CF02x?9?$CF02x?$CF02@ 0000000000002258     BasePrintLib:PrintLibInternal.obj
 0002:00000710       ??_C@_0M@LHGBCIKM@?$DMnull?5time?$DO@ 0000000000002290     BasePrintLib:PrintLibInternal.obj
 0002:00000720       ??_C@_0BK@FCPKCIDD@?$CF02d?1?$CF02d?1?$CF04d?5?5?$CF02d?3?$CF02d@ 00000000000022a0     BasePrintLib:PrintLibInternal.obj
 0002:0000073c       ??_C@_04JIMNDDED@?$CF08X@  00000000000022bc     BasePrintLib:PrintLibInternal.obj
 0002:00000744       ??_C@_02PCIJFNDE@?$AN?6@   00000000000022c4     BasePrintLib:PrintLibInternal.obj
 0002:00000748       ??_C@_01LIIJDEN@?$AN@      00000000000022c8     BasePrintLib:PrintLibInternal.obj
 0002:00000750       mWarningString             00000000000022d0     BasePrintLib:PrintLibInternal.obj
 0002:000007f0       mErrorString               0000000000002370     BasePrintLib:PrintLibInternal.obj
 0002:00000ab0       mHexStr                    0000000000002630     BasePrintLib:PrintLibInternal.obj
 0002:00000ac0       ??_C@_0DA@BDDONMJM@d?3?2edk2?2edk2?2MdePkg?2Library?2Bas@ 0000000000002640     BaseLib:Unaligned.obj
 0002:00000af0       ??_C@_0DJ@FHIMIJAH@d?3?2edk2?2edk2?2MdePkg?2Library?2Bas@ 0000000000002670     BaseLib:DivU64x32Remainder.obj
 0002:00000b80       __volatile_metadata        0000000000002700     <linker-defined>
 0003:00000000       gEfiMonotonicCounterArchProtocolGuid 00000000000028a0     MonotonicCounterRuntimeDxe:AutoGen.obj
 0003:00000010       gMtcVendorGuid             00000000000028b0     MonotonicCounterRuntimeDxe:AutoGen.obj
 0003:00000020       mMonotonicCounterHandle    00000000000028c0     MonotonicCounterRuntimeDxe:MonotonicCounter.obj
 0003:00000028       gST                        00000000000028c8     UefiBootServicesTableLib:UefiBootServicesTableLib.obj
 0003:00000030       gBS                        00000000000028d0     UefiBootServicesTableLib:UefiBootServicesTableLib.obj
 0003:00000038       gImageHandle               00000000000028d8     UefiBootServicesTableLib:UefiBootServicesTableLib.obj
 0003:00000040       gRT                        00000000000028e0     UefiRuntimeServicesTableLib:UefiRuntimeServicesTableLib.obj
 0003:00000048       mEfiAtRuntime              00000000000028e8     UefiRuntimeLib:RuntimeLib.obj
 0003:00000049       gParity                    00000000000028e9     PcAtSerialPortLib:SerialPortLib.obj
 0003:0000004a       gBreakSet                  00000000000028ea     PcAtSerialPortLib:SerialPortLib.obj
 0003:00000050       mEfiVirtualNotifyEvent     00000000000028f0     <common>
 0003:00000058       mInternalRT                00000000000028f8     <common>
 0003:00000060       mEfiExitBootServicesEvent  0000000000002900     <common>
 0003:00000068       mEfiMtc                    0000000000002908     <common>
 0003:00000070       mEfiMtcEvent               0000000000002910     <common>

 entry point at        0001:000000d0

 Static symbols

 0001:0000008a       InternalMemCopyMem.0       000000000000030a     BaseMemoryLibRepStr:CopyMem.obj
 0001:0000009a       @CopyBackward              000000000000031a     BaseMemoryLibRepStr:CopyMem.obj
 0001:000000a3       @CopyBytes                 0000000000000323     BaseMemoryLibRepStr:CopyMem.obj
 0005:00000000       $unwind$MonotonicCounterDriverGetNextMonotonicCount 00000000000029e0     MonotonicCounterRuntimeDxe:MonotonicCounter.obj
 0005:00000000       $unwind$StrnLenS           00000000000029e0     BaseLib:SafeString.obj
 0005:00000000       $unwind$_ModuleEntryPoint  00000000000029e0     UefiDriverEntryPoint:DriverEntryPoint.obj
 0005:00000008       $unwind$ProcessLibraryConstructorList 00000000000029e8     MonotonicCounterRuntimeDxe:AutoGen.obj
 0005:00000018       $unwind$ProcessLibraryDestructorList 00000000000029f8     MonotonicCounterRuntimeDxe:AutoGen.obj
 0005:00000024       $unwind$ProcessModuleEntryPointList 0000000000002a04     MonotonicCounterRuntimeDxe:AutoGen.obj
 0005:00000030       $unwind$MonotonicCounterDriverGetNextHighMonotonicCount 0000000000002a10     MonotonicCounterRuntimeDxe:MonotonicCounter.obj
 0005:00000038       $unwind$EfiMtcEventHandler 0000000000002a18     MonotonicCounterRuntimeDxe:MonotonicCounter.obj
 0005:00000040       $unwind$DebugPrint         0000000000002a20     BaseDebugLibSerialPort:DebugLib.obj
 0005:00000048       $unwind$DebugPrintMarker   0000000000002a28     BaseDebugLibSerialPort:DebugLib.obj
 0005:0000005c       $unwind$DebugAssert        0000000000002a3c     BaseDebugLibSerialPort:DebugLib.obj
 0005:00000064       $unwind$AsciiStrLen        0000000000002a44     BaseLib:String.obj
 0005:00000070       $unwind$AsciiSPrint        0000000000002a50     BasePrintLib:PrintLib.obj
 0005:00000078       $unwind$BasePrintLibValueToString 0000000000002a58     BasePrintLib:PrintLibInternal.obj
 0005:00000088       $unwind$BasePrintLibSPrintMarker 0000000000002a68     BasePrintLib:PrintLibInternal.obj
 0005:000000a4       $unwind$BasePrintLibSPrint 0000000000002a84     BasePrintLib:PrintLibInternal.obj
