 SecurityStubDxe

 Timestamp is 61ee7025 (Mon Jan 24 17:23:49 2022)

 Preferred load address is 0000000000000000

 Start         Length     Name                   Class
 0001:00000000 000003b8H .text                   CODE
 0001:000003b8 0006b70dH .text$mn                CODE
 0002:00000000 00000f30H .data                   DATA
 0002:00000f30 0003bcf0H .rdata                  DATA
 0002:0003cc20 00000c28H .bss                    DATA
 0002:0003d848 0000051cH .rdata$voltmd           DATA
 0002:0003dd64 000000a8H .rdata$zzzdbg           DATA
 0003:00000000 00003d20H .pdata                  DATA
 0004:00000000 000022bcH .xdata                  DATA

  Address         Publics by Value              Rva+Base               Lib:Object

 0000:00000000       __guard_longjmp_table      0000000000000000     <absolute>
 0000:00000000       __arm64x_redirection_metadata 0000000000000000     <absolute>
 0000:00000000       __x64_code_ranges_to_entry_points 0000000000000000     <absolute>
 0000:00000000       __hybrid_auxiliary_iat     0000000000000000     <absolute>
 0000:00000000       __x64_code_ranges_to_entry_points_count 0000000000000000     <absolute>
 0000:00000000       __hybrid_auxiliary_iat_copy 0000000000000000     <absolute>
 0000:00000000       __guard_fids_count         0000000000000000     <absolute>
 0000:00000000       __guard_longjmp_count      0000000000000000     <absolute>
 0000:00000000       __guard_iat_count          0000000000000000     <absolute>
 0000:00000000       __arm64x_extra_rfe_table   0000000000000000     <absolute>
 0000:00000000       __AbsoluteZero             0000000000000000     <absolute>
 0000:00000000       __hybrid_code_map          0000000000000000     <absolute>
 0000:00000000       __arm64x_extra_rfe_table_size 0000000000000000     <absolute>
 0000:00000000       __guard_check_icall_a64n_fptr 0000000000000000     <absolute>
 0000:00000000       __dynamic_value_reloc_table 0000000000000000     <absolute>
 0000:00000000       __guard_fids_table         0000000000000000     <absolute>
 0000:00000000       __guard_flags              0000000000000000     <absolute>
 0000:00000000       __guard_eh_cont_count      0000000000000000     <absolute>
 0000:00000000       __arm64x_redirection_metadata_count 0000000000000000     <absolute>
 0000:00000000       __enclave_config           0000000000000000     <absolute>
 0000:00000000       __guard_eh_cont_table      0000000000000000     <absolute>
 0000:00000000       __arm64x_native_entrypoint 0000000000000000     <absolute>
 0000:00000000       __hybrid_code_map_count    0000000000000000     <absolute>
 0000:00000000       __guard_iat_table          0000000000000000     <absolute>
 0000:00000000       __ImageBase                0000000000000000     <linker-defined>
 0001:00000000       CpuPause                   00000000000002a0     BaseLib:CpuPause.obj
 0001:00000010       InternalMemCopyMem         00000000000002b0     BaseMemoryLibRepStr:CopyMem.obj
 0001:00000050       InternalMemCompareMem      00000000000002f0     BaseMemoryLibRepStr:CompareMem.obj
 0001:00000070       InternalMemSetMem          0000000000000310     BaseMemoryLibRepStr:SetMem.obj
 0001:00000090       InternalMemZeroMem         0000000000000330     BaseMemoryLibRepStr:ZeroMem.obj
 0001:000000b0       InternalMemSetMem64        0000000000000350     BaseMemoryLibRepStr:SetMem64.obj
 0001:000000d0       InternalMemSetMem32        0000000000000370     BaseMemoryLibRepStr:SetMem32.obj
 0001:000000f0       SevNoRepIo                 0000000000000390     BaseIoLibIntrinsicSev:IoFifoSev.obj
 0001:00000130       IoReadFifo8                00000000000003d0     BaseIoLibIntrinsicSev:IoFifoSev.obj
 0001:00000152       IoReadFifo16               00000000000003f2     BaseIoLibIntrinsicSev:IoFifoSev.obj
 0001:00000178       IoReadFifo32               0000000000000418     BaseIoLibIntrinsicSev:IoFifoSev.obj
 0001:0000019b       IoWriteFifo8               000000000000043b     BaseIoLibIntrinsicSev:IoFifoSev.obj
 0001:000001bd       IoWriteFifo16              000000000000045d     BaseIoLibIntrinsicSev:IoFifoSev.obj
 0001:000001e3       IoWriteFifo32              0000000000000483     BaseIoLibIntrinsicSev:IoFifoSev.obj
 0001:00000210       EnableInterrupts           00000000000004b0     BaseLib:EnableInterrupts.obj
 0001:00000220       DisableInterrupts          00000000000004c0     BaseLib:DisableInterrupts.obj
 0001:00000230       AsmReadEflags              00000000000004d0     BaseLib:ReadEflags.obj
 0001:00000240       AsmInterruptHandle         00000000000004e0     PeCoffExtraActionLib:IntHandler.obj
 0001:00000250       AsmWriteDr2                00000000000004f0     BaseLib:WriteDr2.obj
 0001:00000260       AsmWriteDr3                0000000000000500     BaseLib:WriteDr3.obj
 0001:00000270       AsmCpuid                   0000000000000510     BaseLib:CpuId.obj
 0001:000002a0       AsmWriteCr4                0000000000000540     BaseLib:WriteCr4.obj
 0001:000002b0       AsmWriteDr1                0000000000000550     BaseLib:WriteDr1.obj
 0001:000002c0       AsmReadDr2                 0000000000000560     BaseLib:ReadDr2.obj
 0001:000002d0       AsmWriteDr7                0000000000000570     BaseLib:WriteDr7.obj
 0001:000002e0       AsmReadDr0                 0000000000000580     BaseLib:ReadDr0.obj
 0001:000002f0       AsmWriteDr0                0000000000000590     BaseLib:WriteDr0.obj
 0001:00000300       AsmReadDr7                 00000000000005a0     BaseLib:ReadDr7.obj
 0001:00000310       AsmReadDr1                 00000000000005b0     BaseLib:ReadDr1.obj
 0001:00000320       AsmReadDr3                 00000000000005c0     BaseLib:ReadDr3.obj
 0001:00000330       AsmReadCr4                 00000000000005d0     BaseLib:ReadCr4.obj
 0001:00000340       AsmReadCs                  00000000000005e0     BaseLib:ReadCs.obj
 0001:00000350       InternalX86ReadIdtr        00000000000005f0     BaseLib:ReadIdtr.obj
 0001:00000360       InternalMemScanMem8        0000000000000600     BaseMemoryLibRepStr:ScanMem8.obj
 0001:00000380       InternalMemScanMem64       0000000000000620     BaseMemoryLibRepStr:ScanMem64.obj
 0001:000003a0       InternalMemScanMem32       0000000000000640     BaseMemoryLibRepStr:ScanMem32.obj
 0001:000003b8       _ModuleEntryPoint          0000000000000658 f   UefiDriverEntryPoint:DriverEntryPoint.obj
 0001:000003cc       ProcessLibraryConstructorList 000000000000066c f   SecurityStubDxe:AutoGen.obj
 0001:00000508       ProcessModuleEntryPointList 00000000000007a8 f   SecurityStubDxe:AutoGen.obj
 0001:0000060c       SecurityStubAuthenticateState 00000000000008ac f   SecurityStubDxe:SecurityStub.obj
 0001:0000064c       Security2StubAuthenticate  00000000000008ec f   SecurityStubDxe:SecurityStub.obj
 0001:000006b4       GetDefferedImageInfo       0000000000000954 f   SecurityStubDxe:Defer3rdPartyImageLoad.obj
 0001:000007dc       EndOfDxe                   0000000000000a7c f   SecurityStubDxe:Defer3rdPartyImageLoad.obj
 0001:000007e4       DxeSmmReadyToLock          0000000000000a84 f   SecurityStubDxe:Defer3rdPartyImageLoad.obj
 0001:00000844       Defer3rdPartyImageLoad     0000000000000ae4 f   SecurityStubDxe:Defer3rdPartyImageLoad.obj
 0001:000009e4       AllocatePool               0000000000000c84 f   UefiMemoryAllocationLib:MemoryAllocationLib.obj
 0001:00000a18       InternalAllocateZeroPool   0000000000000cb8 f   UefiMemoryAllocationLib:MemoryAllocationLib.obj
 0001:00000a68       InternalReallocatePool     0000000000000d08 f   UefiMemoryAllocationLib:MemoryAllocationLib.obj
 0001:00000ae0       UefiDevicePathLibLocateProtocol 0000000000000d80 f   UefiDevicePathLibDevicePathProtocol:UefiDevicePathLib.obj
 0001:00000b1c       ConvertDevicePathToText    0000000000000dbc f   UefiDevicePathLibDevicePathProtocol:UefiDevicePathLib.obj
 0001:00000b60       EfiGetSystemConfigurationTable 0000000000000e00 f   UefiLib:UefiLib.obj
 0001:00000bc0       GetEfiGlobalVariable2      0000000000000e60 f   UefiLib:UefiLib.obj
 0001:00000c7c       GetHobList                 0000000000000f1c f   DxeHobLib:HobLib.obj
 0001:00000cac       GetFirstGuidHob            0000000000000f4c f   DxeHobLib:HobLib.obj
 0001:00000d08       ExecuteSecurityHandlers    0000000000000fa8 f   DxeSecurityManagementLib:DxeSecurityManagementLib.obj
 0001:00000e8c       RegisterSecurity2Handler   000000000000112c f   DxeSecurityManagementLib:DxeSecurityManagementLib.obj
 0001:00000f18       ExecuteSecurity2Handlers   00000000000011b8 f   DxeSecurityManagementLib:DxeSecurityManagementLib.obj
 0001:00000fe0       InternalReportStatusCode   0000000000001280 f   DxeReportStatusCodeLib:ReportStatusCodeLib.obj
 0001:0000106c       DxeImageVerificationLibImageRead 000000000000130c f   DxeImageVerificationLib:DxeImageVerificationLib.obj
 0001:000010e0       HashPeImage                0000000000001380 f   DxeImageVerificationLib:DxeImageVerificationLib.obj
 0001:000014ac       AddImageExeInfo            000000000000174c f   DxeImageVerificationLib:DxeImageVerificationLib.obj
 0001:000016a0       IsCertHashFoundInDbx       0000000000001940 f   DxeImageVerificationLib:DxeImageVerificationLib.obj
 0001:000019b4       IsSignatureFoundInDatabase 0000000000001c54 f   DxeImageVerificationLib:DxeImageVerificationLib.obj
 0001:00001bcc       PassTimestampCheck         0000000000001e6c f   DxeImageVerificationLib:DxeImageVerificationLib.obj
 0001:00001db0       IsForbiddenByDbx           0000000000002050 f   DxeImageVerificationLib:DxeImageVerificationLib.obj
 0001:00002014       IsAllowedByDb              00000000000022b4 f   DxeImageVerificationLib:DxeImageVerificationLib.obj
 0001:00002274       DxeImageVerificationHandler 0000000000002514 f   DxeImageVerificationLib:DxeImageVerificationLib.obj
 0001:00002908       OnReadyToBoot              0000000000002ba8 f   DxeImageVerificationLib:DxeImageVerificationLib.obj
 0001:00002970       AddDataMeasured            0000000000002c10 f   DxeImageVerificationLib:Measurement.obj
 0001:00002b08       IsDataMeasured             0000000000002da8 f   DxeImageVerificationLib:Measurement.obj
 0001:00002bcc       MeasureVariable            0000000000002e6c f   DxeImageVerificationLib:Measurement.obj
 0001:00002cd0       SecureBootHook             0000000000002f70 f   DxeImageVerificationLib:Measurement.obj
 0001:00002d7c       DxeTpmMeasureBootLibImageRead 000000000000301c f   DxeTpmMeasureBootLib:DxeTpmMeasureBootLib.obj
 0001:00002df0       TcgMeasureGptTable         0000000000003090 f   DxeTpmMeasureBootLib:DxeTpmMeasureBootLib.obj
 0001:000030d0       TcgMeasurePeImage          0000000000003370 f   DxeTpmMeasureBootLib:DxeTpmMeasureBootLib.obj
 0001:0000355c       DxeTpmMeasureBootHandler   00000000000037fc f   DxeTpmMeasureBootLib:DxeTpmMeasureBootLib.obj
 0001:000038c0       DxeTpm2MeasureBootLibImageRead 0000000000003b60 f   DxeTpm2MeasureBootLib:DxeTpm2MeasureBootLib.obj
 0001:00003934       Tcg2MeasureGptTable        0000000000003bd4 f   DxeTpm2MeasureBootLib:DxeTpm2MeasureBootLib.obj
 0001:00003c84       Tcg2MeasurePeImage         0000000000003f24 f   DxeTpm2MeasureBootLib:DxeTpm2MeasureBootLib.obj
 0001:00003e38       DxeTpm2MeasureBootHandler  00000000000040d8 f   DxeTpm2MeasureBootLib:DxeTpm2MeasureBootLib.obj
 0001:000041f4       GetPcdProtocol             0000000000004494 f   DxePcdLib:DxePcdLib.obj
 0001:00004230       StrCmp                     00000000000044d0 f   BaseLib:String.obj
 0001:00004268       AsciiStrCmp                0000000000004508 f   BaseLib:String.obj
 0001:00004298       AsciiStriCmp               0000000000004538 f   BaseLib:String.obj
 0001:00004338       AsciiStrnCmp               00000000000045d8 f   BaseLib:String.obj
 0001:0000436c       AsciiStrCpyS               000000000000460c f   BaseLib:SafeString.obj
 0001:000043f8       AsciiStrnCpyS              0000000000004698 f   BaseLib:SafeString.obj
 0001:000044bc       AsciiStrCatS               000000000000475c f   BaseLib:SafeString.obj
 0001:0000458c       AsciiStrDecimalToUintnS    000000000000482c f   BaseLib:SafeString.obj
 0001:00004640       PciCf8Read32               00000000000048e0 f   BasePciCf8Lib:PciCf8Lib.obj
 0001:000046a4       EfiCreateEventReadyToBootEx 0000000000004944 f   UefiLib:UefiNotTiano.obj
 0001:000046fc       GetFileBufferByFilePath    000000000000499c f   DxeServicesLib:DxeServicesLib.obj
 0001:00004ed4       TpmMeasureAndLogData       0000000000005174 f   DxeTpmMeasurementLib:DxeTpmMeasurementLib.obj
 0001:00004f90       PeCoffLoaderGetPeHeader    0000000000005230 f   BasePeCoffLib:BasePeCoff.obj
 0001:0000548c       PeCoffLoaderGetImageInfo   000000000000572c f   BasePeCoffLib:BasePeCoff.obj
 0001:000057fc       Sha1GetContextSize         0000000000005a9c f   BaseCryptLib:CryptSha1.obj
 0001:00005804       Sha1Init                   0000000000005aa4 f   BaseCryptLib:CryptSha1.obj
 0001:00005814       Sha1Update                 0000000000005ab4 f   BaseCryptLib:CryptSha1.obj
 0001:0000582c       Sha1Final                  0000000000005acc f   BaseCryptLib:CryptSha1.obj
 0001:00005848       Sha384GetContextSize       0000000000005ae8 f   BaseCryptLib:CryptSha512.obj
 0001:00005848       Sha512GetContextSize       0000000000005ae8 f   BaseCryptLib:CryptSha512.obj
 0001:00005850       Sha384Init                 0000000000005af0 f   BaseCryptLib:CryptSha512.obj
 0001:00005860       Sha384Update               0000000000005b00 f   BaseCryptLib:CryptSha512.obj
 0001:00005860       Sha512Update               0000000000005b00 f   BaseCryptLib:CryptSha512.obj
 0001:00005878       Sha512Final                0000000000005b18 f   BaseCryptLib:CryptSha512.obj
 0001:00005878       Sha384Final                0000000000005b18 f   BaseCryptLib:CryptSha512.obj
 0001:00005894       Sha512Init                 0000000000005b34 f   BaseCryptLib:CryptSha512.obj
 0001:000058a4       WrapPkcs7Data              0000000000005b44 f   BaseCryptLib:CryptPkcs7VerifyCommon.obj
 0001:000059c8       X509PopCertificate         0000000000005c68 f   BaseCryptLib:CryptPkcs7VerifyCommon.obj
 0001:00005ae0       Pkcs7GetSigners            0000000000005d80 f   BaseCryptLib:CryptPkcs7VerifyCommon.obj
 0001:00005db8       Pkcs7Verify                0000000000006058 f   BaseCryptLib:CryptPkcs7VerifyCommon.obj
 0001:00006054       Sha256GetContextSize       00000000000062f4 f   BaseCryptLib:CryptSha256.obj
 0001:0000605c       Sha256Init                 00000000000062fc f   BaseCryptLib:CryptSha256.obj
 0001:0000606c       Sha256Update               000000000000630c f   BaseCryptLib:CryptSha256.obj
 0001:00006084       Sha256Final                0000000000006324 f   BaseCryptLib:CryptSha256.obj
 0001:000060a0       AuthenticodeVerify         0000000000006340 f   BaseCryptLib:CryptAuthenticode.obj
 0001:00006250       ConvertAsn1TimeToEfiTime   00000000000064f0 f   BaseCryptLib:CryptTs.obj
 0001:0000645c       CheckTSTInfo               00000000000066fc f   BaseCryptLib:CryptTs.obj
 0001:000065d4       TimestampTokenVerify       0000000000006874 f   BaseCryptLib:CryptTs.obj
 0001:000068dc       ImageTimestampVerify       0000000000006b7c f   BaseCryptLib:CryptTs.obj
 0001:00006adc       malloc                     0000000000006d7c f   BaseCryptLib:BaseMemAllocation.obj
 0001:00006b08       SaveAndDisableInterrupts   0000000000006da8 f   BaseLib:Cpu.obj
 0001:00006b2c       SHA1_Update                0000000000006dcc f   OpensslLib:sha1dgst.obj
 0001:00006c58       SHA1_Final                 0000000000006ef8 f   OpensslLib:sha1dgst.obj
 0001:00006db8       SHA1_Init                  0000000000007058 f   OpensslLib:sha1dgst.obj
 0001:000070d0       SHA384_Init                0000000000007370 f   OpensslLib:sha512.obj
 0001:00007160       SHA512_Init                0000000000007400 f   OpensslLib:sha512.obj
 0001:000071f0       SHA512_Final               0000000000007490 f   OpensslLib:sha512.obj
 0001:00007534       SHA512_Update              00000000000077d4 f   OpensslLib:sha512.obj
 0001:00007658       SHA512                     00000000000078f8 f   OpensslLib:sha512.obj
 0001:00007b7c       X509_STORE_new             0000000000007e1c f   OpensslLib:x509_lu.obj
 0001:00007ca8       X509_STORE_free            0000000000007f48 f   OpensslLib:x509_lu.obj
 0001:00007dd4       X509_STORE_CTX_get_by_subject 0000000000008074 f   OpensslLib:x509_lu.obj
 0001:00007fd0       X509_OBJECT_new            0000000000008270 f   OpensslLib:x509_lu.obj
 0001:00008000       X509_OBJECT_free           00000000000082a0 f   OpensslLib:x509_lu.obj
 0001:0000813c       X509_STORE_CTX_get1_certs  00000000000083dc f   OpensslLib:x509_lu.obj
 0001:000083b8       X509_STORE_CTX_get1_crls   0000000000008658 f   OpensslLib:x509_lu.obj
 0001:0000857c       X509_OBJECT_retrieve_match 000000000000881c f   OpensslLib:x509_lu.obj
 0001:00008698       X509_STORE_CTX_get1_issuer 0000000000008938 f   OpensslLib:x509_lu.obj
 0001:00008878       X509_cmp                   0000000000008b18 f   OpensslLib:x509_cmp.obj
 0001:00008934       X509_NAME_cmp              0000000000008bd4 f   OpensslLib:x509_cmp.obj
 0001:000089b8       X509_find_by_issuer_and_serial 0000000000008c58 f   OpensslLib:x509_cmp.obj
 0001:00008afc       X509_chain_check_suiteb    0000000000008d9c f   OpensslLib:x509_cmp.obj
 0001:00008f20       X509_verify_cert           00000000000091c0 f   OpensslLib:x509_vfy.obj
 0001:0000b1b0       x509_check_cert_time       000000000000b450 f   OpensslLib:x509_vfy.obj
 0001:0000b558       X509_cmp_time              000000000000b7f8 f   OpensslLib:x509_vfy.obj
 0001:0000b640       X509_time_adj              000000000000b8e0 f   OpensslLib:x509_vfy.obj
 0001:0000b6a8       X509_get_pubkey_parameters 000000000000b948 f   OpensslLib:x509_vfy.obj
 0001:0000b7a0       X509_STORE_CTX_init        000000000000ba40 f   OpensslLib:x509_vfy.obj
 0001:0000ba58       X509_STORE_CTX_cleanup     000000000000bcf8 f   OpensslLib:x509_vfy.obj
 0001:0000cc04       BIO_new_mem_buf            000000000000cea4 f   OpensslLib:bss_mem.obj
 0001:0000d500       X509_free                  000000000000d7a0 f   OpensslLib:x_x509.obj
 0001:0000d7f0       OPENSSL_sk_dup             000000000000da90 f   OpensslLib:stack.obj
 0001:0000d980       OPENSSL_sk_new_reserve     000000000000dc20 f   OpensslLib:stack.obj
 0001:0000d9e4       OPENSSL_sk_insert          000000000000dc84 f   OpensslLib:stack.obj
 0001:0000dbac       OPENSSL_sk_pop_free        000000000000de4c f   OpensslLib:stack.obj
 0001:0000dc0c       OPENSSL_sk_free            000000000000deac f   OpensslLib:stack.obj
 0001:0000dc44       OPENSSL_sk_sort            000000000000dee4 f   OpensslLib:stack.obj
 0001:0000dd58       BIO_new                    000000000000dff8 f   OpensslLib:bio_lib.obj
 0001:0000de74       BIO_free                   000000000000e114 f   OpensslLib:bio_lib.obj
 0001:0000e164       BIO_puts                   000000000000e404 f   OpensslLib:bio_lib.obj
 0001:0000e298       BIO_indent                 000000000000e538 f   OpensslLib:bio_lib.obj
 0001:0000e2e4       BIO_ctrl                   000000000000e584 f   OpensslLib:bio_lib.obj
 0001:0000e3cc       BIO_callback_ctrl          000000000000e66c f   OpensslLib:bio_lib.obj
 0001:0000e4b0       BIO_push                   000000000000e750 f   OpensslLib:bio_lib.obj
 0001:0000e4fc       BIO_pop                    000000000000e79c f   OpensslLib:bio_lib.obj
 0001:0000e560       BIO_free_all               000000000000e800 f   OpensslLib:bio_lib.obj
 0001:0000e598       PKCS7_verify               000000000000e838 f   OpensslLib:pk7_smime.obj
 0001:0000e94c       PKCS7_get0_signers         000000000000ebec f   OpensslLib:pk7_smime.obj
 0001:0000ea6c       EVP_add_cipher             000000000000ed0c f   OpensslLib:names.obj
 0001:0000eabc       EVP_add_digest             000000000000ed5c f   OpensslLib:names.obj
 0001:0000eb50       EVP_get_cipherbyname       000000000000edf0 f   OpensslLib:names.obj
 0001:0000eb84       EVP_get_digestbyname       000000000000ee24 f   OpensslLib:names.obj
 0001:0000ebb8       CRYPTO_zalloc              000000000000ee58 f   OpensslLib:mem.obj
 0001:0000ec00       CRYPTO_realloc             000000000000eea0 f   OpensslLib:mem.obj
 0001:0000ecc8       CRYPTO_clear_realloc       000000000000ef68 f   OpensslLib:mem.obj
 0001:0000ed84       CRYPTO_clear_free          000000000000f024 f   OpensslLib:mem.obj
 0001:0000ee24       PKCS7_free                 000000000000f0c4 f   OpensslLib:pk7_asn1.obj
 0001:0000ef74       OBJ_NAME_get               000000000000f214 f   OpensslLib:o_names.obj
 0001:0000f02c       OBJ_NAME_add               000000000000f2cc f   OpensslLib:o_names.obj
 0001:0000f130       X509_verify                000000000000f3d0 f   OpensslLib:x_all.obj
 0001:0000f3b4       OBJ_add_object             000000000000f654 f   OpensslLib:obj_dat.obj
 0001:0000f540       OBJ_nid2obj                000000000000f7e0 f   OpensslLib:obj_dat.obj
 0001:0000f5cc       OBJ_nid2sn                 000000000000f86c f   OpensslLib:obj_dat.obj
 0001:0000f65c       OBJ_nid2ln                 000000000000f8fc f   OpensslLib:obj_dat.obj
 0001:0000f730       OBJ_obj2nid                000000000000f9d0 f   OpensslLib:obj_dat.obj
 0001:0000f7cc       OBJ_txt2obj                000000000000fa6c f   OpensslLib:obj_dat.obj
 0001:0000f8d8       OBJ_obj2txt                000000000000fb78 f   OpensslLib:obj_dat.obj
 0001:0000fc04       OBJ_ln2nid                 000000000000fea4 f   OpensslLib:obj_dat.obj
 0001:0000fc98       OBJ_sn2nid                 000000000000ff38 f   OpensslLib:obj_dat.obj
 0001:0000fd2c       OBJ_bsearch_ex_            000000000000ffcc f   OpensslLib:obj_dat.obj
 0001:0000fe04       OBJ_create                 00000000000100a4 f   OpensslLib:obj_dat.obj
 0001:0000fee8       EVP_PKEY_copy_parameters   0000000000010188 f   OpensslLib:p_lib.obj
 0001:0000ffd4       EVP_PKEY_new               0000000000010274 f   OpensslLib:p_lib.obj
 0001:00010100       EVP_PKEY_assign            00000000000103a0 f   OpensslLib:p_lib.obj
 0001:00010148       EVP_PKEY_get0_EC_KEY       00000000000103e8 f   OpensslLib:p_lib.obj
 0001:00010174       EVP_PKEY_free              0000000000010414 f   OpensslLib:p_lib.obj
 0001:000101e4       X509_NAME_ENTRY_free       0000000000010484 f   OpensslLib:x_name.obj
 0001:00010208       i2d_X509_NAME              00000000000104a8 f   OpensslLib:x_name.obj
 0001:00010bf8       X509_NAME_print            0000000000010e98 f   OpensslLib:x_name.obj
 0001:00010d38       X509_NAME_get_index_by_NID 0000000000010fd8 f   OpensslLib:x509name.obj
 0001:00010d74       X509_NAME_get_index_by_OBJ 0000000000011014 f   OpensslLib:x509name.obj
 0001:00010e10       X509_NAME_get_entry        00000000000110b0 f   OpensslLib:x509name.obj
 0001:00010e48       X509_NAME_delete_entry     00000000000110e8 f   OpensslLib:x509name.obj
 0001:00010f58       X509_NAME_add_entry        00000000000111f8 f   OpensslLib:x509name.obj
 0001:000110c0       X509_NAME_ENTRY_create_by_OBJ 0000000000011360 f   OpensslLib:x509name.obj
 0001:00011168       ASN1_get_object            0000000000011408 f   OpensslLib:asn1_lib.obj
 0001:000112fc       ASN1_put_object            000000000001159c f   OpensslLib:asn1_lib.obj
 0001:000113f4       ASN1_object_size           0000000000011694 f   OpensslLib:asn1_lib.obj
 0001:00011448       ASN1_STRING_copy           00000000000116e8 f   OpensslLib:asn1_lib.obj
 0001:00011498       ASN1_STRING_dup            0000000000011738 f   OpensslLib:asn1_lib.obj
 0001:000114e8       ASN1_STRING_set            0000000000011788 f   OpensslLib:asn1_lib.obj
 0001:000115ec       ASN1_STRING_set0           000000000001188c f   OpensslLib:asn1_lib.obj
 0001:00011634       ASN1_STRING_type_new       00000000000118d4 f   OpensslLib:asn1_lib.obj
 0001:0001166c       ASN1_STRING_free           000000000001190c f   OpensslLib:asn1_lib.obj
 0001:000116c4       ASN1_STRING_clear_free     0000000000011964 f   OpensslLib:asn1_lib.obj
 0001:000116fc       ASN1_STRING_cmp            000000000001199c f   OpensslLib:asn1_lib.obj
 0001:00012304       ASN1_STRING_to_UTF8        00000000000125a4 f   OpensslLib:a_strex.obj
 0001:00012420       SHA224_Init                00000000000126c0 f   OpensslLib:sha256.obj
 0001:00012480       SHA256_Init                0000000000012720 f   OpensslLib:sha256.obj
 0001:000124e0       SHA256_Update              0000000000012780 f   OpensslLib:sha256.obj
 0001:0001260c       SHA256_Final               00000000000128ac f   OpensslLib:sha256.obj
 0001:00012af0       PKCS7_ctrl                 0000000000012d90 f   OpensslLib:pk7_lib.obj
 0001:00012b40       PKCS7_get_signer_info      0000000000012de0 f   OpensslLib:pk7_lib.obj
 0001:00012b84       PKCS7_stream               0000000000012e24 f   OpensslLib:pk7_lib.obj
 0001:00012c40       ASN1_INTEGER_free          0000000000012ee0 f   OpensslLib:tasn_typ.obj
 0001:00012c48       ASN1_TYPE_free             0000000000012ee8 f   OpensslLib:tasn_typ.obj
 0001:00012c6c       ASN1_item_d2i              0000000000012f0c f   OpensslLib:tasn_dec.obj
 0001:00012cbc       ASN1_item_ex_d2i           0000000000012f5c f   OpensslLib:tasn_dec.obj
 0001:00014234       X509_ALGOR_free            00000000000144d4 f   OpensslLib:x_algor.obj
 0001:00014258       X509_ALGOR_set0            00000000000144f8 f   OpensslLib:x_algor.obj
 0001:000142f0       ASN1_item_new              0000000000014590 f   OpensslLib:tasn_new.obj
 0001:000147d4       EVP_MD_CTX_reset           0000000000014a74 f   OpensslLib:digest.obj
 0001:00014858       EVP_DigestInit_ex          0000000000014af8 f   OpensslLib:digest.obj
 0001:0001492c       EVP_DigestFinal_ex         0000000000014bcc f   OpensslLib:digest.obj
 0001:00014998       EVP_DigestFinalXOF         0000000000014c38 f   OpensslLib:digest.obj
 0001:00014a30       EVP_MD_CTX_copy_ex         0000000000014cd0 f   OpensslLib:digest.obj
 0001:00014b5c       EVP_Digest                 0000000000014dfc f   OpensslLib:digest.obj
 0001:00014c08       ASN1_INTEGER_cmp           0000000000014ea8 f   OpensslLib:a_int.obj
 0001:00014e88       c2i_ASN1_INTEGER           0000000000015128 f   OpensslLib:a_int.obj
 0001:000151dc       ASN1_INTEGER_get           000000000001547c f   OpensslLib:a_int.obj
 0001:00015220       ASN1_ENUMERATED_get        00000000000154c0 f   OpensslLib:a_int.obj
 0001:00015274       c2i_uint64_int             0000000000015514 f   OpensslLib:a_int.obj
 0001:0001530c       X509at_get_attr_by_OBJ     00000000000155ac f   OpensslLib:x509_att.obj
 0001:00015388       asn1_item_embed_free       0000000000015628 f   OpensslLib:tasn_fre.obj
 0001:00015594       asn1_template_free         0000000000015834 f   OpensslLib:tasn_fre.obj
 0001:00015640       asn1_primitive_free        00000000000158e0 f   OpensslLib:tasn_fre.obj
 0001:00015750       EVP_CIPHER_param_to_asn1   00000000000159f0 f   OpensslLib:evp_lib.obj
 0001:00015800       EVP_CIPHER_get_asn1_iv     0000000000015aa0 f   OpensslLib:evp_lib.obj
 0001:000158b8       EVP_CIPHER_set_asn1_iv     0000000000015b58 f   OpensslLib:evp_lib.obj
 0001:00015948       EVP_CIPHER_type            0000000000015be8 f   OpensslLib:evp_lib.obj
 0001:00015a38       EVP_CIPHER_CTX_iv_length   0000000000015cd8 f   OpensslLib:evp_lib.obj
 0001:00015b34       ASN1_item_ex_i2d           0000000000015dd4 f   OpensslLib:tasn_enc.obj
 0001:000166d4       GENERAL_NAME_free          0000000000016974 f   OpensslLib:v3_genn.obj
 0001:000166f8       GENERAL_NAMES_free         0000000000016998 f   OpensslLib:v3_genn.obj
 0001:000167a0       ERR_put_error              0000000000016a40 f   OpensslLib:err.obj
 0001:000168b4       ERR_clear_error            0000000000016b54 f   OpensslLib:err.obj
 0001:00016b3c       ERR_get_state              0000000000016ddc f   OpensslLib:err.obj
 0001:00016ca4       ERR_add_error_data         0000000000016f44 f   OpensslLib:err.obj
 0001:00016db8       ERR_set_mark               0000000000017058 f   OpensslLib:err.obj
 0001:00016de8       ERR_pop_to_mark            0000000000017088 f   OpensslLib:err.obj
 0001:00016ee4       err_clear_last_constant_time 0000000000017184 f   OpensslLib:err.obj
 0001:000170ac       X509_VERIFY_PARAM_free     000000000001734c f   OpensslLib:x509_vpm.obj
 0001:00017138       X509_VERIFY_PARAM_inherit  00000000000173d8 f   OpensslLib:x509_vpm.obj
 0001:000173b8       X509_VERIFY_PARAM_set1_policies 0000000000017658 f   OpensslLib:x509_vpm.obj
 0001:00017518       X509_VERIFY_PARAM_lookup   00000000000177b8 f   OpensslLib:x509_vpm.obj
 0001:00017c94       X509_CRL_free              0000000000017f34 f   OpensslLib:x_crl.obj
 0001:00017f54       CRYPTO_new_ex_data         00000000000181f4 f   OpensslLib:ex_data.obj
 0001:000180b8       CRYPTO_dup_ex_data         0000000000018358 f   OpensslLib:ex_data.obj
 0001:000182a8       CRYPTO_free_ex_data        0000000000018548 f   OpensslLib:ex_data.obj
 0001:00018418       CRYPTO_set_ex_data         00000000000186b8 f   OpensslLib:ex_data.obj
 0001:000184bc       X509_check_purpose         000000000001875c f   OpensslLib:v3_purp.obj
 0001:00018538       X509_PURPOSE_get_by_id     00000000000187d8 f   OpensslLib:v3_purp.obj
 0001:00019094       x509_likely_issued         0000000000019334 f   OpensslLib:v3_purp.obj
 0001:0001911c       X509_check_akid            00000000000193bc f   OpensslLib:v3_purp.obj
 0001:000191cc       X509_NAME_oneline          000000000001946c f   OpensslLib:x509_obj.obj
 0001:00019554       EC_KEY_free                00000000000197f4 f   OpensslLib:ec_key.obj
 0001:00019610       EC_KEY_copy                00000000000198b0 f   OpensslLib:ec_key.obj
 0001:000197b4       EC_KEY_dup                 0000000000019a54 f   OpensslLib:ec_key.obj
 0001:000197fc       ossl_ec_key_gen            0000000000019a9c f   OpensslLib:ec_key.obj
 0001:0001980c       ec_key_simple_generate_key 0000000000019aac f   OpensslLib:ec_key.obj
 0001:000198fc       ec_key_simple_generate_public_key 0000000000019b9c f   OpensslLib:ec_key.obj
 0001:00019928       EC_KEY_check_key           0000000000019bc8 f   OpensslLib:ec_key.obj
 0001:0001997c       ec_key_simple_check_key    0000000000019c1c f   OpensslLib:ec_key.obj
 0001:00019b20       EC_KEY_set_group           0000000000019dc0 f   OpensslLib:ec_key.obj
 0001:00019b78       EC_KEY_oct2key             0000000000019e18 f   OpensslLib:ec_key.obj
 0001:00019bfc       ec_key_simple_priv2oct     0000000000019e9c f   OpensslLib:ec_key.obj
 0001:00019c88       ec_key_simple_oct2priv     0000000000019f28 f   OpensslLib:ec_key.obj
 0001:00019d08       EC_KEY_priv2buf            0000000000019fa8 f   OpensslLib:ec_key.obj
 0001:00019df8       EC_GROUP_new               000000000001a098 f   OpensslLib:ec_lib.obj
 0001:00019ec0       EC_GROUP_free              000000000001a160 f   OpensslLib:ec_lib.obj
 0001:00019f50       EC_GROUP_copy              000000000001a1f0 f   OpensslLib:ec_lib.obj
 0001:0001a178       EC_GROUP_dup               000000000001a418 f   OpensslLib:ec_lib.obj
 0001:0001a3ac       EC_GROUP_set_generator     000000000001a64c f   OpensslLib:ec_lib.obj
 0001:0001a538       EC_GROUP_set_seed          000000000001a7d8 f   OpensslLib:ec_lib.obj
 0001:0001a5dc       EC_GROUP_cmp               000000000001a87c f   OpensslLib:ec_lib.obj
 0001:0001a794       EC_POINT_new               000000000001aa34 f   OpensslLib:ec_lib.obj
 0001:0001a81c       EC_POINT_free              000000000001aabc f   OpensslLib:ec_lib.obj
 0001:0001a84c       EC_POINT_clear_free        000000000001aaec f   OpensslLib:ec_lib.obj
 0001:0001a89c       EC_POINT_copy              000000000001ab3c f   OpensslLib:ec_lib.obj
 0001:0001a8f8       EC_POINT_set_to_infinity   000000000001ab98 f   OpensslLib:ec_lib.obj
 0001:0001a938       EC_POINT_set_affine_coordinates 000000000001abd8 f   OpensslLib:ec_lib.obj
 0001:0001a9d4       EC_POINT_get_affine_coordinates 000000000001ac74 f   OpensslLib:ec_lib.obj
 0001:0001aa80       EC_POINT_add               000000000001ad20 f   OpensslLib:ec_lib.obj
 0001:0001ab00       EC_POINT_dbl               000000000001ada0 f   OpensslLib:ec_lib.obj
 0001:0001ab68       EC_POINT_invert            000000000001ae08 f   OpensslLib:ec_lib.obj
 0001:0001abbc       EC_POINT_is_at_infinity    000000000001ae5c f   OpensslLib:ec_lib.obj
 0001:0001ac10       EC_POINT_is_on_curve       000000000001aeb0 f   OpensslLib:ec_lib.obj
 0001:0001ac64       EC_POINT_cmp               000000000001af04 f   OpensslLib:ec_lib.obj
 0001:0001accc       EC_POINTs_make_affine      000000000001af6c f   OpensslLib:ec_lib.obj
 0001:0001ad4c       EC_POINT_mul               000000000001afec f   OpensslLib:ec_lib.obj
 0001:0001af70       ec_group_simple_order_bits 000000000001b210 f   OpensslLib:ec_lib.obj
 0001:0001b194       X509_PUBKEY_get0           000000000001b434 f   OpensslLib:x_pubkey.obj
 0001:0001b254       X509_PUBKEY_set0_param     000000000001b4f4 f   OpensslLib:x_pubkey.obj
 0001:0001b418       asn1_time_to_tm            000000000001b6b8 f   OpensslLib:a_time.obj
 0001:0001b7d8       asn1_time_from_tm          000000000001ba78 f   OpensslLib:a_time.obj
 0001:0001b8f0       ASN1_TIME_diff             000000000001bb90 f   OpensslLib:a_time.obj
 0001:0001b9c4       ASN1_TIME_print            000000000001bc64 f   OpensslLib:a_time.obj
 0001:0001bb4c       X509V3_add_value           000000000001bdec f   OpensslLib:v3_utl.obj
 0001:0001bc70       X509V3_conf_free           000000000001bf10 f   OpensslLib:v3_utl.obj
 0001:0001bde0       i2s_ASN1_INTEGER           000000000001c080 f   OpensslLib:v3_utl.obj
 0001:0001be44       s2i_ASN1_INTEGER           000000000001c0e4 f   OpensslLib:v3_utl.obj
 0001:0001bf48       X509V3_add_value_int       000000000001c1e8 f   OpensslLib:v3_utl.obj
 0001:0001bfa8       X509V3_get_value_bool      000000000001c248 f   OpensslLib:v3_utl.obj
 0001:0001c138       X509V3_get_value_int       000000000001c3d8 f   OpensslLib:v3_utl.obj
 0001:0001c1a8       X509V3_parse_list          000000000001c448 f   OpensslLib:v3_utl.obj
 0001:0001c418       name_cmp                   000000000001c6b8 f   OpensslLib:v3_utl.obj
 0001:0001cc94       a2i_IPADDRESS_NC           000000000001cf34 f   OpensslLib:v3_utl.obj
 0001:0001cd74       a2i_ipadd                  000000000001d014 f   OpensslLib:v3_utl.obj
 0001:0001d034       X509V3_NAME_from_section   000000000001d2d4 f   OpensslLib:v3_utl.obj
 0001:0001d178       X509v3_get_ext_by_NID      000000000001d418 f   OpensslLib:x509_v3.obj
 0001:0001d1b4       X509v3_get_ext_by_OBJ      000000000001d454 f   OpensslLib:x509_v3.obj
 0001:0001def0       X509_policy_tree_free      000000000001e190 f   OpensslLib:pcy_tree.obj
 0001:0001dfac       X509_policy_check          000000000001e24c f   OpensslLib:pcy_tree.obj
 0001:0001e2d0       X509_check_trust           000000000001e570 f   OpensslLib:x509_trs.obj
 0001:0001e354       X509_TRUST_get_by_id       000000000001e5f4 f   OpensslLib:x509_trs.obj
 0001:0001e8d0       NAME_CONSTRAINTS_check     000000000001eb70 f   OpensslLib:v3_ncons.obj
 0001:0001ea98       NAME_CONSTRAINTS_check_CN  000000000001ed38 f   OpensslLib:v3_ncons.obj
 0001:0001f100       ossl_tolower               000000000001f3a0 f   OpensslLib:ctype.obj
 0001:0001f12c       bwrite_conv                000000000001f3cc f   OpensslLib:bio_meth.obj
 0001:0001f168       bread_conv                 000000000001f408 f   OpensslLib:bio_meth.obj
 0001:0001f1a4       BUF_MEM_new                000000000001f444 f   OpensslLib:buffer.obj
 0001:0001f1d0       BUF_MEM_free               000000000001f470 f   OpensslLib:buffer.obj
 0001:0001f2d0       BUF_MEM_grow               000000000001f570 f   OpensslLib:buffer.obj
 0001:0001f3b8       BUF_MEM_grow_clean         000000000001f658 f   OpensslLib:buffer.obj
 0001:0001f4c0       ASN1_item_dup              000000000001f760 f   OpensslLib:a_dup.obj
 0001:0001fcac       DIST_POINT_free            000000000001ff4c f   OpensslLib:v3_crld.obj
 0001:00020070       DIST_POINT_set_dpname      0000000000020310 f   OpensslLib:v3_crld.obj
 0001:000204a0       PKCS7_add1_attrib_digest   0000000000020740 f   OpensslLib:pk7_attr.obj
 0001:00020994       PKCS7_dataInit             0000000000020c34 f   OpensslLib:pk7_doit.obj
 0001:00020ef8       PKCS7_dataFinal            0000000000021198 f   OpensslLib:pk7_doit.obj
 0001:00021330       PKCS7_SIGNER_INFO_sign     00000000000215d0 f   OpensslLib:pk7_doit.obj
 0001:00021618       PKCS7_signatureVerify      00000000000218b8 f   OpensslLib:pk7_doit.obj
 0001:00021a50       X509_verify_cert_error_string 0000000000021cf0 f   OpensslLib:x509_txt.obj
 0001:00021e8c       OBJ_dup                    000000000002212c f   OpensslLib:obj_lib.obj
 0001:00021f7c       OBJ_cmp                    000000000002221c f   OpensslLib:obj_lib.obj
 0001:00022288       ossl_init_thread_start     0000000000022528 f   OpensslLib:init.obj
 0001:000222d0       OPENSSL_init_crypto        0000000000022570 f   OpensslLib:init.obj
 0001:00022564       OBJ_find_sigid_algs        0000000000022804 f   OpensslLib:obj_xref.obj
 0001:0002260c       OBJ_find_sigid_by_algs     00000000000228ac f   OpensslLib:obj_xref.obj
 0001:000227ec       EVP_PKEY_CTX_dup           0000000000022a8c f   OpensslLib:pmeth_lib.obj
 0001:000228a8       EVP_PKEY_CTX_free          0000000000022b48 f   OpensslLib:pmeth_lib.obj
 0001:000228f0       EVP_PKEY_CTX_ctrl          0000000000022b90 f   OpensslLib:pmeth_lib.obj
 0001:000229b0       EVP_PKEY_CTX_str2ctrl      0000000000022c50 f   OpensslLib:pmeth_lib.obj
 0001:000229f0       EVP_PKEY_CTX_hex2ctrl      0000000000022c90 f   OpensslLib:pmeth_lib.obj
 0001:00022a54       EVP_PKEY_CTX_md            0000000000022cf4 f   OpensslLib:pmeth_lib.obj
 0001:00022ac0       X509_ATTRIBUTE_free        0000000000022d60 f   OpensslLib:x_attrib.obj
 0001:00022ae4       X509_ATTRIBUTE_create      0000000000022d84 f   OpensslLib:x_attrib.obj
 0001:00022b88       OPENSSL_LH_new             0000000000022e28 f   OpensslLib:lhash.obj
 0001:00022c2c       OPENSSL_LH_insert          0000000000022ecc f   OpensslLib:lhash.obj
 0001:00022cdc       OPENSSL_LH_retrieve        0000000000022f7c f   OpensslLib:lhash.obj
 0001:00022eb4       OPENSSL_LH_strhash         0000000000023154 f   OpensslLib:lhash.obj
 0001:00022f04       openssl_lh_strcasehash     00000000000231a4 f   OpensslLib:lhash.obj
 0001:00022f60       PKCS8_pkey_set0            0000000000023200 f   OpensslLib:p8_pkey.obj
 0001:00023380       EC_GROUP_get_ecparameters  0000000000023620 f   OpensslLib:ec_asn1.obj
 0001:000234fc       EC_GROUP_get_ecpkparameters 000000000002379c f   OpensslLib:ec_asn1.obj
 0001:000235f8       EC_GROUP_new_from_ecparameters 0000000000023898 f   OpensslLib:ec_asn1.obj
 0001:00023a2c       EC_GROUP_new_from_ecpkparameters 0000000000023ccc f   OpensslLib:ec_asn1.obj
 0001:00023aa8       d2i_ECPKParameters         0000000000023d48 f   OpensslLib:ec_asn1.obj
 0001:00023b84       d2i_ECPrivateKey           0000000000023e24 f   OpensslLib:ec_asn1.obj
 0001:00023d68       i2d_ECPrivateKey           0000000000024008 f   OpensslLib:ec_asn1.obj
 0001:00023f98       i2d_ECParameters           0000000000024238 f   OpensslLib:ec_asn1.obj
 0001:00024064       d2i_ECParameters           0000000000024304 f   OpensslLib:ec_asn1.obj
 0001:000240f0       i2o_ECPublicKey            0000000000024390 f   OpensslLib:ec_asn1.obj
 0001:00024200       ECDSA_SIG_new              00000000000244a0 f   OpensslLib:ec_asn1.obj
 0001:00024234       ECDSA_size                 00000000000244d4 f   OpensslLib:ec_asn1.obj
 0001:000242bc       ASN1_item_digest           000000000002455c f   OpensslLib:a_digest.obj
 0001:00024348       ASN1_item_verify           00000000000245e8 f   OpensslLib:a_verify.obj
 0001:000245f0       ASN1_item_i2d_bio          0000000000024890 f   OpensslLib:a_i2d_fp.obj
 0001:000246a0       RSA_new_method             0000000000024940 f   OpensslLib:rsa_lib.obj
 0001:00024880       RSA_free                   0000000000024b20 f   OpensslLib:rsa_lib.obj
 0001:0002499c       RSA_pkey_ctx_ctrl          0000000000024c3c f   OpensslLib:rsa_lib.obj
 0001:000249e4       MD5_Update                 0000000000024c84 f   OpensslLib:md5_dgst.obj
 0001:00024b10       MD5_Final                  0000000000024db0 f   OpensslLib:md5_dgst.obj
 0001:00024ca8       md5_block_data_order       0000000000024f48 f   OpensslLib:md5_dgst.obj
 0001:00025750       BN_bn2hex                  00000000000259f0 f   OpensslLib:bn_print.obj
 0001:0002582c       BN_bn2dec                  0000000000025acc f   OpensslLib:bn_print.obj
 0001:00025a10       BN_hex2bn                  0000000000025cb0 f   OpensslLib:bn_print.obj
 0001:00025bcc       BN_dec2bn                  0000000000025e6c f   OpensslLib:bn_print.obj
 0001:00025e40       CRYPTO_strdup              00000000000260e0 f   OpensslLib:o_str.obj
 0001:00025ea0       CRYPTO_strndup             0000000000026140 f   OpensslLib:o_str.obj
 0001:00025f24       CRYPTO_memdup              00000000000261c4 f   OpensslLib:o_str.obj
 0001:00025f98       OPENSSL_strlcpy            0000000000026238 f   OpensslLib:o_str.obj
 0001:00025fec       OPENSSL_hexchar2int        000000000002628c f   OpensslLib:o_str.obj
 0001:000260ac       OPENSSL_hexstr2buf         000000000002634c f   OpensslLib:o_str.obj
 0001:000261bc       OPENSSL_buf2hexstr         000000000002645c f   OpensslLib:o_str.obj
 0001:0002625c       BN_mod_word                00000000000264fc f   OpensslLib:bn_word.obj
 0001:00026300       BN_div_word                00000000000265a0 f   OpensslLib:bn_word.obj
 0001:000263ec       BN_add_word                000000000002668c f   OpensslLib:bn_word.obj
 0001:000264c0       BN_sub_word                0000000000026760 f   OpensslLib:bn_word.obj
 0001:00026590       BN_mul_word                0000000000026830 f   OpensslLib:bn_word.obj
 0001:0002669c       BN_num_bits_word           000000000002693c f   OpensslLib:bn_lib.obj
 0001:00026774       BN_num_bits                0000000000026a14 f   OpensslLib:bn_lib.obj
 0001:000268a0       BN_clear_free              0000000000026b40 f   OpensslLib:bn_lib.obj
 0001:000268f0       BN_free                    0000000000026b90 f   OpensslLib:bn_lib.obj
 0001:00026928       BN_new                     0000000000026bc8 f   OpensslLib:bn_lib.obj
 0001:00026964       bn_expand2                 0000000000026c04 f   OpensslLib:bn_lib.obj
 0001:00026a20       BN_dup                     0000000000026cc0 f   OpensslLib:bn_lib.obj
 0001:00026a84       BN_copy                    0000000000026d24 f   OpensslLib:bn_lib.obj
 0001:00026b04       BN_set_word                0000000000026da4 f   OpensslLib:bn_lib.obj
 0001:00026b50       BN_bin2bn                  0000000000026df0 f   OpensslLib:bn_lib.obj
 0001:00026d78       BN_ucmp                    0000000000027018 f   OpensslLib:bn_lib.obj
 0001:00026dc0       BN_cmp                     0000000000027060 f   OpensslLib:bn_lib.obj
 0001:00026e44       BN_set_bit                 00000000000270e4 f   OpensslLib:bn_lib.obj
 0001:00026ed4       BN_is_bit_set              0000000000027174 f   OpensslLib:bn_lib.obj
 0001:00026f04       BN_consttime_swap          00000000000271a4 f   OpensslLib:bn_lib.obj
 0001:00026fa8       BN_security_bits           0000000000027248 f   OpensslLib:bn_lib.obj
 0001:00027010       BN_is_word                 00000000000272b0 f   OpensslLib:bn_lib.obj
 0001:00027040       bn_correct_top             00000000000272e0 f   OpensslLib:bn_lib.obj
 0001:00027070       a2d_ASN1_OBJECT            0000000000027310 f   OpensslLib:a_object.obj
 0001:00027418       i2a_ASN1_OBJECT            00000000000276b8 f   OpensslLib:a_object.obj
 0001:00027560       d2i_ASN1_OBJECT            0000000000027800 f   OpensslLib:a_object.obj
 0001:000275e8       c2i_ASN1_OBJECT            0000000000027888 f   OpensslLib:a_object.obj
 0001:000277c4       ASN1_OBJECT_free           0000000000027a64 f   OpensslLib:a_object.obj
 0001:0002785c       BN_lshift1                 0000000000027afc f   OpensslLib:bn_shift.obj
 0001:00027904       BN_rshift1                 0000000000027ba4 f   OpensslLib:bn_shift.obj
 0001:000279d8       BN_lshift                  0000000000027c78 f   OpensslLib:bn_shift.obj
 0001:00027a1c       bn_lshift_fixed_top        0000000000027cbc f   OpensslLib:bn_shift.obj
 0001:00027b5c       BN_rshift                  0000000000027dfc f   OpensslLib:bn_shift.obj
 0001:00027b98       bn_rshift_fixed_top        0000000000027e38 f   OpensslLib:bn_shift.obj
 0001:00027ca0       DH_new                     0000000000027f40 f   OpensslLib:dh_lib.obj
 0001:00027e44       DH_free                    00000000000280e4 f   OpensslLib:dh_lib.obj
 0001:00027f10       EVP_PKEY_asn1_find         00000000000281b0 f   OpensslLib:ameth_lib.obj
 0001:00028028       CMAC_CTX_new               00000000000282c8 f   OpensslLib:cmac.obj
 0001:0002808c       CMAC_CTX_free              000000000002832c f   OpensslLib:cmac.obj
 0001:00028138       CMAC_CTX_copy              00000000000283d8 f   OpensslLib:cmac.obj
 0001:00028204       CMAC_Init                  00000000000284a4 f   OpensslLib:cmac.obj
 0001:000283bc       ASN1_STRING_set_by_NID     000000000002865c f   OpensslLib:a_strnid.obj
 0001:0002844c       ASN1_STRING_TABLE_get      00000000000286ec f   OpensslLib:a_strnid.obj
 0001:000284e4       ASN1_STRING_print          0000000000028784 f   OpensslLib:a_print.obj
 0001:000285c0       ASN1_tag2str               0000000000028860 f   OpensslLib:asn1_par.obj
 0001:000285f0       UTF8_getc                  0000000000028890 f   OpensslLib:a_utf8.obj
 0001:000288e0       UTF8_putc                  0000000000028b80 f   OpensslLib:a_utf8.obj
 0001:00028aa0       ASN1_mbstring_ncopy        0000000000028d40 f   OpensslLib:a_mbstr.obj
 0001:00029074       rsa_multip_info_free_ex    0000000000029314 f   OpensslLib:rsa_mp.obj
 0001:0002909c       rsa_multip_info_free       000000000002933c f   OpensslLib:rsa_mp.obj
 0001:000290cc       rsa_multip_info_new        000000000002936c f   OpensslLib:rsa_mp.obj
 0001:00029194       rsa_multip_calc_product    0000000000029434 f   OpensslLib:rsa_mp.obj
 0001:000297fc       i2c_ASN1_BIT_STRING        0000000000029a9c f   OpensslLib:a_bitstr.obj
 0001:00029918       c2i_ASN1_BIT_STRING        0000000000029bb8 f   OpensslLib:a_bitstr.obj
 0001:00029a88       ASN1_BIT_STRING_set_bit    0000000000029d28 f   OpensslLib:a_bitstr.obj
 0001:00029b90       asn1_do_lock               0000000000029e30 f   OpensslLib:tasn_utl.obj
 0001:00029c40       asn1_enc_save              0000000000029ee0 f   OpensslLib:tasn_utl.obj
 0001:00029d04       asn1_do_adb                0000000000029fa4 f   OpensslLib:tasn_utl.obj
 0001:00029db8       ASN1_TYPE_set              000000000002a058 f   OpensslLib:a_type.obj
 0001:00029e1c       ASN1_TYPE_cmp              000000000002a0bc f   OpensslLib:a_type.obj
 0001:00029e7c       ASN1_TYPE_unpack_sequence  000000000002a11c f   OpensslLib:a_type.obj
 0001:00029ed8       EVP_CIPHER_CTX_reset       000000000002a178 f   OpensslLib:evp_enc.obj
 0001:00029f50       EVP_CipherInit_ex          000000000002a1f0 f   OpensslLib:evp_enc.obj
 0001:0002a440       EVP_EncryptFinal_ex        000000000002a6e0 f   OpensslLib:evp_enc.obj
 0001:0002a50c       EVP_DecryptUpdate          000000000002a7ac f   OpensslLib:evp_enc.obj
 0001:0002a764       EVP_DecryptFinal_ex        000000000002aa04 f   OpensslLib:evp_enc.obj
 0001:0002a874       EVP_CIPHER_CTX_set_key_length 000000000002ab14 f   OpensslLib:evp_enc.obj
 0001:0002a8cc       EVP_CIPHER_CTX_ctrl        000000000002ab6c f   OpensslLib:evp_enc.obj
 0001:0002a914       EVP_CIPHER_CTX_copy        000000000002abb4 f   OpensslLib:evp_enc.obj
 0001:0002ab88       BN_CTX_new                 000000000002ae28 f   OpensslLib:bn_ctx.obj
 0001:0002abcc       BN_CTX_free                000000000002ae6c f   OpensslLib:bn_ctx.obj
 0001:0002ac6c       BN_CTX_start               000000000002af0c f   OpensslLib:bn_ctx.obj
 0001:0002acb4       BN_CTX_end                 000000000002af54 f   OpensslLib:bn_ctx.obj
 0001:0002ad2c       BN_CTX_get                 000000000002afcc f   OpensslLib:bn_ctx.obj
 0001:0002b284       EC_GROUP_new_by_curve_name 000000000002b524 f   OpensslLib:ec_curve.obj
 0001:0002b2f0       EC_curve_nist2nid          000000000002b590 f   OpensslLib:ec_curve.obj
 0001:0002b350       ec_curve_nid_from_params   000000000002b5f0 f   OpensslLib:ec_curve.obj
 0001:0002b608       bn_compute_wNAF            000000000002b8a8 f   OpensslLib:bn_intern.obj
 0001:0002b7c4       EC_POINT_set_compressed_coordinates 000000000002ba64 f   OpensslLib:ec_oct.obj
 0001:0002b848       EC_POINT_point2oct         000000000002bae8 f   OpensslLib:ec_oct.obj
 0001:0002b8c8       EC_POINT_oct2point         000000000002bb68 f   OpensslLib:ec_oct.obj
 0001:0002b950       EC_POINT_point2buf         000000000002bbf0 f   OpensslLib:ec_oct.obj
 0001:0002ba10       EC_KEY_new_method          000000000002bcb0 f   OpensslLib:ec_kmeth.obj
 0001:0002bb88       ECDH_compute_key           000000000002be28 f   OpensslLib:ec_kmeth.obj
 0001:0002bf40       BN_generate_dsa_nonce      000000000002c1e0 f   OpensslLib:bn_rand.obj
 0001:0002c130       bn_mul_mont_fixed_top      000000000002c3d0 f   OpensslLib:bn_mont.obj
 0001:0002c384       bn_from_mont_fixed_top     000000000002c624 f   OpensslLib:bn_mont.obj
 0001:0002c408       BN_MONT_CTX_new            000000000002c6a8 f   OpensslLib:bn_mont.obj
 0001:0002c47c       BN_MONT_CTX_free           000000000002c71c f   OpensslLib:bn_mont.obj
 0001:0002c4c0       BN_MONT_CTX_set            000000000002c760 f   OpensslLib:bn_mont.obj
 0001:0002c784       BN_MONT_CTX_copy           000000000002ca24 f   OpensslLib:bn_mont.obj
 0001:0002c804       BN_MONT_CTX_set_locked     000000000002caa4 f   OpensslLib:bn_mont.obj
 0001:0002c884       BN_add                     000000000002cb24 f   OpensslLib:bn_add.obj
 0001:0002c8f4       BN_sub                     000000000002cb94 f   OpensslLib:bn_add.obj
 0001:0002c96c       BN_uadd                    000000000002cc0c f   OpensslLib:bn_add.obj
 0001:0002ca38       BN_usub                    000000000002ccd8 f   OpensslLib:bn_add.obj
 0001:0002cb28       EC_ec_pre_comp_free        000000000002cdc8 f   OpensslLib:ec_mult.obj
 0001:0002cbb8       ec_scalar_mul_ladder       000000000002ce58 f   OpensslLib:ec_mult.obj
 0001:0002d1bc       ec_wNAF_mul                000000000002d45c f   OpensslLib:ec_mult.obj
 0001:0002dcbc       BN_div                     000000000002df5c f   OpensslLib:bn_div.obj
 0001:0002dd44       bn_div_fixed_top           000000000002dfe4 f   OpensslLib:bn_div.obj
 0001:0002e14c       BN_mod_exp                 000000000002e3ec f   OpensslLib:bn_exp.obj
 0001:0002e1bc       BN_mod_exp_recp            000000000002e45c f   OpensslLib:bn_exp.obj
 0001:0002e598       BN_mod_exp_mont            000000000002e838 f   OpensslLib:bn_exp.obj
 0001:0002ed7c       BN_mod_exp_mont_consttime  000000000002f01c f   OpensslLib:bn_exp.obj
 0001:0002f270       BN_mod_exp_mont_word       000000000002f510 f   OpensslLib:bn_exp.obj
 0001:0002f6a8       OPENSSL_gmtime             000000000002f948 f   OpensslLib:o_time.obj
 0001:0002f6dc       OPENSSL_gmtime_adj         000000000002f97c f   OpensslLib:o_time.obj
 0001:0002f7b0       OPENSSL_gmtime_diff        000000000002fa50 f   OpensslLib:o_time.obj
 0001:0002fa80       ACCESS_DESCRIPTION_free    000000000002fd20 f   OpensslLib:v3_info.obj
 0001:0002ff08       CONF_parse_list            00000000000301a8 f   OpensslLib:conf_mod.obj
 0001:00030004       X509V3_EXT_get_nid         00000000000302a4 f   OpensslLib:v3_lib.obj
 0001:00030098       X509V3_EXT_d2i             0000000000030338 f   OpensslLib:v3_lib.obj
 0001:000300fc       X509V3_get_d2i             000000000003039c f   OpensslLib:v3_lib.obj
 0001:000301e4       level_add_node             0000000000030484 f   OpensslLib:pcy_node.obj
 0001:0003030c       policy_node_free           00000000000305ac f   OpensslLib:pcy_node.obj
 0001:00030328       policy_data_free           00000000000305c8 f   OpensslLib:pcy_data.obj
 0001:00030378       policy_data_new            0000000000030618 f   OpensslLib:pcy_data.obj
 0001:00030470       i2v_GENERAL_NAMES          0000000000030710 f   OpensslLib:v3_alt.obj
 0001:00030520       i2v_GENERAL_NAME           00000000000307c0 f   OpensslLib:v3_alt.obj
 0001:000306b0       GENERAL_NAME_print         0000000000030950 f   OpensslLib:v3_alt.obj
 0001:00030c50       v2i_GENERAL_NAMES          0000000000030ef0 f   OpensslLib:v3_alt.obj
 0001:00030d20       a2i_GENERAL_NAME           0000000000030fc0 f   OpensslLib:v3_alt.obj
 0001:00030f54       v2i_GENERAL_NAME_ex        00000000000311f4 f   OpensslLib:v3_alt.obj
 0001:0003123c       X509V3_get_section         00000000000314dc f   OpensslLib:v3_conf.obj
 0001:00031418       POLICYINFO_free            00000000000316b8 f   OpensslLib:v3_cpols.obj
 0001:0003143c       POLICYQUALINFO_free        00000000000316dc f   OpensslLib:v3_cpols.obj
 0001:000320e4       policy_cache_set_mapping   0000000000032384 f   OpensslLib:pcy_map.obj
 0001:00032274       rand_drbg_get_entropy      0000000000032514 f   OpensslLib:rand_lib.obj
 0001:000323d8       rand_drbg_cleanup_entropy  0000000000032678 f   OpensslLib:rand_lib.obj
 0001:00032428       rand_drbg_get_nonce        00000000000326c8 f   OpensslLib:rand_lib.obj
 0001:000324ec       rand_drbg_cleanup_nonce    000000000003278c f   OpensslLib:rand_lib.obj
 0001:0003256c       rand_pool_new              000000000003280c f   OpensslLib:rand_lib.obj
 0001:00032648       rand_pool_free             00000000000328e8 f   OpensslLib:rand_lib.obj
 0001:000327c4       rand_pool_bytes_needed     0000000000032a64 f   OpensslLib:rand_lib.obj
 0001:0003284c       rand_pool_add              0000000000032aec f   OpensslLib:rand_lib.obj
 0001:000328ec       rand_pool_add_begin        0000000000032b8c f   OpensslLib:rand_lib.obj
 0001:00032944       rand_pool_add_end          0000000000032be4 f   OpensslLib:rand_lib.obj
 0001:00032988       RAND_get_rand_method       0000000000032c28 f   OpensslLib:rand_lib.obj
 0001:000329d4       RAND_priv_bytes            0000000000032c74 f   OpensslLib:rand_lib.obj
 0001:00032a2c       RAND_bytes                 0000000000032ccc f   OpensslLib:rand_lib.obj
 0001:000333e8       EVP_DigestSignFinal        0000000000033688 f   OpensslLib:m_sigver.obj
 0001:000335d8       EVP_DigestVerifyFinal      0000000000033878 f   OpensslLib:m_sigver.obj
 0001:00033a38       EVP_SignFinal              0000000000033cd8 f   OpensslLib:p_sign.obj
 0001:00033c14       EVP_PKEY_sign_init         0000000000033eb4 f   OpensslLib:pmeth_fn.obj
 0001:00033c70       EVP_PKEY_sign              0000000000033f10 f   OpensslLib:pmeth_fn.obj
 0001:00033d80       EVP_PKEY_verify_init       0000000000034020 f   OpensslLib:pmeth_fn.obj
 0001:00033ddc       EVP_PKEY_verify            000000000003407c f   OpensslLib:pmeth_fn.obj
 0001:00033e38       EVP_VerifyFinal            00000000000340d8 f   OpensslLib:p_verify.obj
 0001:00033f78       openssl_add_all_ciphers_int 0000000000034218 f   OpensslLib:c_allc.obj
 0001:00034414       RAND_DRBG_set              00000000000346b4 f   OpensslLib:drbg_lib.obj
 0001:000345e8       RAND_DRBG_free             0000000000034888 f   OpensslLib:drbg_lib.obj
 0001:00034674       RAND_DRBG_instantiate      0000000000034914 f   OpensslLib:drbg_lib.obj
 0001:000348a0       RAND_DRBG_reseed           0000000000034b40 f   OpensslLib:drbg_lib.obj
 0001:00034a0c       rand_drbg_restart          0000000000034cac f   OpensslLib:drbg_lib.obj
 0001:00034d3c       RAND_DRBG_generate         0000000000034fdc f   OpensslLib:drbg_lib.obj
 0001:00034eb0       RAND_DRBG_bytes            0000000000035150 f   OpensslLib:drbg_lib.obj
 0001:000353bc       RAND_DRBG_get0_master      000000000003565c f   OpensslLib:drbg_lib.obj
 0001:000353f0       RAND_DRBG_get0_private     0000000000035690 f   OpensslLib:drbg_lib.obj
 0001:0003b078       BIO_dump_indent_cb         000000000003b318 f   OpensslLib:b_dump.obj
 0001:0003b244       EC_GROUP_new_curve_GFp     000000000003b4e4 f   OpensslLib:ec_cvt.obj
 0001:0003ce38       BN_BLINDING_new            000000000003d0d8 f   OpensslLib:bn_blind.obj
 0001:0003cee4       BN_BLINDING_free           000000000003d184 f   OpensslLib:bn_blind.obj
 0001:0003cf44       BN_BLINDING_update         000000000003d1e4 f   OpensslLib:bn_blind.obj
 0001:0003d050       BN_BLINDING_convert_ex     000000000003d2f0 f   OpensslLib:bn_blind.obj
 0001:0003d110       BN_BLINDING_invert_ex      000000000003d3b0 f   OpensslLib:bn_blind.obj
 0001:0003d1f8       BN_BLINDING_create_param   000000000003d498 f   OpensslLib:bn_blind.obj
 0001:0003d3b4       bn_mul_add_words           000000000003d654 f   OpensslLib:bn_asm.obj
 0001:0003d484       bn_mul_words               000000000003d724 f   OpensslLib:bn_asm.obj
 0001:0003d544       bn_div_words               000000000003d7e4 f   OpensslLib:bn_asm.obj
 0001:0003d6a8       bn_add_words               000000000003d948 f   OpensslLib:bn_asm.obj
 0001:0003d700       bn_sub_words               000000000003d9a0 f   OpensslLib:bn_asm.obj
 0001:0003d760       DH_compute_key             000000000003da00 f   OpensslLib:dh_key.obj
 0001:0003fb40       rsa_pss_params_create      000000000003fde0 f   OpensslLib:rsa_ameth.obj
 0001:00040058       rsa_pss_get_param          00000000000402f8 f   OpensslLib:rsa_ameth.obj
 0001:00041240       bn_mul_fixed_top           00000000000414e0 f   OpensslLib:bn_mul.obj
 0001:00041344       bn_mul_normal              00000000000415e4 f   OpensslLib:bn_mul.obj
 0001:00041464       ASN1_item_pack             0000000000041704 f   OpensslLib:asn_pack.obj
 0001:00041554       ec_GFp_simple_set_compressed_coordinates 00000000000417f4 f   OpensslLib:ecp_oct.obj
 0001:000418e4       ec_GFp_simple_point2oct    0000000000041b84 f   OpensslLib:ecp_oct.obj
 0001:00041b74       ec_GFp_simple_oct2point    0000000000041e14 f   OpensslLib:ecp_oct.obj
 0001:00041d70       ossl_ecdsa_sign            0000000000042010 f   OpensslLib:ecdsa_ossl.obj
 0001:000420d0       ossl_ecdsa_sign_setup      0000000000042370 f   OpensslLib:ecdsa_ossl.obj
 0001:000420ec       ossl_ecdsa_sign_sig        000000000004238c f   OpensslLib:ecdsa_ossl.obj
 0001:00042474       ossl_ecdsa_verify          0000000000042714 f   OpensslLib:ecdsa_ossl.obj
 0001:000425a0       ossl_ecdsa_verify_sig      0000000000042840 f   OpensslLib:ecdsa_ossl.obj
 0001:000428d4       ossl_ecdh_compute_key      0000000000042b74 f   OpensslLib:ecdh_ossl.obj
 0001:0004290c       ecdh_simple_compute_key    0000000000042bac f   OpensslLib:ecdh_ossl.obj
 0001:00042ee8       int_bn_mod_inverse         0000000000043188 f   OpensslLib:bn_gcd.obj
 0001:00043598       BN_mod_inverse             0000000000043838 f   OpensslLib:bn_gcd.obj
 0001:00043638       BN_gcd                     00000000000438d8 f   OpensslLib:bn_gcd.obj
 0001:000438fc       bn_sqr_fixed_top           0000000000043b9c f   OpensslLib:bn_sqr.obj
 0001:00043a28       bn_sqr_normal              0000000000043cc8 f   OpensslLib:bn_sqr.obj
 0001:00043b60       BN_nnmod                   0000000000043e00 f   OpensslLib:bn_mod.obj
 0001:00043bc4       bn_mod_add_fixed_top       0000000000043e64 f   OpensslLib:bn_mod.obj
 0001:00043d74       bn_mod_sub_fixed_top       0000000000044014 f   OpensslLib:bn_mod.obj
 0001:00043ef4       BN_mod_sub_quick           0000000000044194 f   OpensslLib:bn_mod.obj
 0001:00043f34       BN_mod_mul                 00000000000441d4 f   OpensslLib:bn_mod.obj
 0001:00043fec       BN_mod_sqr                 000000000004428c f   OpensslLib:bn_mod.obj
 0001:00044044       BN_mod_lshift1_quick       00000000000442e4 f   OpensslLib:bn_mod.obj
 0001:0004408c       BN_mod_lshift_quick        000000000004432c f   OpensslLib:bn_mod.obj
 0001:0004414c       BN_mod_mul_reciprocal      00000000000443ec f   OpensslLib:bn_recp.obj
 0001:0004420c       BN_div_recp                00000000000444ac f   OpensslLib:bn_recp.obj
 0001:00044834       i2v_ASN1_BIT_STRING        0000000000044ad4 f   OpensslLib:v3_bitst.obj
 0001:000448c8       v2i_ASN1_BIT_STRING        0000000000044b68 f   OpensslLib:v3_bitst.obj
 0001:00045238       i2s_ASN1_IA5STRING         00000000000454d8 f   OpensslLib:v3_ia5.obj
 0001:000452b4       s2i_ASN1_IA5STRING         0000000000045554 f   OpensslLib:v3_ia5.obj
 0001:00045920       i2s_ASN1_OCTET_STRING      0000000000045bc0 f   OpensslLib:v3_skey.obj
 0001:00045a7c       i2s_ASN1_ENUMERATED_TABLE  0000000000045d1c f   OpensslLib:v3_enum.obj
 0001:00045bc0       POLICY_MAPPING_free        0000000000045e60 f   OpensslLib:v3_pmaps.obj
 0001:00045ff4       SXNET_add_id_INTEGER       0000000000046294 f   OpensslLib:v3_sxnet.obj
 0001:000461bc       SXNET_get_id_INTEGER       000000000004645c f   OpensslLib:v3_sxnet.obj
 0001:00046de8       ASN1_generate_v3           0000000000047088 f   OpensslLib:asn1_gen.obj
 0001:00047cf4       rand_pool_acquire_entropy  0000000000047f94 f   OpensslLib:rand_pool.obj
 0001:00047d74       HMAC_Init_ex               0000000000048014 f   OpensslLib:hmac.obj
 0001:00047fa4       HMAC_Final                 0000000000048244 f   OpensslLib:hmac.obj
 0001:00048034       HMAC_CTX_new               00000000000482d4 f   OpensslLib:hmac.obj
 0001:000480b0       HMAC_CTX_free              0000000000048350 f   OpensslLib:hmac.obj
 0001:000481b8       HMAC_CTX_copy              0000000000048458 f   OpensslLib:hmac.obj
 0001:0004be10       drbg_ctr_init              000000000004c0b0 f   OpensslLib:drbg_ctr.obj
 0001:0004c6cc       DH_new_by_nid              000000000004c96c f   OpensslLib:dh_rfc7919.obj
 0001:0004ca4c       c448_ed448_sign            000000000004ccec f   OpensslLib:eddsa.obj
 0001:0004cdc8       c448_ed448_verify          000000000004d068 f   OpensslLib:eddsa.obj
 0001:0004cfec       ED448_public_from_private  000000000004d28c f   OpensslLib:eddsa.obj
 0001:00053134       ED25519_sign               00000000000533d4 f   OpensslLib:curve25519.obj
 0001:000532d0       ED25519_verify             0000000000053570 f   OpensslLib:curve25519.obj
 0001:00053504       X25519_public_from_private 00000000000537a4 f   OpensslLib:curve25519.obj
 0001:000535d0       ASN1_buf_print             0000000000053870 f   OpensslLib:t_pkey.obj
 0001:000536b8       ASN1_bn_print              0000000000053958 f   OpensslLib:t_pkey.obj
 0001:0005412c       curve448_precomputed_scalarmul 00000000000543cc f   OpensslLib:curve448.obj
 0001:0005433c       curve448_point_mul_by_ratio_and_encode_like_eddsa 00000000000545dc f   OpensslLib:curve448.obj
 0001:000545c8       curve448_point_decode_like_eddsa_and_mul_by_ratio 0000000000054868 f   OpensslLib:curve448.obj
 0001:000548a4       x448_int                   0000000000054b44 f   OpensslLib:curve448.obj
 0001:00054ee0       curve448_base_double_scalarmul_non_secret 0000000000055180 f   OpensslLib:curve448.obj
 0001:000552ac       X448_public_from_private   000000000005554c f   OpensslLib:curve448.obj
 0001:00055410       RSA_sign_ASN1_OCTET_STRING 00000000000556b0 f   OpensslLib:rsa_saos.obj
 0001:00055638       RSA_setup_blinding         00000000000558d8 f   OpensslLib:rsa_crpt.obj
 0001:00055798       RSA_padding_add_PKCS1_OAEP_mgf1 0000000000055a38 f   OpensslLib:rsa_oaep.obj
 0001:00055a34       RSA_padding_check_PKCS1_OAEP_mgf1 0000000000055cd4 f   OpensslLib:rsa_oaep.obj
 0001:00055f4c       PKCS1_MGF1                 00000000000561ec f   OpensslLib:rsa_oaep.obj
 0001:00056b70       RSA_sign                   0000000000056e10 f   OpensslLib:rsa_sign.obj
 0001:00056cc0       int_rsa_verify             0000000000056f60 f   OpensslLib:rsa_sign.obj
 0001:00057024       RSA_verify_PKCS1_PSS_mgf1  00000000000572c4 f   OpensslLib:rsa_pss.obj
 0001:0005735c       RSA_padding_add_PKCS1_PSS_mgf1 00000000000575fc f   OpensslLib:rsa_pss.obj
 0001:00057654       RSA_X931_hash_id           00000000000578f4 f   OpensslLib:rsa_x931.obj
 0001:00057688       sm2_compute_z_digest       0000000000057928 f   OpensslLib:sm2_sign.obj
 0001:00058060       sm2_sign                   0000000000058300 f   OpensslLib:sm2_sign.obj
 0001:000581f4       sm2_encrypt                0000000000058494 f   OpensslLib:sm2_crypt.obj
 0001:000586d0       sm2_decrypt                0000000000058970 f   OpensslLib:sm2_crypt.obj
 0001:00058bf0       SipHash_Init               0000000000058e90 f   OpensslLib:siphash.obj
 0001:00058d2c       SipHash_Update             0000000000058fcc f   OpensslLib:siphash.obj
 0001:00058f68       SipHash_Final              0000000000059208 f   OpensslLib:siphash.obj
 0001:000591ac       ecdh_KDF_X9_63             000000000005944c f   OpensslLib:ecdh_kdf.obj
 0001:000593a4       ec_GFp_nist_group_copy     0000000000059644 f   OpensslLib:ecp_nist.obj
 0001:000593b8       ec_GFp_nist_group_set_curve 0000000000059658 f   OpensslLib:ecp_nist.obj
 0001:000594fc       ec_GFp_nist_field_mul      000000000005979c f   OpensslLib:ecp_nist.obj
 0001:000595d0       ec_GFp_nist_field_sqr      0000000000059870 f   OpensslLib:ecp_nist.obj
 0001:000596dc       BN_nist_mod_192            000000000005997c f   OpensslLib:bn_nist.obj
 0001:00059928       BN_nist_mod_224            0000000000059bc8 f   OpensslLib:bn_nist.obj
 0001:00059c7c       BN_nist_mod_256            0000000000059f1c f   OpensslLib:bn_nist.obj
 0001:00059fcc       BN_nist_mod_384            000000000005a26c f   OpensslLib:bn_nist.obj
 0001:0005a390       BN_nist_mod_521            000000000005a630 f   OpensslLib:bn_nist.obj
 0001:0005a564       ec_GFp_mont_group_init     000000000005a804 f   OpensslLib:ecp_mont.obj
 0001:0005a588       ec_GFp_mont_group_finish   000000000005a828 f   OpensslLib:ecp_mont.obj
 0001:0005a5c0       ec_GFp_mont_group_clear_finish 000000000005a860 f   OpensslLib:ecp_mont.obj
 0001:0005a5f8       ec_GFp_mont_group_copy     000000000005a898 f   OpensslLib:ecp_mont.obj
 0001:0005a6d4       ec_GFp_mont_group_set_curve 000000000005a974 f   OpensslLib:ecp_mont.obj
 0001:0005a898       ec_GFp_mont_field_mul      000000000005ab38 f   OpensslLib:ecp_mont.obj
 0001:0005a8f0       ec_GFp_mont_field_sqr      000000000005ab90 f   OpensslLib:ecp_mont.obj
 0001:0005a93c       ec_GFp_mont_field_inv      000000000005abdc f   OpensslLib:ecp_mont.obj
 0001:0005aa4c       ec_GFp_mont_field_encode   000000000005acec f   OpensslLib:ecp_mont.obj
 0001:0005aaa0       ec_GFp_mont_field_decode   000000000005ad40 f   OpensslLib:ecp_mont.obj
 0001:0005aae8       ec_GFp_mont_field_set_to_one 000000000005ad88 f   OpensslLib:ecp_mont.obj
 0001:0005ab2c       RSA_padding_check_PKCS1_type_1 000000000005adcc f   OpensslLib:rsa_pk1.obj
 0001:0005ac04       RSA_padding_add_PKCS1_type_2 000000000005aea4 f   OpensslLib:rsa_pk1.obj
 0001:0005accc       RSA_padding_check_PKCS1_type_2 000000000005af6c f   OpensslLib:rsa_pk1.obj
 0001:0005afb4       RSA_padding_add_SSLv23     000000000005b254 f   OpensslLib:rsa_ssl.obj
 0001:0005b08c       RSA_padding_check_SSLv23   000000000005b32c f   OpensslLib:rsa_ssl.obj
 0001:0005b460       DH_check_params            000000000005b700 f   OpensslLib:dh_check.obj
 0001:0005b544       DH_check                   000000000005b7e4 f   OpensslLib:dh_check.obj
 0001:0005b708       DH_check_pub_key           000000000005b9a8 f   OpensslLib:dh_check.obj
 0001:0005b824       ECPKParameters_print       000000000005bac4 f   OpensslLib:eck_prn.obj
 0001:0005c15c       EC_GROUP_check             000000000005c3fc f   OpensslLib:ec_check.obj
 0001:0005c294       RSA_check_key_ex           000000000005c534 f   OpensslLib:rsa_chk.obj
 0001:0005c9cc       X509_signature_dump        000000000005cc6c f   OpensslLib:t_x509.obj
 0001:0005cacc       i2a_ASN1_INTEGER           000000000005cd6c f   OpensslLib:f_int.obj
 0001:0005cc68       d2i_DHxparams              000000000005cf08 f   OpensslLib:dh_asn1.obj
 0001:0005cd58       BN_mod_sqrt                000000000005cff8 f   OpensslLib:bn_sqrt.obj
 0001:0005d484       BN_kronecker               000000000005d724 f   OpensslLib:bn_kron.obj
 0001:0005d70c       i2a_ASN1_STRING            000000000005d9ac f   OpensslLib:f_string.obj
 0001:0005d89c       SM4_set_key                000000000005db3c f   OpensslLib:sm4.obj
 0001:0005da58       SM4_encrypt                000000000005dcf8 f   OpensslLib:sm4.obj
 0001:0005e308       SM4_decrypt                000000000005e5a8 f   OpensslLib:sm4.obj
 0001:0005ebb8       CRYPTO_cbc128_encrypt      000000000005ee58 f   OpensslLib:cbc128.obj
 0001:0005ec8c       CRYPTO_cbc128_decrypt      000000000005ef2c f   OpensslLib:cbc128.obj
 0001:0005ed4c       CRYPTO_ofb128_encrypt      000000000005efec f   OpensslLib:ofb128.obj
 0001:0005edd4       CRYPTO_ctr128_encrypt      000000000005f074 f   OpensslLib:ctr128.obj
 0001:0005ee84       CRYPTO_ctr128_encrypt_ctr32 000000000005f124 f   OpensslLib:ctr128.obj
 0001:0005f07c       CRYPTO_cfb128_encrypt      000000000005f31c f   OpensslLib:cfb128.obj
 0001:0005f288       CRYPTO_cfb128_1_encrypt    000000000005f528 f   OpensslLib:cfb128.obj
 0001:0005f37c       CRYPTO_cfb128_8_encrypt    000000000005f61c f   OpensslLib:cfb128.obj
 0001:0005f580       CRYPTO_gcm128_init         000000000005f820 f   OpensslLib:gcm128.obj
 0001:0005f75c       CRYPTO_gcm128_setiv        000000000005f9fc f   OpensslLib:gcm128.obj
 0001:0005f928       CRYPTO_gcm128_aad          000000000005fbc8 f   OpensslLib:gcm128.obj
 0001:0005fa64       CRYPTO_gcm128_encrypt      000000000005fd04 f   OpensslLib:gcm128.obj
 0001:0005fbac       CRYPTO_gcm128_decrypt      000000000005fe4c f   OpensslLib:gcm128.obj
 0001:0005fcf4       CRYPTO_gcm128_finish       000000000005ff94 f   OpensslLib:gcm128.obj
 0001:0005fe7c       CRYPTO_gcm128_tag          000000000006011c f   OpensslLib:gcm128.obj
 0001:0005feb8       CRYPTO_ccm128_init         0000000000060158 f   OpensslLib:ccm128.obj
 0001:0005ff20       CRYPTO_ccm128_setiv        00000000000601c0 f   OpensslLib:ccm128.obj
 0001:0005ffbc       CRYPTO_ccm128_aad          000000000006025c f   OpensslLib:ccm128.obj
 0001:00060138       CRYPTO_ccm128_encrypt      00000000000603d8 f   OpensslLib:ccm128.obj
 0001:000603ec       CRYPTO_ccm128_decrypt      000000000006068c f   OpensslLib:ccm128.obj
 0001:000605e8       CRYPTO_ccm128_encrypt_ccm64 0000000000060888 f   OpensslLib:ccm128.obj
 0001:00060830       CRYPTO_ccm128_decrypt_ccm64 0000000000060ad0 f   OpensslLib:ccm128.obj
 0001:00060a28       CRYPTO_ccm128_tag          0000000000060cc8 f   OpensslLib:ccm128.obj
 0001:00060dc4       aria_encrypt               0000000000061064 f   OpensslLib:aria.obj
 0001:00060ec0       aria_set_encrypt_key       0000000000061160 f   OpensslLib:aria.obj
 0001:00061210       aria_set_decrypt_key       00000000000614b0 f   OpensslLib:aria.obj
 0001:000612d4       CRYPTO_xts128_encrypt      0000000000061574 f   OpensslLib:xts128.obj
 0001:00061588       AES_set_encrypt_key        0000000000061828 f   OpensslLib:aes_core.obj
 0001:00061b70       AES_set_decrypt_key        0000000000061e10 f   OpensslLib:aes_core.obj
 0001:00061dac       AES_encrypt                000000000006204c f   OpensslLib:aes_core.obj
 0001:000623f0       AES_decrypt                0000000000062690 f   OpensslLib:aes_core.obj
 0001:00062a20       CRYPTO_128_wrap            0000000000062cc0 f   OpensslLib:wrap128.obj
 0001:00062d08       CRYPTO_128_wrap_pad        0000000000062fa8 f   OpensslLib:wrap128.obj
 0001:00062e5c       CRYPTO_128_unwrap_pad      00000000000630fc f   OpensslLib:wrap128.obj
 0001:00063004       AES_cbc_encrypt            00000000000632a4 f   OpensslLib:aes_cbc.obj
 0001:0006404c       SHA3_absorb                00000000000642ec f   OpensslLib:keccak1600.obj
 0001:00064114       SHA3_squeeze               00000000000643b4 f   OpensslLib:keccak1600.obj
 0001:000641f0       sm3_final                  0000000000064490 f   OpensslLib:sm3.obj
 0001:0006442c       sm3_block_data_order       00000000000646cc f   OpensslLib:sm3.obj
 0001:00066b04       BN_GENCB_call              0000000000066da4 f   OpensslLib:bn_prime.obj
 0001:00066b58       BN_generate_prime_ex       0000000000066df8 f   OpensslLib:bn_prime.obj
 0001:00066dc4       BN_is_prime_fasttest_ex    0000000000067064 f   OpensslLib:bn_prime.obj
 0001:000677c8       curve448_scalar_add        0000000000067a68 f   OpensslLib:scalar.obj
 0001:0006781c       curve448_scalar_decode_long 0000000000067abc f   OpensslLib:scalar.obj
 0001:000679e0       curve448_scalar_halve      0000000000067c80 f   OpensslLib:scalar.obj
 0001:00067af4       gf_serialize               0000000000067d94 f   OpensslLib:f_generic.obj
 0001:00067b84       gf_deserialize             0000000000067e24 f   OpensslLib:f_generic.obj
 0001:00067c50       gf_strong_reduce           0000000000067ef0 f   OpensslLib:f_generic.obj
 0001:00067cd4       gf_sub                     0000000000067f74 f   OpensslLib:f_generic.obj
 0001:00067d24       gf_add                     0000000000067fc4 f   OpensslLib:f_generic.obj
 0001:00067d50       gf_eq                      0000000000067ff0 f   OpensslLib:f_generic.obj
 0001:00067dc0       gf_isr                     0000000000068060 f   OpensslLib:f_generic.obj
 0001:00067fe4       gf_mul                     0000000000068284 f   OpensslLib:f_impl.obj
 0001:000681fc       gf_mulw_unsigned           000000000006849c f   OpensslLib:f_impl.obj
 0001:000682a0       ec_GFp_simple_group_init   0000000000068540 f   OpensslLib:ecp_smpl.obj
 0001:00068304       ec_GFp_simple_group_finish 00000000000685a4 f   OpensslLib:ecp_smpl.obj
 0001:00068330       ec_GFp_simple_group_clear_finish 00000000000685d0 f   OpensslLib:ecp_smpl.obj
 0001:0006835c       ec_GFp_simple_group_copy   00000000000685fc f   OpensslLib:ecp_smpl.obj
 0001:000683bc       ec_GFp_simple_group_set_curve 000000000006865c f   OpensslLib:ecp_smpl.obj
 0001:00068560       ec_GFp_simple_group_get_curve 0000000000068800 f   OpensslLib:ecp_smpl.obj
 0001:0006866c       ec_GFp_simple_group_get_degree 000000000006890c f   OpensslLib:ecp_smpl.obj
 0001:00068678       ec_GFp_simple_group_check_discriminant 0000000000068918 f   OpensslLib:ecp_smpl.obj
 0001:00068880       ec_GFp_simple_point_init   0000000000068b20 f   OpensslLib:ecp_smpl.obj
 0001:000688e4       ec_GFp_simple_point_finish 0000000000068b84 f   OpensslLib:ecp_smpl.obj
 0001:00068910       ec_GFp_simple_point_clear_finish 0000000000068bb0 f   OpensslLib:ecp_smpl.obj
 0001:00068940       ec_GFp_simple_point_copy   0000000000068be0 f   OpensslLib:ecp_smpl.obj
 0001:000689a8       ec_GFp_simple_point_set_to_infinity 0000000000068c48 f   OpensslLib:ecp_smpl.obj
 0001:000689bc       ec_GFp_simple_set_Jprojective_coordinates_GFp 0000000000068c5c f   OpensslLib:ecp_smpl.obj
 0001:00068b40       ec_GFp_simple_get_Jprojective_coordinates_GFp 0000000000068de0 f   OpensslLib:ecp_smpl.obj
 0001:00068c74       ec_GFp_simple_point_set_affine_coordinates 0000000000068f14 f   OpensslLib:ecp_smpl.obj
 0001:00068d00       ec_GFp_simple_point_get_affine_coordinates 0000000000068fa0 f   OpensslLib:ecp_smpl.obj
 0001:00068fb8       ec_GFp_simple_add          0000000000069258 f   OpensslLib:ecp_smpl.obj
 0001:0006952c       ec_GFp_simple_dbl          00000000000697cc f   OpensslLib:ecp_smpl.obj
 0001:00069960       ec_GFp_simple_invert       0000000000069c00 f   OpensslLib:ecp_smpl.obj
 0001:000699a0       ec_GFp_simple_is_at_infinity 0000000000069c40 f   OpensslLib:ecp_smpl.obj
 0001:000699b0       ec_GFp_simple_is_on_curve  0000000000069c50 f   OpensslLib:ecp_smpl.obj
 0001:00069c84       ec_GFp_simple_cmp          0000000000069f24 f   OpensslLib:ecp_smpl.obj
 0001:00069f18       ec_GFp_simple_make_affine  000000000006a1b8 f   OpensslLib:ecp_smpl.obj
 0001:0006a020       ec_GFp_simple_points_make_affine 000000000006a2c0 f   OpensslLib:ecp_smpl.obj
 0001:0006a450       ec_GFp_simple_field_inv    000000000006a6f0 f   OpensslLib:ecp_smpl.obj
 0001:0006a574       ec_GFp_simple_blind_coordinates 000000000006a814 f   OpensslLib:ecp_smpl.obj
 0001:0006a6dc       ec_GFp_simple_ladder_pre   000000000006a97c f   OpensslLib:ecp_smpl.obj
 0001:0006a980       ec_GFp_simple_ladder_step  000000000006ac20 f   OpensslLib:ecp_smpl.obj
 0001:0006af0c       ec_GFp_simple_ladder_post  000000000006b1ac f   OpensslLib:ecp_smpl.obj
 0001:0006b3fc       time                       000000000006b69c f   BaseCryptLib:TimerWrapper.obj
 0001:0006b558       gmtime                     000000000006b7f8 f   BaseCryptLib:TimerWrapper.obj
 0001:0006b93c       strchr                     000000000006bbdc f   BaseCryptLib:CrtWrapper.obj
 0001:0006b96c       strncasecmp                000000000006bc0c f   BaseCryptLib:CrtWrapper.obj
 0001:0006b9bc       sscanf                     000000000006bc5c f   BaseCryptLib:CrtWrapper.obj
 0001:0006b9bc       BIO_printf                 000000000006bc5c f   BaseCryptLib:CrtWrapper.obj
 0001:0006b9cc       qsort                      000000000006bc6c f   BaseCryptLib:CrtWrapper.obj
 0001:0006ba40       BIO_snprintf               000000000006bce0 f   BaseCryptLib:CrtWrapper.obj
 0001:0006ba48       InternalAcpiDelay          000000000006bce8 f   DxeAcpiTimerLib:AcpiTimerLib.obj
 0001:0006baa8       memset                     000000000006bd48 f   BaseIntrinsicLib:MemoryIntrinsics.obj
 0001:0006bac0       strcmp                     000000000006bd60 f   BaseIntrinsicLib:MemoryIntrinsics.obj
 0002:00000000       _fltused                   000000000006bd80     BaseIntrinsicLib:MemoryIntrinsics.obj
 0002:00000008       gEfiGlobalVariableGuid     000000000006bd88     SecurityStubDxe:AutoGen.obj
 0002:00000018       gEfiStatusCodeRuntimeProtocolGuid 000000000006bd98     SecurityStubDxe:AutoGen.obj
 0002:00000028       gEfiSecurityArchProtocolGuid 000000000006bda8     SecurityStubDxe:AutoGen.obj
 0002:00000038       gEfiFirmwareVolumeBlockProtocolGuid 000000000006bdb8     SecurityStubDxe:AutoGen.obj
 0002:00000048       gEfiEventReadyToBootGuid   000000000006bdc8     SecurityStubDxe:AutoGen.obj
 0002:00000058       gEfiImageSecurityDatabaseGuid 000000000006bdd8     SecurityStubDxe:AutoGen.obj
 0002:00000068       gPcdProtocolGuid           000000000006bde8     SecurityStubDxe:AutoGen.obj
 0002:00000078       gEfiDxeSmmReadyToLockProtocolGuid 000000000006bdf8     SecurityStubDxe:AutoGen.obj
 0002:00000088       gEfiLoadFileProtocolGuid   000000000006be08     SecurityStubDxe:AutoGen.obj
 0002:00000098       gEfiDeferredImageLoadProtocolGuid 000000000006be18     SecurityStubDxe:AutoGen.obj
 0002:000000a8       gEfiCertPkcs7Guid          000000000006be28     SecurityStubDxe:AutoGen.obj
 0002:000000b8       gEfiCertX509Sha384Guid     000000000006be38     SecurityStubDxe:AutoGen.obj
 0002:000000c8       gEfiDiskIoProtocolGuid     000000000006be48     SecurityStubDxe:AutoGen.obj
 0002:000000d8       gEfiFileInfoGuid           000000000006be58     SecurityStubDxe:AutoGen.obj
 0002:000000e8       gEfiCertX509Sha256Guid     000000000006be68     SecurityStubDxe:AutoGen.obj
 0002:000000f8       gEfiCcMeasurementProtocolGuid 000000000006be78     SecurityStubDxe:AutoGen.obj
 0002:00000108       gEfiDevicePathProtocolGuid 000000000006be88     SecurityStubDxe:AutoGen.obj
 0002:00000118       gEfiFirmwareVolume2ProtocolGuid 000000000006be98     SecurityStubDxe:AutoGen.obj
 0002:00000128       gEfiCertX509Sha512Guid     000000000006bea8     SecurityStubDxe:AutoGen.obj
 0002:00000138       gEfiDevicePathToTextProtocolGuid 000000000006beb8     SecurityStubDxe:AutoGen.obj
 0002:00000148       gEfiCertX509Guid           000000000006bec8     SecurityStubDxe:AutoGen.obj
 0002:00000158       gEfiDevicePathUtilitiesProtocolGuid 000000000006bed8     SecurityStubDxe:AutoGen.obj
 0002:00000168       gEfiSimpleFileSystemProtocolGuid 000000000006bee8     SecurityStubDxe:AutoGen.obj
 0002:00000178       gEfiTcg2ProtocolGuid       000000000006bef8     SecurityStubDxe:AutoGen.obj
 0002:00000188       gEfiHobListGuid            000000000006bf08     SecurityStubDxe:AutoGen.obj
 0002:00000198       gEfiTcgProtocolGuid        000000000006bf18     SecurityStubDxe:AutoGen.obj
 0002:000001a8       gEfiSecurity2ArchProtocolGuid 000000000006bf28     SecurityStubDxe:AutoGen.obj
 0002:000001b8       gEfiEndOfDxeEventGroupGuid 000000000006bf38     SecurityStubDxe:AutoGen.obj
 0002:000001c8       gEfiBlockIoProtocolGuid    000000000006bf48     SecurityStubDxe:AutoGen.obj
 0002:000001d8       gMeasuredFvHobGuid         000000000006bf58     SecurityStubDxe:AutoGen.obj
 0002:000001e8       gEfiCallerIdGuid           000000000006bf68     SecurityStubDxe:AutoGen.obj
 0002:000001f8       gEfiLoadFile2ProtocolGuid  000000000006bf78     SecurityStubDxe:AutoGen.obj
 0002:00000208       mSecurityStub              000000000006bf88     SecurityStubDxe:SecurityStub.obj
 0002:00000210       mSecurity2Stub             000000000006bf90     SecurityStubDxe:SecurityStub.obj
 0002:00000218       mDeferredImageLoad         000000000006bf98     SecurityStubDxe:Defer3rdPartyImageLoad.obj
 0002:00000220       mHashOidValue              000000000006bfa0     DxeImageVerificationLib:DxeImageVerificationLib.obj
 0002:00000250       mHash                      000000000006bfd0     DxeImageVerificationLib:DxeImageVerificationLib.obj
 0002:00000390       mVariableType              000000000006c110     DxeImageVerificationLib:Measurement.obj
 0002:000003a0       mOidValue                  000000000006c120     BaseCryptLib:CryptPkcs7VerifyCommon.obj
 0002:000003b0       mSpcIndirectOidValue       000000000006c130     BaseCryptLib:CryptAuthenticode.obj
 0002:000003c0       mSpcRFC3161OidValue        000000000006c140     BaseCryptLib:CryptTs.obj
 0002:00000b00       rand_meth                  000000000006c880     OpensslLib:drbg_lib.obj
 0002:00000f30       gEfiCertSha1Guid           000000000006ccb0     SecurityStubDxe:AutoGen.obj
 0002:00000f40       gEfiCertSha512Guid         000000000006ccc0     SecurityStubDxe:AutoGen.obj
 0002:00000f50       gEfiCertSha256Guid         000000000006ccd0     SecurityStubDxe:AutoGen.obj
 0002:00000f60       gEfiCertSha384Guid         000000000006cce0     SecurityStubDxe:AutoGen.obj
 0002:00000f70       ??_C@_19DILNDFJH@?$AAS?$AAH?$AAA?$AA1@ 000000000006ccf0     DxeImageVerificationLib:DxeImageVerificationLib.obj
 0002:00000f80       ??_C@_1O@MDCKFILO@?$AAS?$AAH?$AAA?$AA2?$AA2?$AA4@ 000000000006cd00     DxeImageVerificationLib:DxeImageVerificationLib.obj
 0002:00000f90       ??_C@_1O@HECGKAIN@?$AAS?$AAH?$AAA?$AA2?$AA5?$AA6@ 000000000006cd10     DxeImageVerificationLib:DxeImageVerificationLib.obj
 0002:00000fa0       ??_C@_1O@KOBLHLEG@?$AAS?$AAH?$AAA?$AA3?$AA8?$AA4@ 000000000006cd20     DxeImageVerificationLib:DxeImageVerificationLib.obj
 0002:00000fb0       ??_C@_1O@GKBAHMNF@?$AAS?$AAH?$AAA?$AA5?$AA1?$AA2@ 000000000006cd30     DxeImageVerificationLib:DxeImageVerificationLib.obj
 0002:00000fc0       ??_C@_15EMHHCMJI@?$AAd?$AAb@ 000000000006cd40     DxeImageVerificationLib:DxeImageVerificationLib.obj
 0002:00000fc8       ??_C@_17GPBNBHEN@?$AAd?$AAb?$AAt@ 000000000006cd48     DxeImageVerificationLib:DxeImageVerificationLib.obj
 0002:00000fd0       ??_C@_17CFMLKIPF@?$AAd?$AAb?$AAx@ 000000000006cd50     DxeImageVerificationLib:DxeImageVerificationLib.obj
 0002:00000fd8       ??_C@_1BG@JEGAFCNI@?$AAS?$AAe?$AAc?$AAu?$AAr?$AAe?$AAB?$AAo?$AAo?$AAt@ 000000000006cd58     DxeImageVerificationLib:DxeImageVerificationLib.obj
 0002:00000ff0       ??_C@_08FBKDDLCN@RSA?9SHA1@ 000000000006cd70     BaseCryptLib:CryptPkcs7VerifyCommon.obj
 0002:00001000       ??_C@_0L@EMMEGDKK@RSA?9SHA1?92@ 000000000006cd80     BaseCryptLib:CryptPkcs7VerifyCommon.obj
 0002:0000100b       ??_C@_00CNPNBAHC@@         000000000006cd8b     BaseCryptLib:CryptPkcs7VerifyCommon.obj
 0002:00001010       ??_C@_0O@PKPPMCJC@HashAlgorithm@ 000000000006cd90     BaseCryptLib:CryptTs.obj
 0002:00001020       ??_C@_0O@IOBJNEOO@HashedMessage@ 000000000006cda0     BaseCryptLib:CryptTs.obj
 0002:00001030       ??_C@_0BD@MPNLNFAE@TS_MESSAGE_IMPRINT@ 000000000006cdb0     BaseCryptLib:CryptTs.obj
 0002:00001048       ??_C@_07JNMNODGA@Seconds@  000000000006cdc8     BaseCryptLib:CryptTs.obj
 0002:00001050       ??_C@_06GJCGCMH@Millis@    000000000006cdd0     BaseCryptLib:CryptTs.obj
 0002:00001058       ??_C@_06DAIJKJAI@Micros@   000000000006cdd8     BaseCryptLib:CryptTs.obj
 0002:00001060       ??_C@_0M@CNJBGMJO@TS_ACCURACY@ 000000000006cde0     BaseCryptLib:CryptTs.obj
 0002:00001070       ??_C@_07NGFJPNPN@Version@  000000000006cdf0     BaseCryptLib:CryptTs.obj
 0002:00001078       ??_C@_06BGGEOBLK@Policy@   000000000006cdf8     BaseCryptLib:CryptTs.obj
 0002:00001080       ??_C@_0P@ONGPGNKF@MessageImprint@ 000000000006ce00     BaseCryptLib:CryptTs.obj
 0002:00001090       ??_C@_0N@FPJJBBNM@SerialNumber@ 000000000006ce10     BaseCryptLib:CryptTs.obj
 0002:000010a0       ??_C@_07IBMNPABJ@GenTime@  000000000006ce20     BaseCryptLib:CryptTs.obj
 0002:000010a8       ??_C@_08NLCOAFEI@Accuracy@ 000000000006ce28     BaseCryptLib:CryptTs.obj
 0002:000010b8       ??_C@_08HMKBFHBJ@Ordering@ 000000000006ce38     BaseCryptLib:CryptTs.obj
 0002:000010c4       ??_C@_05OJOPLPHH@Nonce@    000000000006ce44     BaseCryptLib:CryptTs.obj
 0002:000010cc       ??_C@_03LAIFDEPJ@Tsa@      000000000006ce4c     BaseCryptLib:CryptTs.obj
 0002:000010d0       ??_C@_0L@ELOHEHF@Extensions@ 000000000006ce50     BaseCryptLib:CryptTs.obj
 0002:000010e0       ??_C@_0M@OBJPBKFE@TS_TST_INFO@ 000000000006ce60     BaseCryptLib:CryptTs.obj
 0002:000010f0       TS_MESSAGE_IMPRINT_it      000000000006ce70     BaseCryptLib:CryptTs.obj
 0002:00001120       TS_TST_INFO_it             000000000006cea0     BaseCryptLib:CryptTs.obj
 0002:00001290       TS_ACCURACY_it             000000000006d010     BaseCryptLib:CryptTs.obj
 0002:000015e0       ??_C@_07DLHCIBDH@default@  000000000006d360     OpensslLib:x509_vfy.obj
 0002:00001600       ??_C@_0O@DIEIKEFB@memory?5buffer@ 000000000006d380     OpensslLib:bss_mem.obj
 0002:00001670       ??_C@_07CPCPJPKL@version@  000000000006d3f0     OpensslLib:x_x509.obj
 0002:00001678       ??_C@_0N@OMOHFKCJ@serialNumber@ 000000000006d3f8     OpensslLib:x_x509.obj
 0002:00001688       ??_C@_09CMIIOJHF@signature@ 000000000006d408     OpensslLib:x_x509.obj
 0002:00001694       ??_C@_06EAINIONG@issuer@   000000000006d414     OpensslLib:x_x509.obj
 0002:000016a0       ??_C@_08GCHKOCBP@validity@ 000000000006d420     OpensslLib:x_x509.obj
 0002:000016b0       ??_C@_07JNNGEGGO@subject@  000000000006d430     OpensslLib:x_x509.obj
 0002:000016b8       ??_C@_03ICHNJLJF@key@      000000000006d438     OpensslLib:x_x509.obj
 0002:000016c0       ??_C@_09KIIAMAEE@issuerUID@ 000000000006d440     OpensslLib:x_x509.obj
 0002:000016d0       ??_C@_0L@JMFHLKAL@subjectUID@ 000000000006d450     OpensslLib:x_x509.obj
 0002:000016e0       ??_C@_0L@ICCCPLKC@extensions@ 000000000006d460     OpensslLib:x_x509.obj
 0002:000016f0       ??_C@_09LCJGKABB@X509_CINF@ 000000000006d470     OpensslLib:x_x509.obj
 0002:00001700       ??_C@_09NKDPGBBA@cert_info@ 000000000006d480     OpensslLib:x_x509.obj
 0002:00001710       ??_C@_07OBHFIHGJ@sig_alg@  000000000006d490     OpensslLib:x_x509.obj
 0002:00001718       ??_C@_04NMKEOMFB@X509@     000000000006d498     OpensslLib:x_x509.obj
 0002:000018c0       X509_it                    000000000006d640     OpensslLib:x_x509.obj
 0002:00001940       X509_CINF_it               000000000006d6c0     OpensslLib:x_x509.obj
 0002:00001b98       ??_C@_01CLKCMJKC@?5@       000000000006d918     OpensslLib:bio_lib.obj
 0002:00001ba0       ??_C@_0L@GGDBHMO@smime_sign@ 000000000006d920     OpensslLib:pk7_smime.obj
 0002:00001bb0       ??_C@_0O@HFNJECFC@Verify?5error?3@ 000000000006d930     OpensslLib:pk7_smime.obj
 0002:00001bc0       ??_C@_07JIJPKMF@d?4other@  000000000006d940     OpensslLib:pk7_asn1.obj
 0002:00001bc8       ??_C@_06OAPKPHLA@d?4data@  000000000006d948     OpensslLib:pk7_asn1.obj
 0002:00001bd0       ??_C@_06GOHGJFCL@d?4sign@  000000000006d950     OpensslLib:pk7_asn1.obj
 0002:00001bd8       ??_C@_0M@CLKMIMCI@d?4enveloped@ 000000000006d958     OpensslLib:pk7_asn1.obj
 0002:00001be8       ??_C@_0BH@FHPJHCLF@d?4signed_and_enveloped@ 000000000006d968     OpensslLib:pk7_asn1.obj
 0002:00001c00       ??_C@_08JOIJLLGO@d?4digest@ 000000000006d980     OpensslLib:pk7_asn1.obj
 0002:00001c10       ??_C@_0M@IDEHBFAL@d?4encrypted@ 000000000006d990     OpensslLib:pk7_asn1.obj
 0002:00001c1c       ??_C@_04GPMDFGEJ@type@     000000000006d99c     OpensslLib:pk7_asn1.obj
 0002:00001c24       ??_C@_05BKMMPIPN@PKCS7@    000000000006d9a4     OpensslLib:pk7_asn1.obj
 0002:00001c30       ??_C@_07MPDKKGPO@md_algs@  000000000006d9b0     OpensslLib:pk7_asn1.obj
 0002:00001c38       ??_C@_08ODCIAOPM@contents@ 000000000006d9b8     OpensslLib:pk7_asn1.obj
 0002:00001c44       ??_C@_04PHJBACIC@cert@     000000000006d9c4     OpensslLib:pk7_asn1.obj
 0002:00001c4c       ??_C@_03GJBFOAJL@crl@      000000000006d9cc     OpensslLib:pk7_asn1.obj
 0002:00001c50       ??_C@_0M@KEDNAHBP@signer_info@ 000000000006d9d0     OpensslLib:pk7_asn1.obj
 0002:00001c60       ??_C@_0N@CKBJFFNF@PKCS7_SIGNED@ 000000000006d9e0     OpensslLib:pk7_asn1.obj
 0002:00001c70       ??_C@_0BC@PMGLGNPO@issuer_and_serial@ 000000000006d9f0     OpensslLib:pk7_asn1.obj
 0002:00001c88       ??_C@_0L@OGBFEEJI@digest_alg@ 000000000006da08     OpensslLib:pk7_asn1.obj
 0002:00001c98       ??_C@_09PLABOLFJ@auth_attr@ 000000000006da18     OpensslLib:pk7_asn1.obj
 0002:00001ca8       ??_C@_0P@KLFHBHJD@digest_enc_alg@ 000000000006da28     OpensslLib:pk7_asn1.obj
 0002:00001cb8       ??_C@_0L@PJDBOMFC@enc_digest@ 000000000006da38     OpensslLib:pk7_asn1.obj
 0002:00001cc8       ??_C@_0M@NNBFAOJK@unauth_attr@ 000000000006da48     OpensslLib:pk7_asn1.obj
 0002:00001cd8       ??_C@_0BC@BFFCPPDG@PKCS7_SIGNER_INFO@ 000000000006da58     OpensslLib:pk7_asn1.obj
 0002:00001cec       ??_C@_06KCELPKEE@serial@   000000000006da6c     OpensslLib:pk7_asn1.obj
 0002:00001cf8       ??_C@_0BI@POAIONGK@PKCS7_ISSUER_AND_SERIAL@ 000000000006da78     OpensslLib:pk7_asn1.obj
 0002:00001d10       ??_C@_0O@HGJALPPJ@recipientinfo@ 000000000006da90     OpensslLib:pk7_asn1.obj
 0002:00001d20       ??_C@_08ENNDKKOI@enc_data@ 000000000006daa0     OpensslLib:pk7_asn1.obj
 0002:00001d30       ??_C@_0P@KCJMJLOD@PKCS7_ENVELOPE@ 000000000006dab0     OpensslLib:pk7_asn1.obj
 0002:00001d40       ??_C@_0O@ODFHHMFC@key_enc_algor@ 000000000006dac0     OpensslLib:pk7_asn1.obj
 0002:00001d50       ??_C@_07LBLKCHGJ@enc_key@  000000000006dad0     OpensslLib:pk7_asn1.obj
 0002:00001d58       ??_C@_0BB@MGPEFENK@PKCS7_RECIP_INFO@ 000000000006dad8     OpensslLib:pk7_asn1.obj
 0002:00001d70       ??_C@_0N@IEAAACJL@content_type@ 000000000006daf0     OpensslLib:pk7_asn1.obj
 0002:00001d80       ??_C@_09JPNFBOJG@algorithm@ 000000000006db00     OpensslLib:pk7_asn1.obj
 0002:00001d90       ??_C@_0BC@INKEDPEG@PKCS7_ENC_CONTENT@ 000000000006db10     OpensslLib:pk7_asn1.obj
 0002:00001da8       ??_C@_0BE@LMHBPFDD@PKCS7_SIGN_ENVELOPE@ 000000000006db28     OpensslLib:pk7_asn1.obj
 0002:00001dc0       ??_C@_0O@GIFGHKGC@PKCS7_ENCRYPT@ 000000000006db40     OpensslLib:pk7_asn1.obj
 0002:00001dd0       ??_C@_02EBCANADN@md@       000000000006db50     OpensslLib:pk7_asn1.obj
 0002:00001dd4       ??_C@_06IJPNAHC@digest@    000000000006db54     OpensslLib:pk7_asn1.obj
 0002:00001de0       ??_C@_0N@NAILNAH@PKCS7_DIGEST@ 000000000006db60     OpensslLib:pk7_asn1.obj
 0002:00001df0       ??_C@_0BB@ODHHPICH@PKCS7_ATTRIBUTES@ 000000000006db70     OpensslLib:pk7_asn1.obj
 0002:00001e08       ??_C@_0BA@IJMFEGLH@PKCS7_ATTR_SIGN@ 000000000006db88     OpensslLib:pk7_asn1.obj
 0002:00001e18       ??_C@_0BC@DLHIINOH@PKCS7_ATTR_VERIFY@ 000000000006db98     OpensslLib:pk7_asn1.obj
 0002:00001e90       PKCS7_ENCRYPT_it           000000000006dc10     OpensslLib:pk7_asn1.obj
 0002:00001ec0       PKCS7_RECIP_INFO_it        000000000006dc40     OpensslLib:pk7_asn1.obj
 0002:00001ef0       PKCS7_SIGNED_it            000000000006dc70     OpensslLib:pk7_asn1.obj
 0002:00002060       PKCS7_DIGEST_it            000000000006dde0     OpensslLib:pk7_asn1.obj
 0002:00002090       PKCS7_ENC_CONTENT_it       000000000006de10     OpensslLib:pk7_asn1.obj
 0002:00002120       PKCS7_it                   000000000006dea0     OpensslLib:pk7_asn1.obj
 0002:00002150       PKCS7_SIGNER_INFO_it       000000000006ded0     OpensslLib:pk7_asn1.obj
 0002:00002270       PKCS7_ATTR_VERIFY_it       000000000006dff0     OpensslLib:pk7_asn1.obj
 0002:000022c8       PKCS7_ISSUER_AND_SERIAL_it 000000000006e048     OpensslLib:pk7_asn1.obj
 0002:000024c0       PKCS7_SIGN_ENVELOPE_it     000000000006e240     OpensslLib:pk7_asn1.obj
 0002:00002518       PKCS7_ATTR_SIGN_it         000000000006e298     OpensslLib:pk7_asn1.obj
 0002:000026b0       PKCS7_ENVELOPE_it          000000000006e430     OpensslLib:pk7_asn1.obj
 0002:000027c8       ??_C@_05DBLJEJPC@UNDEF@    000000000006e548     OpensslLib:obj_dat.obj
 0002:000027d0       ??_C@_09MLGAJAED@undefined@ 000000000006e550     OpensslLib:obj_dat.obj
 0002:000027dc       ??_C@_06GGEMKGKC@rsadsi@   000000000006e55c     OpensslLib:obj_dat.obj
 0002:000027e8       ??_C@_0BI@MPBNCOIB@RSA?5Data?5Security?0?5Inc?4@ 000000000006e568     OpensslLib:obj_dat.obj
 0002:00002800       ??_C@_04GCKLMHGD@pkcs@     000000000006e580     OpensslLib:obj_dat.obj
 0002:00002808       ??_C@_0BN@EBHJCEC@RSA?5Data?5Security?0?5Inc?4?5PKCS@ 000000000006e588     OpensslLib:obj_dat.obj
 0002:00002828       ??_C@_03CNCGNBGO@MD2@      000000000006e5a8     OpensslLib:obj_dat.obj
 0002:0000282c       ??_C@_03LFFJDILA@md2@      000000000006e5ac     OpensslLib:obj_dat.obj
 0002:00002830       ??_C@_03GCGHEHKJ@MD5@      000000000006e5b0     OpensslLib:obj_dat.obj
 0002:00002834       ??_C@_03PKBIKOHH@md5@      000000000006e5b4     OpensslLib:obj_dat.obj
 0002:00002838       ??_C@_03HGEJCHKE@RC4@      000000000006e5b8     OpensslLib:obj_dat.obj
 0002:0000283c       ??_C@_03OODGMOHK@rc4@      000000000006e5bc     OpensslLib:obj_dat.obj
 0002:00002840       ??_C@_0O@PCHNMHJE@rsaEncryption@ 000000000006e5c0     OpensslLib:obj_dat.obj
 0002:00002850       ??_C@_07JBCLOEPG@RSA?9MD2@ 000000000006e5d0     OpensslLib:obj_dat.obj
 0002:00002858       ??_C@_0BF@ODJKGOJ@md2WithRSAEncryption@ 000000000006e5d8     OpensslLib:obj_dat.obj
 0002:00002870       ??_C@_07NOGKHCDB@RSA?9MD5@ 000000000006e5f0     OpensslLib:obj_dat.obj
 0002:00002878       ??_C@_0BF@EEAHCNKC@md5WithRSAEncryption@ 000000000006e5f8     OpensslLib:obj_dat.obj
 0002:00002890       ??_C@_0M@LMNGCPDB@PBE?9MD2?9DES@ 000000000006e610     OpensslLib:obj_dat.obj
 0002:000028a0       ??_C@_0BF@EEAPBBEF@pbeWithMD2AndDES?9CBC@ 000000000006e620     OpensslLib:obj_dat.obj
 0002:000028b8       ??_C@_0M@KBNDBPIJ@PBE?9MD5?9DES@ 000000000006e638     OpensslLib:obj_dat.obj
 0002:000028c8       ??_C@_0BF@DAJHPIMK@pbeWithMD5AndDES?9CBC@ 000000000006e648     OpensslLib:obj_dat.obj
 0002:000028e0       ??_C@_04NGGFHBI@X500@      000000000006e660     OpensslLib:obj_dat.obj
 0002:000028e8       ??_C@_0BL@NJHHPHOL@directory?5services?5?$CIX?4500?$CJ@ 000000000006e668     OpensslLib:obj_dat.obj
 0002:00002904       ??_C@_02BMJIHHPP@CN@       000000000006e684     OpensslLib:obj_dat.obj
 0002:00002908       ??_C@_0L@OILMNBLH@commonName@ 000000000006e688     OpensslLib:obj_dat.obj
 0002:00002914       ??_C@_01GFHCPBMG@C@        000000000006e694     OpensslLib:obj_dat.obj
 0002:00002918       ??_C@_0M@NPBHECMC@countryName@ 000000000006e698     OpensslLib:obj_dat.obj
 0002:00002924       ??_C@_01OCOKONAJ@L@        000000000006e6a4     OpensslLib:obj_dat.obj
 0002:00002928       ??_C@_0N@LEDCGGBI@localityName@ 000000000006e6a8     OpensslLib:obj_dat.obj
 0002:00002938       ??_C@_02LAJDCOFE@ST@       000000000006e6b8     OpensslLib:obj_dat.obj
 0002:00002940       ??_C@_0BE@NKDCJFMD@stateOrProvinceName@ 000000000006e6c0     OpensslLib:obj_dat.obj
 0002:00002954       ??_C@_01MJMHLOMK@O@        000000000006e6d4     OpensslLib:obj_dat.obj
 0002:00002958       ??_C@_0BB@GBCNPHLL@organizationName@ 000000000006e6d8     OpensslLib:obj_dat.obj
 0002:0000296c       ??_C@_02LMLEEFAB@OU@       000000000006e6ec     OpensslLib:obj_dat.obj
 0002:00002970       ??_C@_0BH@LAMMAAM@organizationalUnitName@ 000000000006e6f0     OpensslLib:obj_dat.obj
 0002:00002988       ??_C@_03DICHAJGH@RSA@      000000000006e708     OpensslLib:obj_dat.obj
 0002:0000298c       ??_C@_03DFNMMEBL@rsa@      000000000006e70c     OpensslLib:obj_dat.obj
 0002:00002990       ??_C@_05EENODLBB@pkcs7@    000000000006e710     OpensslLib:obj_dat.obj
 0002:00002998       ??_C@_0L@BCKMJOMA@pkcs7?9data@ 000000000006e718     OpensslLib:obj_dat.obj
 0002:000029a8       ??_C@_0BB@PEKKHBEJ@pkcs7?9signedData@ 000000000006e728     OpensslLib:obj_dat.obj
 0002:000029c0       ??_C@_0BE@FAIIHMP@pkcs7?9envelopedData@ 000000000006e740     OpensslLib:obj_dat.obj
 0002:000029d8       ??_C@_0BN@LMEEMCPG@pkcs7?9signedAndEnvelopedData@ 000000000006e758     OpensslLib:obj_dat.obj
 0002:000029f8       ??_C@_0BB@CJNFBHDI@pkcs7?9digestData@ 000000000006e778     OpensslLib:obj_dat.obj
 0002:00002a10       ??_C@_0BE@CAMKAFJN@pkcs7?9encryptedData@ 000000000006e790     OpensslLib:obj_dat.obj
 0002:00002a24       ??_C@_05CALCPOBF@pkcs3@    000000000006e7a4     OpensslLib:obj_dat.obj
 0002:00002a30       ??_C@_0P@HCMIBBEB@dhKeyAgreement@ 000000000006e7b0     OpensslLib:obj_dat.obj
 0002:00002a40       ??_C@_07IOCLJBKC@DES?9ECB@ 000000000006e7c0     OpensslLib:obj_dat.obj
 0002:00002a48       ??_C@_07LCLHACCC@des?9ecb@ 000000000006e7c8     OpensslLib:obj_dat.obj
 0002:00002a50       ??_C@_07KNILAMJF@DES?9CFB@ 000000000006e7d0     OpensslLib:obj_dat.obj
 0002:00002a58       ??_C@_07JBBHJPBF@des?9cfb@ 000000000006e7d8     OpensslLib:obj_dat.obj
 0002:00002a60       ??_C@_07LDJJJFAI@DES?9CBC@ 000000000006e7e0     OpensslLib:obj_dat.obj
 0002:00002a68       ??_C@_07IPAFAGII@des?9cbc@ 000000000006e7e8     OpensslLib:obj_dat.obj
 0002:00002a70       ??_C@_07MECFBBOA@DES?9EDE@ 000000000006e7f0     OpensslLib:obj_dat.obj
 0002:00002a78       ??_C@_07PILJICGA@des?9ede@ 000000000006e7f8     OpensslLib:obj_dat.obj
 0002:00002a80       ??_C@_08FEKFKCFJ@DES?9EDE3@ 000000000006e800     OpensslLib:obj_dat.obj
 0002:00002a90       ??_C@_08LJCBLNOK@des?9ede3@ 000000000006e810     OpensslLib:obj_dat.obj
 0002:00002aa0       ??_C@_08MJNEIAD@IDEA?9CBC@ 000000000006e820     OpensslLib:obj_dat.obj
 0002:00002ab0       ??_C@_08LCPAFJCA@idea?9cbc@ 000000000006e830     OpensslLib:obj_dat.obj
 0002:00002ac0       ??_C@_08BCIPNBJO@IDEA?9CFB@ 000000000006e840     OpensslLib:obj_dat.obj
 0002:00002ad0       ??_C@_08KMOCMALN@idea?9cfb@ 000000000006e850     OpensslLib:obj_dat.obj
 0002:00002ae0       ??_C@_08DBCPEMKJ@IDEA?9ECB@ 000000000006e860     OpensslLib:obj_dat.obj
 0002:00002af0       ??_C@_08IPECFNIK@idea?9ecb@ 000000000006e870     OpensslLib:obj_dat.obj
 0002:00002b00       ??_C@_07KJDFEEGB@RC2?9CBC@ 000000000006e880     OpensslLib:obj_dat.obj
 0002:00002b08       ??_C@_07JCAFNCNH@rc2?9cbc@ 000000000006e888     OpensslLib:obj_dat.obj
 0002:00002b10       ??_C@_07JEIHEAML@RC2?9ECB@ 000000000006e890     OpensslLib:obj_dat.obj
 0002:00002b18       ??_C@_07KPLHNGHN@rc2?9ecb@ 000000000006e898     OpensslLib:obj_dat.obj
 0002:00002b20       ??_C@_07LHCHNNPM@RC2?9CFB@ 000000000006e8a0     OpensslLib:obj_dat.obj
 0002:00002b28       ??_C@_07IMBHELEK@rc2?9cfb@ 000000000006e8a8     OpensslLib:obj_dat.obj
 0002:00002b30       ??_C@_07PNPBGCEE@RC2?9OFB@ 000000000006e8b0     OpensslLib:obj_dat.obj
 0002:00002b38       ??_C@_07MGMBPEPC@rc2?9ofb@ 000000000006e8b8     OpensslLib:obj_dat.obj
 0002:00002b40       ??_C@_03JAOICCJD@SHA@      000000000006e8c0     OpensslLib:obj_dat.obj
 0002:00002b44       ??_C@_03JNBDOPOP@sha@      000000000006e8c4     OpensslLib:obj_dat.obj
 0002:00002b48       ??_C@_07CMOFBHAL@RSA?9SHA@ 000000000006e8c8     OpensslLib:obj_dat.obj
 0002:00002b50       ??_C@_0BF@LIDINENF@shaWithRSAEncryption@ 000000000006e8d0     OpensslLib:obj_dat.obj
 0002:00002b68       ??_C@_0M@KHNLAHDP@DES?9EDE?9CBC@ 000000000006e8e8     OpensslLib:obj_dat.obj
 0002:00002b78       ??_C@_0M@EKLHMDEA@des?9ede?9cbc@ 000000000006e8f8     OpensslLib:obj_dat.obj
 0002:00002b88       ??_C@_0N@MLDFENGJ@DES?9EDE3?9CBC@ 000000000006e908     OpensslLib:obj_dat.obj
 0002:00002b98       ??_C@_0N@FPCHEGKG@des?9ede3?9cbc@ 000000000006e918     OpensslLib:obj_dat.obj
 0002:00002ba8       ??_C@_07OHFNLDCN@DES?9OFB@ 000000000006e928     OpensslLib:obj_dat.obj
 0002:00002bb0       ??_C@_07NLMBCAKN@des?9ofb@ 000000000006e930     OpensslLib:obj_dat.obj
 0002:00002bb8       ??_C@_08FIFJGOCG@IDEA?9OFB@ 000000000006e938     OpensslLib:obj_dat.obj
 0002:00002bc8       ??_C@_08OGDEHPAF@idea?9ofb@ 000000000006e948     OpensslLib:obj_dat.obj
 0002:00002bd4       ??_C@_05NKFNBGJP@pkcs9@    000000000006e954     OpensslLib:obj_dat.obj
 0002:00002be0       ??_C@_0N@IHLBAGEP@emailAddress@ 000000000006e960     OpensslLib:obj_dat.obj
 0002:00002bf0       ??_C@_0BB@CJIILOEM@unstructuredName@ 000000000006e970     OpensslLib:obj_dat.obj
 0002:00002c08       ??_C@_0M@DOEFOEJD@contentType@ 000000000006e988     OpensslLib:obj_dat.obj
 0002:00002c18       ??_C@_0O@JDGJDGC@messageDigest@ 000000000006e998     OpensslLib:obj_dat.obj
 0002:00002c28       ??_C@_0M@IJBJCCMP@signingTime@ 000000000006e9a8     OpensslLib:obj_dat.obj
 0002:00002c38       ??_C@_0BB@IPFGMODP@countersignature@ 000000000006e9b8     OpensslLib:obj_dat.obj
 0002:00002c50       ??_C@_0BC@OKHONEEM@challengePassword@ 000000000006e9d0     OpensslLib:obj_dat.obj
 0002:00002c68       ??_C@_0BE@MACPCAPF@unstructuredAddress@ 000000000006e9e8     OpensslLib:obj_dat.obj
 0002:00002c80       ??_C@_0BO@LDCCNBPE@extendedCertificateAttributes@ 000000000006ea00     OpensslLib:obj_dat.obj
 0002:00002ca0       ??_C@_08BDEPHMAF@Netscape@ 000000000006ea20     OpensslLib:obj_dat.obj
 0002:00002cb0       ??_C@_0BO@IAIBEBGO@Netscape?5Communications?5Corp?4@ 000000000006ea30     OpensslLib:obj_dat.obj
 0002:00002cd0       ??_C@_09JDCKDNMG@nsCertExt@ 000000000006ea50     OpensslLib:obj_dat.obj
 0002:00002ce0       ??_C@_0BP@LHPGKGFM@Netscape?5Certificate?5Extension@ 000000000006ea60     OpensslLib:obj_dat.obj
 0002:00002d00       ??_C@_0L@FIMLGGPA@nsDataType@ 000000000006ea80     OpensslLib:obj_dat.obj
 0002:00002d10       ??_C@_0BD@JJEILMNP@Netscape?5Data?5Type@ 000000000006ea90     OpensslLib:obj_dat.obj
 0002:00002d28       ??_C@_0M@LJMJJOKC@DES?9EDE?9CFB@ 000000000006eaa8     OpensslLib:obj_dat.obj
 0002:00002d38       ??_C@_0M@FEKFFKNN@des?9ede?9cfb@ 000000000006eab8     OpensslLib:obj_dat.obj
 0002:00002d48       ??_C@_0N@NFCHNEPE@DES?9EDE3?9CFB@ 000000000006eac8     OpensslLib:obj_dat.obj
 0002:00002d58       ??_C@_0N@EBDFNPDL@des?9ede3?9cfb@ 000000000006ead8     OpensslLib:obj_dat.obj
 0002:00002d68       ??_C@_0M@PDBPCBBK@DES?9EDE?9OFB@ 000000000006eae8     OpensslLib:obj_dat.obj
 0002:00002d78       ??_C@_0M@BOHDOFGF@des?9ede?9ofb@ 000000000006eaf8     OpensslLib:obj_dat.obj
 0002:00002d88       ??_C@_0N@JPPBGLEM@DES?9EDE3?9OFB@ 000000000006eb08     OpensslLib:obj_dat.obj
 0002:00002d98       ??_C@_0N@LODGAID@des?9ede3?9ofb@ 000000000006eb18     OpensslLib:obj_dat.obj
 0002:00002da8       ??_C@_04KPMLCNGO@SHA1@     000000000006eb28     OpensslLib:obj_dat.obj
 0002:00002db0       ??_C@_04PGHFOLLE@sha1@     000000000006eb30     OpensslLib:obj_dat.obj
 0002:00002db8       ??_C@_0BG@DALFFFBE@sha1WithRSAEncryption@ 000000000006eb38     OpensslLib:obj_dat.obj
 0002:00002dd0       ??_C@_07JGDBCPKH@DSA?9SHA@ 000000000006eb50     OpensslLib:obj_dat.obj
 0002:00002dd8       ??_C@_0L@BEHMICBH@dsaWithSHA@ 000000000006eb58     OpensslLib:obj_dat.obj
 0002:00002de8       ??_C@_07PLHLFGGF@DSA?9old@ 000000000006eb68     OpensslLib:obj_dat.obj
 0002:00002df0       ??_C@_0BC@FFHHBCCH@dsaEncryption?9old@ 000000000006eb70     OpensslLib:obj_dat.obj
 0002:00002e08       ??_C@_0BA@KKPEMNGH@PBE?9SHA1?9RC2?964@ 000000000006eb88     OpensslLib:obj_dat.obj
 0002:00002e18       ??_C@_0BG@IBNNJING@pbeWithSHA1AndRC2?9CBC@ 000000000006eb98     OpensslLib:obj_dat.obj
 0002:00002e30       ??_C@_06KBOEGBGA@PBKDF2@   000000000006ebb0     OpensslLib:obj_dat.obj
 0002:00002e38       ??_C@_0N@ONIKBKNK@DSA?9SHA1?9old@ 000000000006ebb8     OpensslLib:obj_dat.obj
 0002:00002e48       ??_C@_0BA@DDLLDHEM@dsaWithSHA1?9old@ 000000000006ebc8     OpensslLib:obj_dat.obj
 0002:00002e58       ??_C@_0L@IICLKDNB@nsCertType@ 000000000006ebd8     OpensslLib:obj_dat.obj
 0002:00002e68       ??_C@_0BD@NFPBEMEE@Netscape?5Cert?5Type@ 000000000006ebe8     OpensslLib:obj_dat.obj
 0002:00002e80       ??_C@_09OCIGDOMM@nsBaseUrl@ 000000000006ec00     OpensslLib:obj_dat.obj
 0002:00002e90       ??_C@_0BC@DIHCABP@Netscape?5Base?5Url@ 000000000006ec10     OpensslLib:obj_dat.obj
 0002:00002ea8       ??_C@_0BA@DKPGPAKK@nsRevocationUrl@ 000000000006ec28     OpensslLib:obj_dat.obj
 0002:00002eb8       ??_C@_0BI@BCDINENC@Netscape?5Revocation?5Url@ 000000000006ec38     OpensslLib:obj_dat.obj
 0002:00002ed0       ??_C@_0BC@IKAPCMGG@nsCaRevocationUrl@ 000000000006ec50     OpensslLib:obj_dat.obj
 0002:00002ee8       ??_C@_0BL@EMOMOFDB@Netscape?5CA?5Revocation?5Url@ 000000000006ec68     OpensslLib:obj_dat.obj
 0002:00002f08       ??_C@_0N@JILHKMLM@nsRenewalUrl@ 000000000006ec88     OpensslLib:obj_dat.obj
 0002:00002f18       ??_C@_0BF@FKENIIHB@Netscape?5Renewal?5Url@ 000000000006ec98     OpensslLib:obj_dat.obj
 0002:00002f30       ??_C@_0O@DHDIMJD@nsCaPolicyUrl@ 000000000006ecb0     OpensslLib:obj_dat.obj
 0002:00002f40       ??_C@_0BH@EMEFHLC@Netscape?5CA?5Policy?5Url@ 000000000006ecc0     OpensslLib:obj_dat.obj
 0002:00002f58       ??_C@_0BA@KNOKNJNE@nsSslServerName@ 000000000006ecd8     OpensslLib:obj_dat.obj
 0002:00002f68       ??_C@_0BJ@GMBLEMAL@Netscape?5SSL?5Server?5Name@ 000000000006ece8     OpensslLib:obj_dat.obj
 0002:00002f88       ??_C@_09BALDFHMJ@nsComment@ 000000000006ed08     OpensslLib:obj_dat.obj
 0002:00002f98       ??_C@_0BB@DCFBGIOA@Netscape?5Comment@ 000000000006ed18     OpensslLib:obj_dat.obj
 0002:00002fb0       ??_C@_0P@OCCBBJKK@nsCertSequence@ 000000000006ed30     OpensslLib:obj_dat.obj
 0002:00002fc0       ??_C@_0BO@KKKBMKBD@Netscape?5Certificate?5Sequence@ 000000000006ed40     OpensslLib:obj_dat.obj
 0002:00002fe0       ??_C@_08BBKPFFGN@DESX?9CBC@ 000000000006ed60     OpensslLib:obj_dat.obj
 0002:00002ff0       ??_C@_08KPMCEEEO@desx?9cbc@ 000000000006ed70     OpensslLib:obj_dat.obj
 0002:00002ffc       ??_C@_05NDHEMDL@id?9ce@    000000000006ed7c     OpensslLib:obj_dat.obj
 0002:00003008       ??_C@_0BF@MOEDIMBI@subjectKeyIdentifier@ 000000000006ed88     OpensslLib:obj_dat.obj
 0002:00003020       ??_C@_0BO@ILPNOINJ@X509v3?5Subject?5Key?5Identifier@ 000000000006eda0     OpensslLib:obj_dat.obj
 0002:00003040       ??_C@_08BCICBOHF@keyUsage@ 000000000006edc0     OpensslLib:obj_dat.obj
 0002:00003050       ??_C@_0BB@BPPOKNBO@X509v3?5Key?5Usage@ 000000000006edd0     OpensslLib:obj_dat.obj
 0002:00003068       ??_C@_0BG@JOIAJOMN@privateKeyUsagePeriod@ 000000000006ede8     OpensslLib:obj_dat.obj
 0002:00003080       ??_C@_0CA@CLGHAMIP@X509v3?5Private?5Key?5Usage?5Period@ 000000000006ee00     OpensslLib:obj_dat.obj
 0002:000030a0       ??_C@_0P@EOFJHHKD@subjectAltName@ 000000000006ee20     OpensslLib:obj_dat.obj
 0002:000030b0       ??_C@_0CA@OPCJJLNF@X509v3?5Subject?5Alternative?5Name@ 000000000006ee30     OpensslLib:obj_dat.obj
 0002:000030d0       ??_C@_0O@DLIFHFCD@issuerAltName@ 000000000006ee50     OpensslLib:obj_dat.obj
 0002:000030e0       ??_C@_0BP@FMJCGPCG@X509v3?5Issuer?5Alternative?5Name@ 000000000006ee60     OpensslLib:obj_dat.obj
 0002:00003100       ??_C@_0BB@IKNGJCLO@basicConstraints@ 000000000006ee80     OpensslLib:obj_dat.obj
 0002:00003118       ??_C@_0BJ@FBHDAJML@X509v3?5Basic?5Constraints@ 000000000006ee98     OpensslLib:obj_dat.obj
 0002:00003138       ??_C@_09JDPHHKMA@crlNumber@ 000000000006eeb8     OpensslLib:obj_dat.obj
 0002:00003148       ??_C@_0BC@PCPNBDDJ@X509v3?5CRL?5Number@ 000000000006eec8     OpensslLib:obj_dat.obj
 0002:00003160       ??_C@_0BE@OLMJNPEP@certificatePolicies@ 000000000006eee0     OpensslLib:obj_dat.obj
 0002:00003178       ??_C@_0BM@OOFGKLPK@X509v3?5Certificate?5Policies@ 000000000006eef8     OpensslLib:obj_dat.obj
 0002:00003198       ??_C@_0BH@ICHFALGD@authorityKeyIdentifier@ 000000000006ef18     OpensslLib:obj_dat.obj
 0002:000031b0       ??_C@_0CA@GODCHEHD@X509v3?5Authority?5Key?5Identifier@ 000000000006ef30     OpensslLib:obj_dat.obj
 0002:000031d0       ??_C@_06HALMPEKO@BF?9CBC@  000000000006ef50     OpensslLib:obj_dat.obj
 0002:000031d8       ??_C@_06LFFGAFHI@bf?9cbc@  000000000006ef58     OpensslLib:obj_dat.obj
 0002:000031e0       ??_C@_06ENAOPAAE@BF?9ECB@  000000000006ef60     OpensslLib:obj_dat.obj
 0002:000031e8       ??_C@_06IIOEABNC@bf?9ecb@  000000000006ef68     OpensslLib:obj_dat.obj
 0002:000031f0       ??_C@_06GOKOGNDD@BF?9CFB@  000000000006ef70     OpensslLib:obj_dat.obj
 0002:000031f8       ??_C@_06KLEEJMOF@bf?9cfb@  000000000006ef78     OpensslLib:obj_dat.obj
 0002:00003200       ??_C@_06CEHINCIL@BF?9OFB@  000000000006ef80     OpensslLib:obj_dat.obj
 0002:00003208       ??_C@_06OBJCCDFN@bf?9ofb@  000000000006ef88     OpensslLib:obj_dat.obj
 0002:00003210       ??_C@_04BCGEDMJI@MDC2@     000000000006ef90     OpensslLib:obj_dat.obj
 0002:00003218       ??_C@_04ELNKPKEC@mdc2@     000000000006ef98     OpensslLib:obj_dat.obj
 0002:00003220       ??_C@_08OMAMCKNL@RSA?9MDC2@ 000000000006efa0     OpensslLib:obj_dat.obj
 0002:00003230       ??_C@_0M@HGGNEPNN@mdc2WithRSA@ 000000000006efb0     OpensslLib:obj_dat.obj
 0002:0000323c       ??_C@_06KFMILCMH@RC4?940@  000000000006efbc     OpensslLib:obj_dat.obj
 0002:00003244       ??_C@_06GNNJIOGN@rc4?940@  000000000006efc4     OpensslLib:obj_dat.obj
 0002:00003250       ??_C@_0L@ODHPNGGE@RC2?940?9CBC@ 000000000006efd0     OpensslLib:obj_dat.obj
 0002:00003260       ??_C@_0L@CHEFJHBP@rc2?940?9cbc@ 000000000006efe0     OpensslLib:obj_dat.obj
 0002:0000326c       ??_C@_02BLJBNPCD@GN@       000000000006efec     OpensslLib:obj_dat.obj
 0002:00003270       ??_C@_09GCBNJLNP@givenName@ 000000000006eff0     OpensslLib:obj_dat.obj
 0002:0000327c       ??_C@_02LONEIP@SN@         000000000006effc     OpensslLib:obj_dat.obj
 0002:00003280       ??_C@_07LNKFHLHI@surname@  000000000006f000     OpensslLib:obj_dat.obj
 0002:00003288       ??_C@_08PAKNLFON@initials@ 000000000006f008     OpensslLib:obj_dat.obj
 0002:00003294       ??_C@_03MEMNCOEB@uid@      000000000006f014     OpensslLib:obj_dat.obj
 0002:00003298       ??_C@_0BB@HJMGPENC@uniqueIdentifier@ 000000000006f018     OpensslLib:obj_dat.obj
 0002:000032b0       ??_C@_0BG@CCHGOEBE@crlDistributionPoints@ 000000000006f030     OpensslLib:obj_dat.obj
 0002:000032c8       ??_C@_0BP@EGHJGANM@X509v3?5CRL?5Distribution?5Points@ 000000000006f048     OpensslLib:obj_dat.obj
 0002:000032e8       ??_C@_0L@NACEPNFC@RSA?9NP?9MD5@ 000000000006f068     OpensslLib:obj_dat.obj
 0002:000032f8       ??_C@_0L@CNDCBNIN@md5WithRSA@ 000000000006f078     OpensslLib:obj_dat.obj
 0002:00003304       ??_C@_05PHLGJONK@title@    000000000006f084     OpensslLib:obj_dat.obj
 0002:00003310       ??_C@_0M@PPJNHBMP@description@ 000000000006f090     OpensslLib:obj_dat.obj
 0002:00003320       ??_C@_09OACPMKPP@CAST5?9CBC@ 000000000006f0a0     OpensslLib:obj_dat.obj
 0002:00003330       ??_C@_09BGLDNNDK@cast5?9cbc@ 000000000006f0b0     OpensslLib:obj_dat.obj
 0002:00003340       ??_C@_09NNJNMOFF@CAST5?9ECB@ 000000000006f0c0     OpensslLib:obj_dat.obj
 0002:00003350       ??_C@_09CLABNJJA@cast5?9ecb@ 000000000006f0d0     OpensslLib:obj_dat.obj
 0002:00003360       ??_C@_09PODNFDGC@CAST5?9CFB@ 000000000006f0e0     OpensslLib:obj_dat.obj
 0002:00003370       ??_C@_09IKBEEKH@cast5?9cfb@ 000000000006f0f0     OpensslLib:obj_dat.obj
 0002:00003380       ??_C@_09LEOLOMNK@CAST5?9OFB@ 000000000006f100     OpensslLib:obj_dat.obj
 0002:00003390       ??_C@_09ECHHPLBP@cast5?9ofb@ 000000000006f110     OpensslLib:obj_dat.obj
 0002:000033a0       ??_C@_0BG@JCFINJGL@pbeWithMD5AndCast5CBC@ 000000000006f120     OpensslLib:obj_dat.obj
 0002:000033b8       ??_C@_08IOHJAANG@DSA?9SHA1@ 000000000006f138     OpensslLib:obj_dat.obj
 0002:000033c8       ??_C@_0M@EFJKPOPH@dsaWithSHA1@ 000000000006f148     OpensslLib:obj_dat.obj
 0002:000033d8       ??_C@_08EMIDHKIH@MD5?9SHA1@ 000000000006f158     OpensslLib:obj_dat.obj
 0002:000033e8       ??_C@_08GOLKFMKI@md5?9sha1@ 000000000006f168     OpensslLib:obj_dat.obj
 0002:000033f8       ??_C@_0M@KECGAPAA@sha1WithRSA@ 000000000006f178     OpensslLib:obj_dat.obj
 0002:00003404       ??_C@_03ENFFABCE@DSA@      000000000006f184     OpensslLib:obj_dat.obj
 0002:00003408       ??_C@_0O@GMANLAEO@dsaEncryption@ 000000000006f188     OpensslLib:obj_dat.obj
 0002:00003418       ??_C@_09DJDCAKJG@RIPEMD160@ 000000000006f198     OpensslLib:obj_dat.obj
 0002:00003428       ??_C@_09EDIPKBN@ripemd160@ 000000000006f1a8     OpensslLib:obj_dat.obj
 0002:00003438       ??_C@_0O@JPOIHGOH@RSA?9RIPEMD160@ 000000000006f1b8     OpensslLib:obj_dat.obj
 0002:00003448       ??_C@_0BB@DCJDAKFH@ripemd160WithRSA@ 000000000006f1c8     OpensslLib:obj_dat.obj
 0002:00003460       ??_C@_07LEDAHENJ@RC5?9CBC@ 000000000006f1e0     OpensslLib:obj_dat.obj
 0002:00003468       ??_C@_07IPAAOCGP@rc5?9cbc@ 000000000006f1e8     OpensslLib:obj_dat.obj
 0002:00003470       ??_C@_07IJICHAHD@RC5?9ECB@ 000000000006f1f0     OpensslLib:obj_dat.obj
 0002:00003478       ??_C@_07LCLCOGMF@rc5?9ecb@ 000000000006f1f8     OpensslLib:obj_dat.obj
 0002:00003480       ??_C@_07KKCCONEE@RC5?9CFB@ 000000000006f200     OpensslLib:obj_dat.obj
 0002:00003488       ??_C@_07JBBCHLPC@rc5?9cfb@ 000000000006f208     OpensslLib:obj_dat.obj
 0002:00003490       ??_C@_07OAPEFCPM@RC5?9OFB@ 000000000006f210     OpensslLib:obj_dat.obj
 0002:00003498       ??_C@_07NLMEMEEK@rc5?9ofb@ 000000000006f218     OpensslLib:obj_dat.obj
 0002:000034a0       ??_C@_04CHLIKDMF@ZLIB@     000000000006f220     OpensslLib:obj_dat.obj
 0002:000034a8       ??_C@_0BB@KGNEOBKL@zlib?5compression@ 000000000006f228     OpensslLib:obj_dat.obj
 0002:000034c0       ??_C@_0BB@DGDLKPHD@extendedKeyUsage@ 000000000006f240     OpensslLib:obj_dat.obj
 0002:000034d8       ??_C@_0BK@KFMGFBEG@X509v3?5Extended?5Key?5Usage@ 000000000006f258     OpensslLib:obj_dat.obj
 0002:000034f4       ??_C@_04EAPCHJAG@PKIX@     000000000006f274     OpensslLib:obj_dat.obj
 0002:000034fc       ??_C@_05DEJBPLJH@id?9kp@   000000000006f27c     OpensslLib:obj_dat.obj
 0002:00003508       ??_C@_0L@CINGAJGN@serverAuth@ 000000000006f288     OpensslLib:obj_dat.obj
 0002:00003518       ??_C@_0BO@HPFOJNNE@TLS?5Web?5Server?5Authentication@ 000000000006f298     OpensslLib:obj_dat.obj
 0002:00003538       ??_C@_0L@HCMKLLOP@clientAuth@ 000000000006f2b8     OpensslLib:obj_dat.obj
 0002:00003548       ??_C@_0BO@FEMCBEOF@TLS?5Web?5Client?5Authentication@ 000000000006f2c8     OpensslLib:obj_dat.obj
 0002:00003568       ??_C@_0M@OJNCNGJ@codeSigning@ 000000000006f2e8     OpensslLib:obj_dat.obj
 0002:00003578       ??_C@_0N@CHJHLHFC@Code?5Signing@ 000000000006f2f8     OpensslLib:obj_dat.obj
 0002:00003588       ??_C@_0BA@NPCFDPCO@emailProtection@ 000000000006f308     OpensslLib:obj_dat.obj
 0002:00003598       ??_C@_0BC@BLBGFKKG@E?9mail?5Protection@ 000000000006f318     OpensslLib:obj_dat.obj
 0002:000035b0       ??_C@_0N@LONEBHPN@timeStamping@ 000000000006f330     OpensslLib:obj_dat.obj
 0002:000035c0       ??_C@_0O@GMMBLMEE@Time?5Stamping@ 000000000006f340     OpensslLib:obj_dat.obj
 0002:000035d0       ??_C@_09EMNNPEBE@msCodeInd@ 000000000006f350     OpensslLib:obj_dat.obj
 0002:000035e0       ??_C@_0CC@NDDHKAMP@Microsoft?5Individual?5Code?5Signi@ 000000000006f360     OpensslLib:obj_dat.obj
 0002:00003608       ??_C@_09PDGAMFAO@msCodeCom@ 000000000006f388     OpensslLib:obj_dat.obj
 0002:00003618       ??_C@_0CC@GKFNEBFA@Microsoft?5Commercial?5Code?5Signi@ 000000000006f398     OpensslLib:obj_dat.obj
 0002:00003640       ??_C@_09HGCLLDPK@msCTLSign@ 000000000006f3c0     OpensslLib:obj_dat.obj
 0002:00003650       ??_C@_0BN@GNMCHNOI@Microsoft?5Trust?5List?5Signing@ 000000000006f3d0     OpensslLib:obj_dat.obj
 0002:00003670       ??_C@_05DDBMPPAI@msSGC@    000000000006f3f0     OpensslLib:obj_dat.obj
 0002:00003678       ??_C@_0BO@FBDDCLK@Microsoft?5Server?5Gated?5Crypto@ 000000000006f3f8     OpensslLib:obj_dat.obj
 0002:00003698       ??_C@_05NGOIPCN@msEFS@     000000000006f418     OpensslLib:obj_dat.obj
 0002:000036a0       ??_C@_0CA@IJODBCMB@Microsoft?5Encrypted?5File?5System@ 000000000006f420     OpensslLib:obj_dat.obj
 0002:000036c0       ??_C@_05LFIIINKG@nsSGC@    000000000006f440     OpensslLib:obj_dat.obj
 0002:000036c8       ??_C@_0BN@MDNLHLBL@Netscape?5Server?5Gated?5Crypto@ 000000000006f448     OpensslLib:obj_dat.obj
 0002:000036e8       ??_C@_08ECNAKPJJ@deltaCRL@ 000000000006f468     OpensslLib:obj_dat.obj
 0002:000036f8       ??_C@_0BL@HLNLPBHP@X509v3?5Delta?5CRL?5Indicator@ 000000000006f478     OpensslLib:obj_dat.obj
 0002:00003718       ??_C@_09MCDAGILE@CRLReason@ 000000000006f498     OpensslLib:obj_dat.obj
 0002:00003728       ??_C@_0BH@GODIEFKG@X509v3?5CRL?5Reason?5Code@ 000000000006f4a8     OpensslLib:obj_dat.obj
 0002:00003740       ??_C@_0P@BKEGCOMO@invalidityDate@ 000000000006f4c0     OpensslLib:obj_dat.obj
 0002:00003750       ??_C@_0BA@JDBEMONE@Invalidity?5Date@ 000000000006f4d0     OpensslLib:obj_dat.obj
 0002:00003760       ??_C@_07DKMNOLMH@SXNetID@  000000000006f4e0     OpensslLib:obj_dat.obj
 0002:00003768       ??_C@_0BD@PNDCMCDK@Strong?5Extranet?5ID@ 000000000006f4e8     OpensslLib:obj_dat.obj
 0002:00003780       ??_C@_0BB@ILOABLNL@PBE?9SHA1?9RC4?9128@ 000000000006f500     OpensslLib:obj_dat.obj
 0002:00003798       ??_C@_0BI@LBIFCLPB@pbeWithSHA1And128BitRC4@ 000000000006f518     OpensslLib:obj_dat.obj
 0002:000037b0       ??_C@_0BA@ECFMCJKN@PBE?9SHA1?9RC4?940@ 000000000006f530     OpensslLib:obj_dat.obj
 0002:000037c0       ??_C@_0BH@OCAEJMIL@pbeWithSHA1And40BitRC4@ 000000000006f540     OpensslLib:obj_dat.obj
 0002:000037d8       ??_C@_0O@EDBOMBNM@PBE?9SHA1?93DES@ 000000000006f558     OpensslLib:obj_dat.obj
 0002:000037e8       ??_C@_0CB@FCNCEDP@pbeWithSHA1And3?9KeyTripleDES?9CB@ 000000000006f568     OpensslLib:obj_dat.obj
 0002:00003810       ??_C@_0O@HOHOOIGM@PBE?9SHA1?92DES@ 000000000006f590     OpensslLib:obj_dat.obj
 0002:00003820       ??_C@_0CB@NCMPKEGH@pbeWithSHA1And2?9KeyTripleDES?9CB@ 000000000006f5a0     OpensslLib:obj_dat.obj
 0002:00003848       ??_C@_0BB@FNLJPIMG@PBE?9SHA1?9RC2?9128@ 000000000006f5c8     OpensslLib:obj_dat.obj
 0002:00003860       ??_C@_0BM@DOLDINME@pbeWithSHA1And128BitRC2?9CBC@ 000000000006f5e0     OpensslLib:obj_dat.obj
 0002:00003880       ??_C@_0BA@MNBMNMAN@PBE?9SHA1?9RC2?940@ 000000000006f600     OpensslLib:obj_dat.obj
 0002:00003890       ??_C@_0BL@CKNKIMON@pbeWithSHA1And40BitRC2?9CBC@ 000000000006f610     OpensslLib:obj_dat.obj
 0002:000038ac       ??_C@_06BFGNOIAI@keyBag@   000000000006f62c     OpensslLib:obj_dat.obj
 0002:000038b8       ??_C@_0BE@ELJKIANF@pkcs8ShroudedKeyBag@ 000000000006f638     OpensslLib:obj_dat.obj
 0002:000038d0       ??_C@_07FDLMCII@certBag@   000000000006f650     OpensslLib:obj_dat.obj
 0002:000038d8       ??_C@_06JAFBIMLO@crlBag@   000000000006f658     OpensslLib:obj_dat.obj
 0002:000038e0       ??_C@_09DELDBPIE@secretBag@ 000000000006f660     OpensslLib:obj_dat.obj
 0002:000038f0       ??_C@_0BA@KAKLKBBC@safeContentsBag@ 000000000006f670     OpensslLib:obj_dat.obj
 0002:00003900       ??_C@_0N@BGFMPLCM@friendlyName@ 000000000006f680     OpensslLib:obj_dat.obj
 0002:00003910       ??_C@_0L@BCMHPPAO@localKeyID@ 000000000006f690     OpensslLib:obj_dat.obj
 0002:00003920       ??_C@_0BA@EMOFOCJL@x509Certificate@ 000000000006f6a0     OpensslLib:obj_dat.obj
 0002:00003930       ??_C@_0BA@BFAOBDKH@sdsiCertificate@ 000000000006f6b0     OpensslLib:obj_dat.obj
 0002:00003940       ??_C@_07KAOEJCFK@x509Crl@  000000000006f6c0     OpensslLib:obj_dat.obj
 0002:00003948       ??_C@_05EPMADBBF@PBES2@    000000000006f6c8     OpensslLib:obj_dat.obj
 0002:00003950       ??_C@_06DEJMPFNK@PBMAC1@   000000000006f6d0     OpensslLib:obj_dat.obj
 0002:00003958       ??_C@_0N@KANOAIP@hmacWithSHA1@ 000000000006f6d8     OpensslLib:obj_dat.obj
 0002:00003968       ??_C@_09MIPGHKGJ@id?9qt?9cps@ 000000000006f6e8     OpensslLib:obj_dat.obj
 0002:00003978       ??_C@_0BF@HPKIKKPI@Policy?5Qualifier?5CPS@ 000000000006f6f8     OpensslLib:obj_dat.obj
 0002:00003990       ??_C@_0O@CJFHFAHE@id?9qt?9unotice@ 000000000006f710     OpensslLib:obj_dat.obj
 0002:000039a0       ??_C@_0BN@KPMBKEE@Policy?5Qualifier?5User?5Notice@ 000000000006f720     OpensslLib:obj_dat.obj
 0002:000039c0       ??_C@_0L@OPHBIFFL@RC2?964?9CBC@ 000000000006f740     OpensslLib:obj_dat.obj
 0002:000039d0       ??_C@_0L@CLELMECA@rc2?964?9cbc@ 000000000006f750     OpensslLib:obj_dat.obj
 0002:000039e0       ??_C@_0L@LCBJGKJG@SMIME?9CAPS@ 000000000006f760     OpensslLib:obj_dat.obj
 0002:000039f0       ??_C@_0BE@CEEFMCAI@S?1MIME?5Capabilities@ 000000000006f770     OpensslLib:obj_dat.obj
 0002:00003a08       ??_C@_0P@OHJEMJLF@PBE?9MD2?9RC2?964@ 000000000006f788     OpensslLib:obj_dat.obj
 0002:00003a18       ??_C@_0BF@FOKDMACM@pbeWithMD2AndRC2?9CBC@ 000000000006f798     OpensslLib:obj_dat.obj
 0002:00003a30       ??_C@_0P@IDPFKEHM@PBE?9MD5?9RC2?964@ 000000000006f7b0     OpensslLib:obj_dat.obj
 0002:00003a40       ??_C@_0BF@CKDLCJKD@pbeWithMD5AndRC2?9CBC@ 000000000006f7c0     OpensslLib:obj_dat.obj
 0002:00003a58       ??_C@_0N@GOPIPBOD@PBE?9SHA1?9DES@ 000000000006f7d8     OpensslLib:obj_dat.obj
 0002:00003a68       ??_C@_0BG@JLHBEJLP@pbeWithSHA1AndDES?9CBC@ 000000000006f7e8     OpensslLib:obj_dat.obj
 0002:00003a80       ??_C@_08HCCJAOPJ@msExtReq@ 000000000006f800     OpensslLib:obj_dat.obj
 0002:00003a90       ??_C@_0BM@MEJAMAEO@Microsoft?5Extension?5Request@ 000000000006f810     OpensslLib:obj_dat.obj
 0002:00003aac       ??_C@_06EJACAMDF@extReq@   000000000006f82c     OpensslLib:obj_dat.obj
 0002:00003ab8       ??_C@_0BC@GLHEKHCC@Extension?5Request@ 000000000006f838     OpensslLib:obj_dat.obj
 0002:00003acc       ??_C@_04MEMAJGDJ@name@     000000000006f84c     OpensslLib:obj_dat.obj
 0002:00003ad8       ??_C@_0M@DNNLEIMI@dnQualifier@ 000000000006f858     OpensslLib:obj_dat.obj
 0002:00003ae4       ??_C@_05BDFHFBBC@id?9pe@   000000000006f864     OpensslLib:obj_dat.obj
 0002:00003aec       ??_C@_05BHKIKJBE@id?9ad@   000000000006f86c     OpensslLib:obj_dat.obj
 0002:00003af8       ??_C@_0BE@PLCGCINM@authorityInfoAccess@ 000000000006f878     OpensslLib:obj_dat.obj
 0002:00003b10       ??_C@_0BN@EILCOJAN@Authority?5Information?5Access@ 000000000006f890     OpensslLib:obj_dat.obj
 0002:00003b30       ??_C@_04LOJOPNBE@OCSP@     000000000006f8b0     OpensslLib:obj_dat.obj
 0002:00003b38       ??_C@_09GFPECPIH@caIssuers@ 000000000006f8b8     OpensslLib:obj_dat.obj
 0002:00003b48       ??_C@_0L@CABCENFK@CA?5Issuers@ 000000000006f8c8     OpensslLib:obj_dat.obj
 0002:00003b58       ??_C@_0M@HBKJLKNM@OCSPSigning@ 000000000006f8d8     OpensslLib:obj_dat.obj
 0002:00003b68       ??_C@_0N@CPJNIPDD@OCSP?5Signing@ 000000000006f8e8     OpensslLib:obj_dat.obj
 0002:00003b78       ??_C@_03CBLMPEHH@ISO@      000000000006f8f8     OpensslLib:obj_dat.obj
 0002:00003b7c       ??_C@_03CMEHDJAL@iso@      000000000006f8fc     OpensslLib:obj_dat.obj
 0002:00003b80       ??_C@_0M@CMICFDOA@member?9body@ 000000000006f900     OpensslLib:obj_dat.obj
 0002:00003b90       ??_C@_0BA@BGDAEHGF@ISO?5Member?5Body@ 000000000006f910     OpensslLib:obj_dat.obj
 0002:00003ba0       ??_C@_06EKAADAMF@ISO?9US@  000000000006f920     OpensslLib:obj_dat.obj
 0002:00003ba8       ??_C@_0BD@NMCDOJHL@ISO?5US?5Member?5Body@ 000000000006f928     OpensslLib:obj_dat.obj
 0002:00003bbc       ??_C@_05OCCOPOJN@X9?957@   000000000006f93c     OpensslLib:obj_dat.obj
 0002:00003bc4       ??_C@_05PAJLFBHD@X9?457@   000000000006f944     OpensslLib:obj_dat.obj
 0002:00003bcc       ??_C@_04CGFPFLFA@X9cm@     000000000006f94c     OpensslLib:obj_dat.obj
 0002:00003bd8       ??_C@_0L@DJCLIPOH@X9?457?5CM?5?$DP@ 000000000006f958     OpensslLib:obj_dat.obj
 0002:00003be4       ??_C@_05BCIEJMJH@pkcs1@    000000000006f964     OpensslLib:obj_dat.obj
 0002:00003bec       ??_C@_05HGOIFJJD@pkcs5@    000000000006f96c     OpensslLib:obj_dat.obj
 0002:00003bf4       ??_C@_05HHBEAKJJ@SMIME@    000000000006f974     OpensslLib:obj_dat.obj
 0002:00003bfc       ??_C@_06DFGHEKNE@S?1MIME@  000000000006f97c     OpensslLib:obj_dat.obj
 0002:00003c08       ??_C@_0N@GABIEKIN@id?9smime?9mod@ 000000000006f988     OpensslLib:obj_dat.obj
 0002:00003c18       ??_C@_0M@EBLDBLEO@id?9smime?9ct@ 000000000006f998     OpensslLib:obj_dat.obj
 0002:00003c28       ??_C@_0M@HFICCJDE@id?9smime?9aa@ 000000000006f9a8     OpensslLib:obj_dat.obj
 0002:00003c38       ??_C@_0N@DKFBIKP@id?9smime?9alg@ 000000000006f9b8     OpensslLib:obj_dat.obj
 0002:00003c48       ??_C@_0M@LHBAJBP@id?9smime?9cd@ 000000000006f9c8     OpensslLib:obj_dat.obj
 0002:00003c58       ??_C@_0N@PABBGIHI@id?9smime?9spq@ 000000000006f9d8     OpensslLib:obj_dat.obj
 0002:00003c68       ??_C@_0N@CFBKAPGC@id?9smime?9cti@ 000000000006f9e8     OpensslLib:obj_dat.obj
 0002:00003c78       ??_C@_0BB@PJEIFOOP@id?9smime?9mod?9cms@ 000000000006f9f8     OpensslLib:obj_dat.obj
 0002:00003c90       ??_C@_0BB@MKJLIPEJ@id?9smime?9mod?9ess@ 000000000006fa10     OpensslLib:obj_dat.obj
 0002:00003ca8       ??_C@_0BB@LBBEMNBN@id?9smime?9mod?9oid@ 000000000006fa28     OpensslLib:obj_dat.obj
 0002:00003cc0       ??_C@_0BE@PEENABNJ@id?9smime?9mod?9msg?9v3@ 000000000006fa40     OpensslLib:obj_dat.obj
 0002:00003cd8       ??_C@_0BP@HIDGBPHA@id?9smime?9mod?9ets?9eSignature?988@ 000000000006fa58     OpensslLib:obj_dat.obj
 0002:00003cf8       ??_C@_0BP@POGMGJII@id?9smime?9mod?9ets?9eSignature?997@ 000000000006fa78     OpensslLib:obj_dat.obj
 0002:00003d18       ??_C@_0BP@KEHEABPA@id?9smime?9mod?9ets?9eSigPolicy?988@ 000000000006fa98     OpensslLib:obj_dat.obj
 0002:00003d38       ??_C@_0BP@CCCOHHAI@id?9smime?9mod?9ets?9eSigPolicy?997@ 000000000006fab8     OpensslLib:obj_dat.obj
 0002:00003d58       ??_C@_0BE@GCHIHBHA@id?9smime?9ct?9receipt@ 000000000006fad8     OpensslLib:obj_dat.obj
 0002:00003d70       ??_C@_0BF@KGEHGOF@id?9smime?9ct?9authData@ 000000000006faf0     OpensslLib:obj_dat.obj
 0002:00003d88       ??_C@_0BI@DBILCLFJ@id?9smime?9ct?9publishCert@ 000000000006fb08     OpensslLib:obj_dat.obj
 0002:00003da0       ??_C@_0BE@KHNGFDDI@id?9smime?9ct?9TSTInfo@ 000000000006fb20     OpensslLib:obj_dat.obj
 0002:00003db8       ??_C@_0BE@FKPPBHI@id?9smime?9ct?9TDTInfo@ 000000000006fb38     OpensslLib:obj_dat.obj
 0002:00003dd0       ??_C@_0BI@BGKPNMK@id?9smime?9ct?9contentInfo@ 000000000006fb50     OpensslLib:obj_dat.obj
 0002:00003de8       ??_C@_0BM@MFKPCEGN@id?9smime?9ct?9DVCSRequestData@ 000000000006fb68     OpensslLib:obj_dat.obj
 0002:00003e08       ??_C@_0BN@POKJLKJJ@id?9smime?9ct?9DVCSResponseData@ 000000000006fb88     OpensslLib:obj_dat.obj
 0002:00003e28       ??_C@_0BL@LMGNMPFD@id?9smime?9aa?9receiptRequest@ 000000000006fba8     OpensslLib:obj_dat.obj
 0002:00003e48       ??_C@_0BK@DNJNJILO@id?9smime?9aa?9securityLabel@ 000000000006fbc8     OpensslLib:obj_dat.obj
 0002:00003e68       ??_C@_0BM@OEKGBMLE@id?9smime?9aa?9mlExpandHistory@ 000000000006fbe8     OpensslLib:obj_dat.obj
 0002:00003e88       ??_C@_0BI@EMGPJFHB@id?9smime?9aa?9contentHint@ 000000000006fc08     OpensslLib:obj_dat.obj
 0002:00003ea0       ??_C@_0BJ@LJLDKMDH@id?9smime?9aa?9msgSigDigest@ 000000000006fc20     OpensslLib:obj_dat.obj
 0002:00003ec0       ??_C@_0BN@GCCNOJCG@id?9smime?9aa?9encapContentType@ 000000000006fc40     OpensslLib:obj_dat.obj
 0002:00003ee0       ??_C@_0BO@KMJGIAMK@id?9smime?9aa?9contentIdentifier@ 000000000006fc60     OpensslLib:obj_dat.obj
 0002:00003f00       ??_C@_0BF@CFNHFPDB@id?9smime?9aa?9macValue@ 000000000006fc80     OpensslLib:obj_dat.obj
 0002:00003f18       ??_C@_0BN@NFAAOKEA@id?9smime?9aa?9equivalentLabels@ 000000000006fc98     OpensslLib:obj_dat.obj
 0002:00003f38       ??_C@_0BN@LEFAEFL@id?9smime?9aa?9contentReference@ 000000000006fcb8     OpensslLib:obj_dat.obj
 0002:00003f58       ??_C@_0BK@LAPEFMP@id?9smime?9aa?9encrypKeyPref@ 000000000006fcd8     OpensslLib:obj_dat.obj
 0002:00003f78       ??_C@_0BP@LHGJLGIB@id?9smime?9aa?9signingCertificate@ 000000000006fcf8     OpensslLib:obj_dat.obj
 0002:00003f98       ??_C@_0BO@CEEOANBD@id?9smime?9aa?9smimeEncryptCerts@ 000000000006fd18     OpensslLib:obj_dat.obj
 0002:00003fb8       ??_C@_0BL@DHJOIJNE@id?9smime?9aa?9timeStampToken@ 000000000006fd38     OpensslLib:obj_dat.obj
 0002:00003fd8       ??_C@_0BM@GKFMJCFL@id?9smime?9aa?9ets?9sigPolicyId@ 000000000006fd58     OpensslLib:obj_dat.obj
 0002:00003ff8       ??_C@_0BP@OLIFPEIM@id?9smime?9aa?9ets?9commitmentType@ 000000000006fd78     OpensslLib:obj_dat.obj
 0002:00004018       ??_C@_0BP@EODAELPO@id?9smime?9aa?9ets?9signerLocation@ 000000000006fd98     OpensslLib:obj_dat.obj
 0002:00004038       ??_C@_0BL@KDJDAGDC@id?9smime?9aa?9ets?9signerAttr@ 000000000006fdb8     OpensslLib:obj_dat.obj
 0002:00004058       ??_C@_0BN@JFIFOPBH@id?9smime?9aa?9ets?9otherSigCert@ 000000000006fdd8     OpensslLib:obj_dat.obj
 0002:00004078       ??_C@_0CB@GHKINGOH@id?9smime?9aa?9ets?9contentTimestam@ 000000000006fdf8     OpensslLib:obj_dat.obj
 0002:000040a0       ??_C@_0CA@NKIOCHLG@id?9smime?9aa?9ets?9CertificateRefs@ 000000000006fe20     OpensslLib:obj_dat.obj
 0002:000040c0       ??_C@_0BP@BCHJHNFO@id?9smime?9aa?9ets?9RevocationRefs@ 000000000006fe40     OpensslLib:obj_dat.obj
 0002:000040e0       ??_C@_0BL@IFKOLDIG@id?9smime?9aa?9ets?9certValues@ 000000000006fe60     OpensslLib:obj_dat.obj
 0002:00004100       ??_C@_0CB@GOCEFPFO@id?9smime?9aa?9ets?9revocationValue@ 000000000006fe80     OpensslLib:obj_dat.obj
 0002:00004128       ??_C@_0BN@HGLOGOFI@id?9smime?9aa?9ets?9escTimeStamp@ 000000000006fea8     OpensslLib:obj_dat.obj
 0002:00004148       ??_C@_0CB@CJNBPJE@id?9smime?9aa?9ets?9certCRLTimestam@ 000000000006fec8     OpensslLib:obj_dat.obj
 0002:00004170       ??_C@_0CB@BEMKNJGO@id?9smime?9aa?9ets?9archiveTimeStam@ 000000000006fef0     OpensslLib:obj_dat.obj
 0002:00004198       ??_C@_0BK@HDBIPLFI@id?9smime?9aa?9signatureType@ 000000000006ff18     OpensslLib:obj_dat.obj
 0002:000041b8       ??_C@_0BF@KEMAMBKF@id?9smime?9aa?9dvcs?9dvc@ 000000000006ff38     OpensslLib:obj_dat.obj
 0002:000041d0       ??_C@_0BK@JNJOCCCB@id?9smime?9alg?9ESDHwith3DES@ 000000000006ff50     OpensslLib:obj_dat.obj
 0002:000041f0       ??_C@_0BJ@FIJMOHBJ@id?9smime?9alg?9ESDHwithRC2@ 000000000006ff70     OpensslLib:obj_dat.obj
 0002:00004210       ??_C@_0BG@HHELPNAK@id?9smime?9alg?93DESwrap@ 000000000006ff90     OpensslLib:obj_dat.obj
 0002:00004228       ??_C@_0BF@JNCPAJCA@id?9smime?9alg?9RC2wrap@ 000000000006ffa8     OpensslLib:obj_dat.obj
 0002:00004240       ??_C@_0BC@COOODKPD@id?9smime?9alg?9ESDH@ 000000000006ffc0     OpensslLib:obj_dat.obj
 0002:00004258       ??_C@_0BJ@FOFHEIDB@id?9smime?9alg?9CMS3DESwrap@ 000000000006ffd8     OpensslLib:obj_dat.obj
 0002:00004278       ??_C@_0BI@FIFDKKFJ@id?9smime?9alg?9CMSRC2wrap@ 000000000006fff8     OpensslLib:obj_dat.obj
 0002:00004290       ??_C@_0BB@BMOBKAGE@id?9smime?9cd?9ldap@ 0000000000070010     OpensslLib:obj_dat.obj
 0002:000042a8       ??_C@_0BJ@IMNKDGEG@id?9smime?9spq?9ets?9sqt?9uri@ 0000000000070028     OpensslLib:obj_dat.obj
 0002:000042c8       ??_C@_0BN@GPAAHNOH@id?9smime?9spq?9ets?9sqt?9unotice@ 0000000000070048     OpensslLib:obj_dat.obj
 0002:000042e8       ??_C@_0BP@BCHFEGHC@id?9smime?9cti?9ets?9proofOfOrigin@ 0000000000070068     OpensslLib:obj_dat.obj
 0002:00004308       ??_C@_0CA@HNGOKBGC@id?9smime?9cti?9ets?9proofOfReceipt@ 0000000000070088     OpensslLib:obj_dat.obj
 0002:00004328       ??_C@_0CB@ICJGPMEP@id?9smime?9cti?9ets?9proofOfDeliver@ 00000000000700a8     OpensslLib:obj_dat.obj
 0002:00004350       ??_C@_0BP@ODCAFFCM@id?9smime?9cti?9ets?9proofOfSender@ 00000000000700d0     OpensslLib:obj_dat.obj
 0002:00004370       ??_C@_0CB@DDLMHEBC@id?9smime?9cti?9ets?9proofOfApprova@ 00000000000700f0     OpensslLib:obj_dat.obj
 0002:00004398       ??_C@_0CB@MICJDGGH@id?9smime?9cti?9ets?9proofOfCreatio@ 0000000000070118     OpensslLib:obj_dat.obj
 0002:000043bc       ??_C@_03HLHMHGOI@MD4@      000000000007013c     OpensslLib:obj_dat.obj
 0002:000043c0       ??_C@_03ODADJPDG@md4@      0000000000070140     OpensslLib:obj_dat.obj
 0002:000043c8       ??_C@_0M@FNAFBNKE@id?9pkix?9mod@ 0000000000070148     OpensslLib:obj_dat.obj
 0002:000043d4       ??_C@_05EBEMBIDF@id?9qt@   0000000000070154     OpensslLib:obj_dat.obj
 0002:000043dc       ??_C@_05FDHJOKPN@id?9it@   000000000007015c     OpensslLib:obj_dat.obj
 0002:000043e8       ??_C@_07OMHOPMIM@id?9pkip@ 0000000000070168     OpensslLib:obj_dat.obj
 0002:000043f0       ??_C@_06DOGCNAAM@id?9alg@  0000000000070170     OpensslLib:obj_dat.obj
 0002:000043f8       ??_C@_06PBMFLHLE@id?9cmc@  0000000000070178     OpensslLib:obj_dat.obj
 0002:00004400       ??_C@_05OHNJGMJE@id?9on@   0000000000070180     OpensslLib:obj_dat.obj
 0002:00004408       ??_C@_06IOIOBGMI@id?9pda@  0000000000070188     OpensslLib:obj_dat.obj
 0002:00004410       ??_C@_06GDGEDALH@id?9aca@  0000000000070190     OpensslLib:obj_dat.obj
 0002:00004418       ??_C@_06ELIJBHPL@id?9qcs@  0000000000070198     OpensslLib:obj_dat.obj
 0002:00004420       ??_C@_06PONIBOCI@id?9cct@  00000000000701a0     OpensslLib:obj_dat.obj
 0002:00004428       ??_C@_0BF@HGDNDMHO@id?9pkix1?9explicit?988@ 00000000000701a8     OpensslLib:obj_dat.obj
 0002:00004440       ??_C@_0BF@KMJGBJHG@id?9pkix1?9implicit?988@ 00000000000701c0     OpensslLib:obj_dat.obj
 0002:00004458       ??_C@_0BF@JEALIPIC@id?9pkix1?9explicit?993@ 00000000000701d8     OpensslLib:obj_dat.obj
 0002:00004470       ??_C@_0BF@EOKAKKIK@id?9pkix1?9implicit?993@ 00000000000701f0     OpensslLib:obj_dat.obj
 0002:00004488       ??_C@_0M@GHFPFJPB@id?9mod?9crmf@ 0000000000070208     OpensslLib:obj_dat.obj
 0002:00004498       ??_C@_0L@KPDLDADF@id?9mod?9cmc@ 0000000000070218     OpensslLib:obj_dat.obj
 0002:000044a8       ??_C@_0BG@DCGANCKA@id?9mod?9kea?9profile?988@ 0000000000070228     OpensslLib:obj_dat.obj
 0002:000044c0       ??_C@_0BG@NAFGGBFM@id?9mod?9kea?9profile?993@ 0000000000070240     OpensslLib:obj_dat.obj
 0002:000044d8       ??_C@_0L@MONEHBKH@id?9mod?9cmp@ 0000000000070258     OpensslLib:obj_dat.obj
 0002:000044e8       ??_C@_0BJ@GENFLKHG@id?9mod?9qualified?9cert?988@ 0000000000070268     OpensslLib:obj_dat.obj
 0002:00004508       ??_C@_0BJ@IGODAJIK@id?9mod?9qualified?9cert?993@ 0000000000070288     OpensslLib:obj_dat.obj
 0002:00004528       ??_C@_0BG@EPPFBJNH@id?9mod?9attribute?9cert@ 00000000000702a8     OpensslLib:obj_dat.obj
 0002:00004540       ??_C@_0BK@GAJOODEK@id?9mod?9timestamp?9protocol@ 00000000000702c0     OpensslLib:obj_dat.obj
 0002:00004560       ??_C@_0M@EACKLPKH@id?9mod?9ocsp@ 00000000000702e0     OpensslLib:obj_dat.obj
 0002:00004570       ??_C@_0M@GHDGNJKI@id?9mod?9dvcs@ 00000000000702f0     OpensslLib:obj_dat.obj
 0002:00004580       ??_C@_0P@MMOAAMFD@id?9mod?9cmp2000@ 0000000000070300     OpensslLib:obj_dat.obj
 0002:00004590       ??_C@_0O@MPIIPAHM@biometricInfo@ 0000000000070310     OpensslLib:obj_dat.obj
 0002:000045a0       ??_C@_0P@KFKDECPH@Biometric?5Info@ 0000000000070320     OpensslLib:obj_dat.obj
 0002:000045b0       ??_C@_0N@FPMNLLM@qcStatements@ 0000000000070330     OpensslLib:obj_dat.obj
 0002:000045c0       ??_C@_0P@CIOHPJGC@ac?9auditEntity@ 0000000000070340     OpensslLib:obj_dat.obj
 0002:000045d0       ??_C@_0N@FPEEOJCI@ac?9targeting@ 0000000000070350     OpensslLib:obj_dat.obj
 0002:000045e0       ??_C@_0L@DLGBNBJE@aaControls@ 0000000000070360     OpensslLib:obj_dat.obj
 0002:000045f0       ??_C@_0BB@NNCKCHBC@sbgp?9ipAddrBlock@ 0000000000070370     OpensslLib:obj_dat.obj
 0002:00004608       ??_C@_0BG@OJEHJDKA@sbgp?9autonomousSysNum@ 0000000000070388     OpensslLib:obj_dat.obj
 0002:00004620       ??_C@_0BG@JCJJBMAI@sbgp?9routerIdentifier@ 00000000000703a0     OpensslLib:obj_dat.obj
 0002:00004638       ??_C@_0L@HLNNPJEH@textNotice@ 00000000000703b8     OpensslLib:obj_dat.obj
 0002:00004648       ??_C@_0P@MKBFMAPP@ipsecEndSystem@ 00000000000703c8     OpensslLib:obj_dat.obj
 0002:00004658       ??_C@_0BB@JEJDAICO@IPSec?5End?5System@ 00000000000703d8     OpensslLib:obj_dat.obj
 0002:00004670       ??_C@_0M@GMMHFFHI@ipsecTunnel@ 00000000000703f0     OpensslLib:obj_dat.obj
 0002:00004680       ??_C@_0N@EKDIOGLO@IPSec?5Tunnel@ 0000000000070400     OpensslLib:obj_dat.obj
 0002:00004690       ??_C@_09GOHJKOFF@ipsecUser@ 0000000000070410     OpensslLib:obj_dat.obj
 0002:000046a0       ??_C@_0L@DECDDCGF@IPSec?5User@ 0000000000070420     OpensslLib:obj_dat.obj
 0002:000046ac       ??_C@_04JJICJLBL@DVCS@     000000000007042c     OpensslLib:obj_dat.obj
 0002:000046b4       ??_C@_04FFLIHJGD@dvcs@     0000000000070434     OpensslLib:obj_dat.obj
 0002:000046c0       ??_C@_0BE@GJACIPND@id?9it?9caProtEncCert@ 0000000000070440     OpensslLib:obj_dat.obj
 0002:000046d8       ??_C@_0BH@POCENFBA@id?9it?9signKeyPairTypes@ 0000000000070458     OpensslLib:obj_dat.obj
 0002:000046f0       ??_C@_0BG@FKIDIODL@id?9it?9encKeyPairTypes@ 0000000000070470     OpensslLib:obj_dat.obj
 0002:00004708       ??_C@_0BH@JFBOPDCH@id?9it?9preferredSymmAlg@ 0000000000070488     OpensslLib:obj_dat.obj
 0002:00004720       ??_C@_0BG@OAKEHPLC@id?9it?9caKeyUpdateInfo@ 00000000000704a0     OpensslLib:obj_dat.obj
 0002:00004738       ??_C@_0BB@NHKBGJFG@id?9it?9currentCRL@ 00000000000704b8     OpensslLib:obj_dat.obj
 0002:00004750       ??_C@_0BG@BPLKDJPD@id?9it?9unsupportedOIDs@ 00000000000704d0     OpensslLib:obj_dat.obj
 0002:00004768       ??_C@_0BK@MKGCMKGI@id?9it?9subscriptionRequest@ 00000000000704e8     OpensslLib:obj_dat.obj
 0002:00004788       ??_C@_0BL@HBPHBFLO@id?9it?9subscriptionResponse@ 0000000000070508     OpensslLib:obj_dat.obj
 0002:000047a8       ??_C@_0BG@LGJDGAPG@id?9it?9keyPairParamReq@ 0000000000070528     OpensslLib:obj_dat.obj
 0002:000047c0       ??_C@_0BG@KPIIFBLH@id?9it?9keyPairParamRep@ 0000000000070540     OpensslLib:obj_dat.obj
 0002:000047d8       ??_C@_0BE@FOOOCPMH@id?9it?9revPassphrase@ 0000000000070558     OpensslLib:obj_dat.obj
 0002:000047f0       ??_C@_0BG@MKDHCJKF@id?9it?9implicitConfirm@ 0000000000070570     OpensslLib:obj_dat.obj
 0002:00004808       ??_C@_0BG@KCBHNMIK@id?9it?9confirmWaitTime@ 0000000000070588     OpensslLib:obj_dat.obj
 0002:00004820       ??_C@_0BF@CLCJJGFI@id?9it?9origPKIMessage@ 00000000000705a0     OpensslLib:obj_dat.obj
 0002:00004838       ??_C@_0L@FDGKGANK@id?9regCtrl@ 00000000000705b8     OpensslLib:obj_dat.obj
 0002:00004848       ??_C@_0L@BGHMJHOP@id?9regInfo@ 00000000000705c8     OpensslLib:obj_dat.obj
 0002:00004858       ??_C@_0BE@JDMKCIPE@id?9regCtrl?9regToken@ 00000000000705d8     OpensslLib:obj_dat.obj
 0002:00004870       ??_C@_0BJ@FBKKLLKP@id?9regCtrl?9authenticator@ 00000000000705f0     OpensslLib:obj_dat.obj
 0002:00004890       ??_C@_0BO@GJKPPLPL@id?9regCtrl?9pkiPublicationInfo@ 0000000000070610     OpensslLib:obj_dat.obj
 0002:000048b0       ??_C@_0BN@ONKHMAOP@id?9regCtrl?9pkiArchiveOptions@ 0000000000070630     OpensslLib:obj_dat.obj
 0002:000048d0       ??_C@_0BF@GFJPNJIG@id?9regCtrl?9oldCertID@ 0000000000070650     OpensslLib:obj_dat.obj
 0002:000048e8       ??_C@_0BL@GHBPLPHM@id?9regCtrl?9protocolEncrKey@ 0000000000070668     OpensslLib:obj_dat.obj
 0002:00004908       ??_C@_0BF@FHFGHAHE@id?9regInfo?9utf8Pairs@ 0000000000070688     OpensslLib:obj_dat.obj
 0002:00004920       ??_C@_0BD@EEAPBNJJ@id?9regInfo?9certReq@ 00000000000706a0     OpensslLib:obj_dat.obj
 0002:00004938       ??_C@_0N@KIJONBNA@id?9alg?9des40@ 00000000000706b8     OpensslLib:obj_dat.obj
 0002:00004948       ??_C@_0BD@LAAJOBHI@id?9alg?9noSignature@ 00000000000706c8     OpensslLib:obj_dat.obj
 0002:00004960       ??_C@_0BI@KIODNBCM@id?9alg?9dh?9sig?9hmac?9sha1@ 00000000000706e0     OpensslLib:obj_dat.obj
 0002:00004978       ??_C@_0O@OBGPPBGA@id?9alg?9dh?9pop@ 00000000000706f8     OpensslLib:obj_dat.obj
 0002:00004988       ??_C@_0BC@CMNEPEAI@id?9cmc?9statusInfo@ 0000000000070708     OpensslLib:obj_dat.obj
 0002:000049a0       ??_C@_0BG@PPIINOMK@id?9cmc?9identification@ 0000000000070720     OpensslLib:obj_dat.obj
 0002:000049b8       ??_C@_0BF@IDAHNDCK@id?9cmc?9identityProof@ 0000000000070738     OpensslLib:obj_dat.obj
 0002:000049d0       ??_C@_0BC@LLJKCHEN@id?9cmc?9dataReturn@ 0000000000070750     OpensslLib:obj_dat.obj
 0002:000049e8       ??_C@_0BF@GEJAHBF@id?9cmc?9transactionId@ 0000000000070768     OpensslLib:obj_dat.obj
 0002:00004a00       ??_C@_0BD@BCMJDDMP@id?9cmc?9senderNonce@ 0000000000070780     OpensslLib:obj_dat.obj
 0002:00004a18       ??_C@_0BG@JLHHNNCH@id?9cmc?9recipientNonce@ 0000000000070798     OpensslLib:obj_dat.obj
 0002:00004a30       ??_C@_0BF@HLOCACJF@id?9cmc?9addExtensions@ 00000000000707b0     OpensslLib:obj_dat.obj
 0002:00004a48       ??_C@_0BE@NILMJFN@id?9cmc?9encryptedPOP@ 00000000000707c8     OpensslLib:obj_dat.obj
 0002:00004a60       ??_C@_0BE@KBIPLENG@id?9cmc?9decryptedPOP@ 00000000000707e0     OpensslLib:obj_dat.obj
 0002:00004a78       ??_C@_0BF@BMODAINP@id?9cmc?9lraPOPWitness@ 00000000000707f8     OpensslLib:obj_dat.obj
 0002:00004a90       ??_C@_0P@GMDPJKDO@id?9cmc?9getCert@ 0000000000070810     OpensslLib:obj_dat.obj
 0002:00004aa0       ??_C@_0O@OIGIOBJ@id?9cmc?9getCRL@ 0000000000070820     OpensslLib:obj_dat.obj
 0002:00004ab0       ??_C@_0BF@BOEAJJNI@id?9cmc?9revokeRequest@ 0000000000070830     OpensslLib:obj_dat.obj
 0002:00004ac8       ??_C@_0P@PCIOIKNC@id?9cmc?9regInfo@ 0000000000070848     OpensslLib:obj_dat.obj
 0002:00004ad8       ??_C@_0BE@CKMFMMDP@id?9cmc?9responseInfo@ 0000000000070858     OpensslLib:obj_dat.obj
 0002:00004af0       ??_C@_0BE@JKLJLIIH@id?9cmc?9queryPending@ 0000000000070870     OpensslLib:obj_dat.obj
 0002:00004b08       ??_C@_0BF@GGLCNKGO@id?9cmc?9popLinkRandom@ 0000000000070888     OpensslLib:obj_dat.obj
 0002:00004b20       ??_C@_0BG@EEIJMDPB@id?9cmc?9popLinkWitness@ 00000000000708a0     OpensslLib:obj_dat.obj
 0002:00004b38       ??_C@_0BN@MIGHDJON@id?9cmc?9confirmCertAcceptance@ 00000000000708b8     OpensslLib:obj_dat.obj
 0002:00004b58       ??_C@_0BD@IGLADCFL@id?9on?9personalData@ 00000000000708d8     OpensslLib:obj_dat.obj
 0002:00004b70       ??_C@_0BD@BADJMIPF@id?9pda?9dateOfBirth@ 00000000000708f0     OpensslLib:obj_dat.obj
 0002:00004b88       ??_C@_0BE@NIFFDBPJ@id?9pda?9placeOfBirth@ 0000000000070908     OpensslLib:obj_dat.obj
 0002:00004ba0       ??_C@_0O@JMCFNPFD@id?9pda?9gender@ 0000000000070920     OpensslLib:obj_dat.obj
 0002:00004bb0       ??_C@_0BM@KMGEGNAB@id?9pda?9countryOfCitizenship@ 0000000000070930     OpensslLib:obj_dat.obj
 0002:00004bd0       ??_C@_0BK@BJMNIGCJ@id?9pda?9countryOfResidence@ 0000000000070950     OpensslLib:obj_dat.obj
 0002:00004bf0       ??_C@_0BK@OFEDAOCA@id?9aca?9authenticationInfo@ 0000000000070970     OpensslLib:obj_dat.obj
 0002:00004c10       ??_C@_0BG@GFJCFEAI@id?9aca?9accessIdentity@ 0000000000070990     OpensslLib:obj_dat.obj
 0002:00004c28       ??_C@_0BI@IDHFJBKH@id?9aca?9chargingIdentity@ 00000000000709a8     OpensslLib:obj_dat.obj
 0002:00004c40       ??_C@_0N@HOPCGOGP@id?9aca?9group@ 00000000000709c0     OpensslLib:obj_dat.obj
 0002:00004c50       ??_C@_0M@FBOAJIIJ@id?9aca?9role@ 00000000000709d0     OpensslLib:obj_dat.obj
 0002:00004c60       ??_C@_0BH@DJONLBHI@id?9qcs?9pkixQCSyntax?9v1@ 00000000000709e0     OpensslLib:obj_dat.obj
 0002:00004c78       ??_C@_0L@CDHPLMPE@id?9cct?9crs@ 00000000000709f8     OpensslLib:obj_dat.obj
 0002:00004c88       ??_C@_0P@FNCPPGJO@id?9cct?9PKIData@ 0000000000070a08     OpensslLib:obj_dat.obj
 0002:00004c98       ??_C@_0BD@DDALHPCH@id?9cct?9PKIResponse@ 0000000000070a18     OpensslLib:obj_dat.obj
 0002:00004cb0       ??_C@_0BA@PBBONLHE@ad_timestamping@ 0000000000070a30     OpensslLib:obj_dat.obj
 0002:00004cc0       ??_C@_0BB@NMPPBOGK@AD?5Time?5Stamping@ 0000000000070a40     OpensslLib:obj_dat.obj
 0002:00004cd8       ??_C@_07JCCJJKFE@AD_DVCS@  0000000000070a58     OpensslLib:obj_dat.obj
 0002:00004ce0       ??_C@_07JCKMJMPC@ad?5dvcs@ 0000000000070a60     OpensslLib:obj_dat.obj
 0002:00004ce8       ??_C@_0BC@KFAFMFFF@basicOCSPResponse@ 0000000000070a68     OpensslLib:obj_dat.obj
 0002:00004d00       ??_C@_0BE@ONEEPEOL@Basic?5OCSP?5Response@ 0000000000070a80     OpensslLib:obj_dat.obj
 0002:00004d18       ??_C@_0L@NCNDEJFL@OCSP?5Nonce@ 0000000000070a98     OpensslLib:obj_dat.obj
 0002:00004d24       ??_C@_05NOENOBME@CrlID@    0000000000070aa4     OpensslLib:obj_dat.obj
 0002:00004d30       ??_C@_0M@LCLKJALE@OCSP?5CRL?5ID@ 0000000000070ab0     OpensslLib:obj_dat.obj
 0002:00004d40       ??_C@_0BE@FBPDIHIK@acceptableResponses@ 0000000000070ac0     OpensslLib:obj_dat.obj
 0002:00004d58       ??_C@_0BK@JKKLNLEI@Acceptable?5OCSP?5Responses@ 0000000000070ad8     OpensslLib:obj_dat.obj
 0002:00004d78       ??_C@_07MCKMCKHJ@noCheck@  0000000000070af8     OpensslLib:obj_dat.obj
 0002:00004d80       ??_C@_0O@HFOALJCG@OCSP?5No?5Check@ 0000000000070b00     OpensslLib:obj_dat.obj
 0002:00004d90       ??_C@_0O@FIEDPKGI@archiveCutoff@ 0000000000070b10     OpensslLib:obj_dat.obj
 0002:00004da0       ??_C@_0BE@JAFPABJB@OCSP?5Archive?5Cutoff@ 0000000000070b20     OpensslLib:obj_dat.obj
 0002:00004db8       ??_C@_0P@LCDAPLHC@serviceLocator@ 0000000000070b38     OpensslLib:obj_dat.obj
 0002:00004dc8       ??_C@_0BF@CEIKAD@OCSP?5Service?5Locator@ 0000000000070b48     OpensslLib:obj_dat.obj
 0002:00004de0       ??_C@_0P@EGENIBNC@extendedStatus@ 0000000000070b60     OpensslLib:obj_dat.obj
 0002:00004df0       ??_C@_0BF@MPEDLKDP@Extended?5OCSP?5Status@ 0000000000070b70     OpensslLib:obj_dat.obj
 0002:00004e08       ??_C@_05HDPIMK@valid@      0000000000070b88     OpensslLib:obj_dat.obj
 0002:00004e10       ??_C@_04LNEJFJGI@path@     0000000000070b90     OpensslLib:obj_dat.obj
 0002:00004e18       ??_C@_09LNEPAILM@trustRoot@ 0000000000070b98     OpensslLib:obj_dat.obj
 0002:00004e28       ??_C@_0L@INBPOG@Trust?5Root@ 0000000000070ba8     OpensslLib:obj_dat.obj
 0002:00004e38       ??_C@_0N@JHANBHGC@rsaSignature@ 0000000000070bb8     OpensslLib:obj_dat.obj
 0002:00004e48       ??_C@_0P@NMIAKCBG@X500algorithms@ 0000000000070bc8     OpensslLib:obj_dat.obj
 0002:00004e58       ??_C@_0CA@FIOIBJEO@directory?5services?5?9?5algorithms@ 0000000000070bd8     OpensslLib:obj_dat.obj
 0002:00004e78       ??_C@_03MNMMELJE@ORG@      0000000000070bf8     OpensslLib:obj_dat.obj
 0002:00004e7c       ??_C@_03MADHIGOI@org@      0000000000070bfc     OpensslLib:obj_dat.obj
 0002:00004e80       ??_C@_03CFBOKPHF@DOD@      0000000000070c00     OpensslLib:obj_dat.obj
 0002:00004e84       ??_C@_03CIOFGCAJ@dod@      0000000000070c04     OpensslLib:obj_dat.obj
 0002:00004e88       ??_C@_04NMPANDAM@IANA@     0000000000070c08     OpensslLib:obj_dat.obj
 0002:00004e90       ??_C@_04BAMKDBHE@iana@     0000000000070c10     OpensslLib:obj_dat.obj
 0002:00004e98       ??_C@_09ELLNFDPM@directory@ 0000000000070c18     OpensslLib:obj_dat.obj
 0002:00004ea8       ??_C@_09EOAFACM@Directory@ 0000000000070c28     OpensslLib:obj_dat.obj
 0002:00004eb4       ??_C@_04PFNCJACF@mgmt@     0000000000070c34     OpensslLib:obj_dat.obj
 0002:00004ec0       ??_C@_0L@ENAJINDB@Management@ 0000000000070c40     OpensslLib:obj_dat.obj
 0002:00004ed0       ??_C@_0N@OJFGCCKJ@experimental@ 0000000000070c50     OpensslLib:obj_dat.obj
 0002:00004ee0       ??_C@_0N@FKCIGJFM@Experimental@ 0000000000070c60     OpensslLib:obj_dat.obj
 0002:00004ef0       ??_C@_07NMPLPEPB@private@  0000000000070c70     OpensslLib:obj_dat.obj
 0002:00004ef8       ??_C@_07CFINJGKH@Private@  0000000000070c78     OpensslLib:obj_dat.obj
 0002:00004f00       ??_C@_08MBFLHJIB@security@ 0000000000070c80     OpensslLib:obj_dat.obj
 0002:00004f10       ??_C@_08EDKKPLCC@Security@ 0000000000070c90     OpensslLib:obj_dat.obj
 0002:00004f1c       ??_C@_06DKHMNHOO@snmpv2@   0000000000070c9c     OpensslLib:obj_dat.obj
 0002:00004f24       ??_C@_06JDJOGLHO@SNMPv2@   0000000000070ca4     OpensslLib:obj_dat.obj
 0002:00004f2c       ??_C@_04JEGKNAHI@Mail@     0000000000070cac     OpensslLib:obj_dat.obj
 0002:00004f38       ??_C@_0M@DMHOKNAD@enterprises@ 0000000000070cb8     OpensslLib:obj_dat.obj
 0002:00004f48       ??_C@_0M@CEEPHGPL@Enterprises@ 0000000000070cc8     OpensslLib:obj_dat.obj
 0002:00004f58       ??_C@_08KAGHKPKK@dcobject@ 0000000000070cd8     OpensslLib:obj_dat.obj
 0002:00004f68       ??_C@_08GPNKJGDG@dcObject@ 0000000000070ce8     OpensslLib:obj_dat.obj
 0002:00004f74       ??_C@_02KMHJBPDH@DC@       0000000000070cf4     OpensslLib:obj_dat.obj
 0002:00004f78       ??_C@_0BA@DMAKFKAH@domainComponent@ 0000000000070cf8     OpensslLib:obj_dat.obj
 0002:00004f88       ??_C@_06LKIIGAOE@domain@   0000000000070d08     OpensslLib:obj_dat.obj
 0002:00004f90       ??_C@_06HFDFFJHI@Domain@   0000000000070d10     OpensslLib:obj_dat.obj
 0002:00004f98       ??_C@_04HIBGFPH@NULL@      0000000000070d18     OpensslLib:obj_dat.obj
 0002:00004fa0       ??_C@_0BJ@BDDNHDDA@selected?9attribute?9types@ 0000000000070d20     OpensslLib:obj_dat.obj
 0002:00004fc0       ??_C@_0BJ@MAOJIBHF@Selected?5Attribute?5Types@ 0000000000070d40     OpensslLib:obj_dat.obj
 0002:00004fe0       ??_C@_09ECGCCLFI@clearance@ 0000000000070d60     OpensslLib:obj_dat.obj
 0002:00004ff0       ??_C@_07MHHBEDHA@RSA?9MD4@ 0000000000070d70     OpensslLib:obj_dat.obj
 0002:00004ff8       ??_C@_0BF@JDOFKNPK@md4WithRSAEncryption@ 0000000000070d78     OpensslLib:obj_dat.obj
 0002:00005010       ??_C@_0M@BKAIKGEL@ac?9proxying@ 0000000000070d90     OpensslLib:obj_dat.obj
 0002:00005020       ??_C@_0BC@IEIBIKBA@subjectInfoAccess@ 0000000000070da0     OpensslLib:obj_dat.obj
 0002:00005038       ??_C@_0BL@OMFIOBLF@Subject?5Information?5Access@ 0000000000070db8     OpensslLib:obj_dat.obj
 0002:00005058       ??_C@_0BA@PEFFHNFH@id?9aca?9encAttrs@ 0000000000070dd8     OpensslLib:obj_dat.obj
 0002:00005068       ??_C@_04IAMNPBLO@role@     0000000000070de8     OpensslLib:obj_dat.obj
 0002:00005070       ??_C@_0BC@IJLMCBHD@policyConstraints@ 0000000000070df0     OpensslLib:obj_dat.obj
 0002:00005088       ??_C@_0BK@DNMBLGM@X509v3?5Policy?5Constraints@ 0000000000070e08     OpensslLib:obj_dat.obj
 0002:000050a8       ??_C@_0BC@JINDJNPM@targetInformation@ 0000000000070e28     OpensslLib:obj_dat.obj
 0002:000050c0       ??_C@_0BE@IECCFFCH@X509v3?5AC?5Targeting@ 0000000000070e40     OpensslLib:obj_dat.obj
 0002:000050d8       ??_C@_0L@ECGDAGCK@noRevAvail@ 0000000000070e58     OpensslLib:obj_dat.obj
 0002:000050e8       ??_C@_0BP@DEKFNCEH@X509v3?5No?5Revocation?5Available@ 0000000000070e68     OpensslLib:obj_dat.obj
 0002:00005108       ??_C@_0L@LBMOMFCJ@ansi?9X9?962@ 0000000000070e88     OpensslLib:obj_dat.obj
 0002:00005118       ??_C@_0L@HAOKGHPF@ANSI?5X9?462@ 0000000000070e98     OpensslLib:obj_dat.obj
 0002:00005128       ??_C@_0M@LGLKIODB@prime?9field@ 0000000000070ea8     OpensslLib:obj_dat.obj
 0002:00005138       ??_C@_0BJ@HECCMKCN@characteristic?9two?9field@ 0000000000070eb8     OpensslLib:obj_dat.obj
 0002:00005158       ??_C@_0P@NEOBKIMO@id?9ecPublicKey@ 0000000000070ed8     OpensslLib:obj_dat.obj
 0002:00005168       ??_C@_0L@FFFCIFBH@prime192v1@ 0000000000070ee8     OpensslLib:obj_dat.obj
 0002:00005178       ??_C@_0L@HOHPNGNE@prime192v2@ 0000000000070ef8     OpensslLib:obj_dat.obj
 0002:00005188       ??_C@_0L@GHGEOHJF@prime192v3@ 0000000000070f08     OpensslLib:obj_dat.obj
 0002:00005198       ??_C@_0L@EOHHGIBJ@prime239v1@ 0000000000070f18     OpensslLib:obj_dat.obj
 0002:000051a8       ??_C@_0L@GFFKDLNK@prime239v2@ 0000000000070f28     OpensslLib:obj_dat.obj
 0002:000051b8       ??_C@_0L@HMEBAKJL@prime239v3@ 0000000000070f38     OpensslLib:obj_dat.obj
 0002:000051c8       ??_C@_0L@JJFEINOP@prime256v1@ 0000000000070f48     OpensslLib:obj_dat.obj
 0002:000051d8       ??_C@_0BA@DGJNDOPM@ecdsa?9with?9SHA1@ 0000000000070f58     OpensslLib:obj_dat.obj
 0002:000051e8       ??_C@_07BPKAKPJK@CSPName@  0000000000070f68     OpensslLib:obj_dat.obj
 0002:000051f0       ??_C@_0BD@HDEEGCLB@Microsoft?5CSP?5Name@ 0000000000070f70     OpensslLib:obj_dat.obj
 0002:00005208       ??_C@_0M@BCNEBAOB@AES?9128?9ECB@ 0000000000070f88     OpensslLib:obj_dat.obj
 0002:00005218       ??_C@_0M@MONPIKGC@aes?9128?9ecb@ 0000000000070f98     OpensslLib:obj_dat.obj
 0002:00005228       ??_C@_0M@CPGGBEEL@AES?9128?9CBC@ 0000000000070fa8     OpensslLib:obj_dat.obj
 0002:00005238       ??_C@_0M@PDGNIOMI@aes?9128?9cbc@ 0000000000070fb8     OpensslLib:obj_dat.obj
 0002:00005248       ??_C@_0M@HLKCDCGO@AES?9128?9OFB@ 0000000000070fc8     OpensslLib:obj_dat.obj
 0002:00005258       ??_C@_0M@KHKJKION@aes?9128?9ofb@ 0000000000070fd8     OpensslLib:obj_dat.obj
 0002:00005268       ??_C@_0M@DBHEINNG@AES?9128?9CFB@ 0000000000070fe8     OpensslLib:obj_dat.obj
 0002:00005278       ??_C@_0M@ONHPBHFF@aes?9128?9cfb@ 0000000000070ff8     OpensslLib:obj_dat.obj
 0002:00005288       ??_C@_0M@LBEIGHHN@AES?9192?9ECB@ 0000000000071008     OpensslLib:obj_dat.obj
 0002:00005298       ??_C@_0M@GNEDPNPO@aes?9192?9ecb@ 0000000000071018     OpensslLib:obj_dat.obj
 0002:000052a8       ??_C@_0M@IMPKGDNH@AES?9192?9CBC@ 0000000000071028     OpensslLib:obj_dat.obj
 0002:000052b8       ??_C@_0M@FAPBPJFE@aes?9192?9cbc@ 0000000000071038     OpensslLib:obj_dat.obj
 0002:000052c8       ??_C@_0M@NIDOEFPC@AES?9192?9OFB@ 0000000000071048     OpensslLib:obj_dat.obj
 0002:000052d8       ??_C@_0M@EDFNPHB@aes?9192?9ofb@ 0000000000071058     OpensslLib:obj_dat.obj
 0002:000052e8       ??_C@_0M@JCOIPKEK@AES?9192?9CFB@ 0000000000071068     OpensslLib:obj_dat.obj
 0002:000052f8       ??_C@_0M@EOODGAMJ@aes?9192?9cfb@ 0000000000071078     OpensslLib:obj_dat.obj
 0002:00005308       ??_C@_0M@GDPGEIPM@AES?9256?9ECB@ 0000000000071088     OpensslLib:obj_dat.obj
 0002:00005318       ??_C@_0M@LPPNNCHP@aes?9256?9ecb@ 0000000000071098     OpensslLib:obj_dat.obj
 0002:00005328       ??_C@_0M@FOEEEMFG@AES?9256?9CBC@ 00000000000710a8     OpensslLib:obj_dat.obj
 0002:00005338       ??_C@_0M@ICEPNGNF@aes?9256?9cbc@ 00000000000710b8     OpensslLib:obj_dat.obj
 0002:00005348       ??_C@_0M@KIAGKHD@AES?9256?9OFB@ 00000000000710c8     OpensslLib:obj_dat.obj
 0002:00005358       ??_C@_0M@NGILPAPA@aes?9256?9ofb@ 00000000000710d8     OpensslLib:obj_dat.obj
 0002:00005368       ??_C@_0M@EAFGNFML@AES?9256?9CFB@ 00000000000710e8     OpensslLib:obj_dat.obj
 0002:00005378       ??_C@_0M@JMFNEPEI@aes?9256?9cfb@ 00000000000710f8     OpensslLib:obj_dat.obj
 0002:00005388       ??_C@_0BE@FKEPLGJO@holdInstructionCode@ 0000000000071108     OpensslLib:obj_dat.obj
 0002:000053a0       ??_C@_0BG@LHBPDMAN@Hold?5Instruction?5Code@ 0000000000071120     OpensslLib:obj_dat.obj
 0002:000053b8       ??_C@_0BE@KPEIPHPJ@holdInstructionNone@ 0000000000071138     OpensslLib:obj_dat.obj
 0002:000053d0       ??_C@_0BG@ECBIHNGK@Hold?5Instruction?5None@ 0000000000071150     OpensslLib:obj_dat.obj
 0002:000053e8       ??_C@_0BK@ENEKHHMB@holdInstructionCallIssuer@ 0000000000071168     OpensslLib:obj_dat.obj
 0002:00005408       ??_C@_0BN@IJKNPIFC@Hold?5Instruction?5Call?5Issuer@ 0000000000071188     OpensslLib:obj_dat.obj
 0002:00005428       ??_C@_0BG@BDAACIJE@holdInstructionReject@ 00000000000711a8     OpensslLib:obj_dat.obj
 0002:00005440       ??_C@_0BI@EEABHGCD@Hold?5Instruction?5Reject@ 00000000000711c0     OpensslLib:obj_dat.obj
 0002:00005458       ??_C@_04PJOLNDGD@data@     00000000000711d8     OpensslLib:obj_dat.obj
 0002:00005460       ??_C@_03OHCBHMED@pss@      00000000000711e0     OpensslLib:obj_dat.obj
 0002:00005464       ??_C@_03BIDCBJP@ucl@       00000000000711e4     OpensslLib:obj_dat.obj
 0002:00005468       ??_C@_05KIBFDOPF@pilot@    00000000000711e8     OpensslLib:obj_dat.obj
 0002:00005470       ??_C@_0BD@NEGIHOAI@pilotAttributeType@ 00000000000711f0     OpensslLib:obj_dat.obj
 0002:00005488       ??_C@_0BF@CDEFHHCF@pilotAttributeSyntax@ 0000000000071208     OpensslLib:obj_dat.obj
 0002:000054a0       ??_C@_0BB@MJFNAIDM@pilotObjectClass@ 0000000000071220     OpensslLib:obj_dat.obj
 0002:000054b8       ??_C@_0M@DLMEDAFC@pilotGroups@ 0000000000071238     OpensslLib:obj_dat.obj
 0002:000054c8       ??_C@_0BA@KPIIGILK@iA5StringSyntax@ 0000000000071248     OpensslLib:obj_dat.obj
 0002:000054d8       ??_C@_0BK@LELMGJGD@caseIgnoreIA5StringSyntax@ 0000000000071258     OpensslLib:obj_dat.obj
 0002:000054f8       ??_C@_0M@MCCFCPKP@pilotObject@ 0000000000071278     OpensslLib:obj_dat.obj
 0002:00005508       ??_C@_0M@NCGDCEIP@pilotPerson@ 0000000000071288     OpensslLib:obj_dat.obj
 0002:00005518       ??_C@_07PMDLEBNF@account@  0000000000071298     OpensslLib:obj_dat.obj
 0002:00005520       ??_C@_08JEEDKNPB@document@ 00000000000712a0     OpensslLib:obj_dat.obj
 0002:0000552c       ??_C@_04EKFCMFOP@room@     00000000000712ac     OpensslLib:obj_dat.obj
 0002:00005538       ??_C@_0P@OAPEDDHP@documentSeries@ 00000000000712b8     OpensslLib:obj_dat.obj
 0002:00005548       ??_C@_0BA@KIAIOBLD@rFC822localPart@ 00000000000712c8     OpensslLib:obj_dat.obj
 0002:00005558       ??_C@_09BOCGGGMK@dNSDomain@ 00000000000712d8     OpensslLib:obj_dat.obj
 0002:00005568       ??_C@_0BE@OPAPHNCO@domainRelatedObject@ 00000000000712e8     OpensslLib:obj_dat.obj
 0002:00005580       ??_C@_0BA@LKHIAMBK@friendlyCountry@ 0000000000071300     OpensslLib:obj_dat.obj
 0002:00005590       ??_C@_0BF@CONLNHDI@simpleSecurityObject@ 0000000000071310     OpensslLib:obj_dat.obj
 0002:000055a8       ??_C@_0BC@PLDKCMI@pilotOrganization@ 0000000000071328     OpensslLib:obj_dat.obj
 0002:000055c0       ??_C@_08MPJGPMC@pilotDSA@  0000000000071340     OpensslLib:obj_dat.obj
 0002:000055d0       ??_C@_0BE@DDFOMMI@qualityLabelledData@ 0000000000071350     OpensslLib:obj_dat.obj
 0002:000055e4       ??_C@_03MJDGODDN@UID@      0000000000071364     OpensslLib:obj_dat.obj
 0002:000055e8       ??_C@_06LPELCIKE@userId@   0000000000071368     OpensslLib:obj_dat.obj
 0002:000055f0       ??_C@_0BF@HDIIKJDI@textEncodedORAddress@ 0000000000071370     OpensslLib:obj_dat.obj
 0002:00005608       ??_C@_04FFKLPPHM@mail@     0000000000071388     OpensslLib:obj_dat.obj
 0002:00005610       ??_C@_0O@PDNFEOHL@rfc822Mailbox@ 0000000000071390     OpensslLib:obj_dat.obj
 0002:00005620       ??_C@_04NIDJFNBE@info@     00000000000713a0     OpensslLib:obj_dat.obj
 0002:00005628       ??_C@_0P@PAMFCEKP@favouriteDrink@ 00000000000713a8     OpensslLib:obj_dat.obj
 0002:00005638       ??_C@_0L@DGKNANFO@roomNumber@ 00000000000713b8     OpensslLib:obj_dat.obj
 0002:00005644       ??_C@_05DOIFDPKA@photo@    00000000000713c4     OpensslLib:obj_dat.obj
 0002:00005650       ??_C@_09CCPGMHEM@userClass@ 00000000000713d0     OpensslLib:obj_dat.obj
 0002:0000565c       ??_C@_04OODOLJMA@host@     00000000000713dc     OpensslLib:obj_dat.obj
 0002:00005668       ??_C@_07JPLKDPHP@manager@  00000000000713e8     OpensslLib:obj_dat.obj
 0002:00005670       ??_C@_0BD@MEPJGCEO@documentIdentifier@ 00000000000713f0     OpensslLib:obj_dat.obj
 0002:00005688       ??_C@_0O@BDIDABAC@documentTitle@ 0000000000071408     OpensslLib:obj_dat.obj
 0002:00005698       ??_C@_0BA@GHOLKFM@documentVersion@ 0000000000071418     OpensslLib:obj_dat.obj
 0002:000056a8       ??_C@_0P@DABDJKFB@documentAuthor@ 0000000000071428     OpensslLib:obj_dat.obj
 0002:000056b8       ??_C@_0BB@COFKDFJ@documentLocation@ 0000000000071438     OpensslLib:obj_dat.obj
 0002:000056d0       ??_C@_0BE@CPLAKLNE@homeTelephoneNumber@ 0000000000071450     OpensslLib:obj_dat.obj
 0002:000056e8       ??_C@_09EMBFDNKC@secretary@ 0000000000071468     OpensslLib:obj_dat.obj
 0002:000056f8       ??_C@_0N@CEOKELFP@otherMailbox@ 0000000000071478     OpensslLib:obj_dat.obj
 0002:00005708       ??_C@_0BB@LHLABCIP@lastModifiedTime@ 0000000000071488     OpensslLib:obj_dat.obj
 0002:00005720       ??_C@_0P@ECLEJAJJ@lastModifiedBy@ 00000000000714a0     OpensslLib:obj_dat.obj
 0002:00005730       ??_C@_07IBNMBOJB@aRecord@  00000000000714b0     OpensslLib:obj_dat.obj
 0002:00005738       ??_C@_0BF@MIIMJDJB@pilotAttributeType27@ 00000000000714b8     OpensslLib:obj_dat.obj
 0002:00005750       ??_C@_08DFFJPLPD@mXRecord@ 00000000000714d0     OpensslLib:obj_dat.obj
 0002:00005760       ??_C@_08FBLONLGA@nSRecord@ 00000000000714e0     OpensslLib:obj_dat.obj
 0002:00005770       ??_C@_09OCFHDJJF@sOARecord@ 00000000000714f0     OpensslLib:obj_dat.obj
 0002:00005780       ??_C@_0M@GHEAGPOE@cNAMERecord@ 0000000000071500     OpensslLib:obj_dat.obj
 0002:00005790       ??_C@_0BB@MEFMIBKO@associatedDomain@ 0000000000071510     OpensslLib:obj_dat.obj
 0002:000057a8       ??_C@_0P@OJOOFNGB@associatedName@ 0000000000071528     OpensslLib:obj_dat.obj
 0002:000057b8       ??_C@_0BC@NPJKACJF@homePostalAddress@ 0000000000071538     OpensslLib:obj_dat.obj
 0002:000057d0       ??_C@_0O@CCHLDBGG@personalTitle@ 0000000000071550     OpensslLib:obj_dat.obj
 0002:000057e0       ??_C@_0BG@DCPABLLG@mobileTelephoneNumber@ 0000000000071560     OpensslLib:obj_dat.obj
 0002:000057f8       ??_C@_0BF@JICDDEFM@pagerTelephoneNumber@ 0000000000071578     OpensslLib:obj_dat.obj
 0002:00005810       ??_C@_0BE@MGDAFGCM@friendlyCountryName@ 0000000000071590     OpensslLib:obj_dat.obj
 0002:00005828       ??_C@_0BF@IANLBJMF@organizationalStatus@ 00000000000715a8     OpensslLib:obj_dat.obj
 0002:00005840       ??_C@_0N@DGNBNBGJ@janetMailbox@ 00000000000715c0     OpensslLib:obj_dat.obj
 0002:00005850       ??_C@_0BF@OFOHKDCI@mailPreferenceOption@ 00000000000715d0     OpensslLib:obj_dat.obj
 0002:00005868       ??_C@_0N@POAALOHC@buildingName@ 00000000000715e8     OpensslLib:obj_dat.obj
 0002:00005878       ??_C@_0L@LMCCHBHL@dSAQuality@ 00000000000715f8     OpensslLib:obj_dat.obj
 0002:00005888       ??_C@_0BD@EHDOPADK@singleLevelQuality@ 0000000000071608     OpensslLib:obj_dat.obj
 0002:000058a0       ??_C@_0BG@HMOECBMF@subtreeMinimumQuality@ 0000000000071620     OpensslLib:obj_dat.obj
 0002:000058b8       ??_C@_0BG@FLFPEGPE@subtreeMaximumQuality@ 0000000000071638     OpensslLib:obj_dat.obj
 0002:000058d0       ??_C@_0BC@CBOFINFC@personalSignature@ 0000000000071650     OpensslLib:obj_dat.obj
 0002:000058e8       ??_C@_0M@KIABODOB@dITRedirect@ 0000000000071668     OpensslLib:obj_dat.obj
 0002:000058f4       ??_C@_05KNIAAKIP@audio@    0000000000071674     OpensslLib:obj_dat.obj
 0002:00005900       ??_C@_0BC@KCCHJGGO@documentPublisher@ 0000000000071680     OpensslLib:obj_dat.obj
 0002:00005918       ??_C@_0BF@EFCCADKK@x500UniqueIdentifier@ 0000000000071698     OpensslLib:obj_dat.obj
 0002:00005930       ??_C@_08HLONPBDI@mime?9mhs@ 00000000000716b0     OpensslLib:obj_dat.obj
 0002:00005940       ??_C@_08DNBACEKK@MIME?5MHS@ 00000000000716c0     OpensslLib:obj_dat.obj
 0002:00005950       ??_C@_0BC@NIFMCBEJ@mime?9mhs?9headings@ 00000000000716d0     OpensslLib:obj_dat.obj
 0002:00005968       ??_C@_0BA@MOFCNIEE@mime?9mhs?9bodies@ 00000000000716e8     OpensslLib:obj_dat.obj
 0002:00005978       ??_C@_0BH@ILCJEHBB@id?9hex?9partial?9message@ 00000000000716f8     OpensslLib:obj_dat.obj
 0002:00005990       ??_C@_0BJ@KCNAIDP@id?9hex?9multipart?9message@ 0000000000071710     OpensslLib:obj_dat.obj
 0002:000059b0       ??_C@_0BE@DAEHFOO@generationQualifier@ 0000000000071730     OpensslLib:obj_dat.obj
 0002:000059c8       ??_C@_09NNMENHIH@pseudonym@ 0000000000071748     OpensslLib:obj_dat.obj
 0002:000059d4       ??_C@_06KKEMDFAF@id?9set@  0000000000071754     OpensslLib:obj_dat.obj
 0002:000059e0       ??_C@_0BP@KEIHJPNF@Secure?5Electronic?5Transactions@ 0000000000071760     OpensslLib:obj_dat.obj
 0002:00005a00       ??_C@_09EJPBIJJA@set?9ctype@ 0000000000071780     OpensslLib:obj_dat.obj
 0002:00005a10       ??_C@_0O@HJGLMADJ@content?5types@ 0000000000071790     OpensslLib:obj_dat.obj
 0002:00005a20       ??_C@_0L@PKPEIEIJ@set?9msgExt@ 00000000000717a0     OpensslLib:obj_dat.obj
 0002:00005a30       ??_C@_0BD@LEIDLLNO@message?5extensions@ 00000000000717b0     OpensslLib:obj_dat.obj
 0002:00005a48       ??_C@_08OFDIOKIA@set?9attr@ 00000000000717c8     OpensslLib:obj_dat.obj
 0002:00005a58       ??_C@_0L@LAAAKICM@set?9policy@ 00000000000717d8     OpensslLib:obj_dat.obj
 0002:00005a68       ??_C@_0M@KEIBDDC@set?9certExt@ 00000000000717e8     OpensslLib:obj_dat.obj
 0002:00005a78       ??_C@_0BH@PDPIEGPA@certificate?5extensions@ 00000000000717f8     OpensslLib:obj_dat.obj
 0002:00005a90       ??_C@_09JHODGPNO@set?9brand@ 0000000000071810     OpensslLib:obj_dat.obj
 0002:00005aa0       ??_C@_0O@EKAPGBNN@setct?9PANData@ 0000000000071820     OpensslLib:obj_dat.obj
 0002:00005ab0       ??_C@_0P@LAMDLEMO@setct?9PANToken@ 0000000000071830     OpensslLib:obj_dat.obj
 0002:00005ac0       ??_C@_0O@PFJCCKAL@setct?9PANOnly@ 0000000000071840     OpensslLib:obj_dat.obj
 0002:00005ad0       ??_C@_0N@GHLAGDMC@setct?9OIData@ 0000000000071850     OpensslLib:obj_dat.obj
 0002:00005ae0       ??_C@_08MNJJNIEC@setct?9PI@ 0000000000071860     OpensslLib:obj_dat.obj
 0002:00005af0       ??_C@_0N@PGCGIPOF@setct?9PIData@ 0000000000071870     OpensslLib:obj_dat.obj
 0002:00005b00       ??_C@_0BF@BDFGFMFJ@setct?9PIDataUnsigned@ 0000000000071880     OpensslLib:obj_dat.obj
 0002:00005b18       ??_C@_0P@LPBKKIBL@setct?9HODInput@ 0000000000071898     OpensslLib:obj_dat.obj
 0002:00005b28       ??_C@_0BF@EFHLGKOJ@setct?9AuthResBaggage@ 00000000000718a8     OpensslLib:obj_dat.obj
 0002:00005b40       ??_C@_0BI@DEMAFNK@setct?9AuthRevReqBaggage@ 00000000000718c0     OpensslLib:obj_dat.obj
 0002:00005b58       ??_C@_0BI@CNLKCNFM@setct?9AuthRevResBaggage@ 00000000000718d8     OpensslLib:obj_dat.obj
 0002:00005b70       ??_C@_0BC@DDFFKACM@setct?9CapTokenSeq@ 00000000000718f0     OpensslLib:obj_dat.obj
 0002:00005b88       ??_C@_0BD@GIEGHJGD@setct?9PInitResData@ 0000000000071908     OpensslLib:obj_dat.obj
 0002:00005ba0       ??_C@_0N@GIGHFPBJ@setct?9PI?9TBS@ 0000000000071920     OpensslLib:obj_dat.obj
 0002:00005bb0       ??_C@_0P@NGDEPBBH@setct?9PResData@ 0000000000071930     OpensslLib:obj_dat.obj
 0002:00005bc0       ??_C@_0BB@OFKINDPN@setct?9AuthReqTBS@ 0000000000071940     OpensslLib:obj_dat.obj
 0002:00005bd8       ??_C@_0BB@JPGIIAJN@setct?9AuthResTBS@ 0000000000071958     OpensslLib:obj_dat.obj
 0002:00005bf0       ??_C@_0BC@PMEDFACF@setct?9AuthResTBSX@ 0000000000071970     OpensslLib:obj_dat.obj
 0002:00005c08       ??_C@_0BD@CLPECGHJ@setct?9AuthTokenTBS@ 0000000000071988     OpensslLib:obj_dat.obj
 0002:00005c20       ??_C@_0BD@BFGEHNIL@setct?9CapTokenData@ 00000000000719a0     OpensslLib:obj_dat.obj
 0002:00005c38       ??_C@_0BC@DEDCIONA@setct?9CapTokenTBS@ 00000000000719b8     OpensslLib:obj_dat.obj
 0002:00005c50       ??_C@_0BF@LAOAGKEH@setct?9AcqCardCodeMsg@ 00000000000719d0     OpensslLib:obj_dat.obj
 0002:00005c68       ??_C@_0BE@KBFOOHGF@setct?9AuthRevReqTBS@ 00000000000719e8     OpensslLib:obj_dat.obj
 0002:00005c80       ??_C@_0BF@ODDCPHOK@setct?9AuthRevResData@ 0000000000071a00     OpensslLib:obj_dat.obj
 0002:00005c98       ??_C@_0BE@NLJOLEAF@setct?9AuthRevResTBS@ 0000000000071a18     OpensslLib:obj_dat.obj
 0002:00005cb0       ??_C@_0BA@KCAOGCKM@setct?9CapReqTBS@ 0000000000071a30     OpensslLib:obj_dat.obj
 0002:00005cc0       ??_C@_0BB@KNKADGPN@setct?9CapReqTBSX@ 0000000000071a40     OpensslLib:obj_dat.obj
 0002:00005cd8       ??_C@_0BB@BIJNNHL@setct?9CapResData@ 0000000000071a58     OpensslLib:obj_dat.obj
 0002:00005cf0       ??_C@_0BD@OELDKIB@setct?9CapRevReqTBS@ 0000000000071a70     OpensslLib:obj_dat.obj
 0002:00005d08       ??_C@_0BE@OINDCPNA@setct?9CapRevReqTBSX@ 0000000000071a88     OpensslLib:obj_dat.obj
 0002:00005d20       ??_C@_0BE@EEPKMEFG@setct?9CapRevResData@ 0000000000071aa0     OpensslLib:obj_dat.obj
 0002:00005d38       ??_C@_0BB@LDAMDCDI@setct?9CredReqTBS@ 0000000000071ab8     OpensslLib:obj_dat.obj
 0002:00005d50       ??_C@_0BC@FKNDGDPA@setct?9CredReqTBSX@ 0000000000071ad0     OpensslLib:obj_dat.obj
 0002:00005d68       ??_C@_0BC@PGPKIIHG@setct?9CredResData@ 0000000000071ae8     OpensslLib:obj_dat.obj
 0002:00005d80       ??_C@_0BE@KAOEBGME@setct?9CredRevReqTBS@ 0000000000071b00     OpensslLib:obj_dat.obj
 0002:00005d98       ??_C@_0BF@OOMLDFOD@setct?9CredRevReqTBSX@ 0000000000071b18     OpensslLib:obj_dat.obj
 0002:00005db0       ??_C@_0BF@ECOCNOGF@setct?9CredRevResData@ 0000000000071b30     OpensslLib:obj_dat.obj
 0002:00005dc8       ??_C@_0BD@DDNGMNFC@setct?9PCertReqData@ 0000000000071b48     OpensslLib:obj_dat.obj
 0002:00005de0       ??_C@_0BC@CFHCKIIA@setct?9PCertResTBS@ 0000000000071b60     OpensslLib:obj_dat.obj
 0002:00005df8       ??_C@_0BI@MKKDKHGI@setct?9BatchAdminReqData@ 0000000000071b78     OpensslLib:obj_dat.obj
 0002:00005e10       ??_C@_0BI@IHGLAGGD@setct?9BatchAdminResData@ 0000000000071b90     OpensslLib:obj_dat.obj
 0002:00005e28       ??_C@_0BG@OMHIHPPP@setct?9CardCInitResTBS@ 0000000000071ba8     OpensslLib:obj_dat.obj
 0002:00005e40       ??_C@_0BG@DIBJJIJB@setct?9MeAqCInitResTBS@ 0000000000071bc0     OpensslLib:obj_dat.obj
 0002:00005e58       ??_C@_0BE@KOFLJLPI@setct?9RegFormResTBS@ 0000000000071bd8     OpensslLib:obj_dat.obj
 0002:00005e70       ??_C@_0BC@FFENCANF@setct?9CertReqData@ 0000000000071bf0     OpensslLib:obj_dat.obj
 0002:00005e88       ??_C@_0BB@MCGELGDK@setct?9CertReqTBS@ 0000000000071c08     OpensslLib:obj_dat.obj
 0002:00005ea0       ??_C@_0BC@BIIFIBNO@setct?9CertResData@ 0000000000071c20     OpensslLib:obj_dat.obj
 0002:00005eb8       ??_C@_0BE@OIDIJLCF@setct?9CertInqReqTBS@ 0000000000071c38     OpensslLib:obj_dat.obj
 0002:00005ed0       ??_C@_0P@DLHKHMDJ@setct?9ErrorTBS@ 0000000000071c50     OpensslLib:obj_dat.obj
 0002:00005ee0       ??_C@_0BG@JDDNBPAG@setct?9PIDualSignedTBE@ 0000000000071c60     OpensslLib:obj_dat.obj
 0002:00005ef8       ??_C@_0BE@IBOAPLDD@setct?9PIUnsignedTBE@ 0000000000071c78     OpensslLib:obj_dat.obj
 0002:00005f10       ??_C@_0BB@PJDAGGCK@setct?9AuthReqTBE@ 0000000000071c90     OpensslLib:obj_dat.obj
 0002:00005f28       ??_C@_0BB@IDPADFEK@setct?9AuthResTBE@ 0000000000071ca8     OpensslLib:obj_dat.obj
 0002:00005f40       ??_C@_0BC@OEOIIPOH@setct?9AuthResTBEX@ 0000000000071cc0     OpensslLib:obj_dat.obj
 0002:00005f58       ??_C@_0BD@DHGMJDKO@setct?9AuthTokenTBE@ 0000000000071cd8     OpensslLib:obj_dat.obj
 0002:00005f70       ??_C@_0BC@CIKKDLAH@setct?9CapTokenTBE@ 0000000000071cf0     OpensslLib:obj_dat.obj
 0002:00005f88       ??_C@_0BD@OMCOOIME@setct?9CapTokenTBEX@ 0000000000071d08     OpensslLib:obj_dat.obj
 0002:00005fa0       ??_C@_0BI@PALCIALL@setct?9AcqCardCodeMsgTBE@ 0000000000071d20     OpensslLib:obj_dat.obj
 0002:00005fb8       ??_C@_0BE@LNMGFCLC@setct?9AuthRevReqTBE@ 0000000000071d38     OpensslLib:obj_dat.obj
 0002:00005fd0       ??_C@_0BE@MHAGABNC@setct?9AuthRevResTBE@ 0000000000071d50     OpensslLib:obj_dat.obj
 0002:00005fe8       ??_C@_0BF@KKFFJIHO@setct?9AuthRevResTBEB@ 0000000000071d68     OpensslLib:obj_dat.obj
 0002:00006000       ??_C@_0BA@LOJGNHHL@setct?9CapReqTBE@ 0000000000071d80     OpensslLib:obj_dat.obj
 0002:00006010       ??_C@_0BB@LFALOJDP@setct?9CapReqTBEX@ 0000000000071d90     OpensslLib:obj_dat.obj
 0002:00006028       ??_C@_0BA@MEFGIEBL@setct?9CapResTBE@ 0000000000071da8     OpensslLib:obj_dat.obj
 0002:00006038       ??_C@_0BD@BCNDIPFG@setct?9CapRevReqTBE@ 0000000000071db8     OpensslLib:obj_dat.obj
 0002:00006050       ??_C@_0BE@PAHIPABC@setct?9CapRevReqTBEX@ 0000000000071dd0     OpensslLib:obj_dat.obj
 0002:00006068       ??_C@_0BD@GIBDNMDG@setct?9CapRevResTBE@ 0000000000071de8     OpensslLib:obj_dat.obj
 0002:00006080       ??_C@_0BB@KPJEIHOP@setct?9CredReqTBE@ 0000000000071e00     OpensslLib:obj_dat.obj
 0002:00006098       ??_C@_0BC@ECHILMDC@setct?9CredReqTBEX@ 0000000000071e18     OpensslLib:obj_dat.obj
 0002:000060b0       ??_C@_0BB@NFFENEIP@setct?9CredResTBE@ 0000000000071e30     OpensslLib:obj_dat.obj
 0002:000060c8       ??_C@_0BE@LMHMKDBD@setct?9CredRevReqTBE@ 0000000000071e48     OpensslLib:obj_dat.obj
 0002:000060e0       ??_C@_0BF@PGGAOKCB@setct?9CredRevReqTBEX@ 0000000000071e60     OpensslLib:obj_dat.obj
 0002:000060f8       ??_C@_0BE@MGLMPAHD@setct?9CredRevResTBE@ 0000000000071e78     OpensslLib:obj_dat.obj
 0002:00006110       ??_C@_0BH@IPJPBLKL@setct?9BatchAdminReqTBE@ 0000000000071e90     OpensslLib:obj_dat.obj
 0002:00006128       ??_C@_0BH@PFFPEIML@setct?9BatchAdminResTBE@ 0000000000071ea8     OpensslLib:obj_dat.obj
 0002:00006140       ??_C@_0BE@MIADHNEP@setct?9RegFormReqTBE@ 0000000000071ec0     OpensslLib:obj_dat.obj
 0002:00006158       ??_C@_0BB@NOPMADON@setct?9CertReqTBE@ 0000000000071ed8     OpensslLib:obj_dat.obj
 0002:00006170       ??_C@_0BC@KMAHLFJK@setct?9CertReqTBEX@ 0000000000071ef0     OpensslLib:obj_dat.obj
 0002:00006188       ??_C@_0BB@KEDMFAIN@setct?9CertResTBE@ 0000000000071f08     OpensslLib:obj_dat.obj
 0002:000061a0       ??_C@_0BJ@KMIJGANO@setct?9CRLNotificationTBS@ 0000000000071f20     OpensslLib:obj_dat.obj
 0002:000061c0       ??_C@_0BM@GINBKIMJ@setct?9CRLNotificationResTBS@ 0000000000071f40     OpensslLib:obj_dat.obj
 0002:000061e0       ??_C@_0BJ@BPGLEKIJ@setct?9BCIDistributionTBS@ 0000000000071f60     OpensslLib:obj_dat.obj
 0002:00006200       ??_C@_0BA@NKJJMGPC@setext?9genCrypt@ 0000000000071f80     OpensslLib:obj_dat.obj
 0002:00006210       ??_C@_0BD@IMJHIOH@generic?5cryptogram@ 0000000000071f90     OpensslLib:obj_dat.obj
 0002:00006228       ??_C@_0O@IFMPKKOL@setext?9miAuth@ 0000000000071fa8     OpensslLib:obj_dat.obj
 0002:00006238       ??_C@_0BI@IMGNFPLI@merchant?5initiated?5auth@ 0000000000071fb8     OpensslLib:obj_dat.obj
 0002:00006250       ??_C@_0BB@IKLFBNP@setext?9pinSecure@ 0000000000071fd0     OpensslLib:obj_dat.obj
 0002:00006268       ??_C@_0O@PNHGIFHA@setext?9pinAny@ 0000000000071fe8     OpensslLib:obj_dat.obj
 0002:00006278       ??_C@_0O@PNAFPHHK@setext?9track2@ 0000000000071ff8     OpensslLib:obj_dat.obj
 0002:00006288       ??_C@_09GMOEIEJI@setext?9cv@ 0000000000072008     OpensslLib:obj_dat.obj
 0002:00006298       ??_C@_0BI@MFPOFNGC@additional?5verification@ 0000000000072018     OpensslLib:obj_dat.obj
 0002:000062b0       ??_C@_0BA@DLJGCPKK@set?9policy?9root@ 0000000000072030     OpensslLib:obj_dat.obj
 0002:000062c0       ??_C@_0BD@MELPLACB@setCext?9hashedRoot@ 0000000000072040     OpensslLib:obj_dat.obj
 0002:000062d8       ??_C@_0BB@LHGCHNFD@setCext?9certType@ 0000000000072058     OpensslLib:obj_dat.obj
 0002:000062f0       ??_C@_0BC@ONMLOIHK@setCext?9merchData@ 0000000000072070     OpensslLib:obj_dat.obj
 0002:00006308       ??_C@_0BG@CMNKGOHO@setCext?9cCertRequired@ 0000000000072088     OpensslLib:obj_dat.obj
 0002:00006320       ??_C@_0BC@BPADJLFJ@setCext?9tunneling@ 00000000000720a0     OpensslLib:obj_dat.obj
 0002:00006338       ??_C@_0P@DFHCPLJG@setCext?9setExt@ 00000000000720b8     OpensslLib:obj_dat.obj
 0002:00006348       ??_C@_0BB@HIAOOOIO@setCext?9setQualf@ 00000000000720c8     OpensslLib:obj_dat.obj
 0002:00006360       ??_C@_0BJ@CNLNHONG@setCext?9PGWYcapabilities@ 00000000000720e0     OpensslLib:obj_dat.obj
 0002:00006380       ??_C@_0BI@FIIEHNL@setCext?9TokenIdentifier@ 0000000000072100     OpensslLib:obj_dat.obj
 0002:00006398       ??_C@_0BD@FHFLAKJD@setCext?9Track2Data@ 0000000000072118     OpensslLib:obj_dat.obj
 0002:000063b0       ??_C@_0BC@KMFGLCBL@setCext?9TokenType@ 0000000000072130     OpensslLib:obj_dat.obj
 0002:000063c8       ??_C@_0BL@OLCLGJDA@setCext?9IssuerCapabilities@ 0000000000072148     OpensslLib:obj_dat.obj
 0002:000063e8       ??_C@_0N@DCNKAAPN@setAttr?9Cert@ 0000000000072168     OpensslLib:obj_dat.obj
 0002:000063f8       ??_C@_0BA@FAIFDKDK@setAttr?9PGWYcap@ 0000000000072178     OpensslLib:obj_dat.obj
 0002:00006408       ??_C@_0BN@HEFBDPEB@payment?5gateway?5capabilities@ 0000000000072188     OpensslLib:obj_dat.obj
 0002:00006428       ??_C@_0BC@IKOKMCIL@setAttr?9TokenType@ 00000000000721a8     OpensslLib:obj_dat.obj
 0002:00006440       ??_C@_0P@OGFLCCKL@setAttr?9IssCap@ 00000000000721c0     OpensslLib:obj_dat.obj
 0002:00006450       ??_C@_0BE@HBDPGKCG@issuer?5capabilities@ 00000000000721d0     OpensslLib:obj_dat.obj
 0002:00006468       ??_C@_0BB@MADMNAKK@set?9rootKeyThumb@ 00000000000721e8     OpensslLib:obj_dat.obj
 0002:00006480       ??_C@_0O@NOCONBCM@set?9addPolicy@ 0000000000072200     OpensslLib:obj_dat.obj
 0002:00006490       ??_C@_0BC@BMANBENP@setAttr?9Token?9EMV@ 0000000000072210     OpensslLib:obj_dat.obj
 0002:000064a8       ??_C@_0BG@ICNBHDJ@setAttr?9Token?9B0Prime@ 0000000000072228     OpensslLib:obj_dat.obj
 0002:000064c0       ??_C@_0BD@CMJDLAHE@setAttr?9IssCap?9CVM@ 0000000000072240     OpensslLib:obj_dat.obj
 0002:000064d8       ??_C@_0BC@FKLLNJMF@setAttr?9IssCap?9T2@ 0000000000072258     OpensslLib:obj_dat.obj
 0002:000064f0       ??_C@_0BD@DMNGIJGO@setAttr?9IssCap?9Sig@ 0000000000072270     OpensslLib:obj_dat.obj
 0002:00006508       ??_C@_0BE@FJCINFHM@setAttr?9GenCryptgrm@ 0000000000072288     OpensslLib:obj_dat.obj
 0002:00006520       ??_C@_0BE@BANBLNDJ@generate?5cryptogram@ 00000000000722a0     OpensslLib:obj_dat.obj
 0002:00006538       ??_C@_0O@GFEDKLID@setAttr?9T2Enc@ 00000000000722b8     OpensslLib:obj_dat.obj
 0002:00006548       ??_C@_0BC@MCHFBPJF@encrypted?5track?52@ 00000000000722c8     OpensslLib:obj_dat.obj
 0002:00006560       ??_C@_0BD@GDDCOMNC@setAttr?9T2cleartxt@ 00000000000722e0     OpensslLib:obj_dat.obj
 0002:00006578       ??_C@_0BC@EEELFHMJ@cleartext?5track?52@ 00000000000722f8     OpensslLib:obj_dat.obj
 0002:00006590       ??_C@_0BC@KFHJNGAA@setAttr?9TokICCsig@ 0000000000072310     OpensslLib:obj_dat.obj
 0002:000065a8       ??_C@_0BH@FLMFBHA@ICC?5or?5token?5signature@ 0000000000072328     OpensslLib:obj_dat.obj
 0002:000065c0       ??_C@_0BC@HILPEDHB@setAttr?9SecDevSig@ 0000000000072340     OpensslLib:obj_dat.obj
 0002:000065d8       ??_C@_0BI@BMDLNIII@secure?5device?5signature@ 0000000000072358     OpensslLib:obj_dat.obj
 0002:000065f0       ??_C@_0BD@EBDAHFCK@set?9brand?9IATA?9ATA@ 0000000000072370     OpensslLib:obj_dat.obj
 0002:00006608       ??_C@_0BB@MJOMIBOM@set?9brand?9Diners@ 0000000000072388     OpensslLib:obj_dat.obj
 0002:00006620       ??_C@_0BK@NGHCPIFJ@set?9brand?9AmericanExpress@ 00000000000723a0     OpensslLib:obj_dat.obj
 0002:00006640       ??_C@_0O@ODFDKJIN@set?9brand?9JCB@ 00000000000723c0     OpensslLib:obj_dat.obj
 0002:00006650       ??_C@_0P@KADKEMKM@set?9brand?9Visa@ 00000000000723d0     OpensslLib:obj_dat.obj
 0002:00006660       ??_C@_0BF@EKCBHCKG@set?9brand?9MasterCard@ 00000000000723e0     OpensslLib:obj_dat.obj
 0002:00006678       ??_C@_0BA@JHOGHBHC@set?9brand?9Novus@ 00000000000723f8     OpensslLib:obj_dat.obj
 0002:00006688       ??_C@_08IHLOILPC@DES?9CDMF@ 0000000000072408     OpensslLib:obj_dat.obj
 0002:00006698       ??_C@_08PPLOLAOD@des?9cdmf@ 0000000000072418     OpensslLib:obj_dat.obj
 0002:000066a8       ??_C@_0BF@EIIDBKMM@rsaOAEPEncryptionSET@ 0000000000072428     OpensslLib:obj_dat.obj
 0002:000066c0       ??_C@_05LJGINOIA@ITU?9T@   0000000000072440     OpensslLib:obj_dat.obj
 0002:000066c8       ??_C@_05EKLDHPCO@itu?9t@   0000000000072448     OpensslLib:obj_dat.obj
 0002:000066d0       ??_C@_0BA@NPJCPIN@JOINT?9ISO?9ITU?9T@ 0000000000072450     OpensslLib:obj_dat.obj
 0002:000066e0       ??_C@_0BA@DDCJMADA@joint?9iso?9itu?9t@ 0000000000072460     OpensslLib:obj_dat.obj
 0002:000066f0       ??_C@_0BM@PBBEOBAP@international?9organizations@ 0000000000072470     OpensslLib:obj_dat.obj
 0002:00006710       ??_C@_0BM@PGMBEIHL@International?5Organizations@ 0000000000072490     OpensslLib:obj_dat.obj
 0002:00006730       ??_C@_0BB@MJPMDGHF@msSmartcardLogin@ 00000000000724b0     OpensslLib:obj_dat.obj
 0002:00006748       ??_C@_0BK@BJLJNHIE@Microsoft?5Smartcard?5Login@ 00000000000724c8     OpensslLib:obj_dat.obj
 0002:00006764       ??_C@_05LKLAGLGM@msUPN@    00000000000724e4     OpensslLib:obj_dat.obj
 0002:00006770       ??_C@_0BO@NJMDLJHK@Microsoft?5User?5Principal?5Name@ 00000000000724f0     OpensslLib:obj_dat.obj
 0002:00006790       ??_C@_0N@KJNMAENO@AES?9128?9CFB1@ 0000000000072510     OpensslLib:obj_dat.obj
 0002:000067a0       ??_C@_0N@NNLBNNNO@aes?9128?9cfb1@ 0000000000072520     OpensslLib:obj_dat.obj
 0002:000067b0       ??_C@_0N@FAMGEHMG@AES?9192?9CFB1@ 0000000000072530     OpensslLib:obj_dat.obj
 0002:000067c0       ??_C@_0N@CEKLJOMG@aes?9192?9cfb1@ 0000000000072540     OpensslLib:obj_dat.obj
 0002:000067d0       ??_C@_0N@MKKLEKFP@AES?9256?9CFB1@ 0000000000072550     OpensslLib:obj_dat.obj
 0002:000067e0       ??_C@_0N@LOMGJDFP@aes?9256?9cfb1@ 0000000000072560     OpensslLib:obj_dat.obj
 0002:000067f0       ??_C@_0N@HIBOLPJH@AES?9128?9CFB8@ 0000000000072570     OpensslLib:obj_dat.obj
 0002:00006800       ??_C@_0N@MHDGGJH@aes?9128?9cfb8@ 0000000000072580     OpensslLib:obj_dat.obj
 0002:00006810       ??_C@_0N@IBAEPMIP@AES?9192?9CFB8@ 0000000000072590     OpensslLib:obj_dat.obj
 0002:00006820       ??_C@_0N@PFGJCFIP@aes?9192?9cfb8@ 00000000000725a0     OpensslLib:obj_dat.obj
 0002:00006830       ??_C@_0N@BLGJPBBG@AES?9256?9CFB8@ 00000000000725b0     OpensslLib:obj_dat.obj
 0002:00006840       ??_C@_0N@GPAECIBG@aes?9256?9cfb8@ 00000000000725c0     OpensslLib:obj_dat.obj
 0002:00006850       ??_C@_08EGJFOLHF@DES?9CFB1@ 00000000000725d0     OpensslLib:obj_dat.obj
 0002:00006860       ??_C@_08KLBBPEMG@des?9cfb1@ 00000000000725e0     OpensslLib:obj_dat.obj
 0002:00006870       ??_C@_08JHFHFADM@DES?9CFB8@ 00000000000725f0     OpensslLib:obj_dat.obj
 0002:00006880       ??_C@_08HKNDEPIP@des?9cfb8@ 0000000000072600     OpensslLib:obj_dat.obj
 0002:00006890       ??_C@_0O@HMFIBGGD@DES?9EDE3?9CFB1@ 0000000000072610     OpensslLib:obj_dat.obj
 0002:000068a0       ??_C@_0O@HHBHNLEJ@des?9ede3?9cfb1@ 0000000000072620     OpensslLib:obj_dat.obj
 0002:000068b0       ??_C@_0O@KNJKKNCK@DES?9EDE3?9CFB8@ 0000000000072630     OpensslLib:obj_dat.obj
 0002:000068c0       ??_C@_0O@KGNFGAAA@des?9ede3?9cfb8@ 0000000000072640     OpensslLib:obj_dat.obj
 0002:000068d0       ??_C@_06KFAFKEEH@street@   0000000000072650     OpensslLib:obj_dat.obj
 0002:000068d8       ??_C@_0O@GFJANBCD@streetAddress@ 0000000000072658     OpensslLib:obj_dat.obj
 0002:000068e8       ??_C@_0L@NCDHJCMF@postalCode@ 0000000000072668     OpensslLib:obj_dat.obj
 0002:000068f4       ??_C@_06CAAPGDCJ@id?9ppl@  0000000000072674     OpensslLib:obj_dat.obj
 0002:00006900       ??_C@_0O@LOINHHBF@proxyCertInfo@ 0000000000072680     OpensslLib:obj_dat.obj
 0002:00006910       ??_C@_0BO@CCHFGBDO@Proxy?5Certificate?5Information@ 0000000000072690     OpensslLib:obj_dat.obj
 0002:00006930       ??_C@_0BD@HNCKDFAM@id?9ppl?9anyLanguage@ 00000000000726b0     OpensslLib:obj_dat.obj
 0002:00006948       ??_C@_0N@BEBFEGLC@Any?5language@ 00000000000726c8     OpensslLib:obj_dat.obj
 0002:00006958       ??_C@_0BC@PCEJIIF@id?9ppl?9inheritAll@ 00000000000726d8     OpensslLib:obj_dat.obj
 0002:00006970       ??_C@_0M@FFLAPACB@Inherit?5all@ 00000000000726f0     OpensslLib:obj_dat.obj
 0002:00006980       ??_C@_0BA@NDBMPGLN@nameConstraints@ 0000000000072700     OpensslLib:obj_dat.obj
 0002:00006990       ??_C@_0BI@MLJLAGL@X509v3?5Name?5Constraints@ 0000000000072710     OpensslLib:obj_dat.obj
 0002:000069a8       ??_C@_0BD@JMNHHICP@id?9ppl?9independent@ 0000000000072728     OpensslLib:obj_dat.obj
 0002:000069c0       ??_C@_0M@MLMKHJLC@Independent@ 0000000000072740     OpensslLib:obj_dat.obj
 0002:000069d0       ??_C@_0L@CICIPLII@RSA?9SHA256@ 0000000000072750     OpensslLib:obj_dat.obj
 0002:000069e0       ??_C@_0BI@OLMNBFHG@sha256WithRSAEncryption@ 0000000000072760     OpensslLib:obj_dat.obj
 0002:000069f8       ??_C@_0L@KKHKGNDM@RSA?9SHA384@ 0000000000072778     OpensslLib:obj_dat.obj
 0002:00006a08       ??_C@_0BI@LGPCJGLE@sha384WithRSAEncryption@ 0000000000072788     OpensslLib:obj_dat.obj
 0002:00006a20       ??_C@_0L@NGJKKOOJ@RSA?9SHA512@ 00000000000727a0     OpensslLib:obj_dat.obj
 0002:00006a30       ??_C@_0BI@CFKPHFJF@sha512WithRSAEncryption@ 00000000000727b0     OpensslLib:obj_dat.obj
 0002:00006a48       ??_C@_0L@BPFBIPIP@RSA?9SHA224@ 00000000000727c8     OpensslLib:obj_dat.obj
 0002:00006a58       ??_C@_0BI@HODNLFBE@sha224WithRSAEncryption@ 00000000000727d8     OpensslLib:obj_dat.obj
 0002:00006a70       ??_C@_06HKIKMHH@SHA256@    00000000000727f0     OpensslLib:obj_dat.obj
 0002:00006a78       ??_C@_06OHILPNJ@sha256@    00000000000727f8     OpensslLib:obj_dat.obj
 0002:00006a80       ??_C@_06IFPKDKMD@SHA384@   0000000000072800     OpensslLib:obj_dat.obj
 0002:00006a88       ??_C@_06IMCKCJGN@sha384@   0000000000072808     OpensslLib:obj_dat.obj
 0002:00006a90       ??_C@_06PJBKPJBG@SHA512@   0000000000072810     OpensslLib:obj_dat.obj
 0002:00006a98       ??_C@_06PAMKOKLI@sha512@   0000000000072818     OpensslLib:obj_dat.obj
 0002:00006aa0       ??_C@_06DANBNIHA@SHA224@   0000000000072820     OpensslLib:obj_dat.obj
 0002:00006aa8       ??_C@_06DJABMLNO@sha224@   0000000000072828     OpensslLib:obj_dat.obj
 0002:00006ab0       ??_C@_0BI@NDBFOMIA@identified?9organization@ 0000000000072830     OpensslLib:obj_dat.obj
 0002:00006ac8       ??_C@_0N@GOPBJFID@certicom?9arc@ 0000000000072848     OpensslLib:obj_dat.obj
 0002:00006ad8       ??_C@_03EOHJGACH@wap@      0000000000072858     OpensslLib:obj_dat.obj
 0002:00006ae0       ??_C@_07KJBJKKHG@wap?9wsg@ 0000000000072860     OpensslLib:obj_dat.obj
 0002:00006ae8       ??_C@_0BM@PPOCDOAJ@id?9characteristic?9two?9basis@ 0000000000072868     OpensslLib:obj_dat.obj
 0002:00006b08       ??_C@_07JEMDIFEL@onBasis@  0000000000072888     OpensslLib:obj_dat.obj
 0002:00006b10       ??_C@_07ICPDEPKF@tpBasis@  0000000000072890     OpensslLib:obj_dat.obj
 0002:00006b18       ??_C@_07GLJEBFP@ppBasis@   0000000000072898     OpensslLib:obj_dat.obj
 0002:00006b20       ??_C@_0L@INFLBNIO@c2pnb163v1@ 00000000000728a0     OpensslLib:obj_dat.obj
 0002:00006b30       ??_C@_0L@KGHGEOEN@c2pnb163v2@ 00000000000728b0     OpensslLib:obj_dat.obj
 0002:00006b40       ??_C@_0L@LPGNHPAM@c2pnb163v3@ 00000000000728c0     OpensslLib:obj_dat.obj
 0002:00006b50       ??_C@_0L@IHOFMEAM@c2pnb176v1@ 00000000000728d0     OpensslLib:obj_dat.obj
 0002:00006b60       ??_C@_0L@PIOOBDNI@c2tnb191v1@ 00000000000728e0     OpensslLib:obj_dat.obj
 0002:00006b70       ??_C@_0L@NDMDEABL@c2tnb191v2@ 00000000000728f0     OpensslLib:obj_dat.obj
 0002:00006b80       ??_C@_0L@MKNIHBFK@c2tnb191v3@ 0000000000072900     OpensslLib:obj_dat.obj
 0002:00006b90       ??_C@_0L@KLAMDLDB@c2onb191v4@ 0000000000072910     OpensslLib:obj_dat.obj
 0002:00006ba0       ??_C@_0L@LCBHAKHA@c2onb191v5@ 0000000000072920     OpensslLib:obj_dat.obj
 0002:00006bb0       ??_C@_0L@FCEMHHLG@c2pnb208w1@ 0000000000072930     OpensslLib:obj_dat.obj
 0002:00006bc0       ??_C@_0L@PBHOFBDI@c2tnb239v1@ 0000000000072940     OpensslLib:obj_dat.obj
 0002:00006bd0       ??_C@_0L@NKFDACPL@c2tnb239v2@ 0000000000072950     OpensslLib:obj_dat.obj
 0002:00006be0       ??_C@_0L@MDEIDDLK@c2tnb239v3@ 0000000000072960     OpensslLib:obj_dat.obj
 0002:00006bf0       ??_C@_0L@KCJMHJNB@c2onb239v4@ 0000000000072970     OpensslLib:obj_dat.obj
 0002:00006c00       ??_C@_0L@LLIHEIJA@c2onb239v5@ 0000000000072980     OpensslLib:obj_dat.obj
 0002:00006c10       ??_C@_0L@IPNBELMC@c2pnb272w1@ 0000000000072990     OpensslLib:obj_dat.obj
 0002:00006c20       ??_C@_0L@NDMGBLKL@c2pnb304w1@ 00000000000729a0     OpensslLib:obj_dat.obj
 0002:00006c30       ??_C@_0L@LFGCHHDN@c2tnb359v1@ 00000000000729b0     OpensslLib:obj_dat.obj
 0002:00006c40       ??_C@_0L@BGFAFBLD@c2pnb368w1@ 00000000000729c0     OpensslLib:obj_dat.obj
 0002:00006c50       ??_C@_0L@OFJKDCBG@c2tnb431r1@ 00000000000729d0     OpensslLib:obj_dat.obj
 0002:00006c60       ??_C@_09DNJONEBC@secp112r1@ 00000000000729e0     OpensslLib:obj_dat.obj
 0002:00006c70       ??_C@_09BGLDIHNB@secp112r2@ 00000000000729f0     OpensslLib:obj_dat.obj
 0002:00006c80       ??_C@_09BFIDEOKG@secp128r1@ 0000000000072a00     OpensslLib:obj_dat.obj
 0002:00006c90       ??_C@_09DOKOBNGF@secp128r2@ 0000000000072a10     OpensslLib:obj_dat.obj
 0002:00006ca0       ??_C@_09DGEAFIHG@secp160k1@ 0000000000072a20     OpensslLib:obj_dat.obj
 0002:00006cb0       ??_C@_09CFLHMAIJ@secp160r1@ 0000000000072a30     OpensslLib:obj_dat.obj
 0002:00006cc0       ??_C@_09OJKJDEK@secp160r2@ 0000000000072a40     OpensslLib:obj_dat.obj
 0002:00006cd0       ??_C@_09BOBJAHCM@secp192k1@ 0000000000072a50     OpensslLib:obj_dat.obj
 0002:00006ce0       ??_C@_09MKDGBLEP@secp224k1@ 0000000000072a60     OpensslLib:obj_dat.obj
 0002:00006cf0       ??_C@_09NJMBIDLA@secp224r1@ 0000000000072a70     OpensslLib:obj_dat.obj
 0002:00006d00       ??_C@_09NCBPAPNE@secp256k1@ 0000000000072a80     OpensslLib:obj_dat.obj
 0002:00006d10       ??_C@_09FICNEILE@secp384r1@ 0000000000072a90     OpensslLib:obj_dat.obj
 0002:00006d20       ??_C@_09PDBKEDDK@secp521r1@ 0000000000072aa0     OpensslLib:obj_dat.obj
 0002:00006d30       ??_C@_09HBGNJHGE@sect113r1@ 0000000000072ab0     OpensslLib:obj_dat.obj
 0002:00006d40       ??_C@_09FKEAMEKH@sect113r2@ 0000000000072ac0     OpensslLib:obj_dat.obj
 0002:00006d50       ??_C@_09KBKEAMIP@sect131r1@ 0000000000072ad0     OpensslLib:obj_dat.obj
 0002:00006d60       ??_C@_09IKIJFPEM@sect131r2@ 0000000000072ae0     OpensslLib:obj_dat.obj
 0002:00006d70       ??_C@_09NALKNDIL@sect163k1@ 0000000000072af0     OpensslLib:obj_dat.obj
 0002:00006d80       ??_C@_09MDENELHE@sect163r1@ 0000000000072b00     OpensslLib:obj_dat.obj
 0002:00006d90       ??_C@_09OIGABILH@sect163r2@ 0000000000072b10     OpensslLib:obj_dat.obj
 0002:00006da0       ??_C@_09EBBNNMKF@sect193r1@ 0000000000072b20     OpensslLib:obj_dat.obj
 0002:00006db0       ??_C@_09GKDAIPGG@sect193r2@ 0000000000072b30     OpensslLib:obj_dat.obj
 0002:00006dc0       ??_C@_09JOMOCOFF@sect233k1@ 0000000000072b40     OpensslLib:obj_dat.obj
 0002:00006dd0       ??_C@_09INDJLGKK@sect233r1@ 0000000000072b50     OpensslLib:obj_dat.obj
 0002:00006de0       ??_C@_09PBHDMODB@sect239k1@ 0000000000072b60     OpensslLib:obj_dat.obj
 0002:00006df0       ??_C@_09OJBOBPEE@sect283k1@ 0000000000072b70     OpensslLib:obj_dat.obj
 0002:00006e00       ??_C@_09PKOJIHLL@sect283r1@ 0000000000072b80     OpensslLib:obj_dat.obj
 0002:00006e10       ??_C@_09GAIKFHPM@sect409k1@ 0000000000072b90     OpensslLib:obj_dat.obj
 0002:00006e20       ??_C@_09HDHNMPAD@sect409r1@ 0000000000072ba0     OpensslLib:obj_dat.obj
 0002:00006e30       ??_C@_09NMECHAKG@sect571k1@ 0000000000072bb0     OpensslLib:obj_dat.obj
 0002:00006e40       ??_C@_09MPLFOIFJ@sect571r1@ 0000000000072bc0     OpensslLib:obj_dat.obj
 0002:00006e50       ??_C@_0BH@PEHFMMHF@wap?9wsg?9idm?9ecid?9wtls1@ 0000000000072bd0     OpensslLib:obj_dat.obj
 0002:00006e68       ??_C@_0BH@MGEDKOPH@wap?9wsg?9idm?9ecid?9wtls3@ 0000000000072be8     OpensslLib:obj_dat.obj
 0002:00006e80       ??_C@_0BH@IJACDIDA@wap?9wsg?9idm?9ecid?9wtls4@ 0000000000072c00     OpensslLib:obj_dat.obj
 0002:00006e98       ??_C@_0BH@JABJAJHB@wap?9wsg?9idm?9ecid?9wtls5@ 0000000000072c18     OpensslLib:obj_dat.obj
 0002:00006eb0       ??_C@_0BH@LLDEFKLC@wap?9wsg?9idm?9ecid?9wtls6@ 0000000000072c30     OpensslLib:obj_dat.obj
 0002:00006ec8       ??_C@_0BH@KCCPGLPD@wap?9wsg?9idm?9ecid?9wtls7@ 0000000000072c48     OpensslLib:obj_dat.obj
 0002:00006ee0       ??_C@_0BH@CFLHHHDM@wap?9wsg?9idm?9ecid?9wtls8@ 0000000000072c60     OpensslLib:obj_dat.obj
 0002:00006ef8       ??_C@_0BH@DMKMEGHN@wap?9wsg?9idm?9ecid?9wtls9@ 0000000000072c78     OpensslLib:obj_dat.obj
 0002:00006f10       ??_C@_0BI@PPNNMGIM@wap?9wsg?9idm?9ecid?9wtls10@ 0000000000072c90     OpensslLib:obj_dat.obj
 0002:00006f28       ??_C@_0BI@OGMGPHMN@wap?9wsg?9idm?9ecid?9wtls11@ 0000000000072ca8     OpensslLib:obj_dat.obj
 0002:00006f40       ??_C@_0BI@MNOLKEAO@wap?9wsg?9idm?9ecid?9wtls12@ 0000000000072cc0     OpensslLib:obj_dat.obj
 0002:00006f58       ??_C@_09HBBJOJHB@anyPolicy@ 0000000000072cd8     OpensslLib:obj_dat.obj
 0002:00006f68       ??_C@_0BC@CEEMIAHF@X509v3?5Any?5Policy@ 0000000000072ce8     OpensslLib:obj_dat.obj
 0002:00006f80       ??_C@_0P@MEGGINDP@policyMappings@ 0000000000072d00     OpensslLib:obj_dat.obj
 0002:00006f90       ??_C@_0BH@NJBPACCN@X509v3?5Policy?5Mappings@ 0000000000072d10     OpensslLib:obj_dat.obj
 0002:00006fa8       ??_C@_0BB@CFCCDKGF@inhibitAnyPolicy@ 0000000000072d28     OpensslLib:obj_dat.obj
 0002:00006fc0       ??_C@_0BK@FPAAFIAO@X509v3?5Inhibit?5Any?5Policy@ 0000000000072d40     OpensslLib:obj_dat.obj
 0002:00006fe0       ??_C@_0O@BLJEJBFH@Oakley?9EC2N?93@ 0000000000072d60     OpensslLib:obj_dat.obj
 0002:00006ff0       ??_C@_06HLOPKJBB@ipsec3@   0000000000072d70     OpensslLib:obj_dat.obj
 0002:00006ff8       ??_C@_0O@FENFAHJA@Oakley?9EC2N?94@ 0000000000072d78     OpensslLib:obj_dat.obj
 0002:00007008       ??_C@_06DEKODPNG@ipsec4@   0000000000072d88     OpensslLib:obj_dat.obj
 0002:00007010       ??_C@_0BB@HAKAAAMD@CAMELLIA?9128?9CBC@ 0000000000072d90     OpensslLib:obj_dat.obj
 0002:00007028       ??_C@_0BB@GDOINOHE@camellia?9128?9cbc@ 0000000000072da8     OpensslLib:obj_dat.obj
 0002:00007040       ??_C@_0BB@NDDMHHFP@CAMELLIA?9192?9CBC@ 0000000000072dc0     OpensslLib:obj_dat.obj
 0002:00007058       ??_C@_0BB@MAHEKJOI@camellia?9192?9cbc@ 0000000000072dd8     OpensslLib:obj_dat.obj
 0002:00007070       ??_C@_0BB@BICFINO@CAMELLIA?9256?9CBC@ 0000000000072df0     OpensslLib:obj_dat.obj
 0002:00007088       ??_C@_0BB@BCMKIGGJ@camellia?9256?9cbc@ 0000000000072e08     OpensslLib:obj_dat.obj
 0002:000070a0       ??_C@_0BB@ENBCAEGJ@CAMELLIA?9128?9ECB@ 0000000000072e20     OpensslLib:obj_dat.obj
 0002:000070b8       ??_C@_0BB@FOFKNKNO@camellia?9128?9ecb@ 0000000000072e38     OpensslLib:obj_dat.obj
 0002:000070d0       ??_C@_0BB@OOIOHDPF@CAMELLIA?9192?9ECB@ 0000000000072e50     OpensslLib:obj_dat.obj
 0002:000070e8       ??_C@_0BB@PNMGKNEC@camellia?9192?9ecb@ 0000000000072e68     OpensslLib:obj_dat.obj
 0002:00007100       ??_C@_0BB@DMDAFMHE@CAMELLIA?9256?9ECB@ 0000000000072e80     OpensslLib:obj_dat.obj
 0002:00007118       ??_C@_0BB@CPHIICMD@camellia?9256?9ecb@ 0000000000072e98     OpensslLib:obj_dat.obj
 0002:00007130       ??_C@_0BB@GOLCJJFO@CAMELLIA?9128?9CFB@ 0000000000072eb0     OpensslLib:obj_dat.obj
 0002:00007148       ??_C@_0BB@HNPKEHOJ@camellia?9128?9cfb@ 0000000000072ec8     OpensslLib:obj_dat.obj
 0002:00007160       ??_C@_0BB@MNCOOOMC@CAMELLIA?9192?9CFB@ 0000000000072ee0     OpensslLib:obj_dat.obj
 0002:00007178       ??_C@_0BB@NOGGDAHF@camellia?9192?9cfb@ 0000000000072ef8     OpensslLib:obj_dat.obj
 0002:00007190       ??_C@_0BB@BPJAMBED@CAMELLIA?9256?9CFB@ 0000000000072f10     OpensslLib:obj_dat.obj
 0002:000071a8       ??_C@_0BB@MNIBPPE@camellia?9256?9cfb@ 0000000000072f28     OpensslLib:obj_dat.obj
 0002:000071c0       ??_C@_0BC@EKOAMJNI@CAMELLIA?9128?9CFB1@ 0000000000072f40     OpensslLib:obj_dat.obj
 0002:000071d8       ??_C@_0BC@BPPGKHCJ@camellia?9128?9cfb1@ 0000000000072f58     OpensslLib:obj_dat.obj
 0002:000071f0       ??_C@_0BC@LDPKIKMA@CAMELLIA?9192?9CFB1@ 0000000000072f70     OpensslLib:obj_dat.obj
 0002:00007208       ??_C@_0BC@OGOMOEDB@camellia?9192?9cfb1@ 0000000000072f88     OpensslLib:obj_dat.obj
 0002:00007220       ??_C@_0BC@CJJHIHFJ@CAMELLIA?9256?9CFB1@ 0000000000072fa0     OpensslLib:obj_dat.obj
 0002:00007238       ??_C@_0BC@HMIBOJKI@camellia?9256?9cfb1@ 0000000000072fb8     OpensslLib:obj_dat.obj
 0002:00007250       ??_C@_0BC@JLCCHCJB@CAMELLIA?9128?9CFB8@ 0000000000072fd0     OpensslLib:obj_dat.obj
 0002:00007268       ??_C@_0BC@MODEBMGA@camellia?9128?9cfb8@ 0000000000072fe8     OpensslLib:obj_dat.obj
 0002:00007280       ??_C@_0BC@GCDIDBIJ@CAMELLIA?9192?9CFB8@ 0000000000073000     OpensslLib:obj_dat.obj
 0002:00007298       ??_C@_0BC@DHCOFPHI@camellia?9192?9cfb8@ 0000000000073018     OpensslLib:obj_dat.obj
 0002:000072b0       ??_C@_0BC@PIFFDMBA@CAMELLIA?9256?9CFB8@ 0000000000073030     OpensslLib:obj_dat.obj
 0002:000072c8       ??_C@_0BC@KNEDFCOB@camellia?9256?9cfb8@ 0000000000073048     OpensslLib:obj_dat.obj
 0002:000072e0       ??_C@_0BB@CEGECGOG@CAMELLIA?9128?9OFB@ 0000000000073060     OpensslLib:obj_dat.obj
 0002:000072f8       ??_C@_0BB@DHCMPIFB@camellia?9128?9ofb@ 0000000000073078     OpensslLib:obj_dat.obj
 0002:00007310       ??_C@_0BB@IHPIFBHK@CAMELLIA?9192?9OFB@ 0000000000073090     OpensslLib:obj_dat.obj
 0002:00007328       ??_C@_0BB@JELAIPMN@camellia?9192?9ofb@ 00000000000730a8     OpensslLib:obj_dat.obj
 0002:00007340       ??_C@_0BB@FFEGHOPL@CAMELLIA?9256?9OFB@ 00000000000730c0     OpensslLib:obj_dat.obj
 0002:00007358       ??_C@_0BB@EGAOKAEM@camellia?9256?9ofb@ 00000000000730d8     OpensslLib:obj_dat.obj
 0002:00007370       ??_C@_0BL@GAJEKNCJ@subjectDirectoryAttributes@ 00000000000730f0     OpensslLib:obj_dat.obj
 0002:00007390       ??_C@_0CE@OGGDDHCK@X509v3?5Subject?5Directory?5Attrib@ 0000000000073110     OpensslLib:obj_dat.obj
 0002:000073b8       ??_C@_0BJ@OAOPOBMH@issuingDistributionPoint@ 0000000000073138     OpensslLib:obj_dat.obj
 0002:000073d8       ??_C@_0CC@IAMHILJN@X509v3?5Issuing?5Distribution?5Poi@ 0000000000073158     OpensslLib:obj_dat.obj
 0002:00007400       ??_C@_0BC@NAJGKAHO@certificateIssuer@ 0000000000073180     OpensslLib:obj_dat.obj
 0002:00007418       ??_C@_0BK@EMNEMCDI@X509v3?5Certificate?5Issuer@ 0000000000073198     OpensslLib:obj_dat.obj
 0002:00007434       ??_C@_04HHHKJIKA@KISA@     00000000000731b4     OpensslLib:obj_dat.obj
 0002:0000743c       ??_C@_04LLEAHKNI@kisa@     00000000000731bc     OpensslLib:obj_dat.obj
 0002:00007448       ??_C@_08JEKGBFGL@SEED?9ECB@ 00000000000731c8     OpensslLib:obj_dat.obj
 0002:00007458       ??_C@_08CKMLAEEI@seed?9ecb@ 00000000000731d8     OpensslLib:obj_dat.obj
 0002:00007468       ??_C@_08KJBEBBMB@SEED?9CBC@ 00000000000731e8     OpensslLib:obj_dat.obj
 0002:00007478       ??_C@_08BHHJAAOC@seed?9cbc@ 00000000000731f8     OpensslLib:obj_dat.obj
 0002:00007488       ??_C@_08PNNADHOE@SEED?9OFB@ 0000000000073208     OpensslLib:obj_dat.obj
 0002:00007498       ??_C@_08EDLNCGMH@seed?9ofb@ 0000000000073218     OpensslLib:obj_dat.obj
 0002:000074a8       ??_C@_08LHAGIIFM@SEED?9CFB@ 0000000000073228     OpensslLib:obj_dat.obj
 0002:000074b8       ??_C@_08JGLJJHP@seed?9cfb@ 0000000000073238     OpensslLib:obj_dat.obj
 0002:000074c8       ??_C@_08CABJBHIC@HMAC?9MD5@ 0000000000073248     OpensslLib:obj_dat.obj
 0002:000074d8       ??_C@_08LPACCAD@hmac?9md5@ 0000000000073258     OpensslLib:obj_dat.obj
 0002:000074e8       ??_C@_09DDFKKHO@HMAC?9SHA1@ 0000000000073268     OpensslLib:obj_dat.obj
 0002:000074f8       ??_C@_09KBOMLGBN@hmac?9sha1@ 0000000000073278     OpensslLib:obj_dat.obj
 0002:00007508       ??_C@_0BE@HCNFOMHA@id?9PasswordBasedMAC@ 0000000000073288     OpensslLib:obj_dat.obj
 0002:00007520       ??_C@_0BD@FANJCJAP@password?5based?5MAC@ 00000000000732a0     OpensslLib:obj_dat.obj
 0002:00007538       ??_C@_0O@MEHCKGFD@id?9DHBasedMac@ 00000000000732b8     OpensslLib:obj_dat.obj
 0002:00007548       ??_C@_0BJ@CDGIGDFG@Diffie?9Hellman?5based?5MAC@ 00000000000732c8     OpensslLib:obj_dat.obj
 0002:00007568       ??_C@_0BD@MGCOMIO@id?9it?9suppLangTags@ 00000000000732e8     OpensslLib:obj_dat.obj
 0002:00007580       ??_C@_0N@CKNFLOGG@caRepository@ 0000000000073300     OpensslLib:obj_dat.obj
 0002:00007590       ??_C@_0O@LBCGFGCI@CA?5Repository@ 0000000000073310     OpensslLib:obj_dat.obj
 0002:000075a0       ??_C@_0BL@HEJKLKLL@id?9smime?9ct?9compressedData@ 0000000000073320     OpensslLib:obj_dat.obj
 0002:000075c0       ??_C@_0BI@FNBGJEPL@id?9ct?9asciiTextWithCRLF@ 0000000000073340     OpensslLib:obj_dat.obj
 0002:000075d8       ??_C@_0P@MALLFAMO@id?9aes128?9wrap@ 0000000000073358     OpensslLib:obj_dat.obj
 0002:000075e8       ??_C@_0P@DJKBBDNG@id?9aes192?9wrap@ 0000000000073368     OpensslLib:obj_dat.obj
 0002:000075f8       ??_C@_0P@KDMMBOEP@id?9aes256?9wrap@ 0000000000073378     OpensslLib:obj_dat.obj
 0002:00007608       ??_C@_0BH@GCJALNKM@ecdsa?9with?9Recommended@ 0000000000073388     OpensslLib:obj_dat.obj
 0002:00007620       ??_C@_0BF@INFCLNHO@ecdsa?9with?9Specified@ 00000000000733a0     OpensslLib:obj_dat.obj
 0002:00007638       ??_C@_0BC@PHBIOIGA@ecdsa?9with?9SHA224@ 00000000000733b8     OpensslLib:obj_dat.obj
 0002:00007650       ??_C@_0BC@MAGBJMGH@ecdsa?9with?9SHA256@ 00000000000733d0     OpensslLib:obj_dat.obj
 0002:00007668       ??_C@_0BC@ECDDAKND@ecdsa?9with?9SHA384@ 00000000000733e8     OpensslLib:obj_dat.obj
 0002:00007680       ??_C@_0BC@DONDMJAG@ecdsa?9with?9SHA512@ 0000000000073400     OpensslLib:obj_dat.obj
 0002:00007698       ??_C@_0M@KOBPMNIO@hmacWithMD5@ 0000000000073418     OpensslLib:obj_dat.obj
 0002:000076a8       ??_C@_0P@JCGBABBG@hmacWithSHA224@ 0000000000073428     OpensslLib:obj_dat.obj
 0002:000076b8       ??_C@_0P@KFBIHFBB@hmacWithSHA256@ 0000000000073438     OpensslLib:obj_dat.obj
 0002:000076c8       ??_C@_0P@CHEKODKF@hmacWithSHA384@ 0000000000073448     OpensslLib:obj_dat.obj
 0002:000076d8       ??_C@_0P@FLKKCAHA@hmacWithSHA512@ 0000000000073458     OpensslLib:obj_dat.obj
 0002:000076e8       ??_C@_0BA@GLCLJGGH@dsa_with_SHA224@ 0000000000073468     OpensslLib:obj_dat.obj
 0002:000076f8       ??_C@_0BA@FMFCOCGA@dsa_with_SHA256@ 0000000000073478     OpensslLib:obj_dat.obj
 0002:00007708       ??_C@_09DEGKDAEL@whirlpool@ 0000000000073488     OpensslLib:obj_dat.obj
 0002:00007718       ??_C@_09PCHJFNLI@cryptopro@ 0000000000073498     OpensslLib:obj_dat.obj
 0002:00007728       ??_C@_09JGBNPHGI@cryptocom@ 00000000000734a8     OpensslLib:obj_dat.obj
 0002:00007738       ??_C@_0CE@FCAOBIOC@id?9GostR3411?994?9with?9GostR3410?9@ 00000000000734b8     OpensslLib:obj_dat.obj
 0002:00007760       ??_C@_0CH@MPKKPBGC@GOST?5R?534?411?994?5with?5GOST?5R?534?4@ 00000000000734e0     OpensslLib:obj_dat.obj
 0002:00007788       ??_C@_0CC@LCAPGDKC@id?9GostR3411?994?9with?9GostR3410?9@ 0000000000073508     OpensslLib:obj_dat.obj
 0002:000077b0       ??_C@_0CF@PAGBHGOC@GOST?5R?534?411?994?5with?5GOST?5R?534?4@ 0000000000073530     OpensslLib:obj_dat.obj
 0002:000077d8       ??_C@_09MIOJGGFD@md_gost94@ 0000000000073558     OpensslLib:obj_dat.obj
 0002:000077e8       ??_C@_0BA@KDEBPBMN@GOST?5R?534?411?994@ 0000000000073568     OpensslLib:obj_dat.obj
 0002:000077f8       ??_C@_0BE@EBBOKDGI@id?9HMACGostR3411?994@ 0000000000073578     OpensslLib:obj_dat.obj
 0002:00007810       ??_C@_0BD@BHKLGKNG@HMAC?5GOST?534?411?994@ 0000000000073590     OpensslLib:obj_dat.obj
 0002:00007828       ??_C@_08KMPAMBCP@gost2001@ 00000000000735a8     OpensslLib:obj_dat.obj
 0002:00007838       ??_C@_0BC@IBNIHBI@GOST?5R?534?410?92001@ 00000000000735b8     OpensslLib:obj_dat.obj
 0002:0000784c       ??_C@_06BPJPGPFJ@gost94@   00000000000735cc     OpensslLib:obj_dat.obj
 0002:00007858       ??_C@_0BA@JOCBNIHN@GOST?5R?534?410?994@ 00000000000735d8     OpensslLib:obj_dat.obj
 0002:00007868       ??_C@_06KLPDHLCD@gost89@   00000000000735e8     OpensslLib:obj_dat.obj
 0002:00007870       ??_C@_0O@POKHNLDL@GOST?528147?989@ 00000000000735f0     OpensslLib:obj_dat.obj
 0002:00007880       ??_C@_0L@INGOKGPP@gost89?9cnt@ 0000000000073600     OpensslLib:obj_dat.obj
 0002:00007890       ??_C@_08JCNEGNFC@gost?9mac@ 0000000000073610     OpensslLib:obj_dat.obj
 0002:000078a0       ??_C@_0BC@BPAGAEJB@GOST?528147?989?5MAC@ 0000000000073620     OpensslLib:obj_dat.obj
 0002:000078b8       ??_C@_0BB@LJIINAAP@prf?9gostr3411?994@ 0000000000073638     OpensslLib:obj_dat.obj
 0002:000078d0       ??_C@_0BE@FFELJBNB@GOST?5R?534?411?994?5PRF@ 0000000000073650     OpensslLib:obj_dat.obj
 0002:000078e8       ??_C@_0BE@OBKEJCJB@id?9GostR3410?92001DH@ 0000000000073668     OpensslLib:obj_dat.obj
 0002:00007900       ??_C@_0BF@OKPANPLK@GOST?5R?534?410?92001?5DH@ 0000000000073680     OpensslLib:obj_dat.obj
 0002:00007918       ??_C@_0BC@CEMDDFNK@id?9GostR3410?994DH@ 0000000000073698     OpensslLib:obj_dat.obj
 0002:00007930       ??_C@_0BD@LGKAOLPL@GOST?5R?534?410?994?5DH@ 00000000000736b0     OpensslLib:obj_dat.obj
 0002:00007948       ??_C@_0CF@MMKONEIK@id?9Gost28147?989?9CryptoPro?9KeyMe@ 00000000000736c8     OpensslLib:obj_dat.obj
 0002:00007970       ??_C@_0CA@BLJAEGEG@id?9Gost28147?989?9None?9KeyMeshing@ 00000000000736f0     OpensslLib:obj_dat.obj
 0002:00007990       ??_C@_0BN@DPLCCDOE@id?9GostR3411?994?9TestParamSet@ 0000000000073710     OpensslLib:obj_dat.obj
 0002:000079b0       ??_C@_0CC@DOHJLMBI@id?9GostR3411?994?9CryptoProParamS@ 0000000000073730     OpensslLib:obj_dat.obj
 0002:000079d8       ??_C@_0BN@GKJFBLMI@id?9Gost28147?989?9TestParamSet@ 0000000000073758     OpensslLib:obj_dat.obj
 0002:000079f8       ??_C@_0CF@PFEMLAKN@id?9Gost28147?989?9CryptoPro?9A?9Par@ 0000000000073778     OpensslLib:obj_dat.obj
 0002:00007a20       ??_C@_0CF@GMKONGKM@id?9Gost28147?989?9CryptoPro?9B?9Par@ 00000000000737a0     OpensslLib:obj_dat.obj
 0002:00007a48       ??_C@_0CF@KNCAAJGM@id?9Gost28147?989?9CryptoPro?9C?9Par@ 00000000000737c8     OpensslLib:obj_dat.obj
 0002:00007a70       ??_C@_0CF@IEBLBMOP@id?9Gost28147?989?9CryptoPro?9D?9Par@ 00000000000737f0     OpensslLib:obj_dat.obj
 0002:00007a98       ??_C@_0CN@EJBNJDBM@id?9Gost28147?989?9CryptoPro?9Oscar@ 0000000000073818     OpensslLib:obj_dat.obj
 0002:00007ac8       ??_C@_0CN@IIJDEMNM@id?9Gost28147?989?9CryptoPro?9Oscar@ 0000000000073848     OpensslLib:obj_dat.obj
 0002:00007af8       ??_C@_0CJ@IIADIAJH@id?9Gost28147?989?9CryptoPro?9RIC?91@ 0000000000073878     OpensslLib:obj_dat.obj
 0002:00007b28       ??_C@_0BN@NAOAJFAF@id?9GostR3410?994?9TestParamSet@ 00000000000738a8     OpensslLib:obj_dat.obj
 0002:00007b48       ??_C@_0CF@MNFOPPCD@id?9GostR3410?994?9CryptoPro?9A?9Par@ 00000000000738c8     OpensslLib:obj_dat.obj
 0002:00007b70       ??_C@_0CF@FELMJJCC@id?9GostR3410?994?9CryptoPro?9B?9Par@ 00000000000738f0     OpensslLib:obj_dat.obj
 0002:00007b98       ??_C@_0CF@JFDCEGOC@id?9GostR3410?994?9CryptoPro?9C?9Par@ 0000000000073918     OpensslLib:obj_dat.obj
 0002:00007bc0       ??_C@_0CF@LMAJFDGB@id?9GostR3410?994?9CryptoPro?9D?9Par@ 0000000000073940     OpensslLib:obj_dat.obj
 0002:00007be8       ??_C@_0CI@FLGMGEEM@id?9GostR3410?994?9CryptoPro?9XchA?9@ 0000000000073968     OpensslLib:obj_dat.obj
 0002:00007c10       ??_C@_0CI@MCIOACEN@id?9GostR3410?994?9CryptoPro?9XchB?9@ 0000000000073990     OpensslLib:obj_dat.obj
 0002:00007c38       ??_C@_0CI@DAANNIN@id?9GostR3410?994?9CryptoPro?9XchC?9@ 00000000000739b8     OpensslLib:obj_dat.obj
 0002:00007c60       ??_C@_0BP@GEEJLPDI@id?9GostR3410?92001?9TestParamSet@ 00000000000739e0     OpensslLib:obj_dat.obj
 0002:00007c80       ??_C@_0CH@GDAPDBKP@id?9GostR3410?92001?9CryptoPro?9A?9P@ 0000000000073a00     OpensslLib:obj_dat.obj
 0002:00007ca8       ??_C@_0CH@PKONFHKO@id?9GostR3410?92001?9CryptoPro?9B?9P@ 0000000000073a28     OpensslLib:obj_dat.obj
 0002:00007cd0       ??_C@_0CH@DLGDIIGO@id?9GostR3410?92001?9CryptoPro?9C?9P@ 0000000000073a50     OpensslLib:obj_dat.obj
 0002:00007cf8       ??_C@_0CK@PKFGBNKE@id?9GostR3410?92001?9CryptoPro?9Xch@ 0000000000073a78     OpensslLib:obj_dat.obj
 0002:00007d28       ??_C@_0CK@GDLEHLKF@id?9GostR3410?92001?9CryptoPro?9Xch@ 0000000000073aa8     OpensslLib:obj_dat.obj
 0002:00007d58       ??_C@_0BC@CHIDFKJO@id?9GostR3410?994?9a@ 0000000000073ad8     OpensslLib:obj_dat.obj
 0002:00007d70       ??_C@_0BF@LBGBLILF@id?9GostR3410?994?9aBis@ 0000000000073af0     OpensslLib:obj_dat.obj
 0002:00007d88       ??_C@_0BC@MKOAJFN@id?9GostR3410?994?9b@ 0000000000073b08     OpensslLib:obj_dat.obj
 0002:00007da0       ??_C@_0BF@PGMBMCGF@id?9GostR3410?994?9bBis@ 0000000000073b20     OpensslLib:obj_dat.obj
 0002:00007db8       ??_C@_0BD@MEAAKKFJ@id?9Gost28147?989?9cc@ 0000000000073b38     OpensslLib:obj_dat.obj
 0002:00007dd0       ??_C@_0CB@KNOPDNHN@GOST?528147?989?5Cryptocom?5ParamSe@ 0000000000073b50     OpensslLib:obj_dat.obj
 0002:00007df8       ??_C@_08LCDFMIFG@gost94cc@ 0000000000073b78     OpensslLib:obj_dat.obj
 0002:00007e08       ??_C@_0BI@GJIILMEB@GOST?534?410?994?5Cryptocom@ 0000000000073b88     OpensslLib:obj_dat.obj
 0002:00007e20       ??_C@_0L@PKDOCLKG@gost2001cc@ 0000000000073ba0     OpensslLib:obj_dat.obj
 0002:00007e30       ??_C@_0BK@IGCJADLM@GOST?534?410?92001?5Cryptocom@ 0000000000073bb0     OpensslLib:obj_dat.obj
 0002:00007e50       ??_C@_0CF@FCIKJGLH@id?9GostR3411?994?9with?9GostR3410?9@ 0000000000073bd0     OpensslLib:obj_dat.obj
 0002:00007e78       ??_C@_0CP@ILDIBBAJ@GOST?5R?534?411?994?5with?5GOST?5R?534?4@ 0000000000073bf8     OpensslLib:obj_dat.obj
 0002:00007ea8       ??_C@_0CH@JJNMILDM@id?9GostR3411?994?9with?9GostR3410?9@ 0000000000073c28     OpensslLib:obj_dat.obj
 0002:00007ed0       ??_C@_0DB@BGOOPLFE@GOST?5R?534?411?994?5with?5GOST?5R?534?4@ 0000000000073c50     OpensslLib:obj_dat.obj
 0002:00007f08       ??_C@_0BO@LBPHKLOM@id?9GostR3410?92001?9ParamSet?9cc@ 0000000000073c88     OpensslLib:obj_dat.obj
 0002:00007f28       ??_C@_0CJ@NCCJHEBD@GOST?5R?53410?92001?5Parameter?5Set?5@ 0000000000073ca8     OpensslLib:obj_dat.obj
 0002:00007f54       ??_C@_04JCCMGALL@HMAC@     0000000000073cd4     OpensslLib:obj_dat.obj
 0002:00007f5c       ??_C@_04FOBGICMD@hmac@     0000000000073cdc     OpensslLib:obj_dat.obj
 0002:00007f68       ??_C@_0M@LCODBGNO@LocalKeySet@ 0000000000073ce8     OpensslLib:obj_dat.obj
 0002:00007f78       ??_C@_0BI@FMFOLFMC@Microsoft?5Local?5Key?5set@ 0000000000073cf8     OpensslLib:obj_dat.obj
 0002:00007f90       ??_C@_0M@PKNKMHEG@freshestCRL@ 0000000000073d10     OpensslLib:obj_dat.obj
 0002:00007fa0       ??_C@_0BE@KEJIKEFG@X509v3?5Freshest?5CRL@ 0000000000073d20     OpensslLib:obj_dat.obj
 0002:00007fb8       ??_C@_0BK@BMFCOPIC@id?9on?9permanentIdentifier@ 0000000000073d38     OpensslLib:obj_dat.obj
 0002:00007fd8       ??_C@_0BF@DGGAJJCO@Permanent?5Identifier@ 0000000000073d58     OpensslLib:obj_dat.obj
 0002:00007ff0       ??_C@_0M@MCCFGANF@searchGuide@ 0000000000073d70     OpensslLib:obj_dat.obj
 0002:00008000       ??_C@_0BB@GFJJGHBI@businessCategory@ 0000000000073d80     OpensslLib:obj_dat.obj
 0002:00008018       ??_C@_0O@KABBPKPG@postalAddress@ 0000000000073d98     OpensslLib:obj_dat.obj
 0002:00008028       ??_C@_0O@PCCHCGPG@postOfficeBox@ 0000000000073da8     OpensslLib:obj_dat.obj
 0002:00008038       ??_C@_0BL@DENBGONK@physicalDeliveryOfficeName@ 0000000000073db8     OpensslLib:obj_dat.obj
 0002:00008058       ??_C@_0BA@NCAGJGBF@telephoneNumber@ 0000000000073dd8     OpensslLib:obj_dat.obj
 0002:00008068       ??_C@_0M@MMDMBPMM@telexNumber@ 0000000000073de8     OpensslLib:obj_dat.obj
 0002:00008078       ??_C@_0BK@BBNEJJDC@teletexTerminalIdentifier@ 0000000000073df8     OpensslLib:obj_dat.obj
 0002:00008098       ??_C@_0BJ@NDMMBDAB@facsimileTelephoneNumber@ 0000000000073e18     OpensslLib:obj_dat.obj
 0002:000080b8       ??_C@_0M@MOCAHDLJ@x121Address@ 0000000000073e38     OpensslLib:obj_dat.obj
 0002:000080c8       ??_C@_0BI@OAHCBLEE@internationaliSDNNumber@ 0000000000073e48     OpensslLib:obj_dat.obj
 0002:000080e0       ??_C@_0BC@DLLOJDNE@registeredAddress@ 0000000000073e60     OpensslLib:obj_dat.obj
 0002:000080f8       ??_C@_0BF@CMAFNEOO@destinationIndicator@ 0000000000073e78     OpensslLib:obj_dat.obj
 0002:00008110       ??_C@_0BI@MKMMOKIA@preferredDeliveryMethod@ 0000000000073e90     OpensslLib:obj_dat.obj
 0002:00008128       ??_C@_0BE@KHACCONJ@presentationAddress@ 0000000000073ea8     OpensslLib:obj_dat.obj
 0002:00008140       ??_C@_0BM@NHJFOGBI@supportedApplicationContext@ 0000000000073ec0     OpensslLib:obj_dat.obj
 0002:0000815c       ??_C@_06HDFDANIG@member@   0000000000073edc     OpensslLib:obj_dat.obj
 0002:00008164       ??_C@_05HEIBENID@owner@    0000000000073ee4     OpensslLib:obj_dat.obj
 0002:00008170       ??_C@_0N@NAEJMDPF@roleOccupant@ 0000000000073ef0     OpensslLib:obj_dat.obj
 0002:00008180       ??_C@_07JJAENDGN@seeAlso@  0000000000073f00     OpensslLib:obj_dat.obj
 0002:00008188       ??_C@_0N@JHMNNHKM@userPassword@ 0000000000073f08     OpensslLib:obj_dat.obj
 0002:00008198       ??_C@_0BA@FEECIELF@userCertificate@ 0000000000073f18     OpensslLib:obj_dat.obj
 0002:000081a8       ??_C@_0O@JJCNKCKK@cACertificate@ 0000000000073f28     OpensslLib:obj_dat.obj
 0002:000081b8       ??_C@_0BI@EODAEBFG@authorityRevocationList@ 0000000000073f38     OpensslLib:obj_dat.obj
 0002:000081d0       ??_C@_0BK@IMFDMOND@certificateRevocationList@ 0000000000073f50     OpensslLib:obj_dat.obj
 0002:000081f0       ??_C@_0BF@GAAPBDAE@crossCertificatePair@ 0000000000073f70     OpensslLib:obj_dat.obj
 0002:00008208       ??_C@_0BE@NNAGLFEM@enhancedSearchGuide@ 0000000000073f88     OpensslLib:obj_dat.obj
 0002:00008220       ??_C@_0BE@FKAMNJMM@protocolInformation@ 0000000000073fa0     OpensslLib:obj_dat.obj
 0002:00008238       ??_C@_0BC@IIJOGNNH@distinguishedName@ 0000000000073fb8     OpensslLib:obj_dat.obj
 0002:00008250       ??_C@_0N@FIGDLDDJ@uniqueMember@ 0000000000073fd0     OpensslLib:obj_dat.obj
 0002:00008260       ??_C@_0BA@EKKIBBF@houseIdentifier@ 0000000000073fe0     OpensslLib:obj_dat.obj
 0002:00008270       ??_C@_0BE@KGOGIPEN@supportedAlgorithms@ 0000000000073ff0     OpensslLib:obj_dat.obj
 0002:00008288       ??_C@_0BE@MNOFELKF@deltaRevocationList@ 0000000000074008     OpensslLib:obj_dat.obj
 0002:000082a0       ??_C@_07ILKEFPGB@dmdName@  0000000000074020     OpensslLib:obj_dat.obj
 0002:000082a8       ??_C@_0BA@NJOHMDIG@id?9alg?9PWRI?9KEK@ 0000000000074028     OpensslLib:obj_dat.obj
 0002:000082b8       ??_C@_04OFPMFBKK@CMAC@     0000000000074038     OpensslLib:obj_dat.obj
 0002:000082c0       ??_C@_04CJMGLDNC@cmac@     0000000000074040     OpensslLib:obj_dat.obj
 0002:000082c8       ??_C@_0O@LNIKAOOL@id?9aes128?9GCM@ 0000000000074048     OpensslLib:obj_dat.obj
 0002:000082d8       ??_C@_0M@ODEOFOCG@aes?9128?9gcm@ 0000000000074058     OpensslLib:obj_dat.obj
 0002:000082e8       ??_C@_0O@DCOIJJLM@id?9aes128?9CCM@ 0000000000074068     OpensslLib:obj_dat.obj
 0002:000082f8       ??_C@_0M@GMCMMJHB@aes?9128?9ccm@ 0000000000074078     OpensslLib:obj_dat.obj
 0002:00008308       ??_C@_0BD@HMJBEGNL@id?9aes128?9wrap?9pad@ 0000000000074088     OpensslLib:obj_dat.obj
 0002:00008320       ??_C@_0O@BOBGHJHH@id?9aes192?9GCM@ 00000000000740a0     OpensslLib:obj_dat.obj
 0002:00008330       ??_C@_0M@EANCCJLK@aes?9192?9gcm@ 00000000000740b0     OpensslLib:obj_dat.obj
 0002:00008340       ??_C@_0O@JBHEOOCA@id?9aes192?9CCM@ 00000000000740c0     OpensslLib:obj_dat.obj
 0002:00008350       ??_C@_0M@MPLALOON@aes?9192?9ccm@ 00000000000740d0     OpensslLib:obj_dat.obj
 0002:00008360       ??_C@_0BD@OPKMLKFB@id?9aes192?9wrap?9pad@ 00000000000740e0     OpensslLib:obj_dat.obj
 0002:00008378       ??_C@_0O@MMKIFGPG@id?9aes256?9GCM@ 00000000000740f8     OpensslLib:obj_dat.obj
 0002:00008388       ??_C@_0M@JCGMAGDL@aes?9256?9gcm@ 0000000000074108     OpensslLib:obj_dat.obj
 0002:00008398       ??_C@_0O@EDMKMBKB@id?9aes256?9CCM@ 0000000000074118     OpensslLib:obj_dat.obj
 0002:000083a8       ??_C@_0M@BNAOJBGM@aes?9256?9ccm@ 0000000000074128     OpensslLib:obj_dat.obj
 0002:000083b8       ??_C@_0BD@OHLFOIJM@id?9aes256?9wrap?9pad@ 0000000000074138     OpensslLib:obj_dat.obj
 0002:000083d0       ??_C@_0M@GEBEOIJJ@AES?9128?9CTR@ 0000000000074150     OpensslLib:obj_dat.obj
 0002:000083e0       ??_C@_0M@LIBPHCBK@aes?9128?9ctr@ 0000000000074160     OpensslLib:obj_dat.obj
 0002:000083f0       ??_C@_0M@MHIIJPAF@AES?9192?9CTR@ 0000000000074170     OpensslLib:obj_dat.obj
 0002:00008400       ??_C@_0M@BLIDAFIG@aes?9192?9ctr@ 0000000000074180     OpensslLib:obj_dat.obj
 0002:00008410       ??_C@_0M@BFDGLAIE@AES?9256?9CTR@ 0000000000074190     OpensslLib:obj_dat.obj
 0002:00008420       ??_C@_0M@MJDNCKAH@aes?9256?9ctr@ 00000000000741a0     OpensslLib:obj_dat.obj
 0002:00008430       ??_C@_0BE@JENMCLBD@id?9camellia128?9wrap@ 00000000000741b0     OpensslLib:obj_dat.obj
 0002:00008448       ??_C@_0BE@GNMGGIAL@id?9camellia192?9wrap@ 00000000000741c8     OpensslLib:obj_dat.obj
 0002:00008460       ??_C@_0BE@PHKLGFJC@id?9camellia256?9wrap@ 00000000000741e0     OpensslLib:obj_dat.obj
 0002:00008478       ??_C@_0BE@FKFLDMON@anyExtendedKeyUsage@ 00000000000741f8     OpensslLib:obj_dat.obj
 0002:00008490       ??_C@_0BH@FHBOBBKO@Any?5Extended?5Key?5Usage@ 0000000000074210     OpensslLib:obj_dat.obj
 0002:000084a8       ??_C@_04CNDHACFO@MGF1@     0000000000074228     OpensslLib:obj_dat.obj
 0002:000084b0       ??_C@_04HEIJMEIE@mgf1@     0000000000074230     OpensslLib:obj_dat.obj
 0002:000084b8       ??_C@_0L@CPMAKEFG@RSASSA?9PSS@ 0000000000074238     OpensslLib:obj_dat.obj
 0002:000084c8       ??_C@_09FGGKIFKD@rsassaPss@ 0000000000074248     OpensslLib:obj_dat.obj
 0002:000084d8       ??_C@_0M@PKBHAJEG@AES?9128?9XTS@ 0000000000074258     OpensslLib:obj_dat.obj
 0002:000084e8       ??_C@_0M@CGBMJDMF@aes?9128?9xts@ 0000000000074268     OpensslLib:obj_dat.obj
 0002:000084f8       ??_C@_0M@ILDFFBFL@AES?9256?9XTS@ 0000000000074278     OpensslLib:obj_dat.obj
 0002:00008508       ??_C@_0M@FHDOMLNI@aes?9256?9xts@ 0000000000074288     OpensslLib:obj_dat.obj
 0002:00008518       ??_C@_0N@MFFPBCGK@RC4?9HMAC?9MD5@ 0000000000074298     OpensslLib:obj_dat.obj
 0002:00008528       ??_C@_0N@EFPJLHOG@rc4?9hmac?9md5@ 00000000000742a8     OpensslLib:obj_dat.obj
 0002:00008538       ??_C@_0BG@OKEPPAEE@AES?9128?9CBC?9HMAC?9SHA1@ 00000000000742b8     OpensslLib:obj_dat.obj
 0002:00008550       ??_C@_0BG@CLBGODOC@aes?9128?9cbc?9hmac?9sha1@ 00000000000742d0     OpensslLib:obj_dat.obj
 0002:00008568       ??_C@_0BG@KLHGFOHC@AES?9192?9CBC?9HMAC?9SHA1@ 00000000000742e8     OpensslLib:obj_dat.obj
 0002:00008580       ??_C@_0BG@GKCPENNE@aes?9192?9cbc?9hmac?9sha1@ 0000000000074300     OpensslLib:obj_dat.obj
 0002:00008598       ??_C@_0BG@NJKHMG@AES?9256?9CBC?9HMAC?9SHA1@ 0000000000074318     OpensslLib:obj_dat.obj
 0002:000085b0       ??_C@_0BG@MBIALEGA@aes?9256?9cbc?9hmac?9sha1@ 0000000000074330     OpensslLib:obj_dat.obj
 0002:000085c8       ??_C@_0L@NCPDMLAN@RSAES?9OAEP@ 0000000000074348     OpensslLib:obj_dat.obj
 0002:000085d8       ??_C@_09FHIEKOPH@rsaesOaep@ 0000000000074358     OpensslLib:obj_dat.obj
 0002:000085e8       ??_C@_0P@BHMOKJEG@dhpublicnumber@ 0000000000074368     OpensslLib:obj_dat.obj
 0002:000085f8       ??_C@_08HOHHODNK@X9?442?5DH@ 0000000000074378     OpensslLib:obj_dat.obj
 0002:00008608       ??_C@_0BA@CDGJLDLH@brainpoolP160r1@ 0000000000074388     OpensslLib:obj_dat.obj
 0002:00008618       ??_C@_0BA@CHOEMPAF@brainpoolP160t1@ 0000000000074398     OpensslLib:obj_dat.obj
 0002:00008628       ??_C@_0BA@LDAOMON@brainpoolP192r1@ 00000000000743a8     OpensslLib:obj_dat.obj
 0002:00008638       ??_C@_0BA@PLNJAFP@brainpoolP192t1@ 00000000000743b8     OpensslLib:obj_dat.obj
 0002:00008648       ??_C@_0BA@NPBPPAIO@brainpoolP224r1@ 00000000000743c8     OpensslLib:obj_dat.obj
 0002:00008658       ??_C@_0BA@NLJCIMDM@brainpoolP224t1@ 00000000000743d8     OpensslLib:obj_dat.obj
 0002:00008668       ??_C@_0BA@MHDGOEBF@brainpoolP256r1@ 00000000000743e8     OpensslLib:obj_dat.obj
 0002:00008678       ??_C@_0BA@MDLLJIKH@brainpoolP256t1@ 00000000000743f8     OpensslLib:obj_dat.obj
 0002:00008688       ??_C@_0BA@JLCBLEHM@brainpoolP320r1@ 0000000000074408     OpensslLib:obj_dat.obj
 0002:00008698       ??_C@_0BA@JPKMMIMO@brainpoolP320t1@ 0000000000074418     OpensslLib:obj_dat.obj
 0002:000086a8       ??_C@_0BA@FOPDDLIK@brainpoolP384r1@ 0000000000074428     OpensslLib:obj_dat.obj
 0002:000086b8       ??_C@_0BA@FKHOEHDI@brainpoolP384t1@ 0000000000074438     OpensslLib:obj_dat.obj
 0002:000086c8       ??_C@_0BA@KANBOFDK@brainpoolP512r1@ 0000000000074448     OpensslLib:obj_dat.obj
 0002:000086d8       ??_C@_0BA@KEFMJJII@brainpoolP512t1@ 0000000000074458     OpensslLib:obj_dat.obj
 0002:000086e8       ??_C@_0L@CDJFGILH@PSPECIFIED@ 0000000000074468     OpensslLib:obj_dat.obj
 0002:000086f8       ??_C@_0L@NKKFNJEH@pSpecified@ 0000000000074478     OpensslLib:obj_dat.obj
 0002:00008708       ??_C@_0CC@GCFJNDOJ@dhSinglePass?9stdDH?9sha1kdf?9sche@ 0000000000074488     OpensslLib:obj_dat.obj
 0002:00008730       ??_C@_0CE@OPNDOJI@dhSinglePass?9stdDH?9sha224kdf?9sc@ 00000000000744b0     OpensslLib:obj_dat.obj
 0002:00008758       ??_C@_0CE@JPLFKGFP@dhSinglePass?9stdDH?9sha256kdf?9sc@ 00000000000744d8     OpensslLib:obj_dat.obj
 0002:00008780       ??_C@_0CE@KJKNLJMI@dhSinglePass?9stdDH?9sha384kdf?9sc@ 0000000000074500     OpensslLib:obj_dat.obj
 0002:000087a8       ??_C@_0CE@DJMHFNHG@dhSinglePass?9stdDH?9sha512kdf?9sc@ 0000000000074528     OpensslLib:obj_dat.obj
 0002:000087d0       ??_C@_0CH@DHIHBIGF@dhSinglePass?9cofactorDH?9sha1kdf@ 0000000000074550     OpensslLib:obj_dat.obj
 0002:000087f8       ??_C@_0CJ@JFHNKHDJ@dhSinglePass?9cofactorDH?9sha224k@ 0000000000074578     OpensslLib:obj_dat.obj
 0002:00008828       ??_C@_0CJ@EDFDPPO@dhSinglePass?9cofactorDH?9sha256k@ 00000000000745a8     OpensslLib:obj_dat.obj
 0002:00008858       ??_C@_0CJ@DCCNCAGJ@dhSinglePass?9cofactorDH?9sha384k@ 00000000000745d8     OpensslLib:obj_dat.obj
 0002:00008888       ??_C@_0CJ@KCEHMENH@dhSinglePass?9cofactorDH?9sha512k@ 0000000000074608     OpensslLib:obj_dat.obj
 0002:000088b8       ??_C@_0L@MFGJJBLE@dh?9std?9kdf@ 0000000000074638     OpensslLib:obj_dat.obj
 0002:000088c8       ??_C@_0BA@LJEJAEDG@dh?9cofactor?9kdf@ 0000000000074648     OpensslLib:obj_dat.obj
 0002:000088d8       ??_C@_0BI@JAKBILLC@AES?9128?9CBC?9HMAC?9SHA256@ 0000000000074658     OpensslLib:obj_dat.obj
 0002:000088f0       ??_C@_0BI@OMECBAFK@aes?9128?9cbc?9hmac?9sha256@ 0000000000074670     OpensslLib:obj_dat.obj
 0002:00008908       ??_C@_0BI@CINDNFBB@AES?9192?9CBC?9HMAC?9SHA256@ 0000000000074688     OpensslLib:obj_dat.obj
 0002:00008920       ??_C@_0BI@FEDAEOPJ@aes?9192?9cbc?9hmac?9sha256@ 00000000000746a0     OpensslLib:obj_dat.obj
 0002:00008938       ??_C@_0BI@GMBLFPLK@AES?9256?9CBC?9HMAC?9SHA256@ 00000000000746b8     OpensslLib:obj_dat.obj
 0002:00008950       ??_C@_0BI@BAPIMEFC@aes?9256?9cbc?9hmac?9sha256@ 00000000000746d0     OpensslLib:obj_dat.obj
 0002:00008968       ??_C@_0BA@EKNBJPMK@ct_precert_scts@ 00000000000746e8     OpensslLib:obj_dat.obj
 0002:00008978       ??_C@_0BH@MJHOKGCL@CT?5Precertificate?5SCTs@ 00000000000746f8     OpensslLib:obj_dat.obj
 0002:00008990       ??_C@_0BC@DHAKLICB@ct_precert_poison@ 0000000000074710     OpensslLib:obj_dat.obj
 0002:000089a8       ??_C@_0BJ@OJAHFLBJ@CT?5Precertificate?5Poison@ 0000000000074728     OpensslLib:obj_dat.obj
 0002:000089c8       ??_C@_0BC@CGBIKIAJ@ct_precert_signer@ 0000000000074748     OpensslLib:obj_dat.obj
 0002:000089e0       ??_C@_0BJ@PIBFELDB@CT?5Precertificate?5Signer@ 0000000000074760     OpensslLib:obj_dat.obj
 0002:00008a00       ??_C@_0N@GIBNBHKA@ct_cert_scts@ 0000000000074780     OpensslLib:obj_dat.obj
 0002:00008a10       ??_C@_0BE@OLBHFOCE@CT?5Certificate?5SCTs@ 0000000000074790     OpensslLib:obj_dat.obj
 0002:00008a28       ??_C@_0O@CEMHPDIN@jurisdictionL@ 00000000000747a8     OpensslLib:obj_dat.obj
 0002:00008a38       ??_C@_0BJ@DGGEPBOP@jurisdictionLocalityName@ 00000000000747b8     OpensslLib:obj_dat.obj
 0002:00008a58       ??_C@_0P@FKIAEEHD@jurisdictionST@ 00000000000747d8     OpensslLib:obj_dat.obj
 0002:00008a68       ??_C@_0CA@ILILPDLE@jurisdictionStateOrProvinceName@ 00000000000747e8     OpensslLib:obj_dat.obj
 0002:00008a88       ??_C@_0O@KDFPOPEC@jurisdictionC@ 0000000000074808     OpensslLib:obj_dat.obj
 0002:00008a98       ??_C@_0BI@IBHEHEJE@jurisdictionCountryName@ 0000000000074818     OpensslLib:obj_dat.obj
 0002:00008ab0       ??_C@_0M@HNGJPAIF@AES?9128?9OCB@ 0000000000074830     OpensslLib:obj_dat.obj
 0002:00008ac0       ??_C@_0M@KBGCGKAG@aes?9128?9ocb@ 0000000000074840     OpensslLib:obj_dat.obj
 0002:00008ad0       ??_C@_0M@NOPFIHBJ@AES?9192?9OCB@ 0000000000074850     OpensslLib:obj_dat.obj
 0002:00008ae0       ??_C@_0M@CPOBNJK@aes?9192?9ocb@ 0000000000074860     OpensslLib:obj_dat.obj
 0002:00008af0       ??_C@_0M@MELKIJI@AES?9256?9OCB@ 0000000000074870     OpensslLib:obj_dat.obj
 0002:00008b00       ??_C@_0M@NAEADCBL@aes?9256?9ocb@ 0000000000074880     OpensslLib:obj_dat.obj
 0002:00008b10       ??_C@_0BB@GAIDNACN@CAMELLIA?9128?9GCM@ 0000000000074890     OpensslLib:obj_dat.obj
 0002:00008b28       ??_C@_0BB@HDMLAOJK@camellia?9128?9gcm@ 00000000000748a8     OpensslLib:obj_dat.obj
 0002:00008b40       ??_C@_0BB@OPOBEHHK@CAMELLIA?9128?9CCM@ 00000000000748c0     OpensslLib:obj_dat.obj
 0002:00008b58       ??_C@_0BB@PMKJJJMN@camellia?9128?9ccm@ 00000000000748d8     OpensslLib:obj_dat.obj
 0002:00008b70       ??_C@_0BB@DLNCPMBB@CAMELLIA?9128?9CTR@ 00000000000748f0     OpensslLib:obj_dat.obj
 0002:00008b88       ??_C@_0BB@CIJKCCKG@camellia?9128?9ctr@ 0000000000074908     OpensslLib:obj_dat.obj
 0002:00008ba0       ??_C@_0BC@ICKOOLPE@CAMELLIA?9128?9CMAC@ 0000000000074920     OpensslLib:obj_dat.obj
 0002:00008bb8       ??_C@_0BC@ECDMKBKH@camellia?9128?9cmac@ 0000000000074938     OpensslLib:obj_dat.obj
 0002:00008bd0       ??_C@_0BB@MDBPKHLB@CAMELLIA?9192?9GCM@ 0000000000074950     OpensslLib:obj_dat.obj
 0002:00008be8       ??_C@_0BB@NAFHHJAG@camellia?9192?9gcm@ 0000000000074968     OpensslLib:obj_dat.obj
 0002:00008c00       ??_C@_0BB@EMHNDAOG@CAMELLIA?9192?9CCM@ 0000000000074980     OpensslLib:obj_dat.obj
 0002:00008c18       ??_C@_0BB@FPDFOOFB@camellia?9192?9ccm@ 0000000000074998     OpensslLib:obj_dat.obj
 0002:00008c30       ??_C@_0BB@JIEOILIN@CAMELLIA?9192?9CTR@ 00000000000749b0     OpensslLib:obj_dat.obj
 0002:00008c48       ??_C@_0BB@ILAGFFDK@camellia?9192?9ctr@ 00000000000749c8     OpensslLib:obj_dat.obj
 0002:00008c60       ??_C@_0BC@HLLEKIOM@CAMELLIA?9192?9CMAC@ 00000000000749e0     OpensslLib:obj_dat.obj
 0002:00008c78       ??_C@_0BC@LLCGOCLP@camellia?9192?9cmac@ 00000000000749f8     OpensslLib:obj_dat.obj
 0002:00008c90       ??_C@_0BB@BBKBIIDA@CAMELLIA?9256?9GCM@ 0000000000074a10     OpensslLib:obj_dat.obj
 0002:00008ca8       ??_C@_0BB@COJFGIH@camellia?9256?9gcm@ 0000000000074a28     OpensslLib:obj_dat.obj
 0002:00008cc0       ??_C@_0BB@JOMDBPGH@CAMELLIA?9256?9CCM@ 0000000000074a40     OpensslLib:obj_dat.obj
 0002:00008cd8       ??_C@_0BB@INILMBNA@camellia?9256?9ccm@ 0000000000074a58     OpensslLib:obj_dat.obj
 0002:00008cf0       ??_C@_0BB@EKPAKEAM@CAMELLIA?9256?9CTR@ 0000000000074a70     OpensslLib:obj_dat.obj
 0002:00008d08       ??_C@_0BB@FJLIHKLL@camellia?9256?9ctr@ 0000000000074a88     OpensslLib:obj_dat.obj
 0002:00008d20       ??_C@_0BC@OBNJKFHF@CAMELLIA?9256?9CMAC@ 0000000000074aa0     OpensslLib:obj_dat.obj
 0002:00008d38       ??_C@_0BC@CBELOPCG@camellia?9256?9cmac@ 0000000000074ab8     OpensslLib:obj_dat.obj
 0002:00008d50       ??_C@_09ILBMCAEF@id?9scrypt@ 0000000000074ad0     OpensslLib:obj_dat.obj
 0002:00008d5c       ??_C@_06LLPEBPNI@scrypt@   0000000000074adc     OpensslLib:obj_dat.obj
 0002:00008d68       ??_C@_07BKIAFLHB@id?9tc26@ 0000000000074ae8     OpensslLib:obj_dat.obj
 0002:00008d70       ??_C@_0O@HGEOMPGF@gost89?9cnt?912@ 0000000000074af0     OpensslLib:obj_dat.obj
 0002:00008d80       ??_C@_0M@KEFEFFFO@gost?9mac?912@ 0000000000074b00     OpensslLib:obj_dat.obj
 0002:00008d90       ??_C@_0BD@PKHBIAHP@id?9tc26?9algorithms@ 0000000000074b10     OpensslLib:obj_dat.obj
 0002:00008da8       ??_C@_0N@HMCOAPHF@id?9tc26?9sign@ 0000000000074b28     OpensslLib:obj_dat.obj
 0002:00008db8       ??_C@_0N@MINOOKEF@gost2012_256@ 0000000000074b38     OpensslLib:obj_dat.obj
 0002:00008dc8       ??_C@_0CH@DJAHIKCF@GOST?5R?534?410?92012?5with?5256?5bit?5@ 0000000000074b48     OpensslLib:obj_dat.obj
 0002:00008df0       ??_C@_0N@DGGMLPCE@gost2012_512@ 0000000000074b70     OpensslLib:obj_dat.obj
 0002:00008e00       ??_C@_0CH@FHCOJICI@GOST?5R?534?410?92012?5with?5512?5bit?5@ 0000000000074b80     OpensslLib:obj_dat.obj
 0002:00008e28       ??_C@_0P@KKGLKDLG@id?9tc26?9digest@ 0000000000074ba8     OpensslLib:obj_dat.obj
 0002:00008e38       ??_C@_0O@CBIKGGLN@md_gost12_256@ 0000000000074bb8     OpensslLib:obj_dat.obj
 0002:00008e48       ??_C@_0CE@FGDJHNGL@GOST?5R?534?411?92012?5with?5256?5bit?5@ 0000000000074bc8     OpensslLib:obj_dat.obj
 0002:00008e70       ??_C@_0O@NPDIDDNM@md_gost12_512@ 0000000000074bf0     OpensslLib:obj_dat.obj
 0002:00008e80       ??_C@_0CE@JIJFDDMO@GOST?5R?534?411?92012?5with?5512?5bit?5@ 0000000000074c00     OpensslLib:obj_dat.obj
 0002:00008ea8       ??_C@_0BH@DGELPKNI@id?9tc26?9signwithdigest@ 0000000000074c28     OpensslLib:obj_dat.obj
 0002:00008ec0       ??_C@_0CJ@IEAKGPIK@id?9tc26?9signwithdigest?9gost3410@ 0000000000074c40     OpensslLib:obj_dat.obj
 0002:00008ef0       ??_C@_0DD@IIJACCAI@GOST?5R?534?410?92012?5with?5GOST?5R?53@ 0000000000074c70     OpensslLib:obj_dat.obj
 0002:00008f28       ??_C@_0CJ@HKLIDKOL@id?9tc26?9signwithdigest?9gost3410@ 0000000000074ca8     OpensslLib:obj_dat.obj
 0002:00008f58       ??_C@_0DD@JMPEGFCI@GOST?5R?534?410?92012?5with?5GOST?5R?53@ 0000000000074cd8     OpensslLib:obj_dat.obj
 0002:00008f90       ??_C@_0M@ICFDDKIB@id?9tc26?9mac@ 0000000000074d10     OpensslLib:obj_dat.obj
 0002:00008fa0       ??_C@_0CA@JKDKOOFJ@id?9tc26?9hmac?9gost?93411?92012?9256@ 0000000000074d20     OpensslLib:obj_dat.obj
 0002:00008fc0       ??_C@_0BN@JOOLALJM@HMAC?5GOST?534?411?92012?5256?5bit@ 0000000000074d40     OpensslLib:obj_dat.obj
 0002:00008fe0       ??_C@_0CA@GEIILLDI@id?9tc26?9hmac?9gost?93411?92012?9512@ 0000000000074d60     OpensslLib:obj_dat.obj
 0002:00009000       ??_C@_0BN@PLPAGEIA@HMAC?5GOST?534?411?92012?5512?5bit@ 0000000000074d80     OpensslLib:obj_dat.obj
 0002:00009020       ??_C@_0P@BJHHGDD@id?9tc26?9cipher@ 0000000000074da0     OpensslLib:obj_dat.obj
 0002:00009030       ??_C@_0BC@DJLELDPH@id?9tc26?9agreement@ 0000000000074db0     OpensslLib:obj_dat.obj
 0002:00009048       ??_C@_0CF@JALEKNFA@id?9tc26?9agreement?9gost?93410?9201@ 0000000000074dc8     OpensslLib:obj_dat.obj
 0002:00009070       ??_C@_0CF@GOAGPIDB@id?9tc26?9agreement?9gost?93410?9201@ 0000000000074df0     OpensslLib:obj_dat.obj
 0002:00009098       ??_C@_0BC@CNAIEHBN@id?9tc26?9constants@ 0000000000074e18     OpensslLib:obj_dat.obj
 0002:000090b0       ??_C@_0BH@FMPMHLHM@id?9tc26?9sign?9constants@ 0000000000074e30     OpensslLib:obj_dat.obj
 0002:000090c8       ??_C@_0CF@ONCEGCLN@id?9tc26?9gost?93410?92012?9512?9cons@ 0000000000074e48     OpensslLib:obj_dat.obj
 0002:000090f0       ??_C@_0CI@GGHEPEIH@id?9tc26?9gost?93410?92012?9512?9para@ 0000000000074e70     OpensslLib:obj_dat.obj
 0002:00009118       ??_C@_0DC@INCJCNBI@GOST?5R?534?410?92012?5?$CI512?5bit?$CJ?5tes@ 0000000000074e98     OpensslLib:obj_dat.obj
 0002:00009150       ??_C@_0CF@PHGDEBIC@id?9tc26?9gost?93410?92012?9512?9para@ 0000000000074ed0     OpensslLib:obj_dat.obj
 0002:00009178       ??_C@_0CH@KEBIEEKM@GOST?5R?534?410?92012?5?$CI512?5bit?$CJ?5Par@ 0000000000074ef8     OpensslLib:obj_dat.obj
 0002:000091a0       ??_C@_0CF@NMEOBCEB@id?9tc26?9gost?93410?92012?9512?9para@ 0000000000074f20     OpensslLib:obj_dat.obj
 0002:000091c8       ??_C@_0CH@IPDFBHGP@GOST?5R?534?410?92012?5?$CI512?5bit?$CJ?5Par@ 0000000000074f48     OpensslLib:obj_dat.obj
 0002:000091f0       ??_C@_0BJ@GEIKEFNA@id?9tc26?9digest?9constants@ 0000000000074f70     OpensslLib:obj_dat.obj
 0002:00009210       ??_C@_0BJ@NHFOAFHC@id?9tc26?9cipher?9constants@ 0000000000074f90     OpensslLib:obj_dat.obj
 0002:00009230       ??_C@_0BN@EAAGDAMM@id?9tc26?9gost?928147?9constants@ 0000000000074fb0     OpensslLib:obj_dat.obj
 0002:00009250       ??_C@_0BL@JJBMFHGO@id?9tc26?9gost?928147?9param?9Z@ 0000000000074fd0     OpensslLib:obj_dat.obj
 0002:00009270       ??_C@_0CB@CNOGCECB@GOST?528147?989?5TC26?5parameter?5se@ 0000000000074ff0     OpensslLib:obj_dat.obj
 0002:00009294       ??_C@_03CMFJPFBF@INN@      0000000000075014     OpensslLib:obj_dat.obj
 0002:00009298       ??_C@_04OEHPDPKL@OGRN@     0000000000075018     OpensslLib:obj_dat.obj
 0002:000092a0       ??_C@_05CNOOKPKJ@SNILS@    0000000000075020     OpensslLib:obj_dat.obj
 0002:000092a8       ??_C@_0BA@NDMKBCND@subjectSignTool@ 0000000000075028     OpensslLib:obj_dat.obj
 0002:000092b8       ??_C@_0BI@GJCFDOKO@Signing?5Tool?5of?5Subject@ 0000000000075038     OpensslLib:obj_dat.obj
 0002:000092d0       ??_C@_0P@DOAHENPB@issuerSignTool@ 0000000000075050     OpensslLib:obj_dat.obj
 0002:000092e0       ??_C@_0BH@GHEABPMA@Signing?5Tool?5of?5Issuer@ 0000000000075060     OpensslLib:obj_dat.obj
 0002:000092f8       ??_C@_0L@IBPHNLAN@gost89?9cbc@ 0000000000075078     OpensslLib:obj_dat.obj
 0002:00009308       ??_C@_0L@LMEFNPKH@gost89?9ecb@ 0000000000075088     OpensslLib:obj_dat.obj
 0002:00009318       ??_C@_0L@MKIFCHNP@gost89?9ctr@ 0000000000075098     OpensslLib:obj_dat.obj
 0002:00009328       ??_C@_0BA@BNIBKCOB@grasshopper?9ecb@ 00000000000750a8     OpensslLib:obj_dat.obj
 0002:00009338       ??_C@_0BA@GLEBFKJJ@grasshopper?9ctr@ 00000000000750b8     OpensslLib:obj_dat.obj
 0002:00009348       ??_C@_0BA@HEPHIAGO@grasshopper?9ofb@ 00000000000750c8     OpensslLib:obj_dat.obj
 0002:00009358       ??_C@_0BA@CADDKGEL@grasshopper?9cbc@ 00000000000750d8     OpensslLib:obj_dat.obj
 0002:00009368       ??_C@_0BA@DOCBDPNG@grasshopper?9cfb@ 00000000000750e8     OpensslLib:obj_dat.obj
 0002:00009378       ??_C@_0BA@MCKKGPCB@grasshopper?9mac@ 00000000000750f8     OpensslLib:obj_dat.obj
 0002:00009388       ??_C@_0BC@PEKIBJLH@ChaCha20?9Poly1305@ 0000000000075108     OpensslLib:obj_dat.obj
 0002:000093a0       ??_C@_0BC@KDNKBNLK@chacha20?9poly1305@ 0000000000075120     OpensslLib:obj_dat.obj
 0002:000093b8       ??_C@_08ILJLPLOJ@ChaCha20@ 0000000000075138     OpensslLib:obj_dat.obj
 0002:000093c8       ??_C@_08OMGHMHM@chacha20@  0000000000075148     OpensslLib:obj_dat.obj
 0002:000093d8       ??_C@_0L@MLJIFHHA@tlsfeature@ 0000000000075158     OpensslLib:obj_dat.obj
 0002:000093e8       ??_C@_0M@FNEPCNIJ@TLS?5Feature@ 0000000000075168     OpensslLib:obj_dat.obj
 0002:000093f8       ??_C@_08KOCGPNOB@TLS1?9PRF@ 0000000000075178     OpensslLib:obj_dat.obj
 0002:00009408       ??_C@_08BHOHOJPE@tls1?9prf@ 0000000000075188     OpensslLib:obj_dat.obj
 0002:00009418       ??_C@_08JJANKCK@ipsecIKE@  0000000000075198     OpensslLib:obj_dat.obj
 0002:00009428       ??_C@_0BM@OPBJFEOG@ipsec?5Internet?5Key?5Exchange@ 00000000000751a8     OpensslLib:obj_dat.obj
 0002:00009448       ??_C@_08PPHHBOBH@capwapAC@ 00000000000751c8     OpensslLib:obj_dat.obj
 0002:00009458       ??_C@_0BK@IALCAIEG@Ctrl?1provision?5WAP?5Access@ 00000000000751d8     OpensslLib:obj_dat.obj
 0002:00009478       ??_C@_09FFIMBCDL@capwapWTP@ 00000000000751f8     OpensslLib:obj_dat.obj
 0002:00009488       ??_C@_0BP@LFGCKHED@Ctrl?1Provision?5WAP?5Termination@ 0000000000075208     OpensslLib:obj_dat.obj
 0002:000094a8       ??_C@_0BC@DBPEJOAM@secureShellClient@ 0000000000075228     OpensslLib:obj_dat.obj
 0002:000094c0       ??_C@_0L@CACOODCE@SSH?5Client@ 0000000000075240     OpensslLib:obj_dat.obj
 0002:000094d0       ??_C@_0BC@HOLGEFIP@secureShellServer@ 0000000000075250     OpensslLib:obj_dat.obj
 0002:000094e8       ??_C@_0L@GPGMDIKH@SSH?5Server@ 0000000000075268     OpensslLib:obj_dat.obj
 0002:000094f8       ??_C@_0L@MPOEEOHI@sendRouter@ 0000000000075278     OpensslLib:obj_dat.obj
 0002:00009508       ??_C@_0M@BCAJACPB@Send?5Router@ 0000000000075288     OpensslLib:obj_dat.obj
 0002:00009518       ??_C@_0BC@KKHBJBOB@sendProxiedRouter@ 0000000000075298     OpensslLib:obj_dat.obj
 0002:00009530       ??_C@_0BE@JHOOFFHO@Send?5Proxied?5Router@ 00000000000752b0     OpensslLib:obj_dat.obj
 0002:00009548       ??_C@_09JAHHKBGP@sendOwner@ 00000000000752c8     OpensslLib:obj_dat.obj
 0002:00009558       ??_C@_0L@HAEHOBAA@Send?5Owner@ 00000000000752d8     OpensslLib:obj_dat.obj
 0002:00009568       ??_C@_0BB@LFHBPODH@sendProxiedOwner@ 00000000000752e8     OpensslLib:obj_dat.obj
 0002:00009580       ??_C@_0BD@PCCALGFC@Send?5Proxied?5Owner@ 0000000000075300     OpensslLib:obj_dat.obj
 0002:00009598       ??_C@_09JPKOOJPP@id?9pkinit@ 0000000000075318     OpensslLib:obj_dat.obj
 0002:000095a8       ??_C@_0BB@EPFMAKG@pkInitClientAuth@ 0000000000075328     OpensslLib:obj_dat.obj
 0002:000095c0       ??_C@_0BD@EMKKJPI@PKINIT?5Client?5Auth@ 0000000000075340     OpensslLib:obj_dat.obj
 0002:000095d8       ??_C@_09BKCKBNGN@pkInitKDC@ 0000000000075358     OpensslLib:obj_dat.obj
 0002:000095e8       ??_C@_0BF@JILKFMLF@Signing?5KDC?5Response@ 0000000000075368     OpensslLib:obj_dat.obj
 0002:00009600       ??_C@_06LOACBMIP@X25519@   0000000000075380     OpensslLib:obj_dat.obj
 0002:00009608       ??_C@_04HKAKBCKJ@X448@     0000000000075388     OpensslLib:obj_dat.obj
 0002:00009610       ??_C@_04MMPLAJMJ@HKDF@     0000000000075390     OpensslLib:obj_dat.obj
 0002:00009618       ??_C@_04MBOLLB@hkdf@       0000000000075398     OpensslLib:obj_dat.obj
 0002:00009620       ??_C@_05EJMCGHJ@KxRSA@     00000000000753a0     OpensslLib:obj_dat.obj
 0002:00009628       ??_C@_06NOGFLIHP@kx?9rsa@  00000000000753a8     OpensslLib:obj_dat.obj
 0002:00009630       ??_C@_07JGJKHBHF@KxECDHE@  00000000000753b0     OpensslLib:obj_dat.obj
 0002:00009638       ??_C@_08HKLONAAL@kx?9ecdhe@ 00000000000753b8     OpensslLib:obj_dat.obj
 0002:00009644       ??_C@_05FPBKHKP@KxDHE@     00000000000753c4     OpensslLib:obj_dat.obj
 0002:0000964c       ??_C@_06NPAIDJKJ@kx?9dhe@  00000000000753cc     OpensslLib:obj_dat.obj
 0002:00009658       ??_C@_0M@BEDLOEBI@KxECDHE?9PSK@ 00000000000753d8     OpensslLib:obj_dat.obj
 0002:00009668       ??_C@_0N@BCMOIGGJ@kx?9ecdhe?9psk@ 00000000000753e8     OpensslLib:obj_dat.obj
 0002:00009678       ??_C@_09DLNJIEPF@KxDHE?9PSK@ 00000000000753f8     OpensslLib:obj_dat.obj
 0002:00009688       ??_C@_0L@EHLMOCJB@kx?9dhe?9psk@ 0000000000075408     OpensslLib:obj_dat.obj
 0002:00009698       ??_C@_09PMFHIFNE@KxRSA_PSK@ 0000000000075418     OpensslLib:obj_dat.obj
 0002:000096a8       ??_C@_0L@DCAFABP@kx?9rsa?9psk@ 0000000000075428     OpensslLib:obj_dat.obj
 0002:000096b4       ??_C@_05FEHKAGHI@KxPSK@    0000000000075434     OpensslLib:obj_dat.obj
 0002:000096bc       ??_C@_06IOIDJIHO@kx?9psk@  000000000007543c     OpensslLib:obj_dat.obj
 0002:000096c4       ??_C@_05OODLAIDL@KxSRP@    0000000000075444     OpensslLib:obj_dat.obj
 0002:000096cc       ??_C@_06DEMCJGDN@kx?9srp@  000000000007544c     OpensslLib:obj_dat.obj
 0002:000096d4       ??_C@_06FKGHEKCF@KxGOST@   0000000000075454     OpensslLib:obj_dat.obj
 0002:000096e0       ??_C@_07CGFKDCCM@kx?9gost@ 0000000000075460     OpensslLib:obj_dat.obj
 0002:000096e8       ??_C@_07BONHEHLG@AuthRSA@  0000000000075468     OpensslLib:obj_dat.obj
 0002:000096f0       ??_C@_08JIOIJHAA@auth?9rsa@ 0000000000075470     OpensslLib:obj_dat.obj
 0002:00009700       ??_C@_09JEFCHIOE@AuthECDSA@ 0000000000075480     OpensslLib:obj_dat.obj
 0002:00009710       ??_C@_0L@NNHEHHD@auth?9ecdsa@ 0000000000075490     OpensslLib:obj_dat.obj
 0002:00009720       ??_C@_07EODBGHLH@AuthPSK@  00000000000754a0     OpensslLib:obj_dat.obj
 0002:00009728       ??_C@_08MIAOLHAB@auth?9psk@ 00000000000754a8     OpensslLib:obj_dat.obj
 0002:00009738       ??_C@_07BDFBDPCG@AuthDSS@  00000000000754b8     OpensslLib:obj_dat.obj
 0002:00009740       ??_C@_08JFGOOPJA@auth?9dss@ 00000000000754c0     OpensslLib:obj_dat.obj
 0002:00009750       ??_C@_0L@JLNHNDLF@AuthGOST01@ 00000000000754d0     OpensslLib:obj_dat.obj
 0002:00009760       ??_C@_0M@MNGIBGIN@auth?9gost01@ 00000000000754e0     OpensslLib:obj_dat.obj
 0002:00009770       ??_C@_0L@LBDIOKEB@AuthGOST12@ 00000000000754f0     OpensslLib:obj_dat.obj
 0002:00009780       ??_C@_0M@OHIHCPHJ@auth?9gost12@ 0000000000075500     OpensslLib:obj_dat.obj
 0002:00009790       ??_C@_07PEHAGJPE@AuthSRP@  0000000000075510     OpensslLib:obj_dat.obj
 0002:00009798       ??_C@_08HCEPLJEC@auth?9srp@ 0000000000075518     OpensslLib:obj_dat.obj
 0002:000097a8       ??_C@_08PGHDHHPL@AuthNULL@ 0000000000075528     OpensslLib:obj_dat.obj
 0002:000097b8       ??_C@_09EBHDHKDA@auth?9null@ 0000000000075538     OpensslLib:obj_dat.obj
 0002:000097c8       ??_C@_0L@JAJLMLPM@BLAKE2b512@ 0000000000075548     OpensslLib:obj_dat.obj
 0002:000097d8       ??_C@_0L@ONGAJOJC@blake2b512@ 0000000000075558     OpensslLib:obj_dat.obj
 0002:000097e8       ??_C@_0L@DDKJCAKP@BLAKE2s256@ 0000000000075568     OpensslLib:obj_dat.obj
 0002:000097f8       ??_C@_0L@EOFCHFMB@blake2s256@ 0000000000075578     OpensslLib:obj_dat.obj
 0002:00009808       ??_C@_0BO@OGCFEAKN@id?9smime?9ct?9contentCollection@ 0000000000075588     OpensslLib:obj_dat.obj
 0002:00009828       ??_C@_0BO@INCMCPON@id?9smime?9ct?9authEnvelopedData@ 00000000000755a8     OpensslLib:obj_dat.obj
 0002:00009848       ??_C@_09GGALBJKN@id?9ct?9xml@ 00000000000755c8     OpensslLib:obj_dat.obj
 0002:00009858       ??_C@_08PKNBIDPH@Poly1305@ 00000000000755d8     OpensslLib:obj_dat.obj
 0002:00009868       ??_C@_08HICAABFE@poly1305@ 00000000000755e8     OpensslLib:obj_dat.obj
 0002:00009878       ??_C@_07EEPCGEAM@SipHash@  00000000000755f8     OpensslLib:obj_dat.obj
 0002:00009880       ??_C@_07HMEFCJFO@siphash@  0000000000075600     OpensslLib:obj_dat.obj
 0002:00009888       ??_C@_05NANFHGHC@KxANY@    0000000000075608     OpensslLib:obj_dat.obj
 0002:00009890       ??_C@_06KCMOIHE@kx?9any@   0000000000075610     OpensslLib:obj_dat.obj
 0002:00009898       ??_C@_07MKJOBHLN@AuthANY@  0000000000075618     OpensslLib:obj_dat.obj
 0002:000098a0       ??_C@_08EMKBMHAL@auth?9any@ 0000000000075620     OpensslLib:obj_dat.obj
 0002:000098b0       ??_C@_0N@FEKJCEDM@ARIA?9128?9ECB@ 0000000000075630     OpensslLib:obj_dat.obj
 0002:000098c0       ??_C@_0N@DLNMPFEK@aria?9128?9ecb@ 0000000000075640     OpensslLib:obj_dat.obj
 0002:000098d0       ??_C@_0N@GJBLCAJG@ARIA?9128?9CBC@ 0000000000075650     OpensslLib:obj_dat.obj
 0002:000098e0       ??_C@_0N@GGOPBOA@aria?9128?9cbc@ 0000000000075660     OpensslLib:obj_dat.obj
 0002:000098f0       ??_C@_0N@HHAJLJAL@ARIA?9128?9CFB@ 0000000000075670     OpensslLib:obj_dat.obj
 0002:00009900       ??_C@_0N@BIHMGIHN@aria?9128?9cfb@ 0000000000075680     OpensslLib:obj_dat.obj
 0002:00009910       ??_C@_0N@DNNPAGLD@ARIA?9128?9OFB@ 0000000000075690     OpensslLib:obj_dat.obj
 0002:00009920       ??_C@_0N@FCKKNHMF@aria?9128?9ofb@ 00000000000756a0     OpensslLib:obj_dat.obj
 0002:00009930       ??_C@_0N@CCGJNMEE@ARIA?9128?9CTR@ 00000000000756b0     OpensslLib:obj_dat.obj
 0002:00009940       ??_C@_0N@ENBMANDC@aria?9128?9ctr@ 00000000000756c0     OpensslLib:obj_dat.obj
 0002:00009950       ??_C@_0N@PHDFFDKA@ARIA?9192?9ECB@ 00000000000756d0     OpensslLib:obj_dat.obj
 0002:00009960       ??_C@_0N@JIEAICNG@aria?9192?9ecb@ 00000000000756e0     OpensslLib:obj_dat.obj
 0002:00009970       ??_C@_0N@MKIHFHAK@ARIA?9192?9CBC@ 00000000000756f0     OpensslLib:obj_dat.obj
 0002:00009980       ??_C@_0N@KFPCIGHM@aria?9192?9cbc@ 0000000000075700     OpensslLib:obj_dat.obj
 0002:00009990       ??_C@_0N@NEJFMOJH@ARIA?9192?9CFB@ 0000000000075710     OpensslLib:obj_dat.obj
 0002:000099a0       ??_C@_0N@LLOABPOB@aria?9192?9cfb@ 0000000000075720     OpensslLib:obj_dat.obj
 0002:000099b0       ??_C@_0N@JOEDHBCP@ARIA?9192?9OFB@ 0000000000075730     OpensslLib:obj_dat.obj
 0002:000099c0       ??_C@_0N@PBDGKAFJ@aria?9192?9ofb@ 0000000000075740     OpensslLib:obj_dat.obj
 0002:000099d0       ??_C@_0N@IBPFKLNI@ARIA?9192?9CTR@ 0000000000075750     OpensslLib:obj_dat.obj
 0002:000099e0       ??_C@_0N@OOIAHKKO@aria?9192?9ctr@ 0000000000075760     OpensslLib:obj_dat.obj
 0002:000099f0       ??_C@_0N@CFILHMCB@ARIA?9256?9ECB@ 0000000000075770     OpensslLib:obj_dat.obj
 0002:00009a00       ??_C@_0N@EKPOKNFH@aria?9256?9ecb@ 0000000000075780     OpensslLib:obj_dat.obj
 0002:00009a10       ??_C@_0N@BIDJHIIL@ARIA?9256?9CBC@ 0000000000075790     OpensslLib:obj_dat.obj
 0002:00009a20       ??_C@_0N@HHEMKJPN@aria?9256?9cbc@ 00000000000757a0     OpensslLib:obj_dat.obj
 0002:00009a30       ??_C@_0N@GCLOBBG@ARIA?9256?9CFB@ 00000000000757b0     OpensslLib:obj_dat.obj
 0002:00009a40       ??_C@_0N@GJFODAGA@aria?9256?9cfb@ 00000000000757c0     OpensslLib:obj_dat.obj
 0002:00009a50       ??_C@_0N@EMPNFOKO@ARIA?9256?9OFB@ 00000000000757d0     OpensslLib:obj_dat.obj
 0002:00009a60       ??_C@_0N@CDIIIPNI@aria?9256?9ofb@ 00000000000757e0     OpensslLib:obj_dat.obj
 0002:00009a70       ??_C@_0N@FDELIEFJ@ARIA?9256?9CTR@ 00000000000757f0     OpensslLib:obj_dat.obj
 0002:00009a80       ??_C@_0N@DMDOFFCP@aria?9256?9ctr@ 0000000000075800     OpensslLib:obj_dat.obj
 0002:00009a90       ??_C@_0O@FBPINHID@ARIA?9128?9CFB1@ 0000000000075810     OpensslLib:obj_dat.obj
 0002:00009aa0       ??_C@_0O@OIPBHGFL@aria?9128?9cfb1@ 0000000000075820     OpensslLib:obj_dat.obj
 0002:00009ab0       ??_C@_0O@KIOCJEJL@ARIA?9192?9CFB1@ 0000000000075830     OpensslLib:obj_dat.obj
 0002:00009ac0       ??_C@_0O@BBOLDFED@aria?9192?9cfb1@ 0000000000075840     OpensslLib:obj_dat.obj
 0002:00009ad0       ??_C@_0O@DCIPJJAC@ARIA?9256?9CFB1@ 0000000000075850     OpensslLib:obj_dat.obj
 0002:00009ae0       ??_C@_0O@ILIGDINK@aria?9256?9cfb1@ 0000000000075860     OpensslLib:obj_dat.obj
 0002:00009af0       ??_C@_0O@IADKGMMK@ARIA?9128?9CFB8@ 0000000000075870     OpensslLib:obj_dat.obj
 0002:00009b00       ??_C@_0O@DJDDMNBC@aria?9128?9cfb8@ 0000000000075880     OpensslLib:obj_dat.obj
 0002:00009b10       ??_C@_0O@HJCACPNC@ARIA?9192?9CFB8@ 0000000000075890     OpensslLib:obj_dat.obj
 0002:00009b20       ??_C@_0O@MACJIOAK@aria?9192?9cfb8@ 00000000000758a0     OpensslLib:obj_dat.obj
 0002:00009b30       ??_C@_0O@ODENCCEL@ARIA?9256?9CFB8@ 00000000000758b0     OpensslLib:obj_dat.obj
 0002:00009b40       ??_C@_0O@FKEEIDJD@aria?9256?9cfb8@ 00000000000758c0     OpensslLib:obj_dat.obj
 0002:00009b50       ??_C@_0CB@IFNLAOKJ@id?9smime?9aa?9signingCertificateV@ 00000000000758d0     OpensslLib:obj_dat.obj
 0002:00009b78       ??_C@_07IHEPCGKL@ED25519@  00000000000758f8     OpensslLib:obj_dat.obj
 0002:00009b80       ??_C@_05PHGPKFEL@ED448@    0000000000075900     OpensslLib:obj_dat.obj
 0002:00009b88       ??_C@_0BH@IMGBFLPH@organizationIdentifier@ 0000000000075908     OpensslLib:obj_dat.obj
 0002:00009ba0       ??_C@_02LOEEDGKE@c3@       0000000000075920     OpensslLib:obj_dat.obj
 0002:00009ba8       ??_C@_0O@FPCOELAL@countryCode3c@ 0000000000075928     OpensslLib:obj_dat.obj
 0002:00009bb8       ??_C@_02LGJMKFPH@n3@       0000000000075938     OpensslLib:obj_dat.obj
 0002:00009bc0       ??_C@_0O@OKIADFEG@countryCode3n@ 0000000000075940     OpensslLib:obj_dat.obj
 0002:00009bd0       ??_C@_07KEJPHHNP@dnsName@  0000000000075950     OpensslLib:obj_dat.obj
 0002:00009bd8       ??_C@_0BB@NCOFGOBL@x509ExtAdmission@ 0000000000075958     OpensslLib:obj_dat.obj
 0002:00009bf0       ??_C@_0DA@NCCMDEGO@Professional?5Information?5or?5bas@ 0000000000075970     OpensslLib:obj_dat.obj
 0002:00009c20       ??_C@_0L@EEJNOJOJ@SHA512?9224@ 00000000000759a0     OpensslLib:obj_dat.obj
 0002:00009c30       ??_C@_0L@PKNOHEN@sha512?9224@ 00000000000759b0     OpensslLib:obj_dat.obj
 0002:00009c40       ??_C@_0L@HDOEJNOO@SHA512?9256@ 00000000000759c0     OpensslLib:obj_dat.obj
 0002:00009c50       ??_C@_0L@DINEJDEK@sha512?9256@ 00000000000759d0     OpensslLib:obj_dat.obj
 0002:00009c60       ??_C@_08DHHFFNOC@SHA3?9224@ 00000000000759e0     OpensslLib:obj_dat.obj
 0002:00009c70       ??_C@_08IDEPIEIL@sha3?9224@ 00000000000759f0     OpensslLib:obj_dat.obj
 0002:00009c80       ??_C@_08MCJOF@SHA3?9256@   0000000000075a00     OpensslLib:obj_dat.obj
 0002:00009c90       ??_C@_08LEDGPAIM@sha3?9256@ 0000000000075a10     OpensslLib:obj_dat.obj
 0002:00009ca0       ??_C@_08ICFOLPFB@SHA3?9384@ 0000000000075a20     OpensslLib:obj_dat.obj
 0002:00009cb0       ??_C@_08DGGEGGDI@sha3?9384@ 0000000000075a30     OpensslLib:obj_dat.obj
 0002:00009cc0       ??_C@_08POLOHMIE@SHA3?9512@ 0000000000075a40     OpensslLib:obj_dat.obj
 0002:00009cd0       ??_C@_08EKIEKFON@sha3?9512@ 0000000000075a50     OpensslLib:obj_dat.obj
 0002:00009ce0       ??_C@_08MHEGAOCA@SHAKE128@ 0000000000075a60     OpensslLib:obj_dat.obj
 0002:00009cf0       ??_C@_08LFBBPNHL@shake128@ 0000000000075a70     OpensslLib:obj_dat.obj
 0002:00009d00       ??_C@_08EODPJKMF@SHAKE256@ 0000000000075a80     OpensslLib:obj_dat.obj
 0002:00009d10       ??_C@_08DMGIGJJO@shake256@ 0000000000075a90     OpensslLib:obj_dat.obj
 0002:00009d20       ??_C@_0BE@MGFGMONP@id?9hmacWithSHA3?9224@ 0000000000075aa0     OpensslLib:obj_dat.obj
 0002:00009d38       ??_C@_0O@ICMEJKOD@hmac?9sha3?9224@ 0000000000075ab8     OpensslLib:obj_dat.obj
 0002:00009d48       ??_C@_0BE@PBCPLKNI@id?9hmacWithSHA3?9256@ 0000000000075ac8     OpensslLib:obj_dat.obj
 0002:00009d60       ??_C@_0O@LFLNOOOE@hmac?9sha3?9256@ 0000000000075ae0     OpensslLib:obj_dat.obj
 0002:00009d70       ??_C@_0BE@HDHNCMGM@id?9hmacWithSHA3?9384@ 0000000000075af0     OpensslLib:obj_dat.obj
 0002:00009d88       ??_C@_0O@DHOPHIFA@hmac?9sha3?9384@ 0000000000075b08     OpensslLib:obj_dat.obj
 0002:00009d98       ??_C@_0BE@PJNOPLJ@id?9hmacWithSHA3?9512@ 0000000000075b18     OpensslLib:obj_dat.obj
 0002:00009db0       ??_C@_0O@ELAPLLIF@hmac?9sha3?9512@ 0000000000075b30     OpensslLib:obj_dat.obj
 0002:00009dc0       ??_C@_0BD@LAAPDDDN@id?9dsa?9with?9sha384@ 0000000000075b40     OpensslLib:obj_dat.obj
 0002:00009dd8       ??_C@_0BA@NOAAHENE@dsa_with_SHA384@ 0000000000075b58     OpensslLib:obj_dat.obj
 0002:00009de8       ??_C@_0BD@MMOPPAOI@id?9dsa?9with?9sha512@ 0000000000075b68     OpensslLib:obj_dat.obj
 0002:00009e00       ??_C@_0BA@KCOALHAB@dsa_with_SHA512@ 0000000000075b80     OpensslLib:obj_dat.obj
 0002:00009e10       ??_C@_0BF@MEJGBMIA@id?9dsa?9with?9sha3?9224@ 0000000000075b90     OpensslLib:obj_dat.obj
 0002:00009e28       ??_C@_0BC@KDJCOOBJ@dsa_with_SHA3?9224@ 0000000000075ba8     OpensslLib:obj_dat.obj
 0002:00009e40       ??_C@_0BF@PDOPGIIH@id?9dsa?9with?9sha3?9256@ 0000000000075bc0     OpensslLib:obj_dat.obj
 0002:00009e58       ??_C@_0BC@JEOLJKBO@dsa_with_SHA3?9256@ 0000000000075bd8     OpensslLib:obj_dat.obj
 0002:00009e70       ??_C@_0BF@HBLNPODD@id?9dsa?9with?9sha3?9384@ 0000000000075bf0     OpensslLib:obj_dat.obj
 0002:00009e88       ??_C@_0BC@BGLJAMKK@dsa_with_SHA3?9384@ 0000000000075c08     OpensslLib:obj_dat.obj
 0002:00009ea0       ??_C@_0BF@NFNDNOG@id?9dsa?9with?9sha3?9512@ 0000000000075c20     OpensslLib:obj_dat.obj
 0002:00009eb8       ??_C@_0BC@GKFJMPHP@dsa_with_SHA3?9512@ 0000000000075c38     OpensslLib:obj_dat.obj
 0002:00009ed0       ??_C@_0BH@CPKNOLKD@id?9ecdsa?9with?9sha3?9224@ 0000000000075c50     OpensslLib:obj_dat.obj
 0002:00009ee8       ??_C@_0BE@HAIIGEO@ecdsa_with_SHA3?9224@ 0000000000075c68     OpensslLib:obj_dat.obj
 0002:00009f00       ??_C@_0BH@BINEJPKE@id?9ecdsa?9with?9sha3?9256@ 0000000000075c80     OpensslLib:obj_dat.obj
 0002:00009f18       ??_C@_0BE@DAHBPCEJ@ecdsa_with_SHA3?9256@ 0000000000075c98     OpensslLib:obj_dat.obj
 0002:00009f30       ??_C@_0BH@JKIGAJBA@id?9ecdsa?9with?9sha3?9384@ 0000000000075cb0     OpensslLib:obj_dat.obj
 0002:00009f48       ??_C@_0BE@LCCDGEPN@ecdsa_with_SHA3?9384@ 0000000000075cc8     OpensslLib:obj_dat.obj
 0002:00009f60       ??_C@_0BH@OGGGMKMF@id?9ecdsa?9with?9sha3?9512@ 0000000000075ce0     OpensslLib:obj_dat.obj
 0002:00009f78       ??_C@_0BE@MOMDKHCI@ecdsa_with_SHA3?9512@ 0000000000075cf8     OpensslLib:obj_dat.obj
 0002:00009f90       ??_C@_0CD@HOFJHNFO@id?9rsassa?9pkcs1?9v1_5?9with?9sha3?9@ 0000000000075d10     OpensslLib:obj_dat.obj
 0002:00009fb8       ??_C@_0N@FBFOELEH@RSA?9SHA3?9224@ 0000000000075d38     OpensslLib:obj_dat.obj
 0002:00009fc8       ??_C@_0CD@EJCAAJFJ@id?9rsassa?9pkcs1?9v1_5?9with?9sha3?9@ 0000000000075d48     OpensslLib:obj_dat.obj
 0002:00009ff0       ??_C@_0N@GGCHDPEA@RSA?9SHA3?9256@ 0000000000075d70     OpensslLib:obj_dat.obj
 0002:0000a000       ??_C@_0CD@MLHCJPON@id?9rsassa?9pkcs1?9v1_5?9with?9sha3?9@ 0000000000075d80     OpensslLib:obj_dat.obj
 0002:0000a028       ??_C@_0N@OEHFKJPE@RSA?9SHA3?9384@ 0000000000075da8     OpensslLib:obj_dat.obj
 0002:0000a038       ??_C@_0CD@LHJCFMDI@id?9rsassa?9pkcs1?9v1_5?9with?9sha3?9@ 0000000000075db8     OpensslLib:obj_dat.obj
 0002:0000a060       ??_C@_0N@JIJFGKCB@RSA?9SHA3?9512@ 0000000000075de0     OpensslLib:obj_dat.obj
 0002:0000a070       ??_C@_0N@PGFKGHCP@ARIA?9128?9CCM@ 0000000000075df0     OpensslLib:obj_dat.obj
 0002:0000a080       ??_C@_0N@JJCPLGFJ@aria?9128?9ccm@ 0000000000075e00     OpensslLib:obj_dat.obj
 0002:0000a090       ??_C@_0N@FFMGBALD@ARIA?9192?9CCM@ 0000000000075e10     OpensslLib:obj_dat.obj
 0002:0000a0a0       ??_C@_0N@DKLDMBMF@aria?9192?9ccm@ 0000000000075e20     OpensslLib:obj_dat.obj
 0002:0000a0b0       ??_C@_0N@IHHIDPDC@ARIA?9256?9CCM@ 0000000000075e30     OpensslLib:obj_dat.obj
 0002:0000a0c0       ??_C@_0N@OIANOOEE@aria?9256?9ccm@ 0000000000075e40     OpensslLib:obj_dat.obj
 0002:0000a0d0       ??_C@_0N@HJDIPAHI@ARIA?9128?9GCM@ 0000000000075e50     OpensslLib:obj_dat.obj
 0002:0000a0e0       ??_C@_0N@BGENCBAO@aria?9128?9gcm@ 0000000000075e60     OpensslLib:obj_dat.obj
 0002:0000a0f0       ??_C@_0N@NKKEIHOE@ARIA?9192?9GCM@ 0000000000075e70     OpensslLib:obj_dat.obj
 0002:0000a100       ??_C@_0N@LFNBFGJC@aria?9192?9gcm@ 0000000000075e80     OpensslLib:obj_dat.obj
 0002:0000a110       ??_C@_0N@IBKKIGF@ARIA?9256?9GCM@ 0000000000075e90     OpensslLib:obj_dat.obj
 0002:0000a120       ??_C@_0N@GHGPHJBD@aria?9256?9gcm@ 0000000000075ea0     OpensslLib:obj_dat.obj
 0002:0000a130       ??_C@_09EEADMLEK@ffdhe2048@ 0000000000075eb0     OpensslLib:obj_dat.obj
 0002:0000a140       ??_C@_09IBMKLECJ@ffdhe3072@ 0000000000075ec0     OpensslLib:obj_dat.obj
 0002:0000a150       ??_C@_09FNBIIADH@ffdhe4096@ 0000000000075ed0     OpensslLib:obj_dat.obj
 0002:0000a160       ??_C@_09KFIKEFOD@ffdhe6144@ 0000000000075ee0     OpensslLib:obj_dat.obj
 0002:0000a170       ??_C@_09EEDIMPFH@ffdhe8192@ 0000000000075ef0     OpensslLib:obj_dat.obj
 0002:0000a17c       ??_C@_05BDNCIFGE@cmcCA@    0000000000075efc     OpensslLib:obj_dat.obj
 0002:0000a188       ??_C@_0BK@LBDJBFMP@CMC?5Certificate?5Authority@ 0000000000075f08     OpensslLib:obj_dat.obj
 0002:0000a1a4       ??_C@_05ODGEMCD@cmcRA@     0000000000075f24     OpensslLib:obj_dat.obj
 0002:0000a1b0       ??_C@_0BL@NBGEGOFM@CMC?5Registration?5Authority@ 0000000000075f30     OpensslLib:obj_dat.obj
 0002:0000a1d0       ??_C@_07NOELNIBF@SM4?9ECB@ 0000000000075f50     OpensslLib:obj_dat.obj
 0002:0000a1d8       ??_C@_07OFHLEOKD@sm4?9ecb@ 0000000000075f58     OpensslLib:obj_dat.obj
 0002:0000a1e0       ??_C@_07ODPJNMLP@SM4?9CBC@ 0000000000075f60     OpensslLib:obj_dat.obj
 0002:0000a1e8       ??_C@_07NIMJEKAJ@sm4?9cbc@ 0000000000075f68     OpensslLib:obj_dat.obj
 0002:0000a1f0       ??_C@_07LHDNPKJK@SM4?9OFB@ 0000000000075f70     OpensslLib:obj_dat.obj
 0002:0000a1f8       ??_C@_07IMANGMCM@sm4?9ofb@ 0000000000075f78     OpensslLib:obj_dat.obj
 0002:0000a200       ??_C@_08BDMAKNBD@SM4?9CFB1@ 0000000000075f80     OpensslLib:obj_dat.obj
 0002:0000a210       ??_C@_08DBPJILDM@sm4?9cfb1@ 0000000000075f90     OpensslLib:obj_dat.obj
 0002:0000a220       ??_C@_07PNOLEFCC@SM4?9CFB@ 0000000000075fa0     OpensslLib:obj_dat.obj
 0002:0000a228       ??_C@_07MGNLNDJE@sm4?9cfb@ 0000000000075fa8     OpensslLib:obj_dat.obj
 0002:0000a230       ??_C@_08MCACBGFK@SM4?9CFB8@ 0000000000075fb0     OpensslLib:obj_dat.obj
 0002:0000a240       ??_C@_08OADLDAHF@sm4?9cfb8@ 0000000000075fc0     OpensslLib:obj_dat.obj
 0002:0000a250       ??_C@_07KIILCAGN@SM4?9CTR@ 0000000000075fd0     OpensslLib:obj_dat.obj
 0002:0000a258       ??_C@_07JDLLLGNL@sm4?9ctr@ 0000000000075fd8     OpensslLib:obj_dat.obj
 0002:0000a260       ??_C@_06KNMHIDBL@ISO?9CN@  0000000000075fe0     OpensslLib:obj_dat.obj
 0002:0000a268       ??_C@_0BD@GLPDOOPB@ISO?5CN?5Member?5Body@ 0000000000075fe8     OpensslLib:obj_dat.obj
 0002:0000a27c       ??_C@_05BGAJAOLO@oscca@    0000000000075ffc     OpensslLib:obj_dat.obj
 0002:0000a288       ??_C@_09GAILPDAI@sm?9scheme@ 0000000000076008     OpensslLib:obj_dat.obj
 0002:0000a294       ??_C@_03ILCKPLAM@SM3@      0000000000076014     OpensslLib:obj_dat.obj
 0002:0000a298       ??_C@_03BDFFBCNC@sm3@      0000000000076018     OpensslLib:obj_dat.obj
 0002:0000a2a0       ??_C@_07DHCHMOJE@RSA?9SM3@ 0000000000076020     OpensslLib:obj_dat.obj
 0002:0000a2a8       ??_C@_0BF@LJEMNFBJ@sm3WithRSAEncryption@ 0000000000076028     OpensslLib:obj_dat.obj
 0002:0000a2c0       ??_C@_0P@BJPJCBFP@RSA?9SHA512?1224@ 0000000000076040     OpensslLib:obj_dat.obj
 0002:0000a2d0       ??_C@_0BM@OAMEHMHD@sha512?9224WithRSAEncryption@ 0000000000076050     OpensslLib:obj_dat.obj
 0002:0000a2f0       ??_C@_0P@COIAFFFI@RSA?9SHA512?1256@ 0000000000076070     OpensslLib:obj_dat.obj
 0002:0000a300       ??_C@_0BM@HFDENMBB@sha512?9256WithRSAEncryption@ 0000000000076080     OpensslLib:obj_dat.obj
 0002:0000a320       ??_C@_0CF@ELFGJJJE@id?9tc26?9gost?93410?92012?9256?9cons@ 00000000000760a0     OpensslLib:obj_dat.obj
 0002:0000a348       ??_C@_0CF@FBBBLKKL@id?9tc26?9gost?93410?92012?9256?9para@ 00000000000760c8     OpensslLib:obj_dat.obj
 0002:0000a370       ??_C@_0CH@KHJMDINL@GOST?5R?534?410?92012?5?$CI256?5bit?$CJ?5Par@ 00000000000760f0     OpensslLib:obj_dat.obj
 0002:0000a398       ??_C@_0CF@MFFFCDAA@id?9tc26?9gost?93410?92012?9512?9para@ 0000000000076118     OpensslLib:obj_dat.obj
 0002:0000a3c0       ??_C@_0CH@JGCOCGCO@GOST?5R?534?410?92012?5?$CI512?5bit?$CJ?5Par@ 0000000000076140     OpensslLib:obj_dat.obj
 0002:0000a3e8       ??_C@_06DCPEEABG@ISO?9UA@  0000000000076168     OpensslLib:obj_dat.obj
 0002:0000a3f0       ??_C@_06LNLILMPE@ua?9pki@  0000000000076170     OpensslLib:obj_dat.obj
 0002:0000a3f8       ??_C@_09LIAMILCI@dstu28147@ 0000000000076178     OpensslLib:obj_dat.obj
 0002:0000a408       ??_C@_0BF@BOFOAMLJ@DSTU?5Gost?528147?92009@ 0000000000076188     OpensslLib:obj_dat.obj
 0002:0000a420       ??_C@_0O@KAGMLFFF@dstu28147?9ofb@ 00000000000761a0     OpensslLib:obj_dat.obj
 0002:0000a430       ??_C@_0BO@NJFBFPDF@DSTU?5Gost?528147?92009?5OFB?5mode@ 00000000000761b0     OpensslLib:obj_dat.obj
 0002:0000a450       ??_C@_0O@OKLKAKON@dstu28147?9cfb@ 00000000000761d0     OpensslLib:obj_dat.obj
 0002:0000a460       ??_C@_0BO@DPGFKMCB@DSTU?5Gost?528147?92009?5CFB?5mode@ 00000000000761e0     OpensslLib:obj_dat.obj
 0002:0000a480       ??_C@_0P@LJDDBCOK@dstu28147?9wrap@ 0000000000076200     OpensslLib:obj_dat.obj
 0002:0000a490       ??_C@_0BO@GCIMDMBJ@DSTU?5Gost?528147?92009?5key?5wrap@ 0000000000076210     OpensslLib:obj_dat.obj
 0002:0000a4b0       ??_C@_0BC@NEKEGBFA@hmacWithDstu34311@ 0000000000076230     OpensslLib:obj_dat.obj
 0002:0000a4c8       ??_C@_0BI@PPEFMJDF@HMAC?5DSTU?5Gost?534311?995@ 0000000000076248     OpensslLib:obj_dat.obj
 0002:0000a4e0       ??_C@_09EMDIBIGK@dstu34311@ 0000000000076260     OpensslLib:obj_dat.obj
 0002:0000a4f0       ??_C@_0BD@KEGEMFDO@DSTU?5Gost?534311?995@ 0000000000076270     OpensslLib:obj_dat.obj
 0002:0000a508       ??_C@_0L@HJONHGCF@dstu4145le@ 0000000000076288     OpensslLib:obj_dat.obj
 0002:0000a518       ??_C@_0BN@DLDIMCIJ@DSTU?54145?92002?5little?5endian@ 0000000000076298     OpensslLib:obj_dat.obj
 0002:0000a538       ??_C@_0L@HDHDFLCP@dstu4145be@ 00000000000762b8     OpensslLib:obj_dat.obj
 0002:0000a548       ??_C@_0BK@JAHDELLE@DSTU?54145?92002?5big?5endian@ 00000000000762c8     OpensslLib:obj_dat.obj
 0002:0000a568       ??_C@_08CCOHEDD@uacurve0@  00000000000762e8     OpensslLib:obj_dat.obj
 0002:0000a578       ??_C@_0N@OIEODNOG@DSTU?5curve?50@ 00000000000762f8     OpensslLib:obj_dat.obj
 0002:0000a588       ??_C@_08BLDFEFHC@uacurve1@ 0000000000076308     OpensslLib:obj_dat.obj
 0002:0000a598       ??_C@_0N@PBFFAMKH@DSTU?5curve?51@ 0000000000076318     OpensslLib:obj_dat.obj
 0002:0000a5a8       ??_C@_08DABIBGLB@uacurve2@ 0000000000076328     OpensslLib:obj_dat.obj
 0002:0000a5b8       ??_C@_0N@NKHIFPGE@DSTU?5curve?52@ 0000000000076338     OpensslLib:obj_dat.obj
 0002:0000a5c8       ??_C@_08CJADCHPA@uacurve3@ 0000000000076348     OpensslLib:obj_dat.obj
 0002:0000a5d8       ??_C@_0N@MDGDGOCF@DSTU?5curve?53@ 0000000000076358     OpensslLib:obj_dat.obj
 0002:0000a5e8       ??_C@_08GGECLBDH@uacurve4@ 0000000000076368     OpensslLib:obj_dat.obj
 0002:0000a5f8       ??_C@_0N@IMCCPIOC@DSTU?5curve?54@ 0000000000076378     OpensslLib:obj_dat.obj
 0002:0000a608       ??_C@_08HPFJIAHG@uacurve5@ 0000000000076388     OpensslLib:obj_dat.obj
 0002:0000a618       ??_C@_0N@JFDJMJKD@DSTU?5curve?55@ 0000000000076398     OpensslLib:obj_dat.obj
 0002:0000a628       ??_C@_08FEHENDLF@uacurve6@ 00000000000763a8     OpensslLib:obj_dat.obj
 0002:0000a638       ??_C@_0N@LOBEJKGA@DSTU?5curve?56@ 00000000000763b8     OpensslLib:obj_dat.obj
 0002:0000a648       ??_C@_08ENGPOCPE@uacurve7@ 00000000000763c8     OpensslLib:obj_dat.obj
 0002:0000a658       ??_C@_0N@KHAPKLCB@DSTU?5curve?57@ 00000000000763d8     OpensslLib:obj_dat.obj
 0002:0000a668       ??_C@_08MKPHPODL@uacurve8@ 00000000000763e8     OpensslLib:obj_dat.obj
 0002:0000a678       ??_C@_0N@CAJHLHOO@DSTU?5curve?58@ 00000000000763f8     OpensslLib:obj_dat.obj
 0002:0000a688       ??_C@_08NDOMMPHK@uacurve9@ 0000000000076408     OpensslLib:obj_dat.obj
 0002:0000a698       ??_C@_0N@DJIMIGKP@DSTU?5curve?59@ 0000000000076418     OpensslLib:obj_dat.obj
 0002:0000a6a8       ??_C@_04PHJBIMMG@ieee@     0000000000076428     OpensslLib:obj_dat.obj
 0002:0000a6b0       ??_C@_0L@LDKGPNGG@ieee?9siswg@ 0000000000076430     OpensslLib:obj_dat.obj
 0002:0000a6c0       ??_C@_0CH@DHDAMGDO@IEEE?5Security?5in?5Storage?5Workin@ 0000000000076440     OpensslLib:obj_dat.obj
 0002:0000a6e8       ??_C@_03JCDBMKEN@SM2@      0000000000076468     OpensslLib:obj_dat.obj
 0002:0000a6ec       ??_C@_03KEOCDJD@sm2@       000000000007646c     OpensslLib:obj_dat.obj
 0002:0000a6f0       ??_C@_0CE@MLINIGJF@id?9tc26?9cipher?9gostr3412?92015?9m@ 0000000000076470     OpensslLib:obj_dat.obj
 0002:0000a718       ??_C@_0CN@OJMMMFNF@id?9tc26?9cipher?9gostr3412?92015?9m@ 0000000000076498     OpensslLib:obj_dat.obj
 0002:0000a748       ??_C@_0DC@HJFGIJEF@id?9tc26?9cipher?9gostr3412?92015?9m@ 00000000000764c8     OpensslLib:obj_dat.obj
 0002:0000a780       ??_C@_0CJ@OIMAFCDH@id?9tc26?9cipher?9gostr3412?92015?9k@ 0000000000076500     OpensslLib:obj_dat.obj
 0002:0000a7b0       ??_C@_0DC@FCNHEHI@id?9tc26?9cipher?9gostr3412?92015?9k@ 0000000000076530     OpensslLib:obj_dat.obj
 0002:0000a7e8       ??_C@_0DH@OMEPNOK@id?9tc26?9cipher?9gostr3412?92015?9k@ 0000000000076568     OpensslLib:obj_dat.obj
 0002:0000a820       ??_C@_0N@NOHKDKEG@id?9tc26?9wrap@ 00000000000765a0     OpensslLib:obj_dat.obj
 0002:0000a830       ??_C@_0CC@ICCBFKEK@id?9tc26?9wrap?9gostr3412?92015?9mag@ 00000000000765b0     OpensslLib:obj_dat.obj
 0002:0000a858       ??_C@_0CJ@GAGBMOFA@id?9tc26?9wrap?9gostr3412?92015?9mag@ 00000000000765d8     OpensslLib:obj_dat.obj
 0002:0000a888       ??_C@_0CH@HODOOMNG@id?9tc26?9wrap?9gostr3412?92015?9kuz@ 0000000000076608     OpensslLib:obj_dat.obj
 0002:0000a8b0       ??_C@_0CO@KKJKILDM@id?9tc26?9wrap?9gostr3412?92015?9kuz@ 0000000000076630     OpensslLib:obj_dat.obj
 0002:0000a8e0       ??_C@_0CF@HKDMOJGI@id?9tc26?9gost?93410?92012?9256?9para@ 0000000000076660     OpensslLib:obj_dat.obj
 0002:0000a908       ??_C@_0CH@IMLBGLBI@GOST?5R?534?410?92012?5?$CI256?5bit?$CJ?5Par@ 0000000000076688     OpensslLib:obj_dat.obj
 0002:0000a930       ??_C@_0CF@GDCHNICJ@id?9tc26?9gost?93410?92012?9256?9para@ 00000000000766b0     OpensslLib:obj_dat.obj
 0002:0000a958       ??_C@_0CH@JFKKFKFJ@GOST?5R?534?410?92012?5?$CI256?5bit?$CJ?5Par@ 00000000000766d8     OpensslLib:obj_dat.obj
 0002:0000a980       ??_C@_0CF@CMGGEOOO@id?9tc26?9gost?93410?92012?9256?9para@ 0000000000076700     OpensslLib:obj_dat.obj
 0002:0000a9a8       ??_C@_0CH@NKOLMMJO@GOST?5R?534?410?92012?5?$CI256?5bit?$CJ?5Par@ 0000000000076728     OpensslLib:obj_dat.obj
 0002:0000a9d0       ??_C@_09KIGAEFAO@magma?9ecb@ 0000000000076750     OpensslLib:obj_dat.obj
 0002:0000a9e0       ??_C@_09NOKALNHG@magma?9ctr@ 0000000000076760     OpensslLib:obj_dat.obj
 0002:0000a9f0       ??_C@_09MBBGGHIB@magma?9ofb@ 0000000000076770     OpensslLib:obj_dat.obj
 0002:0000aa00       ??_C@_09JFNCEBKE@magma?9cbc@ 0000000000076780     OpensslLib:obj_dat.obj
 0002:0000aa10       ??_C@_09ILMANIDJ@magma?9cfb@ 0000000000076790     OpensslLib:obj_dat.obj
 0002:0000aa20       ??_C@_09HHELIIMO@magma?9mac@ 00000000000767a0     OpensslLib:obj_dat.obj
 0002:0000aa30       ??_C@_0BD@EJFCDPF@hmacWithSHA512?9224@ 00000000000767b0     OpensslLib:obj_dat.obj
 0002:0000aa48       ??_C@_0BD@DDOMFHPC@hmacWithSHA512?9256@ 00000000000767c8     OpensslLib:obj_dat.obj
 0002:0001b958       X509_NAME_it               00000000000876d8     OpensslLib:x_name.obj
 0002:0001b988       ??_C@_06IEOJBDIK@object@   0000000000087708     OpensslLib:x_name.obj
 0002:0001b990       ??_C@_05MFEJDJP@value@     0000000000087710     OpensslLib:x_name.obj
 0002:0001b998       ??_C@_0BA@KEPIIMOE@X509_NAME_ENTRY@ 0000000000087718     OpensslLib:x_name.obj
 0002:0001b9a8       ??_C@_04IEOKPFHO@RDNS@     0000000000087728     OpensslLib:x_name.obj
 0002:0001b9b0       ??_C@_0BC@GJMCELDI@X509_NAME_ENTRIES@ 0000000000087730     OpensslLib:x_name.obj
 0002:0001b9c4       ??_C@_04FABLJDN@Name@      0000000000087744     OpensslLib:x_name.obj
 0002:0001b9d0       ??_C@_0BD@FDNDONGH@X509_NAME_INTERNAL@ 0000000000087750     OpensslLib:x_name.obj
 0002:0001b9e8       ??_C@_09KGNJKBNF@X509_NAME@ 0000000000087768     OpensslLib:x_name.obj
 0002:0001b9f4       ??_C@_02KEGNLNML@?0?5@     0000000000087774     OpensslLib:x_name.obj
 0002:0001ba60       X509_NAME_ENTRY_it         00000000000877e0     OpensslLib:x_name.obj
 0002:0001bb48       ??_C@_05DFCJAACA@name?$DN@ 00000000000878c8     OpensslLib:x509name.obj
 0002:0001bb50       ??_C@_01KICIPPFI@?2@       00000000000878d0     OpensslLib:a_strex.obj
 0002:0001bb54       ??_C@_02HDBGODGB@?2?2@     00000000000878d4     OpensslLib:a_strex.obj
 0002:0001bb58       ??_C@_01IPJKGB@?$CD@       00000000000878d8     OpensslLib:a_strex.obj
 0002:0001bb5c       ??_C@_01JLIPDDHJ@?3@       00000000000878dc     OpensslLib:a_strex.obj
 0002:0001bb60       ??_C@_01BJJEKLCA@?$CC@     00000000000878e0     OpensslLib:a_strex.obj
 0002:0001bb64       ??_C@_01EEMJAFIK@?6@       00000000000878e4     OpensslLib:a_strex.obj
 0002:0001bb68       ??_C@_03NPBFACHO@?5?$CL?5@ 00000000000878e8     OpensslLib:a_strex.obj
 0002:0001bb6c       ??_C@_01IHBHIGKO@?0@       00000000000878ec     OpensslLib:a_strex.obj
 0002:0001bb70       ??_C@_01MIFGBAGJ@?$CL@     00000000000878f0     OpensslLib:a_strex.obj
 0002:0001bb74       ??_C@_02LNAEAIDO@?$DL?5@   00000000000878f4     OpensslLib:a_strex.obj
 0002:0001bb78       ??_C@_03MHLONNLM@?5?$DN?5@ 00000000000878f8     OpensslLib:a_strex.obj
 0002:0001bb7c       ??_C@_01NEMOKFLO@?$DN@     00000000000878fc     OpensslLib:a_strex.obj
 0002:0001bca0       ??_C@_0BB@JGGOGLEG@0123456789ABCDEF@ 0000000000087a20     OpensslLib:f_int.obj
 0002:0001bcb8       RSAPublicKey_it            0000000000087a38     OpensslLib:rsa_asn1.obj
 0002:0001bce8       RSAPrivateKey_it           0000000000087a68     OpensslLib:rsa_asn1.obj
 0002:0001bd18       ??_C@_01KDCPPGHE@r@        0000000000087a98     OpensslLib:rsa_asn1.obj
 0002:0001bd1c       ??_C@_01LPLHEDKD@d@        0000000000087a9c     OpensslLib:rsa_asn1.obj
 0002:0001bd20       ??_C@_01PFHFFBPC@t@        0000000000087aa0     OpensslLib:rsa_asn1.obj
 0002:0001bd28       ??_C@_0P@LIGOHEON@RSA_PRIME_INFO@ 0000000000087aa8     OpensslLib:rsa_asn1.obj
 0002:0001bd38       ??_C@_01EFFIKLCJ@n@        0000000000087ab8     OpensslLib:rsa_asn1.obj
 0002:0001bd3c       ??_C@_01KGKMHCOC@e@        0000000000087abc     OpensslLib:rsa_asn1.obj
 0002:0001bd40       ??_C@_01JBBJJEPG@p@        0000000000087ac0     OpensslLib:rsa_asn1.obj
 0002:0001bd44       ??_C@_01IIACKFLH@q@        0000000000087ac4     OpensslLib:rsa_asn1.obj
 0002:0001bd48       ??_C@_04OIPJJFD@dmp1@      0000000000087ac8     OpensslLib:rsa_asn1.obj
 0002:0001bd50       ??_C@_04PENPDGE@dmq1@      0000000000087ad0     OpensslLib:rsa_asn1.obj
 0002:0001bd58       ??_C@_04BBEMPLKC@iqmp@     0000000000087ad8     OpensslLib:rsa_asn1.obj
 0002:0001bd60       ??_C@_0M@JLELLENH@prime_infos@ 0000000000087ae0     OpensslLib:rsa_asn1.obj
 0002:0001bd70       ??_C@_0O@PHAOOKLC@RSAPrivateKey@ 0000000000087af0     OpensslLib:rsa_asn1.obj
 0002:0001bd80       ??_C@_0N@BFBLLDFG@RSAPublicKey@ 0000000000087b00     OpensslLib:rsa_asn1.obj
 0002:0001bd90       ??_C@_0O@DHJLLKEK@hashAlgorithm@ 0000000000087b10     OpensslLib:rsa_asn1.obj
 0002:0001bda0       ??_C@_0BB@KKPGFJED@maskGenAlgorithm@ 0000000000087b20     OpensslLib:rsa_asn1.obj
 0002:0001bdb8       ??_C@_0L@PKGNFOCE@saltLength@ 0000000000087b38     OpensslLib:rsa_asn1.obj
 0002:0001bdc8       ??_C@_0N@KGDDKMLA@trailerField@ 0000000000087b48     OpensslLib:rsa_asn1.obj
 0002:0001bdd8       ??_C@_0P@PJJHDFJB@RSA_PSS_PARAMS@ 0000000000087b58     OpensslLib:rsa_asn1.obj
 0002:0001bfc8       RSA_PRIME_INFO_it          0000000000087d48     OpensslLib:rsa_asn1.obj
 0002:0001c0a0       RSA_PSS_PARAMS_it          0000000000087e20     OpensslLib:rsa_asn1.obj
 0002:0001c230       ASN1_OBJECT_it             0000000000087fb0     OpensslLib:tasn_typ.obj
 0002:0001c260       ASN1_OCTET_STRING_it       0000000000087fe0     OpensslLib:tasn_typ.obj
 0002:0001c290       ASN1_GENERALIZEDTIME_it    0000000000088010     OpensslLib:tasn_typ.obj
 0002:0001c2c0       ASN1_FBOOLEAN_it           0000000000088040     OpensslLib:tasn_typ.obj
 0002:0001c2f0       ASN1_INTEGER_it            0000000000088070     OpensslLib:tasn_typ.obj
 0002:0001c320       ASN1_BIT_STRING_it         00000000000880a0     OpensslLib:tasn_typ.obj
 0002:0001c350       ASN1_OCTET_STRING_NDEF_it  00000000000880d0     OpensslLib:tasn_typ.obj
 0002:0001c380       ASN1_ANY_it                0000000000088100     OpensslLib:tasn_typ.obj
 0002:0001c3b0       ASN1_PRINTABLE_it          0000000000088130     OpensslLib:tasn_typ.obj
 0002:0001c3e0       ??_C@_0BC@PEBEKNCO@ASN1_OCTET_STRING@ 0000000000088160     OpensslLib:tasn_typ.obj
 0002:0001c3f8       ??_C@_0N@KIGEHGKE@ASN1_INTEGER@ 0000000000088178     OpensslLib:tasn_typ.obj
 0002:0001c408       ??_C@_0BA@CLGIIAJD@ASN1_ENUMERATED@ 0000000000088188     OpensslLib:tasn_typ.obj
 0002:0001c418       ??_C@_0BA@LJHGDIKH@ASN1_BIT_STRING@ 0000000000088198     OpensslLib:tasn_typ.obj
 0002:0001c428       ??_C@_0BA@LEPDCAOC@ASN1_UTF8STRING@ 00000000000881a8     OpensslLib:tasn_typ.obj
 0002:0001c438       ??_C@_0BF@CPDMNKCA@ASN1_PRINTABLESTRING@ 00000000000881b8     OpensslLib:tasn_typ.obj
 0002:0001c450       ??_C@_0P@KBFNFBLB@ASN1_IA5STRING@ 00000000000881d0     OpensslLib:tasn_typ.obj
 0002:0001c460       ??_C@_0BF@MPJFOIHC@ASN1_GENERALIZEDTIME@ 00000000000881e0     OpensslLib:tasn_typ.obj
 0002:0001c478       ??_C@_09NHFFCPKK@ASN1_NULL@ 00000000000881f8     OpensslLib:tasn_typ.obj
 0002:0001c488       ??_C@_0M@BJNOJGBL@ASN1_OBJECT@ 0000000000088208     OpensslLib:tasn_typ.obj
 0002:0001c498       ??_C@_08FIDCPDIJ@ASN1_ANY@ 0000000000088218     OpensslLib:tasn_typ.obj
 0002:0001c4a8       ??_C@_0O@NJFCFMGE@ASN1_SEQUENCE@ 0000000000088228     OpensslLib:tasn_typ.obj
 0002:0001c4b8       ??_C@_0P@NDKOCAEJ@ASN1_PRINTABLE@ 0000000000088238     OpensslLib:tasn_typ.obj
 0002:0001c4c8       ??_C@_0M@FANFDIEE@DISPLAYTEXT@ 0000000000088248     OpensslLib:tasn_typ.obj
 0002:0001c4d8       ??_C@_0BA@CBHCBCAE@DIRECTORYSTRING@ 0000000000088258     OpensslLib:tasn_typ.obj
 0002:0001c4e8       ??_C@_0N@HMAPMMGF@ASN1_BOOLEAN@ 0000000000088268     OpensslLib:tasn_typ.obj
 0002:0001c4f8       ??_C@_0O@JKANHMPI@ASN1_FBOOLEAN@ 0000000000088278     OpensslLib:tasn_typ.obj
 0002:0001c508       ??_C@_0BH@HEBAELGA@ASN1_OCTET_STRING_NDEF@ 0000000000088288     OpensslLib:tasn_typ.obj
 0002:0001c520       ??_C@_0BC@COPGMDLD@ASN1_SEQUENCE_ANY@ 00000000000882a0     OpensslLib:tasn_typ.obj
 0002:0001c538       ??_C@_0N@KHICOJGI@ASN1_SET_ANY@ 00000000000882b8     OpensslLib:tasn_typ.obj
 0002:0001c548       ASN1_NULL_it               00000000000882c8     OpensslLib:tasn_typ.obj
 0002:0001c578       ASN1_SEQUENCE_ANY_it       00000000000882f8     OpensslLib:tasn_typ.obj
 0002:0001c5a8       ASN1_ENUMERATED_it         0000000000088328     OpensslLib:tasn_typ.obj
 0002:0001c5f8       ASN1_BOOLEAN_it            0000000000088378     OpensslLib:tasn_typ.obj
 0002:0001c628       ASN1_UTF8STRING_it         00000000000883a8     OpensslLib:tasn_typ.obj
 0002:0001c658       ASN1_SET_ANY_it            00000000000883d8     OpensslLib:tasn_typ.obj
 0002:0001c6a8       ASN1_PRINTABLESTRING_it    0000000000088428     OpensslLib:tasn_typ.obj
 0002:0001c6d8       ASN1_IA5STRING_it          0000000000088458     OpensslLib:tasn_typ.obj
 0002:0001c708       DIRECTORYSTRING_it         0000000000088488     OpensslLib:tasn_typ.obj
 0002:0001c738       ASN1_SEQUENCE_it           00000000000884b8     OpensslLib:tasn_typ.obj
 0002:0001c768       DISPLAYTEXT_it             00000000000884e8     OpensslLib:tasn_typ.obj
 0002:0001c798       ??_C@_07NHKPEHKF@?0?5Type?$DN@ 0000000000088518     OpensslLib:tasn_dec.obj
 0002:0001c7a0       ??_C@_06GPKHKFJE@Field?$DN@ 0000000000088520     OpensslLib:tasn_dec.obj
 0002:0001c7a8       ??_C@_05GCCLHHOK@Type?$DN@ 0000000000088528     OpensslLib:tasn_dec.obj
 0002:0001c830       X509_ALGOR_it              00000000000885b0     OpensslLib:x_algor.obj
 0002:0001c860       ??_C@_09DAGAJHIH@parameter@ 00000000000885e0     OpensslLib:x_algor.obj
 0002:0001c870       ??_C@_0L@BFHONDPK@X509_ALGOR@ 00000000000885f0     OpensslLib:x_algor.obj
 0002:0001c8c0       X509_EXTENSION_it          0000000000088640     OpensslLib:x_exten.obj
 0002:0001c8f0       ??_C@_08CBBMEOFB@critical@ 0000000000088670     OpensslLib:x_exten.obj
 0002:0001c900       ??_C@_0P@OMHBNPIC@X509_EXTENSION@ 0000000000088680     OpensslLib:x_exten.obj
 0002:0001c970       GENERAL_NAME_it            00000000000886f0     OpensslLib:v3_genn.obj
 0002:0001c9a0       ??_C@_07EEDOJOAA@type_id@  0000000000088720     OpensslLib:v3_genn.obj
 0002:0001c9a8       ??_C@_09MAFAINAH@OTHERNAME@ 0000000000088728     OpensslLib:v3_genn.obj
 0002:0001c9b8       ??_C@_0N@KBFEHHDO@nameAssigner@ 0000000000088738     OpensslLib:v3_genn.obj
 0002:0001c9c8       ??_C@_09EHIHAIPF@partyName@ 0000000000088748     OpensslLib:v3_genn.obj
 0002:0001c9d8       ??_C@_0N@GEILLNKP@EDIPARTYNAME@ 0000000000088758     OpensslLib:v3_genn.obj
 0002:0001c9e8       ??_C@_0M@FGIBMCEL@d?4otherName@ 0000000000088768     OpensslLib:v3_genn.obj
 0002:0001c9f8       ??_C@_0N@MMCCMIPN@d?4rfc822Name@ 0000000000088778     OpensslLib:v3_genn.obj
 0002:0001ca08       ??_C@_09HIBJABFB@d?4dNSName@ 0000000000088788     OpensslLib:v3_genn.obj
 0002:0001ca18       ??_C@_0O@NKHOODFK@d?4x400Address@ 0000000000088798     OpensslLib:v3_genn.obj
 0002:0001ca28       ??_C@_0BA@JLDFBFLN@d?4directoryName@ 00000000000887a8     OpensslLib:v3_genn.obj
 0002:0001ca38       ??_C@_0P@OBCPPLOL@d?4ediPartyName@ 00000000000887b8     OpensslLib:v3_genn.obj
 0002:0001ca48       ??_C@_0BM@CMCMADCA@d?4uniformResourceIdentifier@ 00000000000887c8     OpensslLib:v3_genn.obj
 0002:0001ca68       ??_C@_0M@PANAALJB@d?4iPAddress@ 00000000000887e8     OpensslLib:v3_genn.obj
 0002:0001ca78       ??_C@_0P@KIENIEMD@d?4registeredID@ 00000000000887f8     OpensslLib:v3_genn.obj
 0002:0001ca88       ??_C@_0N@JCNPGCGM@GENERAL_NAME@ 0000000000088808     OpensslLib:v3_genn.obj
 0002:0001ca98       ??_C@_0N@CJKIBDLK@GeneralNames@ 0000000000088818     OpensslLib:v3_genn.obj
 0002:0001caa8       ??_C@_0O@NFAAPMIG@GENERAL_NAMES@ 0000000000088828     OpensslLib:v3_genn.obj
 0002:0001cab8       OTHERNAME_it               0000000000088838     OpensslLib:v3_genn.obj
 0002:0001cb90       GENERAL_NAMES_it           0000000000088910     OpensslLib:v3_genn.obj
 0002:0001cbc0       EDIPARTYNAME_it            0000000000088940     OpensslLib:v3_genn.obj
 0002:0001cd10       ??_C@_06CBHGEMFM@?$DMNULL?$DO@ 0000000000088a90     OpensslLib:err.obj
 0002:0001cd18       ??_C@_0L@IMDPAGCM@ssl_client@ 0000000000088a98     OpensslLib:x509_vpm.obj
 0002:0001cd28       ??_C@_0L@MDHNNNKP@ssl_server@ 0000000000088aa8     OpensslLib:x509_vpm.obj
 0002:0001cf48       X509_CRL_it                0000000000088cc8     OpensslLib:x_crl.obj
 0002:0001cf78       X509_CRL_INFO_it           0000000000088cf8     OpensslLib:x_crl.obj
 0002:0001cfa8       ??_C@_0P@HBDMPDNI@revocationDate@ 0000000000088d28     OpensslLib:x_crl.obj
 0002:0001cfb8       ??_C@_0N@JBPKOADN@X509_REVOKED@ 0000000000088d38     OpensslLib:x_crl.obj
 0002:0001cfc8       ??_C@_0L@MPDCJAIM@lastUpdate@ 0000000000088d48     OpensslLib:x_crl.obj
 0002:0001cfd8       ??_C@_0L@BMOABHOK@nextUpdate@ 0000000000088d58     OpensslLib:x_crl.obj
 0002:0001cfe8       ??_C@_07MIJFAMBD@revoked@  0000000000088d68     OpensslLib:x_crl.obj
 0002:0001cff0       ??_C@_0O@IMOAEKCP@X509_CRL_INFO@ 0000000000088d70     OpensslLib:x_crl.obj
 0002:0001d000       ??_C@_08JGFBPDAP@X509_CRL@ 0000000000088d80     OpensslLib:x_crl.obj
 0002:0001d010       X509_REVOKED_it            0000000000088d90     OpensslLib:x_crl.obj
 0002:0001d230       ??_C@_0L@LCHPILLE@SSL?5client@ 0000000000088fb0     OpensslLib:v3_purp.obj
 0002:0001d240       ??_C@_09BLMJDCHK@sslclient@ 0000000000088fc0     OpensslLib:v3_purp.obj
 0002:0001d250       ??_C@_0L@PNDNFADH@SSL?5server@ 0000000000088fd0     OpensslLib:v3_purp.obj
 0002:0001d260       ??_C@_09FEILOJPJ@sslserver@ 0000000000088fe0     OpensslLib:v3_purp.obj
 0002:0001d270       ??_C@_0BE@BPEJPGJG@Netscape?5SSL?5server@ 0000000000088ff0     OpensslLib:v3_purp.obj
 0002:0001d288       ??_C@_0M@GKHHMMAE@nssslserver@ 0000000000089008     OpensslLib:v3_purp.obj
 0002:0001d298       ??_C@_0P@LNDEBCCO@S?1MIME?5signing@ 0000000000089018     OpensslLib:v3_purp.obj
 0002:0001d2a8       ??_C@_09JPGBHOKH@smimesign@ 0000000000089028     OpensslLib:v3_purp.obj
 0002:0001d2b8       ??_C@_0BC@DOGNOPGC@S?1MIME?5encryption@ 0000000000089038     OpensslLib:v3_purp.obj
 0002:0001d2d0       ??_C@_0N@BPFJELMP@smimeencrypt@ 0000000000089050     OpensslLib:v3_purp.obj
 0002:0001d2e0       ??_C@_0M@MEKLJHLA@CRL?5signing@ 0000000000089060     OpensslLib:v3_purp.obj
 0002:0001d2f0       ??_C@_07IOMCDAPH@crlsign@  0000000000089070     OpensslLib:v3_purp.obj
 0002:0001d2f8       ??_C@_0M@NMNFLNDB@Any?5Purpose@ 0000000000089078     OpensslLib:v3_purp.obj
 0002:0001d304       ??_C@_03OBJFJEBA@any@      0000000000089084     OpensslLib:v3_purp.obj
 0002:0001d308       ??_C@_0M@NEPIMEJA@OCSP?5helper@ 0000000000089088     OpensslLib:v3_purp.obj
 0002:0001d318       ??_C@_0L@IMHCEJBK@ocsphelper@ 0000000000089098     OpensslLib:v3_purp.obj
 0002:0001d328       ??_C@_0BD@HLGKGIIB@Time?5Stamp?5signing@ 00000000000890a8     OpensslLib:v3_purp.obj
 0002:0001d340       ??_C@_0O@MABGKINF@timestampsign@ 00000000000890c0     OpensslLib:v3_purp.obj
 0002:0001d380       ??_C@_0N@MJCHLFGM@NO?5X509_NAME@ 0000000000089100     OpensslLib:x509_obj.obj
 0002:0001d390       X509_PUBKEY_it             0000000000089110     OpensslLib:x_pubkey.obj
 0002:0001d3c0       ??_C@_05CJCEEADM@algor@    0000000000089140     OpensslLib:x_pubkey.obj
 0002:0001d3c8       ??_C@_0L@PJCANJEE@public_key@ 0000000000089148     OpensslLib:x_pubkey.obj
 0002:0001d3d8       ??_C@_0M@INJPOKDH@X509_PUBKEY@ 0000000000089158     OpensslLib:x_pubkey.obj
 0002:0001d450       ASN1_TIME_it               00000000000891d0     OpensslLib:a_time.obj
 0002:0001d480       ??_C@_09DHMKJJNA@ASN1_TIME@ 0000000000089200     OpensslLib:a_time.obj
 0002:0001d490       ??_C@_0BK@EMDNDBLP@?$CF04d?$CF02d?$CF02d?$CF02d?$CF02d?$CF02dZ@ 0000000000089210     OpensslLib:a_time.obj
 0002:0001d4b0       ??_C@_0BK@PMAAGDOP@?$CF02d?$CF02d?$CF02d?$CF02d?$CF02d?$CF02dZ@ 0000000000089230     OpensslLib:a_time.obj
 0002:0001d4cc       ??_C@_04FIEKMBKB@?5GMT@    000000000008924c     OpensslLib:a_time.obj
 0002:0001d4d8       ??_C@_0BP@OGIOIJMK@?$CFs?5?$CF2d?5?$CF02d?3?$CF02d?3?$CF02d?$CF?4?$CKs?5?$CFd?$CFs@ 0000000000089258     OpensslLib:a_time.obj
 0002:0001d4f8       ??_C@_0BL@NKCHLFNC@?$CFs?5?$CF2d?5?$CF02d?3?$CF02d?3?$CF02d?5?$CFd?$CFs@ 0000000000089278     OpensslLib:a_time.obj
 0002:0001d518       ??_C@_0P@FGACABCD@Bad?5time?5value@ 0000000000089298     OpensslLib:a_time.obj
 0002:0001d620       ??_C@_04HCDDPBNL@TRUE@     00000000000893a0     OpensslLib:v3_utl.obj
 0002:0001d628       ??_C@_05MAJJAKPI@FALSE@    00000000000893a8     OpensslLib:v3_utl.obj
 0002:0001d630       ??_C@_03EPGOEBGO@?90x@     00000000000893b0     OpensslLib:v3_utl.obj
 0002:0001d634       ??_C@_02MDDDDAID@0x@       00000000000893b4     OpensslLib:v3_utl.obj
 0002:0001d638       ??_C@_04LOAJBDKD@true@     00000000000893b8     OpensslLib:v3_utl.obj
 0002:0001d640       ??_C@_01NFFPALBN@Y@        00000000000893c0     OpensslLib:v3_utl.obj
 0002:0001d644       ??_C@_01EANLCPLP@y@        00000000000893c4     OpensslLib:v3_utl.obj
 0002:0001d648       ??_C@_03IPHJCBHH@YES@      00000000000893c8     OpensslLib:v3_utl.obj
 0002:0001d64c       ??_C@_03ICICOMAL@yes@      00000000000893cc     OpensslLib:v3_utl.obj
 0002:0001d650       ??_C@_05LAPONLG@false@     00000000000893d0     OpensslLib:v3_utl.obj
 0002:0001d658       ??_C@_01NANMIPIL@N@        00000000000893d8     OpensslLib:v3_utl.obj
 0002:0001d65c       ??_C@_02NFLNFON@NO@        00000000000893dc     OpensslLib:v3_utl.obj
 0002:0001d660       ??_C@_02KAJCLHKP@no@       00000000000893e0     OpensslLib:v3_utl.obj
 0002:0001d668       ??_C@_07BDICHDDB@?0value?3@ 00000000000893e8     OpensslLib:v3_utl.obj
 0002:0001d670       ??_C@_06FONLLLNC@?0name?3@ 00000000000893f0     OpensslLib:v3_utl.obj
 0002:0001d678       ??_C@_08PCLJGJAL@section?3@ 00000000000893f8     OpensslLib:v3_utl.obj
 0002:0001d684       ??_C@_04DLDJKMIA@xn?9?9@   0000000000089404     OpensslLib:v3_utl.obj
 0002:0001d690       ??_C@_0M@PCENNPGA@?$CFd?4?$CFd?4?$CFd?4?$CFd@ 0000000000089410     OpensslLib:v3_utl.obj
 0002:0001d6a0       ??_C@_0L@JNOGJJCA@compatible@ 0000000000089420     OpensslLib:x509_trs.obj
 0002:0001d6b0       ??_C@_0L@HNMCLCCI@SSL?5Client@ 0000000000089430     OpensslLib:x509_trs.obj
 0002:0001d6c0       ??_C@_0L@DCIAGJKL@SSL?5Server@ 0000000000089440     OpensslLib:x509_trs.obj
 0002:0001d6d0       ??_C@_0N@OEEPKGPL@S?1MIME?5email@ 0000000000089450     OpensslLib:x509_trs.obj
 0002:0001d6e0       ??_C@_0O@EEPBMPKP@Object?5Signer@ 0000000000089460     OpensslLib:x509_trs.obj
 0002:0001d6f0       ??_C@_0P@JHCOMJOI@OCSP?5responder@ 0000000000089470     OpensslLib:x509_trs.obj
 0002:0001d700       ??_C@_0N@CAJJAOJD@OCSP?5request@ 0000000000089480     OpensslLib:x509_trs.obj
 0002:0001d710       ??_C@_0L@CFEJKCOD@TSA?5server@ 0000000000089490     OpensslLib:x509_trs.obj
 0002:0001d71c       ??_C@_04BHIIPFEC@base@     000000000008949c     OpensslLib:v3_ncons.obj
 0002:0001d728       ??_C@_07CCOEHHFD@minimum@  00000000000894a8     OpensslLib:v3_ncons.obj
 0002:0001d730       ??_C@_07MEIENILC@maximum@  00000000000894b0     OpensslLib:v3_ncons.obj
 0002:0001d738       ??_C@_0BA@ECMIFHDE@GENERAL_SUBTREE@ 00000000000894b8     OpensslLib:v3_ncons.obj
 0002:0001d748       ??_C@_0BC@FACFJLFB@permittedSubtrees@ 00000000000894c8     OpensslLib:v3_ncons.obj
 0002:0001d760       ??_C@_0BB@HLFEMJKE@excludedSubtrees@ 00000000000894e0     OpensslLib:v3_ncons.obj
 0002:0001d778       ??_C@_0BB@MLLJAFMN@NAME_CONSTRAINTS@ 00000000000894f8     OpensslLib:v3_ncons.obj
 0002:0001d790       ??_C@_09HAKFOFAM@permitted@ 0000000000089510     OpensslLib:v3_ncons.obj
 0002:0001d7a0       ??_C@_08HPCEJEEF@excluded@ 0000000000089520     OpensslLib:v3_ncons.obj
 0002:0001d7b0       ??_C@_09DPPIOGNM@Permitted@ 0000000000089530     OpensslLib:v3_ncons.obj
 0002:0001d7c0       ??_C@_08PNNFBGOG@Excluded@ 0000000000089540     OpensslLib:v3_ncons.obj
 0002:0001d7d0       ??_C@_07GOIIHCND@?$CF?$CKs?$CFs?3?6@ 0000000000089550     OpensslLib:v3_ncons.obj
 0002:0001d7d8       ??_C@_03HIJPJGOM@?$CF?$CKs@ 0000000000089558     OpensslLib:v3_ncons.obj
 0002:0001d7dc       ??_C@_03HBLCMHJN@IP?3@     000000000008955c     OpensslLib:v3_ncons.obj
 0002:0001d7e0       ??_C@_01KMDKNFGN@?1@       0000000000089560     OpensslLib:v3_ncons.obj
 0002:0001d830       v3_name_constraints        00000000000895b0     OpensslLib:v3_ncons.obj
 0002:0001d898       NAME_CONSTRAINTS_it        0000000000089618     OpensslLib:v3_ncons.obj
 0002:0001d930       GENERAL_SUBTREE_it         00000000000896b0     OpensslLib:v3_ncons.obj
 0002:0001da60       ??_C@_08CENLBPEH@onlyuser@ 00000000000897e0     OpensslLib:v3_crld.obj
 0002:0001da6c       ??_C@_06PMNIEKCA@onlyCA@   00000000000897ec     OpensslLib:v3_crld.obj
 0002:0001da78       ??_C@_0BA@FNMBIJDN@onlysomereasons@ 00000000000897f8     OpensslLib:v3_crld.obj
 0002:0001da88       ??_C@_0M@BECDICJC@indirectCRL@ 0000000000089808     OpensslLib:v3_crld.obj
 0002:0001da98       ??_C@_08DBIINPPL@onlyattr@ 0000000000089818     OpensslLib:v3_crld.obj
 0002:0001daa8       ??_C@_0BD@ENBCPHJ@ISSUING_DIST_POINT@ 0000000000089828     OpensslLib:v3_crld.obj
 0002:0001dabc       ??_C@_06PPFMJOEO@onlyAA@   000000000008983c     OpensslLib:v3_crld.obj
 0002:0001dbb0       DIST_POINT_it              0000000000089930     OpensslLib:v3_crld.obj
 0002:0001dbe0       v3_crld                    0000000000089960     OpensslLib:v3_crld.obj
 0002:0001dc48       DIST_POINT_NAME_it         00000000000899c8     OpensslLib:v3_crld.obj
 0002:0001dd70       ISSUING_DIST_POINT_it      0000000000089af0     OpensslLib:v3_crld.obj
 0002:0001dda0       v3_freshest_crl            0000000000089b20     OpensslLib:v3_crld.obj
 0002:0001de50       v3_idp                     0000000000089bd0     OpensslLib:v3_crld.obj
 0002:0001df20       CRL_DIST_POINTS_it         0000000000089ca0     OpensslLib:v3_crld.obj
 0002:0001df78       ??_C@_08BMACPLOA@fullname@ 0000000000089cf8     OpensslLib:v3_crld.obj
 0002:0001df88       ??_C@_0N@LGEOMMHB@relativename@ 0000000000089d08     OpensslLib:v3_crld.obj
 0002:0001df98       ??_C@_06CGLFEPBO@Unused@   0000000000089d18     OpensslLib:v3_crld.obj
 0002:0001dfa0       ??_C@_06OJAIHGIC@unused@   0000000000089d20     OpensslLib:v3_crld.obj
 0002:0001dfa8       ??_C@_0P@JENDIECI@Key?5Compromise@ 0000000000089d28     OpensslLib:v3_crld.obj
 0002:0001dfb8       ??_C@_0O@MCEAAJLH@keyCompromise@ 0000000000089d38     OpensslLib:v3_crld.obj
 0002:0001dfc8       ??_C@_0O@OOGICOKH@CA?5Compromise@ 0000000000089d48     OpensslLib:v3_crld.obj
 0002:0001dfd8       ??_C@_0N@NONEFGOE@CACompromise@ 0000000000089d58     OpensslLib:v3_crld.obj
 0002:0001dfe8       ??_C@_0BE@EECEIFAP@Affiliation?5Changed@ 0000000000089d68     OpensslLib:v3_crld.obj
 0002:0001e000       ??_C@_0BD@BNOFAJLL@affiliationChanged@ 0000000000089d80     OpensslLib:v3_crld.obj
 0002:0001e018       ??_C@_0L@FBLGFHIM@Superseded@ 0000000000089d98     OpensslLib:v3_crld.obj
 0002:0001e028       ??_C@_0L@NHCKNIFL@superseded@ 0000000000089da8     OpensslLib:v3_crld.obj
 0002:0001e038       ??_C@_0BH@OLCOAMGF@Cessation?5Of?5Operation@ 0000000000089db8     OpensslLib:v3_crld.obj
 0002:0001e050       ??_C@_0BF@IGJCOPF@cessationOfOperation@ 0000000000089dd0     OpensslLib:v3_crld.obj
 0002:0001e068       ??_C@_0BB@IPDHDNJD@Certificate?5Hold@ 0000000000089de8     OpensslLib:v3_crld.obj
 0002:0001e080       ??_C@_0BA@FBHLCNLK@certificateHold@ 0000000000089e00     OpensslLib:v3_crld.obj
 0002:0001e090       ??_C@_0BE@FJCCMGMM@Privilege?5Withdrawn@ 0000000000089e10     OpensslLib:v3_crld.obj
 0002:0001e0a8       ??_C@_0BD@PBLGJKCE@privilegeWithdrawn@ 0000000000089e28     OpensslLib:v3_crld.obj
 0002:0001e0c0       ??_C@_0O@PAGOKAK@AA?5Compromise@ 0000000000089e40     OpensslLib:v3_crld.obj
 0002:0001e0d0       ??_C@_0N@LOIIODKP@AACompromise@ 0000000000089e50     OpensslLib:v3_crld.obj
 0002:0001e0e0       ??_C@_08DGFAABGD@?$DMEMPTY?$DO?6@ 0000000000089e60     OpensslLib:v3_crld.obj
 0002:0001e0f0       ??_C@_07PFOCLIJD@reasons@  0000000000089e70     OpensslLib:v3_crld.obj
 0002:0001e0f8       ??_C@_09GJHADLCP@CRLissuer@ 0000000000089e78     OpensslLib:v3_crld.obj
 0002:0001e108       ??_C@_0O@HJHJCLAE@name?4fullname@ 0000000000089e88     OpensslLib:v3_crld.obj
 0002:0001e118       ??_C@_0BC@JDMJBKME@name?4relativename@ 0000000000089e98     OpensslLib:v3_crld.obj
 0002:0001e130       ??_C@_0BA@MLHIPLLG@DIST_POINT_NAME@ 0000000000089eb0     OpensslLib:v3_crld.obj
 0002:0001e140       ??_C@_09FBDFGJDL@distpoint@ 0000000000089ec0     OpensslLib:v3_crld.obj
 0002:0001e150       ??_C@_0L@ELIKPJIH@DIST_POINT@ 0000000000089ed0     OpensslLib:v3_crld.obj
 0002:0001e160       ??_C@_0BG@CHNNADAE@CRLDistributionPoints@ 0000000000089ee0     OpensslLib:v3_crld.obj
 0002:0001e178       ??_C@_0BA@BBHAIMOE@CRL_DIST_POINTS@ 0000000000089ef8     OpensslLib:v3_crld.obj
 0002:0001e188       ??_C@_05BMJJJIHB@trust@    0000000000089f08     OpensslLib:x_x509a.obj
 0002:0001e190       ??_C@_06JPOFNODM@reject@   0000000000089f10     OpensslLib:x_x509a.obj
 0002:0001e198       ??_C@_05NKHOCLEE@alias@    0000000000089f18     OpensslLib:x_x509a.obj
 0002:0001e1a0       ??_C@_05CNHMOIOC@keyid@    0000000000089f20     OpensslLib:x_x509a.obj
 0002:0001e1a8       ??_C@_05BGEKGIIP@other@    0000000000089f28     OpensslLib:x_x509a.obj
 0002:0001e1b0       ??_C@_0O@LJIIOIG@X509_CERT_AUX@ 0000000000089f30     OpensslLib:x_x509a.obj
 0002:0001e260       X509_CERT_AUX_it           0000000000089fe0     OpensslLib:x_x509a.obj
 0002:0001e290       ??_C@_0BA@OPHCNPAP@AUTHORITY_KEYID@ 000000000008a010     OpensslLib:v3_akeya.obj
 0002:0001e2a0       AUTHORITY_KEYID_it         000000000008a020     OpensslLib:v3_akeya.obj
 0002:0001e330       ??_C@_09MJPOMOII@notBefore@ 000000000008a0b0     OpensslLib:x_val.obj
 0002:0001e340       ??_C@_08PJIFIJBI@notAfter@ 000000000008a0c0     OpensslLib:x_val.obj
 0002:0001e350       ??_C@_08OPPGEJIL@X509_VAL@ 000000000008a0d0     OpensslLib:x_val.obj
 0002:0001e3a0       X509_VAL_it                000000000008a120     OpensslLib:x_val.obj
 0002:0001e3d0       ??_C@_02DKCKIIND@?$CFs@    000000000008a150     OpensslLib:asn_mime.obj
 0002:0001e3d4       ??_C@_02MFDMBIJM@ok@       000000000008a154     OpensslLib:x509_txt.obj
 0002:0001e3d8       ??_C@_0CL@ICDMHEOH@unspecified?5certificate?5verific@ 000000000008a158     OpensslLib:x509_txt.obj
 0002:0001e408       ??_C@_0CB@KFJODNFN@unable?5to?5get?5issuer?5certificat@ 000000000008a188     OpensslLib:x509_txt.obj
 0002:0001e430       ??_C@_0BO@CIOBDJGN@unable?5to?5get?5certificate?5CRL@ 000000000008a1b0     OpensslLib:x509_txt.obj
 0002:0001e450       ??_C@_0CK@LBDBBNHI@unable?5to?5decrypt?5certificate?8s@ 000000000008a1d0     OpensslLib:x509_txt.obj
 0002:0001e480       ??_C@_0CC@KFEPDDPF@unable?5to?5decrypt?5CRL?8s?5signatu@ 000000000008a200     OpensslLib:x509_txt.obj
 0002:0001e4a8       ??_C@_0CD@KOEKDJOF@unable?5to?5decode?5issuer?5public?5@ 000000000008a228     OpensslLib:x509_txt.obj
 0002:0001e4d0       ??_C@_0BO@FPBBKLNG@certificate?5signature?5failure@ 000000000008a250     OpensslLib:x509_txt.obj
 0002:0001e4f0       ??_C@_0BG@PKEGLGEB@CRL?5signature?5failure@ 000000000008a270     OpensslLib:x509_txt.obj
 0002:0001e508       ??_C@_0BN@JFLHFAGA@certificate?5is?5not?5yet?5valid@ 000000000008a288     OpensslLib:x509_txt.obj
 0002:0001e528       ??_C@_0BI@HHICNLNC@certificate?5has?5expired@ 000000000008a2a8     OpensslLib:x509_txt.obj
 0002:0001e540       ??_C@_0BF@MIBPKMEH@CRL?5is?5not?5yet?5valid@ 000000000008a2c0     OpensslLib:x509_txt.obj
 0002:0001e558       ??_C@_0BA@JMGDIGAP@CRL?5has?5expired@ 000000000008a2d8     OpensslLib:x509_txt.obj
 0002:0001e568       ??_C@_0CO@BGGBNHHG@format?5error?5in?5certificate?8s?5n@ 000000000008a2e8     OpensslLib:x509_txt.obj
 0002:0001e598       ??_C@_0CN@NPHCNDGF@format?5error?5in?5certificate?8s?5n@ 000000000008a318     OpensslLib:x509_txt.obj
 0002:0001e5c8       ??_C@_0CH@OEGANADM@format?5error?5in?5CRL?8s?5lastUpdat@ 000000000008a348     OpensslLib:x509_txt.obj
 0002:0001e5f0       ??_C@_0CH@DKJJKKIC@format?5error?5in?5CRL?8s?5nextUpdat@ 000000000008a370     OpensslLib:x509_txt.obj
 0002:0001e618       ??_C@_0O@BNNCBLEN@out?5of?5memory@ 000000000008a398     OpensslLib:x509_txt.obj
 0002:0001e628       ??_C@_0BI@PBDHIKFI@self?5signed?5certificate@ 000000000008a3a8     OpensslLib:x509_txt.obj
 0002:0001e640       ??_C@_0CN@GCPAFAGL@self?5signed?5certificate?5in?5cert@ 000000000008a3c0     OpensslLib:x509_txt.obj
 0002:0001e670       ??_C@_0CH@NBHLNPJC@unable?5to?5get?5local?5issuer?5cert@ 000000000008a3f0     OpensslLib:x509_txt.obj
 0002:0001e698       ??_C@_0CH@PCOLJJF@unable?5to?5verify?5the?5first?5cert@ 000000000008a418     OpensslLib:x509_txt.obj
 0002:0001e6c0       ??_C@_0BL@JGHJBAMD@certificate?5chain?5too?5long@ 000000000008a440     OpensslLib:x509_txt.obj
 0002:0001e6e0       ??_C@_0BE@PBLGGMOB@certificate?5revoked@ 000000000008a460     OpensslLib:x509_txt.obj
 0002:0001e6f8       ??_C@_0BH@EKEBOKH@invalid?5CA?5certificate@ 000000000008a478     OpensslLib:x509_txt.obj
 0002:0001e710       ??_C@_0CA@LLGONKGK@path?5length?5constraint?5exceeded@ 000000000008a490     OpensslLib:x509_txt.obj
 0002:0001e730       ??_C@_0CA@LPAJAMFA@unsupported?5certificate?5purpose@ 000000000008a4b0     OpensslLib:x509_txt.obj
 0002:0001e750       ??_C@_0BI@GDICGBPK@certificate?5not?5trusted@ 000000000008a4d0     OpensslLib:x509_txt.obj
 0002:0001e768       ??_C@_0BF@OJPAOPB@certificate?5rejected@ 000000000008a4e8     OpensslLib:x509_txt.obj
 0002:0001e780       ??_C@_0BI@OHGOAFON@subject?5issuer?5mismatch@ 000000000008a500     OpensslLib:x509_txt.obj
 0002:0001e798       ??_C@_0CO@HGJKNPBG@authority?5and?5subject?5key?5ident@ 000000000008a518     OpensslLib:x509_txt.obj
 0002:0001e7c8       ??_C@_0CM@GGIKLLEP@authority?5and?5issuer?5serial?5num@ 000000000008a548     OpensslLib:x509_txt.obj
 0002:0001e7f8       ??_C@_0CP@EEPOGHPG@key?5usage?5does?5not?5include?5cert@ 000000000008a578     OpensslLib:x509_txt.obj
 0002:0001e828       ??_C@_0CF@OOPBMEA@unable?5to?5get?5CRL?5issuer?5certif@ 000000000008a5a8     OpensslLib:x509_txt.obj
 0002:0001e850       ??_C@_0BN@DHGAFJG@unhandled?5critical?5extension@ 000000000008a5d0     OpensslLib:x509_txt.obj
 0002:0001e870       ??_C@_0CH@JKPBLJBP@key?5usage?5does?5not?5include?5CRL?5@ 000000000008a5f0     OpensslLib:x509_txt.obj
 0002:0001e898       ??_C@_0CB@OODOOIP@unhandled?5critical?5CRL?5extensio@ 000000000008a618     OpensslLib:x509_txt.obj
 0002:0001e8c0       ??_C@_0CN@GNFODAID@invalid?5non?9CA?5certificate?5?$CIhas@ 000000000008a640     OpensslLib:x509_txt.obj
 0002:0001e8f0       ??_C@_0CG@BIOFEFIK@proxy?5path?5length?5constraint?5ex@ 000000000008a670     OpensslLib:x509_txt.obj
 0002:0001e918       ??_C@_0CN@HJJGOKEM@key?5usage?5does?5not?5include?5digi@ 000000000008a698     OpensslLib:x509_txt.obj
 0002:0001e950       ??_C@_0EA@EILBDOFP@proxy?5certificates?5not?5allowed?0@ 000000000008a6d0     OpensslLib:x509_txt.obj
 0002:0001e990       ??_C@_0CO@BIBMOLPK@invalid?5or?5inconsistent?5certifi@ 000000000008a710     OpensslLib:x509_txt.obj
 0002:0001e9c0       ??_C@_0DF@JOCKIEDN@invalid?5or?5inconsistent?5certifi@ 000000000008a740     OpensslLib:x509_txt.obj
 0002:0001e9f8       ??_C@_0BD@KPLGPDJA@no?5explicit?5policy@ 000000000008a778     OpensslLib:x509_txt.obj
 0002:0001ea10       ??_C@_0BE@FHFDNMCN@Different?5CRL?5scope@ 000000000008a790     OpensslLib:x509_txt.obj
 0002:0001ea28       ??_C@_0BO@CHPDNLHA@Unsupported?5extension?5feature@ 000000000008a7a8     OpensslLib:x509_txt.obj
 0002:0001ea48       ??_C@_0DD@IBFFGHC@RFC?53779?5resource?5not?5subset?5of@ 000000000008a7c8     OpensslLib:x509_txt.obj
 0002:0001ea80       ??_C@_0BM@OAJDKGDI@permitted?5subtree?5violation@ 000000000008a800     OpensslLib:x509_txt.obj
 0002:0001eaa0       ??_C@_0BL@OHBCHEHN@excluded?5subtree?5violation@ 000000000008a820     OpensslLib:x509_txt.obj
 0002:0001eac0       ??_C@_0DD@KOHKHENH@name?5constraints?5minimum?5and?5ma@ 000000000008a840     OpensslLib:x509_txt.obj
 0002:0001eaf8       ??_C@_0CB@HLIFGCCB@application?5verification?5failur@ 000000000008a878     OpensslLib:x509_txt.obj
 0002:0001eb20       ??_C@_0CB@NJIFBAAK@unsupported?5name?5constraint?5typ@ 000000000008a8a0     OpensslLib:x509_txt.obj
 0002:0001eb48       ??_C@_0CO@MKOFKAHI@unsupported?5or?5invalid?5name?5con@ 000000000008a8c8     OpensslLib:x509_txt.obj
 0002:0001eb78       ??_C@_0CD@FOPJHCDH@unsupported?5or?5invalid?5name?5syn@ 000000000008a8f8     OpensslLib:x509_txt.obj
 0002:0001eba0       ??_C@_0BK@IBKFOKDF@CRL?5path?5validation?5error@ 000000000008a920     OpensslLib:x509_txt.obj
 0002:0001ebc0       ??_C@_09OLGELLAO@Path?5Loop@ 000000000008a940     OpensslLib:x509_txt.obj
 0002:0001ebd0       ??_C@_0CF@FOANFLBA@Suite?5B?3?5certificate?5version?5in@ 000000000008a950     OpensslLib:x509_txt.obj
 0002:0001ebf8       ??_C@_0CG@BICIPKHE@Suite?5B?3?5invalid?5public?5key?5alg@ 000000000008a978     OpensslLib:x509_txt.obj
 0002:0001ec20       ??_C@_0BL@FMOLHBNA@Suite?5B?3?5invalid?5ECC?5curve@ 000000000008a9a0     OpensslLib:x509_txt.obj
 0002:0001ec40       ??_C@_0CF@HDBBCDPB@Suite?5B?3?5invalid?5signature?5algo@ 000000000008a9c0     OpensslLib:x509_txt.obj
 0002:0001ec68       ??_C@_0CI@KACFGKAG@Suite?5B?3?5curve?5not?5allowed?5for?5@ 000000000008a9e8     OpensslLib:x509_txt.obj
 0002:0001ec90       ??_C@_0CG@KNKODCDA@Suite?5B?3?5cannot?5sign?5P?9384?5with@ 000000000008aa10     OpensslLib:x509_txt.obj
 0002:0001ecb8       ??_C@_0BC@BKAJEJKO@Hostname?5mismatch@ 000000000008aa38     OpensslLib:x509_txt.obj
 0002:0001ecd0       ??_C@_0BH@EANENMMC@Email?5address?5mismatch@ 000000000008aa50     OpensslLib:x509_txt.obj
 0002:0001ece8       ??_C@_0BE@CAFPLHHN@IP?5address?5mismatch@ 000000000008aa68     OpensslLib:x509_txt.obj
 0002:0001ed00       ??_C@_0BO@OPFDPPAC@No?5matching?5DANE?5TLSA?5records@ 000000000008aa80     OpensslLib:x509_txt.obj
 0002:0001ed20       ??_C@_0BM@CJPGEEIN@EE?5certificate?5key?5too?5weak@ 000000000008aaa0     OpensslLib:x509_txt.obj
 0002:0001ed40       ??_C@_0BM@ENALCBIG@CA?5certificate?5key?5too?5weak@ 000000000008aac0     OpensslLib:x509_txt.obj
 0002:0001ed60       ??_C@_0CH@LKAOFJGJ@CA?5signature?5digest?5algorithm?5t@ 000000000008aae0     OpensslLib:x509_txt.obj
 0002:0001ed88       ??_C@_0CJ@LGEOKENH@Invalid?5certificate?5verificatio@ 000000000008ab08     OpensslLib:x509_txt.obj
 0002:0001edb8       ??_C@_0CA@IHGNDGJI@Issuer?5certificate?5lookup?5error@ 000000000008ab38     OpensslLib:x509_txt.obj
 0002:0001edd8       ??_C@_0DL@IEHGPPOE@Certificate?5Transparency?5requir@ 000000000008ab58     OpensslLib:x509_txt.obj
 0002:0001ee18       ??_C@_0BN@MGIIDFLE@proxy?5subject?5name?5violation@ 000000000008ab98     OpensslLib:x509_txt.obj
 0002:0001ee38       ??_C@_0BJ@GCKALNFK@OCSP?5verification?5needed@ 000000000008abb8     OpensslLib:x509_txt.obj
 0002:0001ee58       ??_C@_0BJ@MKJKHEMF@OCSP?5verification?5failed@ 000000000008abd8     OpensslLib:x509_txt.obj
 0002:0001ee78       ??_C@_0BC@JFODIBJK@OCSP?5unknown?5cert@ 000000000008abf8     OpensslLib:x509_txt.obj
 0002:0001ee90       ??_C@_0DD@FBNJLBKB@Certificate?5public?5key?5has?5expl@ 000000000008ac10     OpensslLib:x509_txt.obj
 0002:0001eec8       ??_C@_0CH@MPONIKPM@unknown?5certificate?5verificatio@ 000000000008ac48     OpensslLib:x509_txt.obj
 0002:0001f290       ??_C@_03KCHOJKKI@set@      000000000008b010     OpensslLib:x_attrib.obj
 0002:0001f298       ??_C@_0P@IBKNNFL@X509_ATTRIBUTE@ 000000000008b018     OpensslLib:x_attrib.obj
 0002:0001f2f0       X509_ATTRIBUTE_it          000000000008b070     OpensslLib:x_attrib.obj
 0002:0001f320       ??_C@_03KPIFFHNE@SET@      000000000008b0a0     OpensslLib:tasn_prn.obj
 0002:0001f328       ??_C@_08POLPFBMC@SEQUENCE@ 000000000008b0a8     OpensslLib:tasn_prn.obj
 0002:0001f338       ??_C@_08DFMPDBMK@X509_SIG@ 000000000008b0b8     OpensslLib:x_sig.obj
 0002:0001f348       X509_SIG_it                000000000008b0c8     OpensslLib:x_sig.obj
 0002:0001f3c0       ??_C@_02ICGBAFJO@k1@       000000000008b140     OpensslLib:ec_asn1.obj
 0002:0001f3c4       ??_C@_02KJEMFGFN@k2@       000000000008b144     OpensslLib:ec_asn1.obj
 0002:0001f3c8       ??_C@_02LAFHGHBM@k3@       000000000008b148     OpensslLib:ec_asn1.obj
 0002:0001f3d0       ??_C@_0BC@NPDMPFCL@X9_62_PENTANOMIAL@ 000000000008b150     OpensslLib:ec_asn1.obj
 0002:0001f3e8       ??_C@_07PBHIMFBE@p?4other@ 000000000008b168     OpensslLib:ec_asn1.obj
 0002:0001f3f0       ??_C@_09KOBBOOPN@p?4onBasis@ 000000000008b170     OpensslLib:ec_asn1.obj
 0002:0001f400       ??_C@_09LICBCEBD@p?4tpBasis@ 000000000008b180     OpensslLib:ec_asn1.obj
 0002:0001f410       ??_C@_09DMGLCKOJ@p?4ppBasis@ 000000000008b190     OpensslLib:ec_asn1.obj
 0002:0001f41c       ??_C@_01GOHFPIOK@m@        000000000008b19c     OpensslLib:ec_asn1.obj
 0002:0001f420       ??_C@_0BJ@CCODLOLO@X9_62_CHARACTERISTIC_TWO@ 000000000008b1a0     OpensslLib:ec_asn1.obj
 0002:0001f440       ??_C@_07DPJEDCLB@p?4prime@ 000000000008b1c0     OpensslLib:ec_asn1.obj
 0002:0001f448       ??_C@_0L@NLMAKEBL@p?4char_two@ 000000000008b1c8     OpensslLib:ec_asn1.obj
 0002:0001f458       ??_C@_09OAOLGAOM@fieldType@ 000000000008b1d8     OpensslLib:ec_asn1.obj
 0002:0001f468       ??_C@_0O@PGPIAKKH@X9_62_FIELDID@ 000000000008b1e8     OpensslLib:ec_asn1.obj
 0002:0001f478       ??_C@_01MCMALHOG@a@        000000000008b1f8     OpensslLib:ec_asn1.obj
 0002:0001f47c       ??_C@_01OJONOECF@b@        000000000008b1fc     OpensslLib:ec_asn1.obj
 0002:0001f480       ??_C@_04MENKDCKE@seed@     000000000008b200     OpensslLib:ec_asn1.obj
 0002:0001f488       ??_C@_0M@BHDPNPCK@X9_62_CURVE@ 000000000008b208     OpensslLib:ec_asn1.obj
 0002:0001f498       ??_C@_07MJJGNICD@fieldID@  000000000008b218     OpensslLib:ec_asn1.obj
 0002:0001f4a0       ??_C@_05HIKPKPAA@curve@    000000000008b220     OpensslLib:ec_asn1.obj
 0002:0001f4a8       ??_C@_05NDNMCCJH@order@    000000000008b228     OpensslLib:ec_asn1.obj
 0002:0001f4b0       ??_C@_08DKFAOMDI@cofactor@ 000000000008b230     OpensslLib:ec_asn1.obj
 0002:0001f4c0       ??_C@_0N@ECDPFONH@ECPARAMETERS@ 000000000008b240     OpensslLib:ec_asn1.obj
 0002:0001f4d0       ??_C@_0BC@JEJHGDNN@value?4named_curve@ 000000000008b250     OpensslLib:ec_asn1.obj
 0002:0001f4e8       ??_C@_0BB@KOECJJJ@value?4parameters@ 000000000008b268     OpensslLib:ec_asn1.obj
 0002:0001f500       ??_C@_0BD@HOIIAPI@value?4implicitlyCA@ 000000000008b280     OpensslLib:ec_asn1.obj
 0002:0001f518       ??_C@_0P@PBBIGPFJ@ECPKPARAMETERS@ 000000000008b298     OpensslLib:ec_asn1.obj
 0002:0001f528       ??_C@_0L@BCENACFO@privateKey@ 000000000008b2a8     OpensslLib:ec_asn1.obj
 0002:0001f538       ??_C@_0L@HHPOFMCB@parameters@ 000000000008b2b8     OpensslLib:ec_asn1.obj
 0002:0001f548       ??_C@_09IDENFCJL@publicKey@ 000000000008b2c8     OpensslLib:ec_asn1.obj
 0002:0001f558       ??_C@_0O@DFJMHGOP@EC_PRIVATEKEY@ 000000000008b2d8     OpensslLib:ec_asn1.obj
 0002:0001f568       ??_C@_01LKDEMHDF@s@        000000000008b2e8     OpensslLib:ec_asn1.obj
 0002:0001f570       ??_C@_09FLJPBFIA@ECDSA_SIG@ 000000000008b2f0     OpensslLib:ec_asn1.obj
 0002:0001f580       ECPARAMETERS_it            000000000008b300     OpensslLib:ec_asn1.obj
 0002:0001f920       ECPKPARAMETERS_it          000000000008b6a0     OpensslLib:ec_asn1.obj
 0002:0001fbb0       ??_C@_01GBGANLPD@0@        000000000008b930     OpensslLib:bn_print.obj
 0002:0001fbb4       ??_C@_04FCIJFPNK@?$CFllu@  000000000008b934     OpensslLib:bn_print.obj
 0002:0001fbc0       ??_C@_07ICEKBAEF@?$CF019llu@ 000000000008b940     OpensslLib:bn_print.obj
 0002:0001fbc8       ??_C@_01JOAMLHOP@?9@       000000000008b948     OpensslLib:bn_print.obj
 0002:0001fc08       ??_C@_09OJNEAJGG@?$DMINVALID?$DO@ 000000000008b988     OpensslLib:a_object.obj
 0002:0001fe5c       ??_C@_02PLJDPFIO@00@       000000000008bbdc     OpensslLib:asn1_par.obj
 0002:0001fe60       ??_C@_03NCODFONH@EOC@      000000000008bbe0     OpensslLib:asn1_par.obj
 0002:0001fe68       ??_C@_07JDEDMABE@BOOLEAN@  000000000008bbe8     OpensslLib:asn1_par.obj
 0002:0001fe70       ??_C@_07EHCIHKNF@INTEGER@  000000000008bbf0     OpensslLib:asn1_par.obj
 0002:0001fe78       ??_C@_0L@EKOKPLKE@BIT?5STRING@ 000000000008bbf8     OpensslLib:asn1_par.obj
 0002:0001fe88       ??_C@_0N@KPGGMDFC@OCTET?5STRING@ 000000000008bc08     OpensslLib:asn1_par.obj
 0002:0001fe98       ??_C@_06IAMCMNFI@OBJECT@   000000000008bc18     OpensslLib:asn1_par.obj
 0002:0001fea0       ??_C@_0BC@HDOCNDIH@OBJECT?5DESCRIPTOR@ 000000000008bc20     OpensslLib:asn1_par.obj
 0002:0001feb8       ??_C@_08JHLDEHEK@EXTERNAL@ 000000000008bc38     OpensslLib:asn1_par.obj
 0002:0001fec4       ??_C@_04PKFANLLI@REAL@     000000000008bc44     OpensslLib:asn1_par.obj
 0002:0001fed0       ??_C@_0L@KNIEMAKM@ENUMERATED@ 000000000008bc50     OpensslLib:asn1_par.obj
 0002:0001fee0       ??_C@_09EKNCOIGI@?$DMASN1?511?$DO@ 000000000008bc60     OpensslLib:asn1_par.obj
 0002:0001fef0       ??_C@_0L@DCBPGANN@UTF8STRING@ 000000000008bc70     OpensslLib:asn1_par.obj
 0002:0001ff00       ??_C@_09EJFGDMAG@?$DMASN1?513?$DO@ 000000000008bc80     OpensslLib:asn1_par.obj
 0002:0001ff10       ??_C@_09EMBJCKID@?$DMASN1?514?$DO@ 000000000008bc90     OpensslLib:asn1_par.obj
 0002:0001ff20       ??_C@_09ENNLEALE@?$DMASN1?515?$DO@ 000000000008bca0     OpensslLib:asn1_par.obj
 0002:0001ff30       ??_C@_0O@DFADMOGA@NUMERICSTRING@ 000000000008bcb0     OpensslLib:asn1_par.obj
 0002:0001ff40       ??_C@_0BA@FKHILLED@PRINTABLESTRING@ 000000000008bcc0     OpensslLib:asn1_par.obj
 0002:0001ff50       ??_C@_09FMBHBANP@T61STRING@ 000000000008bcd0     OpensslLib:asn1_par.obj
 0002:0001ff60       ??_C@_0P@LNAMNBEL@VIDEOTEXSTRING@ 000000000008bce0     OpensslLib:asn1_par.obj
 0002:0001ff70       ??_C@_09JOMPLKGB@IA5STRING@ 000000000008bcf0     OpensslLib:asn1_par.obj
 0002:0001ff80       ??_C@_07HIOLDDN@UTCTIME@   000000000008bd00     OpensslLib:asn1_par.obj
 0002:0001ff88       ??_C@_0BA@LKNBIJBB@GENERALIZEDTIME@ 000000000008bd08     OpensslLib:asn1_par.obj
 0002:0001ff98       ??_C@_0O@MABADFB@GRAPHICSTRING@ 000000000008bd18     OpensslLib:asn1_par.obj
 0002:0001ffa8       ??_C@_0O@KDAJCBO@VISIBLESTRING@ 000000000008bd28     OpensslLib:asn1_par.obj
 0002:0001ffb8       ??_C@_0O@DKDEPFLO@GENERALSTRING@ 000000000008bd38     OpensslLib:asn1_par.obj
 0002:0001ffc8       ??_C@_0BA@EJHHDALK@UNIVERSALSTRING@ 000000000008bd48     OpensslLib:asn1_par.obj
 0002:0001ffd8       ??_C@_09FGHEBGDO@?$DMASN1?529?$DO@ 000000000008bd58     OpensslLib:asn1_par.obj
 0002:0001ffe8       ??_C@_09BIBABMFN@BMPSTRING@ 000000000008bd68     OpensslLib:asn1_par.obj
 0002:0001fff8       ??_C@_09GPGAJHPD@?$CIunknown?$CJ@ 000000000008bd78     OpensslLib:asn1_par.obj
 0002:00020108       ??_C@_08JJBFGKFE@minsize?$DN@ 000000000008be88     OpensslLib:a_mbstr.obj
 0002:00020118       ??_C@_08EOPONIBF@maxsize?$DN@ 000000000008be98     OpensslLib:a_mbstr.obj
 0002:00020124       ??_C@_06CHOIGJDB@BIGNUM@   000000000008bea4     OpensslLib:x_bignum.obj
 0002:00020130       ??_C@_07HILEKMCI@CBIGNUM@  000000000008beb0     OpensslLib:x_bignum.obj
 0002:00020138       BIGNUM_it                  000000000008beb8     OpensslLib:x_bignum.obj
 0002:00020168       CBIGNUM_it                 000000000008bee8     OpensslLib:x_bignum.obj
 0002:00020198       ??_C@_03PMGGPEJJ@?$CFd?6@  000000000008bf18     OpensslLib:x_int64.obj
 0002:0002019c       ??_C@_03OBICDNNO@?$CFu?6@  000000000008bf1c     OpensslLib:x_int64.obj
 0002:000201a0       ??_C@_05OJLHEJN@INT32@     000000000008bf20     OpensslLib:x_int64.obj
 0002:000201a8       ??_C@_06KFJALMLJ@ZINT32@   000000000008bf28     OpensslLib:x_int64.obj
 0002:000201b0       ZINT32_it                  000000000008bf30     OpensslLib:x_int64.obj
 0002:000201e0       INT32_it                   000000000008bf60     OpensslLib:x_int64.obj
 0002:00020210       ??_C@_0P@BLMEJDMO@policyLanguage@ 000000000008bf90     OpensslLib:v3_pcia.obj
 0002:00020220       ??_C@_06NJNJNICG@policy@   000000000008bfa0     OpensslLib:v3_pcia.obj
 0002:00020228       ??_C@_0N@CLKEFBDI@PROXY_POLICY@ 000000000008bfa8     OpensslLib:v3_pcia.obj
 0002:00020238       ??_C@_0BH@JBGKCLHC@pcPathLengthConstraint@ 000000000008bfb8     OpensslLib:v3_pcia.obj
 0002:00020250       ??_C@_0M@KKFBCGOG@proxyPolicy@ 000000000008bfd0     OpensslLib:v3_pcia.obj
 0002:00020260       ??_C@_0BK@PILNOGHK@PROXY_CERT_INFO_EXTENSION@ 000000000008bfe0     OpensslLib:v3_pcia.obj
 0002:000202c0       PROXY_CERT_INFO_EXTENSION_it 000000000008c040     OpensslLib:v3_pcia.obj
 0002:00020330       PROXY_POLICY_it            000000000008c0b0     OpensslLib:v3_pcia.obj
 0002:00020360       ??_C@_02DGMJAJHC@ca@       000000000008c0e0     OpensslLib:v3_bcons.obj
 0002:00020368       ??_C@_07OGCPICFF@pathlen@  000000000008c0e8     OpensslLib:v3_bcons.obj
 0002:00020370       ??_C@_0BC@PKPCGCD@BASIC_CONSTRAINTS@ 000000000008c0f0     OpensslLib:v3_bcons.obj
 0002:00020384       ??_C@_02JLAAGLDA@CA@       000000000008c104     OpensslLib:v3_bcons.obj
 0002:000203d0       v3_bcons                   000000000008c150     OpensslLib:v3_bcons.obj
 0002:00020438       BASIC_CONSTRAINTS_it       000000000008c1b8     OpensslLib:v3_bcons.obj
 0002:00020468       ??_C@_0CL@JMAEHKDJ@SECG?1WTLS?5curve?5over?5a?5112?5bit?5@ 000000000008c1e8     OpensslLib:ec_curve.obj
 0002:00020498       ??_C@_0CG@IMPBFOOG@SECG?5curve?5over?5a?5112?5bit?5prime@ 000000000008c218     OpensslLib:ec_curve.obj
 0002:000204c0       ??_C@_0CG@DNCCBNMA@SECG?5curve?5over?5a?5128?5bit?5prime@ 000000000008c240     OpensslLib:ec_curve.obj
 0002:000204e8       ??_C@_0CG@MDBLLOCO@SECG?5curve?5over?5a?5160?5bit?5prime@ 000000000008c268     OpensslLib:ec_curve.obj
 0002:00020510       ??_C@_0CL@NDOOJKPB@SECG?1WTLS?5curve?5over?5a?5160?5bit?5@ 000000000008c290     OpensslLib:ec_curve.obj
 0002:00020540       ??_C@_0CG@IFFAEDGD@SECG?5curve?5over?5a?5192?5bit?5prime@ 000000000008c2c0     OpensslLib:ec_curve.obj
 0002:00020568       ??_C@_0CG@IOHCCJAA@SECG?5curve?5over?5a?5224?5bit?5prime@ 000000000008c2e8     OpensslLib:ec_curve.obj
 0002:00020590       ??_C@_0CL@NHPHHEEB@NIST?1SECG?5curve?5over?5a?5224?5bit?5@ 000000000008c310     OpensslLib:ec_curve.obj
 0002:000205c0       ??_C@_0CG@MBJIMJMI@SECG?5curve?5over?5a?5256?5bit?5prime@ 000000000008c340     OpensslLib:ec_curve.obj
 0002:000205e8       ??_C@_0CL@MPIFFEHD@NIST?1SECG?5curve?5over?5a?5384?5bit?5@ 000000000008c368     OpensslLib:ec_curve.obj
 0002:00020618       ??_C@_0CL@NCEJLDDF@NIST?1SECG?5curve?5over?5a?5521?5bit?5@ 000000000008c398     OpensslLib:ec_curve.obj
 0002:00020648       ??_C@_0DB@HJIMEGJL@NIST?1X9?462?1SECG?5curve?5over?5a?519@ 000000000008c3c8     OpensslLib:ec_curve.obj
 0002:00020680       ??_C@_0CH@BHJCBJE@X9?462?5curve?5over?5a?5192?5bit?5prim@ 000000000008c400     OpensslLib:ec_curve.obj
 0002:000206a8       ??_C@_0CH@COBCAEEE@X9?462?5curve?5over?5a?5239?5bit?5prim@ 000000000008c428     OpensslLib:ec_curve.obj
 0002:000206d0       ??_C@_0CM@IACJENLF@X9?462?1SECG?5curve?5over?5a?5256?5bit@ 000000000008c450     OpensslLib:ec_curve.obj
 0002:00020700       ??_C@_0CG@NOPNGNKB@WTLS?5curve?5over?5a?5112?5bit?5prime@ 000000000008c480     OpensslLib:ec_curve.obj
 0002:00020728       ??_C@_0CG@JBBHINGJ@WTLS?5curve?5over?5a?5160?5bit?5prime@ 000000000008c4a8     OpensslLib:ec_curve.obj
 0002:00020750       ??_C@_0CG@NMHOBKEH@WTLS?5curve?5over?5a?5224?5bit?5prime@ 000000000008c4d0     OpensslLib:ec_curve.obj
 0002:00020778       ??_C@_0CK@DKPAAAHG@RFC?55639?5curve?5over?5a?5160?5bit?5p@ 000000000008c4f8     OpensslLib:ec_curve.obj
 0002:000207a8       ??_C@_0CK@HMLLPNDL@RFC?55639?5curve?5over?5a?5192?5bit?5p@ 000000000008c528     OpensslLib:ec_curve.obj
 0002:000207d8       ??_C@_0CK@HHJJJHFI@RFC?55639?5curve?5over?5a?5224?5bit?5p@ 000000000008c558     OpensslLib:ec_curve.obj
 0002:00020808       ??_C@_0CK@DIHDHHJA@RFC?55639?5curve?5over?5a?5256?5bit?5p@ 000000000008c588     OpensslLib:ec_curve.obj
 0002:00020838       ??_C@_0CK@BJFGHLBI@RFC?55639?5curve?5over?5a?5320?5bit?5p@ 000000000008c5b8     OpensslLib:ec_curve.obj
 0002:00020868       ??_C@_0CK@GPOLLHGK@RFC?55639?5curve?5over?5a?5384?5bit?5p@ 000000000008c5e8     OpensslLib:ec_curve.obj
 0002:00020898       ??_C@_0CK@DLPHALOH@RFC?55639?5curve?5over?5a?5512?5bit?5p@ 000000000008c618     OpensslLib:ec_curve.obj
 0002:000208c8       ??_C@_0CF@CCLOOCBH@SM2?5curve?5over?5a?5256?5bit?5prime?5@ 000000000008c648     OpensslLib:ec_curve.obj
 0002:000208f0       ??_C@_05KJOGHNFI@B?9163@   000000000008c670     OpensslLib:ec_curve.obj
 0002:000208f8       ??_C@_05LNJIBAFN@B?9233@   000000000008c678     OpensslLib:ec_curve.obj
 0002:00020900       ??_C@_05LBMNPPLM@B?9283@   000000000008c680     OpensslLib:ec_curve.obj
 0002:00020908       ??_C@_05GAFKBJFC@B?9409@   000000000008c688     OpensslLib:ec_curve.obj
 0002:00020910       ??_C@_05BFHAOCLK@B?9571@   000000000008c690     OpensslLib:ec_curve.obj
 0002:00020918       ??_C@_05IOOJCMJA@K?9163@   000000000008c698     OpensslLib:ec_curve.obj
 0002:00020920       ??_C@_05JKJHEBJF@K?9233@   000000000008c6a0     OpensslLib:ec_curve.obj
 0002:00020928       ??_C@_05JGMCKOHE@K?9283@   000000000008c6a8     OpensslLib:ec_curve.obj
 0002:00020930       ??_C@_05EHFFEIJK@K?9409@   000000000008c6b0     OpensslLib:ec_curve.obj
 0002:00020938       ??_C@_05DCHPLDHC@K?9571@   000000000008c6b8     OpensslLib:ec_curve.obj
 0002:00020940       ??_C@_05PFLPKILE@P?9192@   000000000008c6c0     OpensslLib:ec_curve.obj
 0002:00020948       ??_C@_05LNAFEPDN@P?9224@   000000000008c6c8     OpensslLib:ec_curve.obj
 0002:00020950       ??_C@_05IKHMDLDK@P?9256@   000000000008c6d0     OpensslLib:ec_curve.obj
 0002:00020958       ??_C@_05ICOKNIO@P?9384@    000000000008c6d8     OpensslLib:ec_curve.obj
 0002:00020960       ??_C@_05FNKFIDMB@P?9521@   000000000008c6e0     OpensslLib:ec_curve.obj
 0002:00022dd8       ??_C@_0BG@NHEBIAGP@OpenSSL?5EC_KEY?5method@ 000000000008eb58     OpensslLib:ec_kmeth.obj
 0002:00022e68       ??_C@_06GABBCIBA@method@   000000000008ebe8     OpensslLib:v3_info.obj
 0002:00022e70       ??_C@_08CBBFJFMD@location@ 000000000008ebf0     OpensslLib:v3_info.obj
 0002:00022e80       ??_C@_0BD@IKHCEBLA@ACCESS_DESCRIPTION@ 000000000008ec00     OpensslLib:v3_info.obj
 0002:00022e98       ??_C@_0BG@PFEKCAHJ@AUTHORITY_INFO_ACCESS@ 000000000008ec18     OpensslLib:v3_info.obj
 0002:00022eb0       ??_C@_07FCJAGJJB@?$CFs?5?9?5?$CFs@ 000000000008ec30     OpensslLib:v3_info.obj
 0002:00022eb8       ??_C@_06KFEJCPI@value?$DN@ 000000000008ec38     OpensslLib:v3_info.obj
 0002:00022ec0       AUTHORITY_INFO_ACCESS_it   000000000008ec40     OpensslLib:v3_info.obj
 0002:00022ef0       ACCESS_DESCRIPTION_it      000000000008ec70     OpensslLib:v3_info.obj
 0002:00022f60       v3_sinfo                   000000000008ece0     OpensslLib:v3_info.obj
 0002:00022fd0       v3_info                    000000000008ed50     OpensslLib:v3_info.obj
 0002:00023058       ??_C@_08OMICEKMJ@?0?5value?$DN@ 000000000008edd8     OpensslLib:conf_mod.obj
 0002:00023070       v3_alt                     000000000008edf0     OpensslLib:v3_alt.obj
 0002:000231a8       ??_C@_0O@NHCJKCDC@?$DMunsupported?$DO@ 000000000008ef28     OpensslLib:v3_alt.obj
 0002:000231b8       ??_C@_09PAKBLAPA@othername@ 000000000008ef38     OpensslLib:v3_alt.obj
 0002:000231c8       ??_C@_08EBDOEGJI@X400Name@ 000000000008ef48     OpensslLib:v3_alt.obj
 0002:000231d8       ??_C@_0N@EEELPIKD@EdiPartyName@ 000000000008ef58     OpensslLib:v3_alt.obj
 0002:000231e8       ??_C@_05HKHCDHCL@email@    000000000008ef68     OpensslLib:v3_alt.obj
 0002:000231f0       ??_C@_03CBFPEBNE@DNS@      000000000008ef70     OpensslLib:v3_alt.obj
 0002:000231f4       ??_C@_03GMOLNBOB@URI@      000000000008ef74     OpensslLib:v3_alt.obj
 0002:000231f8       ??_C@_07FDBCPIKC@DirName@  000000000008ef78     OpensslLib:v3_alt.obj
 0002:00023200       ??_C@_09DPMBDOD@?$DMinvalid?$DO@ 000000000008ef80     OpensslLib:v3_alt.obj
 0002:00023210       ??_C@_0L@NGHMMCPJ@IP?5Address@ 000000000008ef90     OpensslLib:v3_alt.obj
 0002:00023220       ??_C@_0O@KAIENCPE@Registered?5ID@ 000000000008efa0     OpensslLib:v3_alt.obj
 0002:00023230       ??_C@_04COAGEIMF@copy@     000000000008efb0     OpensslLib:v3_alt.obj
 0002:00023238       ??_C@_04HDMMNHEL@move@     000000000008efb8     OpensslLib:v3_alt.obj
 0002:00023240       ??_C@_03FEOBNLIE@RID@      000000000008efc0     OpensslLib:v3_alt.obj
 0002:00023244       ??_C@_02MFEOMNPG@IP@       000000000008efc4     OpensslLib:v3_alt.obj
 0002:00023248       ??_C@_07KKGEJKPE@dirName@  000000000008efc8     OpensslLib:v3_alt.obj
 0002:00023250       ??_C@_09DBGAJPPE@otherName@ 000000000008efd0     OpensslLib:v3_alt.obj
 0002:00023260       ??_C@_08LNPIPPMM@section?$DN@ 000000000008efe0     OpensslLib:v3_alt.obj
 0002:00023270       v3_policy_constraints      000000000008eff0     OpensslLib:v3_pcons.obj
 0002:000232d8       ??_C@_0BG@HGJBEKFE@requireExplicitPolicy@ 000000000008f058     OpensslLib:v3_pcons.obj
 0002:000232f0       ??_C@_0BF@MOMLJGAL@inhibitPolicyMapping@ 000000000008f070     OpensslLib:v3_pcons.obj
 0002:00023308       ??_C@_0BD@MMPNIEIJ@POLICY_CONSTRAINTS@ 000000000008f088     OpensslLib:v3_pcons.obj
 0002:00023320       ??_C@_0BI@HNCHDEDI@Require?5Explicit?5Policy@ 000000000008f0a0     OpensslLib:v3_pcons.obj
 0002:00023338       ??_C@_0BH@HMKHOMED@Inhibit?5Policy?5Mapping@ 000000000008f0b8     OpensslLib:v3_pcons.obj
 0002:00023350       POLICY_CONSTRAINTS_it      000000000008f0d0     OpensslLib:v3_pcons.obj
 0002:000233c0       v3_cpols                   000000000008f140     OpensslLib:v3_cpols.obj
 0002:00023428       ??_C@_0BE@GJBJOOCP@CERTIFICATEPOLICIES@ 000000000008f1a8     OpensslLib:v3_cpols.obj
 0002:00023440       ??_C@_08NEBFOBH@policyid@  000000000008f1c0     OpensslLib:v3_cpols.obj
 0002:00023450       ??_C@_0L@HMNGMMJI@qualifiers@ 000000000008f1d0     OpensslLib:v3_cpols.obj
 0002:00023460       ??_C@_0L@POLPGHJK@POLICYINFO@ 000000000008f1e0     OpensslLib:v3_cpols.obj
 0002:00023470       ??_C@_08EECALGEF@d?4cpsuri@ 000000000008f1f0     OpensslLib:v3_cpols.obj
 0002:00023480       ??_C@_0N@JPAHANFF@d?4usernotice@ 000000000008f200     OpensslLib:v3_cpols.obj
 0002:00023490       ??_C@_07LEEILOKB@pqualid@  000000000008f210     OpensslLib:v3_cpols.obj
 0002:00023498       ??_C@_0P@POBJIHLD@POLICYQUALINFO@ 000000000008f218     OpensslLib:v3_cpols.obj
 0002:000234a8       ??_C@_09FIKFDFH@noticeref@ 000000000008f228     OpensslLib:v3_cpols.obj
 0002:000234b8       ??_C@_07MHGINJOA@exptext@  000000000008f238     OpensslLib:v3_cpols.obj
 0002:000234c0       ??_C@_0L@HCNDPADF@USERNOTICE@ 000000000008f240     OpensslLib:v3_cpols.obj
 0002:000234d0       ??_C@_0N@HEIPMDAG@organization@ 000000000008f250     OpensslLib:v3_cpols.obj
 0002:000234e0       ??_C@_09CFGHNILC@noticenos@ 000000000008f260     OpensslLib:v3_cpols.obj
 0002:000234f0       ??_C@_09DFHLGOKA@NOTICEREF@ 000000000008f270     OpensslLib:v3_cpols.obj
 0002:000234fc       ??_C@_06MIFIGELF@ia5org@   000000000008f27c     OpensslLib:v3_cpols.obj
 0002:00023508       ??_C@_0BB@FIJMMMGE@policyIdentifier@ 000000000008f288     OpensslLib:v3_cpols.obj
 0002:0002351c       ??_C@_03KKDAPHBH@CPS@      000000000008f29c     OpensslLib:v3_cpols.obj
 0002:00023520       ??_C@_0L@LADHLIJ@userNotice@ 000000000008f2a0     OpensslLib:v3_cpols.obj
 0002:0002352c       ??_C@_04OOMJJNCF@UTF8@     000000000008f2ac     OpensslLib:v3_cpols.obj
 0002:00023538       ??_C@_0L@PJIJIHJD@UTF8String@ 000000000008f2b8     OpensslLib:v3_cpols.obj
 0002:00023544       ??_C@_03CNFPPDJC@BMP@      000000000008f2c4     OpensslLib:v3_cpols.obj
 0002:00023548       ??_C@_07MCGNPFEO@VISIBLE@  000000000008f2c8     OpensslLib:v3_cpols.obj
 0002:00023550       ??_C@_0N@EALKMFB@explicitText@ 000000000008f2d0     OpensslLib:v3_cpols.obj
 0002:00023560       ??_C@_0O@OKDALMJE@noticeNumbers@ 000000000008f2e0     OpensslLib:v3_cpols.obj
 0002:00023570       ??_C@_0M@ICGFCJNO@?$CF?$CKsCPS?3?5?$CFs?6@ 000000000008f2f0     OpensslLib:v3_cpols.obj
 0002:00023580       ??_C@_0BF@OCNFPJOG@?$CF?$CKsOrganization?3?5?$CFs?6@ 000000000008f300     OpensslLib:v3_cpols.obj
 0002:00023598       ??_C@_0O@EFHNHHDA@?$CF?$CKsNumber?$CFs?3?5@ 000000000008f318     OpensslLib:v3_cpols.obj
 0002:000235a8       ??_C@_06OJHGLDPL@?$CInull?$CJ@ 000000000008f328     OpensslLib:v3_cpols.obj
 0002:000235b0       ??_C@_0BG@IHHCDAMH@?$CF?$CKsExplicit?5Text?3?5?$CFs?6@ 000000000008f330     OpensslLib:v3_cpols.obj
 0002:000235c8       NOTICEREF_it               000000000008f348     OpensslLib:v3_cpols.obj
 0002:00023680       USERNOTICE_it              000000000008f400     OpensslLib:v3_cpols.obj
 0002:000237b0       POLICYQUALINFO_it          000000000008f530     OpensslLib:v3_cpols.obj
 0002:00023820       POLICYINFO_it              000000000008f5a0     OpensslLib:v3_cpols.obj
 0002:00023850       CERTIFICATEPOLICIES_it     000000000008f5d0     OpensslLib:v3_cpols.obj
 0002:00023880       ??_C@_06KDGDAFPH@cipher@   000000000008f600     OpensslLib:bio_enc.obj
 0002:000238f0       ??_C@_0P@ONGHGJEC@message?5digest@ 000000000008f670     OpensslLib:bio_md.obj
 0002:000239c0       ??_C@_03MEGLGNML@SM4@      000000000008f740     OpensslLib:c_allc.obj
 0002:000239c4       ??_C@_03FMBEIEBF@sm4@      000000000008f744     OpensslLib:c_allc.obj
 0002:000239c8       ??_C@_0M@DJNCOMHD@aes128?9wrap@ 000000000008f748     OpensslLib:c_allc.obj
 0002:000239d4       ??_C@_06NICOGCEJ@AES128@   000000000008f754     OpensslLib:c_allc.obj
 0002:000239dc       ??_C@_06NBPOHBOH@aes128@   000000000008f75c     OpensslLib:c_allc.obj
 0002:000239e8       ??_C@_0M@MAMIKPGL@aes192?9wrap@ 000000000008f768     OpensslLib:c_allc.obj
 0002:000239f4       ??_C@_06COJEGFCC@AES192@   000000000008f774     OpensslLib:c_allc.obj
 0002:000239fc       ??_C@_06CHEEHGIM@aes192@   000000000008f77c     OpensslLib:c_allc.obj
 0002:00023a08       ??_C@_0M@FKKFKCPC@aes256?9wrap@ 000000000008f788     OpensslLib:c_allc.obj
 0002:00023a14       ??_C@_06FBFHPGKM@AES256@   000000000008f794     OpensslLib:c_allc.obj
 0002:00023a1c       ??_C@_06FIIHOFAC@aes256@   000000000008f79c     OpensslLib:c_allc.obj
 0002:00023a28       ??_C@_07POIDCCOH@ARIA128@  000000000008f7a8     OpensslLib:c_allc.obj
 0002:00023a30       ??_C@_07OCFFDBP@aria128@   000000000008f7b0     OpensslLib:c_allc.obj
 0002:00023a38       ??_C@_07IDJCFIM@ARIA192@   000000000008f7b8     OpensslLib:c_allc.obj
 0002:00023a40       ??_C@_07PIJPFEHE@aria192@  000000000008f7c0     OpensslLib:c_allc.obj
 0002:00023a48       ??_C@_07HHPKLGAC@ARIA256@  000000000008f7c8     OpensslLib:c_allc.obj
 0002:00023a50       ??_C@_07IHFMMHPK@aria256@  000000000008f7d0     OpensslLib:c_allc.obj
 0002:00023a78       ??_C@_08CBANLEIB@ssl3?9md5@ 000000000008f7f8     OpensslLib:c_alld.obj
 0002:00023a88       ??_C@_09KCHAKJIH@ssl3?9sha1@ 000000000008f808     OpensslLib:c_alld.obj
 0002:00023aa0       dhx_pkey_meth              000000000008f820     OpensslLib:dh_pmeth.obj
 0002:00023ba0       dh_pkey_meth               000000000008f920     OpensslLib:dh_pmeth.obj
 0002:00023ca0       ??_C@_0BG@LEMCDPBI@dh_paramgen_prime_len@ 000000000008fa20     OpensslLib:dh_pmeth.obj
 0002:00023cb8       ??_C@_0L@CMAICHCO@dh_rfc5114@ 000000000008fa38     OpensslLib:dh_pmeth.obj
 0002:00023cc8       ??_C@_08DJOKJGHP@dh_param@ 000000000008fa48     OpensslLib:dh_pmeth.obj
 0002:00023cd8       ??_C@_0BG@POLEFOHA@dh_paramgen_generator@ 000000000008fa58     OpensslLib:dh_pmeth.obj
 0002:00023cf0       ??_C@_0BJ@HCAFJLBI@dh_paramgen_subprime_len@ 000000000008fa70     OpensslLib:dh_pmeth.obj
 0002:00023d10       ??_C@_0BB@DCMALDKK@dh_paramgen_type@ 000000000008fa90     OpensslLib:dh_pmeth.obj
 0002:00023d24       ??_C@_06GADFDCHC@dh_pad@   000000000008faa4     OpensslLib:dh_pmeth.obj
 0002:00023d30       cmac_pkey_meth             000000000008fab0     OpensslLib:cm_pmeth.obj
 0002:00023e30       ??_C@_06BHJHKMJC@hexkey@   000000000008fbb0     OpensslLib:cm_pmeth.obj
 0002:00023e40       ecx448_pkey_meth           000000000008fbc0     OpensslLib:ecx_meth.obj
 0002:00023f40       ed448_pkey_meth            000000000008fcc0     OpensslLib:ecx_meth.obj
 0002:00024040       ecx25519_pkey_meth         000000000008fdc0     OpensslLib:ecx_meth.obj
 0002:00024140       ed25519_pkey_meth          000000000008fec0     OpensslLib:ecx_meth.obj
 0002:00024240       ed448_asn1_meth            000000000008ffc0     OpensslLib:ecx_meth.obj
 0002:00024360       ed25519_asn1_meth          00000000000900e0     OpensslLib:ecx_meth.obj
 0002:00024480       ecx25519_asn1_meth         0000000000090200     OpensslLib:ecx_meth.obj
 0002:000245a0       ecx448_asn1_meth           0000000000090320     OpensslLib:ecx_meth.obj
 0002:000246b8       ??_C@_0BK@JGHKCBDG@?$CF?$CKs?$DMINVALID?5PRIVATE?5KEY?$DO?6@ 0000000000090438     OpensslLib:ecx_meth.obj
 0002:000246d8       ??_C@_0BE@BHOIIFAI@?$CF?$CKs?$CFs?5Private?9Key?3?6@ 0000000000090458     OpensslLib:ecx_meth.obj
 0002:000246f0       ??_C@_09CDOGNPAC@?$CF?$CKspriv?3?6@ 0000000000090470     OpensslLib:ecx_meth.obj
 0002:00024700       ??_C@_0BJ@NBDPFAFL@?$CF?$CKs?$DMINVALID?5PUBLIC?5KEY?$DO?6@ 0000000000090480     OpensslLib:ecx_meth.obj
 0002:00024720       ??_C@_0BD@HFJAOMDB@?$CF?$CKs?$CFs?5Public?9Key?3?6@ 00000000000904a0     OpensslLib:ecx_meth.obj
 0002:00024738       ??_C@_08BMIKENKP@?$CF?$CKspub?3?6@ 00000000000904b8     OpensslLib:ecx_meth.obj
 0002:00024748       ??_C@_0BJ@OPPGOKJE@OpenSSL?5X25519?5algorithm@ 00000000000904c8     OpensslLib:ecx_meth.obj
 0002:00024768       ??_C@_0BH@LCCDECOI@OpenSSL?5X448?5algorithm@ 00000000000904e8     OpensslLib:ecx_meth.obj
 0002:00024780       ??_C@_0BK@EOFFJDOF@OpenSSL?5ED25519?5algorithm@ 0000000000090500     OpensslLib:ecx_meth.obj
 0002:000247a0       ??_C@_0BI@FPELGGCO@OpenSSL?5ED448?5algorithm@ 0000000000090520     OpensslLib:ecx_meth.obj
 0002:000247c0       rsa_pkey_meth              0000000000090540     OpensslLib:rsa_pmeth.obj
 0002:000248c0       rsa_pss_pkey_meth          0000000000090640     OpensslLib:rsa_pmeth.obj
 0002:000249c0       ??_C@_0BB@BILFEOKG@rsa_padding_mode@ 0000000000090740     OpensslLib:rsa_pmeth.obj
 0002:000249d4       ??_C@_06PDLHKEJK@sslv23@   0000000000090754     OpensslLib:rsa_pmeth.obj
 0002:000249dc       ??_C@_04CGFJFPFD@none@     000000000009075c     OpensslLib:rsa_pmeth.obj
 0002:000249e4       ??_C@_04EIGNDHKO@oeap@     0000000000090764     OpensslLib:rsa_pmeth.obj
 0002:000249ec       ??_C@_04MAAGAICF@oaep@     000000000009076c     OpensslLib:rsa_pmeth.obj
 0002:000249f4       ??_C@_04JNCMEILM@x931@     0000000000090774     OpensslLib:rsa_pmeth.obj
 0002:00024a00       ??_C@_0BA@CIHMEEHB@rsa_pss_saltlen@ 0000000000090780     OpensslLib:rsa_pmeth.obj
 0002:00024a10       ??_C@_03LJAEFNNE@max@      0000000000090790     OpensslLib:rsa_pmeth.obj
 0002:00024a14       ??_C@_04HAPDLBFF@auto@     0000000000090794     OpensslLib:rsa_pmeth.obj
 0002:00024a20       ??_C@_0BA@GFPKPLAF@rsa_keygen_bits@ 00000000000907a0     OpensslLib:rsa_pmeth.obj
 0002:00024a30       ??_C@_0BC@DMECNPFD@rsa_keygen_pubexp@ 00000000000907b0     OpensslLib:rsa_pmeth.obj
 0002:00024a48       ??_C@_0BC@KMPAJFPF@rsa_keygen_primes@ 00000000000907c8     OpensslLib:rsa_pmeth.obj
 0002:00024a60       ??_C@_0M@CNLGKALE@rsa_mgf1_md@ 00000000000907e0     OpensslLib:rsa_pmeth.obj
 0002:00024a70       ??_C@_0BH@OIJPKNFL@rsa_pss_keygen_mgf1_md@ 00000000000907f0     OpensslLib:rsa_pmeth.obj
 0002:00024a88       ??_C@_0BC@BFLLMFID@rsa_pss_keygen_md@ 0000000000090808     OpensslLib:rsa_pmeth.obj
 0002:00024aa0       ??_C@_0BH@MFJEKBFK@rsa_pss_keygen_saltlen@ 0000000000090820     OpensslLib:rsa_pmeth.obj
 0002:00024ab8       ??_C@_0M@OPEEJBKE@rsa_oaep_md@ 0000000000090838     OpensslLib:rsa_pmeth.obj
 0002:00024ac8       ??_C@_0P@NCFNIFLM@rsa_oaep_label@ 0000000000090848     OpensslLib:rsa_pmeth.obj
 0002:00024ae0       tls1_prf_pkey_meth         0000000000090860     OpensslLib:tls1_prf.obj
 0002:00024be0       ??_C@_06PNMBKEGN@secret@   0000000000090960     OpensslLib:tls1_prf.obj
 0002:00024be8       ??_C@_09CIFGBJCP@hexsecret@ 0000000000090968     OpensslLib:tls1_prf.obj
 0002:00024bf8       ??_C@_07FKCLENDA@hexseed@  0000000000090978     OpensslLib:tls1_prf.obj
 0002:00024c00       hkdf_pkey_meth             0000000000090980     OpensslLib:hkdf.obj
 0002:00024d00       ??_C@_04GMGOKAFF@mode@     0000000000090a80     OpensslLib:hkdf.obj
 0002:00024d08       ??_C@_0BD@PBGBEBFD@EXTRACT_AND_EXPAND@ 0000000000090a88     OpensslLib:hkdf.obj
 0002:00024d20       ??_C@_0N@OIPAJIAH@EXTRACT_ONLY@ 0000000000090aa0     OpensslLib:hkdf.obj
 0002:00024d30       ??_C@_0M@FMHABNKF@EXPAND_ONLY@ 0000000000090ab0     OpensslLib:hkdf.obj
 0002:00024d3c       ??_C@_04OKLIMCN@salt@      0000000000090abc     OpensslLib:hkdf.obj
 0002:00024d48       ??_C@_07JAFKPDLJ@hexsalt@  0000000000090ac8     OpensslLib:hkdf.obj
 0002:00024d50       ??_C@_07EGMICCIA@hexinfo@  0000000000090ad0     OpensslLib:hkdf.obj
 0002:00024d60       sm2_pkey_meth              0000000000090ae0     OpensslLib:sm2_pmeth.obj
 0002:00024e60       ??_C@_0BC@BLCJLNNM@ec_paramgen_curve@ 0000000000090be0     OpensslLib:sm2_pmeth.obj
 0002:00024e78       ??_C@_0N@CHHABLAI@ec_param_enc@ 0000000000090bf8     OpensslLib:sm2_pmeth.obj
 0002:00024e88       ??_C@_08FCANLLBJ@explicit@ 0000000000090c08     OpensslLib:sm2_pmeth.obj
 0002:00024e98       ??_C@_0M@FBFAECBG@named_curve@ 0000000000090c18     OpensslLib:sm2_pmeth.obj
 0002:00024eb0       siphash_pkey_meth          0000000000090c30     OpensslLib:siphash_pmeth.obj
 0002:00024fb0       ??_C@_0L@NANBDDC@digestsize@ 0000000000090d30     OpensslLib:siphash_pmeth.obj
 0002:00024fc0       ec_pkey_meth               0000000000090d40     OpensslLib:ec_pmeth.obj
 0002:000250c0       ??_C@_0M@JAAKIKPH@ecdh_kdf_md@ 0000000000090e40     OpensslLib:ec_pmeth.obj
 0002:000250d0       ??_C@_0BD@CPNABICB@ecdh_cofactor_mode@ 0000000000090e50     OpensslLib:ec_pmeth.obj
 0002:000250f0       hmac_pkey_meth             0000000000090e70     OpensslLib:hm_pmeth.obj
 0002:000251f0       ??_C@_0L@LIHNHIHF@?$CF?$CKs?$CF04x?5?9?5@ 0000000000090f70     OpensslLib:b_dump.obj
 0002:000251fc       ??_C@_03NDEAONJP@?5?5?5@   0000000000090f7c     OpensslLib:b_dump.obj
 0002:00025200       ??_C@_02KNHHEEKP@?5?5@     0000000000090f80     OpensslLib:b_dump.obj
 0002:00025204       ??_C@_06KAALCHHK@crlUrl@   0000000000090f84     OpensslLib:ocsp_asn.obj
 0002:0002520c       ??_C@_06DLEHNACA@crlNum@   0000000000090f8c     OpensslLib:ocsp_asn.obj
 0002:00025218       ??_C@_07BDEAJPPO@crlTime@  0000000000090f98     OpensslLib:ocsp_asn.obj
 0002:00025220       ??_C@_0L@JOKCDHBA@OCSP_CRLID@ 0000000000090fa0     OpensslLib:ocsp_asn.obj
 0002:00025230       ??_C@_07PAIKCKMF@locator@  0000000000090fb0     OpensslLib:ocsp_asn.obj
 0002:00025238       ??_C@_0BA@JLGHGCLL@OCSP_SERVICELOC@ 0000000000090fb8     OpensslLib:ocsp_asn.obj
 0002:000252f0       OCSP_SERVICELOC_it         0000000000091070     OpensslLib:ocsp_asn.obj
 0002:00025320       OCSP_CRLID_it              00000000000910a0     OpensslLib:ocsp_asn.obj
 0002:00025350       ??_C@_0BD@LDHEJACI@OpenSSL?5PKCS?$CD1?5RSA@ 00000000000910d0     OpensslLib:rsa_ossl.obj
 0002:00025368       ??_C@_0BC@MGHKLCAP@OpenSSL?5DH?5Method@ 00000000000910e8     OpensslLib:dh_key.obj
 0002:00025380       cmac_asn1_meth             0000000000091100     OpensslLib:cm_ameth.obj
 0002:00025498       ??_C@_0BE@GBIGMENL@OpenSSL?5CMAC?5method@ 0000000000091218     OpensslLib:cm_ameth.obj
 0002:000254b0       sm2_asn1_meth              0000000000091230     OpensslLib:ec_ameth.obj
 0002:000255d0       eckey_asn1_meth            0000000000091350     OpensslLib:ec_ameth.obj
 0002:000256e8       ??_C@_0M@CJKOCIEC@Private?9Key@ 0000000000091468     OpensslLib:ec_ameth.obj
 0002:000256f8       ??_C@_0L@FMJMEKAC@Public?9Key@ 0000000000091478     OpensslLib:ec_ameth.obj
 0002:00025708       ??_C@_0BB@DMDKLH@ECDSA?9Parameters@ 0000000000091488     OpensslLib:ec_ameth.obj
 0002:00025720       ??_C@_0O@OPPPNLCD@?$CFs?3?5?$CI?$CFd?5bit?$CJ?6@ 00000000000914a0     OpensslLib:ec_ameth.obj
 0002:00025730       ??_C@_02KNLLHFAA@EC@       00000000000914b0     OpensslLib:ec_ameth.obj
 0002:00025738       ??_C@_0BF@DKDIFOGG@OpenSSL?5EC?5algorithm@ 00000000000914b8     OpensslLib:ec_ameth.obj
 0002:00025750       siphash_asn1_meth          00000000000914d0     OpensslLib:siphash_ameth.obj
 0002:00025868       ??_C@_07IBBIJFNK@SIPHASH@  00000000000915e8     OpensslLib:siphash_ameth.obj
 0002:00025870       ??_C@_0BH@FCFCAEA@OpenSSL?5SIPHASH?5method@ 00000000000915f0     OpensslLib:siphash_ameth.obj
 0002:00025890       hmac_asn1_meth             0000000000091610     OpensslLib:hm_ameth.obj
 0002:000259a8       ??_C@_0BE@BABEGANF@OpenSSL?5HMAC?5method@ 0000000000091728     OpensslLib:hm_ameth.obj
 0002:000259c0       rsa_pss_asn1_meth          0000000000091740     OpensslLib:rsa_ameth.obj
 0002:00025ae0       rsa_asn1_meths             0000000000091860     OpensslLib:rsa_ameth.obj
 0002:00025d10       ??_C@_0BP@CGCIOPAF@No?5PSS?5parameter?5restrictions?6@ 0000000000091a90     OpensslLib:rsa_ameth.obj
 0002:00025d30       ??_C@_0BM@OMMNCLDM@PSS?5parameter?5restrictions?3@ 0000000000091ab0     OpensslLib:rsa_ameth.obj
 0002:00025d50       ??_C@_0BK@KFGFELEH@?$CIINVALID?5PSS?5PARAMETERS?$CJ?6@ 0000000000091ad0     OpensslLib:rsa_ameth.obj
 0002:00025d70       ??_C@_0BB@PMMDHLKH@Hash?5Algorithm?3?5@ 0000000000091af0     OpensslLib:rsa_ameth.obj
 0002:00025d88       ??_C@_0P@ODEAMLKF@sha1?5?$CIdefault?$CJ@ 0000000000091b08     OpensslLib:rsa_ameth.obj
 0002:00025d98       ??_C@_0BB@HEAMLCPA@Mask?5Algorithm?3?5@ 0000000000091b18     OpensslLib:rsa_ameth.obj
 0002:00025dac       ??_C@_06BIDGLIKJ@?5with?5@ 0000000000091b2c     OpensslLib:rsa_ameth.obj
 0002:00025db8       ??_C@_07DNODLGKM@INVALID@  0000000000091b38     OpensslLib:rsa_ameth.obj
 0002:00025dc0       ??_C@_0BJ@NNFOENLD@mgf1?5with?5sha1?5?$CIdefault?$CJ@ 0000000000091b40     OpensslLib:rsa_ameth.obj
 0002:00025de0       ??_C@_07NLJCBFAF@Minimum@  0000000000091b60     OpensslLib:rsa_ameth.obj
 0002:00025de8       ??_C@_0BD@DPAJFAGN@?$CFs?5Salt?5Length?3?50x@ 0000000000091b68     OpensslLib:rsa_ameth.obj
 0002:00025e00       ??_C@_0N@CGLOPGL@14?5?$CIdefault?$CJ@ 0000000000091b80     OpensslLib:rsa_ameth.obj
 0002:00025e10       ??_C@_0BC@EDKEKAHK@Trailer?5Field?3?50x@ 0000000000091b90     OpensslLib:rsa_ameth.obj
 0002:00025e28       ??_C@_0N@FFIHJHFK@BC?5?$CIdefault?$CJ@ 0000000000091ba8     OpensslLib:rsa_ameth.obj
 0002:00025e38       ??_C@_07FGNHIEKH@RSA?9PSS@ 0000000000091bb8     OpensslLib:rsa_ameth.obj
 0002:00025e40       ??_C@_03IKGEINEE@?$CFs?5@  0000000000091bc0     OpensslLib:rsa_ameth.obj
 0002:00025e48       ??_C@_0CC@BJIIEMBB@Private?9Key?3?5?$CI?$CFd?5bit?0?5?$CFd?5primes@ 0000000000091bc8     OpensslLib:rsa_ameth.obj
 0002:00025e70       ??_C@_08OKDKAJKD@modulus?3@ 0000000000091bf0     OpensslLib:rsa_ameth.obj
 0002:00025e80       ??_C@_0BA@FAAMOFHC@publicExponent?3@ 0000000000091c00     OpensslLib:rsa_ameth.obj
 0002:00025e90       ??_C@_0BG@HAJOCCOP@Public?9Key?3?5?$CI?$CFd?5bit?$CJ?6@ 0000000000091c10     OpensslLib:rsa_ameth.obj
 0002:00025ea8       ??_C@_08GIMLILAA@Modulus?3@ 0000000000091c28     OpensslLib:rsa_ameth.obj
 0002:00025eb8       ??_C@_09DALHJPOO@Exponent?3@ 0000000000091c38     OpensslLib:rsa_ameth.obj
 0002:00025ec8       ??_C@_0BB@NFOLHHHJ@privateExponent?3@ 0000000000091c48     OpensslLib:rsa_ameth.obj
 0002:00025ee0       ??_C@_07PNLMLIF@prime1?3@  0000000000091c60     OpensslLib:rsa_ameth.obj
 0002:00025ee8       ??_C@_07NJNHFNM@prime2?3@  0000000000091c68     OpensslLib:rsa_ameth.obj
 0002:00025ef0       ??_C@_0L@OIOCMGKP@exponent1?3@ 0000000000091c70     OpensslLib:rsa_ameth.obj
 0002:00025f00       ??_C@_0L@OKKEHIPG@exponent2?3@ 0000000000091c80     OpensslLib:rsa_ameth.obj
 0002:00025f10       ??_C@_0N@GNAMJPHF@coefficient?3@ 0000000000091c90     OpensslLib:rsa_ameth.obj
 0002:00025f20       ??_C@_08BCNLBGP@prime?$CFd?3@ 0000000000091ca0     OpensslLib:rsa_ameth.obj
 0002:00025f30       ??_C@_0M@NKHBEBLE@exponent?$CFd?3@ 0000000000091cb0     OpensslLib:rsa_ameth.obj
 0002:00025f40       ??_C@_0P@FAPFJECG@coefficient?$CFd?3@ 0000000000091cc0     OpensslLib:rsa_ameth.obj
 0002:00025f50       ??_C@_0BD@MHOEKPBI@OpenSSL?5RSA?5method@ 0000000000091cd0     OpensslLib:rsa_ameth.obj
 0002:00025f68       ??_C@_0BH@JANGLOLP@OpenSSL?5RSA?9PSS?5method@ 0000000000091ce8     OpensslLib:rsa_ameth.obj
 0002:00025f80       dh_asn1_meth               0000000000091d00     OpensslLib:dh_ameth.obj
 0002:000260a0       dhx_asn1_meth              0000000000091e20     OpensslLib:dh_ameth.obj
 0002:000261b8       ??_C@_0P@ELBFBOG@DH?5Private?9Key@ 0000000000091f38     OpensslLib:dh_ameth.obj
 0002:000261c8       ??_C@_0O@EBAKGDPN@DH?5Public?9Key@ 0000000000091f48     OpensslLib:dh_ameth.obj
 0002:000261d8       ??_C@_0O@OMPEPKAJ@DH?5Parameters@ 0000000000091f58     OpensslLib:dh_ameth.obj
 0002:000261e8       ??_C@_0N@MPONDEBM@private?9key?3@ 0000000000091f68     OpensslLib:dh_ameth.obj
 0002:000261f8       ??_C@_0M@BCALNHOD@public?9key?3@ 0000000000091f78     OpensslLib:dh_ameth.obj
 0002:00026204       ??_C@_06POMKLBDA@prime?3@  0000000000091f84     OpensslLib:dh_ameth.obj
 0002:00026210       ??_C@_0L@HDGHCIJF@generator?3@ 0000000000091f90     OpensslLib:dh_ameth.obj
 0002:00026220       ??_C@_0BA@PFGIPGBD@subgroup?5order?3@ 0000000000091fa0     OpensslLib:dh_ameth.obj
 0002:00026230       ??_C@_0BB@HEOELHJJ@subgroup?5factor?3@ 0000000000091fb0     OpensslLib:dh_ameth.obj
 0002:00026244       ??_C@_05PENGGDLK@seed?3@   0000000000091fc4     OpensslLib:dh_ameth.obj
 0002:0002624c       ??_C@_06LEJCPMLM@?$CF02x?$CFs@ 0000000000091fcc     OpensslLib:dh_ameth.obj
 0002:00026258       ??_C@_08ILALFGPI@counter?3@ 0000000000091fd8     OpensslLib:dh_ameth.obj
 0002:00026268       ??_C@_0CF@KKPEILHE@recommended?9private?9length?3?5?$CFd?5@ 0000000000091fe8     OpensslLib:dh_ameth.obj
 0002:00026290       ??_C@_02EPINMGPM@DH@       0000000000092010     OpensslLib:dh_ameth.obj
 0002:00026298       ??_C@_0BJ@OPGBMMOB@OpenSSL?5PKCS?$CD3?5DH?5method@ 0000000000092018     OpensslLib:dh_ameth.obj
 0002:000262b8       ??_C@_0BI@JOIJFJMC@OpenSSL?5X9?442?5DH?5method@ 0000000000092038     OpensslLib:dh_ameth.obj
 0002:000262d0       v3_ocsp_accresp            0000000000092050     OpensslLib:v3_extku.obj
 0002:00026340       v3_ext_ku                  00000000000920c0     OpensslLib:v3_extku.obj
 0002:000263a8       ??_C@_0BD@CKAGEBEF@EXTENDED_KEY_USAGE@ 0000000000092128     OpensslLib:v3_extku.obj
 0002:000263e0       EXTENDED_KEY_USAGE_it      0000000000092160     OpensslLib:v3_extku.obj
 0002:00026410       v3_key_usage               0000000000092190     OpensslLib:v3_bitst.obj
 0002:00026480       v3_nscert                  0000000000092200     OpensslLib:v3_bitst.obj
 0002:000264e8       ??_C@_06DGDLPBAN@client@   0000000000092268     OpensslLib:v3_bitst.obj
 0002:000264f0       ??_C@_06HJHJCKIO@server@   0000000000092270     OpensslLib:v3_bitst.obj
 0002:000264f8       ??_C@_0P@DDHLFHHK@Object?5Signing@ 0000000000092278     OpensslLib:v3_bitst.obj
 0002:00026508       ??_C@_07GIOKFKGL@objsign@  0000000000092288     OpensslLib:v3_bitst.obj
 0002:00026510       ??_C@_08FINKBBAF@reserved@ 0000000000092290     OpensslLib:v3_bitst.obj
 0002:0002651c       ??_C@_06FMDLPOFJ@SSL?5CA@  000000000009229c     OpensslLib:v3_bitst.obj
 0002:00026524       ??_C@_05JHLHLOEK@sslCA@    00000000000922a4     OpensslLib:v3_bitst.obj
 0002:00026530       ??_C@_09GIEMCMEO@S?1MIME?5CA@ 00000000000922b0     OpensslLib:v3_bitst.obj
 0002:00026540       ??_C@_07FFHDGPMJ@emailCA@  00000000000922c0     OpensslLib:v3_bitst.obj
 0002:00026548       ??_C@_0BC@FAMHGMHB@Object?5Signing?5CA@ 00000000000922c8     OpensslLib:v3_bitst.obj
 0002:0002655c       ??_C@_05JLEIJNEE@objCA@    00000000000922dc     OpensslLib:v3_bitst.obj
 0002:00026568       ??_C@_0BC@DPKEIPIO@Digital?5Signature@ 00000000000922e8     OpensslLib:v3_bitst.obj
 0002:00026580       ??_C@_0BB@MFKHIIOM@digitalSignature@ 0000000000092300     OpensslLib:v3_bitst.obj
 0002:00026598       ??_C@_0BA@DJCGBBAI@Non?5Repudiation@ 0000000000092318     OpensslLib:v3_bitst.obj
 0002:000265a8       ??_C@_0P@GPCNPOGO@nonRepudiation@ 0000000000092328     OpensslLib:v3_bitst.obj
 0002:000265b8       ??_C@_0BB@KNACIBEN@Key?5Encipherment@ 0000000000092338     OpensslLib:v3_bitst.obj
 0002:000265d0       ??_C@_0BA@MINCLOJG@keyEncipherment@ 0000000000092350     OpensslLib:v3_bitst.obj
 0002:000265e0       ??_C@_0BC@GNPIAJLP@Data?5Encipherment@ 0000000000092360     OpensslLib:v3_bitst.obj
 0002:000265f8       ??_C@_0BB@LBKKKIGO@dataEncipherment@ 0000000000092378     OpensslLib:v3_bitst.obj
 0002:00026610       ??_C@_0O@EOJOBCHL@Key?5Agreement@ 0000000000092390     OpensslLib:v3_bitst.obj
 0002:00026620       ??_C@_0N@GONHKOEO@keyAgreement@ 00000000000923a0     OpensslLib:v3_bitst.obj
 0002:00026630       ??_C@_0BB@ELNGMDLH@Certificate?5Sign@ 00000000000923b0     OpensslLib:v3_bitst.obj
 0002:00026648       ??_C@_0M@ONBOOMGI@keyCertSign@ 00000000000923c8     OpensslLib:v3_bitst.obj
 0002:00026658       ??_C@_08OCJGKMAN@CRL?5Sign@ 00000000000923d8     OpensslLib:v3_bitst.obj
 0002:00026668       ??_C@_07IHBCCDFJ@cRLSign@  00000000000923e8     OpensslLib:v3_bitst.obj
 0002:00026670       ??_C@_0O@CANGKMJD@Encipher?5Only@ 00000000000923f0     OpensslLib:v3_bitst.obj
 0002:00026680       ??_C@_0N@BEFDLIKF@encipherOnly@ 0000000000092400     OpensslLib:v3_bitst.obj
 0002:00026690       ??_C@_0O@FKBAPCEG@Decipher?5Only@ 0000000000092410     OpensslLib:v3_bitst.obj
 0002:000266a0       ??_C@_0N@LIFHMFCO@decipherOnly@ 0000000000092420     OpensslLib:v3_bitst.obj
 0002:000266b0       v3_ocsp_crlid              0000000000092430     OpensslLib:v3_ocsp.obj
 0002:00026720       v3_crl_hold                00000000000924a0     OpensslLib:v3_ocsp.obj
 0002:00026790       v3_ocsp_nocheck            0000000000092510     OpensslLib:v3_ocsp.obj
 0002:00026800       v3_ocsp_acutoff            0000000000092580     OpensslLib:v3_ocsp.obj
 0002:00026870       v3_ocsp_nonce              00000000000925f0     OpensslLib:v3_ocsp.obj
 0002:000268e0       v3_crl_invdate             0000000000092660     OpensslLib:v3_ocsp.obj
 0002:00026950       v3_ocsp_serviceloc         00000000000926d0     OpensslLib:v3_ocsp.obj
 0002:000269b8       ??_C@_0M@KIKBFHBJ@?$CF?$CKscrlUrl?3?5@ 0000000000092738     OpensslLib:v3_ocsp.obj
 0002:000269c8       ??_C@_0M@MLCMBODE@?$CF?$CKscrlNum?3?5@ 0000000000092748     OpensslLib:v3_ocsp.obj
 0002:000269d8       ??_C@_0N@IBJOMEDL@?$CF?$CKscrlTime?3?5@ 0000000000092758     OpensslLib:v3_ocsp.obj
 0002:000269e8       ??_C@_0M@IHOINNJF@?$CF?$CKsIssuer?3?5@ 0000000000092768     OpensslLib:v3_ocsp.obj
 0002:000269f4       ??_C@_04NFEJKGEM@?6?$CF?$CKs@ 0000000000092774     OpensslLib:v3_ocsp.obj
 0002:000269fc       ??_C@_03NLJIHOMM@?5?9?5@   000000000009277c     OpensslLib:v3_ocsp.obj
 0002:00026a00       v3_akey_id                 0000000000092780     OpensslLib:v3_akey.obj
 0002:00026a68       ??_C@_06KHDOHNKC@always@   00000000000927e8     OpensslLib:v3_akey.obj
 0002:00026a70       v3_ns_ia5_list             00000000000927f0     OpensslLib:v3_ia5.obj
 0002:00026db0       v3_delta_crl               0000000000092b30     OpensslLib:v3_int.obj
 0002:00026e20       v3_inhibit_anyp            0000000000092ba0     OpensslLib:v3_int.obj
 0002:00026e90       v3_crl_num                 0000000000092c10     OpensslLib:v3_int.obj
 0002:00026f00       v3_ext_admission           0000000000092c80     OpensslLib:v3_admis.obj
 0002:00026f68       ??_C@_0BC@KHBCHCNJ@namingAuthorityId@ 0000000000092ce8     OpensslLib:v3_admis.obj
 0002:00026f80       ??_C@_0BD@DEIEGLEM@namingAuthorityUrl@ 0000000000092d00     OpensslLib:v3_admis.obj
 0002:00026f98       ??_C@_0BE@NPIMHIBI@namingAuthorityText@ 0000000000092d18     OpensslLib:v3_admis.obj
 0002:00026fb0       ??_C@_0BB@COJAOCFM@NAMING_AUTHORITY@ 0000000000092d30     OpensslLib:v3_admis.obj
 0002:00026fc8       ??_C@_0BA@DBBLIBJC@namingAuthority@ 0000000000092d48     OpensslLib:v3_admis.obj
 0002:00026fd8       ??_C@_0BA@JCIKJJCP@professionItems@ 0000000000092d58     OpensslLib:v3_admis.obj
 0002:00026fe8       ??_C@_0P@PBNEFCJO@professionOIDs@ 0000000000092d68     OpensslLib:v3_admis.obj
 0002:00026ff8       ??_C@_0BD@NJLNALHF@registrationNumber@ 0000000000092d78     OpensslLib:v3_admis.obj
 0002:00027010       ??_C@_0BC@EDMGMCCO@addProfessionInfo@ 0000000000092d90     OpensslLib:v3_admis.obj
 0002:00027028       ??_C@_0BA@KKEGAEAH@PROFESSION_INFO@ 0000000000092da8     OpensslLib:v3_admis.obj
 0002:00027038       ??_C@_0BD@GKCCDPCL@admissionAuthority@ 0000000000092db8     OpensslLib:v3_admis.obj
 0002:00027050       ??_C@_0BA@KJOLGNIM@professionInfos@ 0000000000092dd0     OpensslLib:v3_admis.obj
 0002:00027060       ??_C@_0L@OIMBEHAN@ADMISSIONS@ 0000000000092de0     OpensslLib:v3_admis.obj
 0002:00027070       ??_C@_0BF@FNBKMPAG@contentsOfAdmissions@ 0000000000092df0     OpensslLib:v3_admis.obj
 0002:00027088       ??_C@_0BB@PBMIGONA@ADMISSION_SYNTAX@ 0000000000092e08     OpensslLib:v3_admis.obj
 0002:000270a0       ??_C@_0BF@MPDFFBEA@?$CF?$CKsnamingAuthority?3?5@ 0000000000092e20     OpensslLib:v3_admis.obj
 0002:000270b8       ??_C@_0BM@DCICMEAO@?$CF?$CKs?5?5admissionAuthorityId?3?5@ 0000000000092e38     OpensslLib:v3_admis.obj
 0002:000270d4       ??_C@_01PKGAHCOL@?$CJ@     0000000000092e54     OpensslLib:v3_admis.obj
 0002:000270d8       ??_C@_02GFKOMOKH@?5?$CI@   0000000000092e58     OpensslLib:v3_admis.obj
 0002:000270e0       ??_C@_09MCJOGJJM@?$CFs?$CFs?$CFs?$CFs?6@ 0000000000092e60     OpensslLib:v3_admis.obj
 0002:000270f0       ??_C@_0BL@DELGFPFK@?$CF?$CKs?5?5namingAuthorityText?3?5@ 0000000000092e70     OpensslLib:v3_admis.obj
 0002:00027110       ??_C@_0BK@OPCGIEEP@?$CF?$CKs?5?5namingAuthorityUrl?3?5@ 0000000000092e90     OpensslLib:v3_admis.obj
 0002:00027130       ??_C@_0BI@NKKBPCEB@?$CF?$CKsadmissionAuthority?3?6@ 0000000000092eb0     OpensslLib:v3_admis.obj
 0002:00027148       ??_C@_05EGGOJAEM@?$CF?$CKs?5?5@ 0000000000092ec8     OpensslLib:v3_admis.obj
 0002:00027150       ??_C@_0P@ONCDAKNH@?$CF?$CKsEntry?5?$CF0d?3?6@ 0000000000092ed0     OpensslLib:v3_admis.obj
 0002:00027160       ??_C@_0BK@MGPHHOEM@?$CF?$CKs?5?5admissionAuthority?3?6@ 0000000000092ee0     OpensslLib:v3_admis.obj
 0002:00027180       ??_C@_07BAKLHGB@?$CF?$CKs?5?5?5?5@ 0000000000092f00     OpensslLib:v3_admis.obj
 0002:00027188       ??_C@_0CB@JOPMCDOG@?$CF?$CKs?5?5Profession?5Info?5Entry?5?$CF0d?3@ 0000000000092f08     OpensslLib:v3_admis.obj
 0002:000271b0       ??_C@_0BM@PNLACIIE@?$CF?$CKs?5?5?5?5registrationNumber?3?5@ 0000000000092f30     OpensslLib:v3_admis.obj
 0002:000271d0       ??_C@_0BG@COHLBKD@?$CF?$CKs?5?5?5?5Info?5Entries?3?6@ 0000000000092f50     OpensslLib:v3_admis.obj
 0002:000271e8       ??_C@_09IECKBPIB@?$CF?$CKs?5?5?5?5?5?5@ 0000000000092f68     OpensslLib:v3_admis.obj
 0002:000271f8       ??_C@_0BJ@KFOBDAG@?$CF?$CKs?5?5?5?5Profession?5OIDs?3?6@ 0000000000092f78     OpensslLib:v3_admis.obj
 0002:00027218       ??_C@_0BD@OELCPJIC@?$CF?$CKs?5?5?5?5?5?5?$CFs?$CFs?$CFs?$CFs?6@ 0000000000092f98     OpensslLib:v3_admis.obj
 0002:00027230       PROFESSION_INFO_it         0000000000092fb0     OpensslLib:v3_admis.obj
 0002:000272c0       ADMISSION_SYNTAX_it        0000000000093040     OpensslLib:v3_admis.obj
 0002:000272f0       ADMISSIONS_it              0000000000093070     OpensslLib:v3_admis.obj
 0002:00027460       NAMING_AUTHORITY_it        00000000000931e0     OpensslLib:v3_admis.obj
 0002:00027490       v3_skey_id                 0000000000093210     OpensslLib:v3_skey.obj
 0002:000274f8       ??_C@_04OIJGJDKO@hash@     0000000000093278     OpensslLib:v3_skey.obj
 0002:00027500       v3_crl_reason              0000000000093280     OpensslLib:v3_enum.obj
 0002:00027568       ??_C@_0M@NNPCGPMF@Unspecified@ 00000000000932e8     OpensslLib:v3_enum.obj
 0002:00027578       ??_C@_0M@MFMDLEDN@unspecified@ 00000000000932f8     OpensslLib:v3_enum.obj
 0002:00027588       ??_C@_0BA@GLPEKBIK@Remove?5From?5CRL@ 0000000000093308     OpensslLib:v3_enum.obj
 0002:00027598       ??_C@_0O@BILLKPKO@removeFromCRL@ 0000000000093318     OpensslLib:v3_enum.obj
 0002:000275b0       v3_pkey_usage_period       0000000000093330     OpensslLib:v3_pku.obj
 0002:00027618       ??_C@_0BC@CCOKACDM@PKEY_USAGE_PERIOD@ 0000000000093398     OpensslLib:v3_pku.obj
 0002:00027630       ??_C@_0N@KGLJEEMK@Not?5Before?3?5@ 00000000000933b0     OpensslLib:v3_pku.obj
 0002:00027640       ??_C@_0M@FCHJLIHE@Not?5After?3?5@ 00000000000933c0     OpensslLib:v3_pku.obj
 0002:00027690       PKEY_USAGE_PERIOD_it       0000000000093410     OpensslLib:v3_pku.obj
 0002:000276c0       v3_policy_mappings         0000000000093440     OpensslLib:v3_pmaps.obj
 0002:00027728       ??_C@_0BD@JILOPHFL@issuerDomainPolicy@ 00000000000934a8     OpensslLib:v3_pmaps.obj
 0002:00027740       ??_C@_0BE@FFIKMOKF@subjectDomainPolicy@ 00000000000934c0     OpensslLib:v3_pmaps.obj
 0002:00027758       ??_C@_0P@NLHMKCKF@POLICY_MAPPING@ 00000000000934d8     OpensslLib:v3_pmaps.obj
 0002:00027768       ??_C@_0BA@DHPBCFFC@POLICY_MAPPINGS@ 00000000000934e8     OpensslLib:v3_pmaps.obj
 0002:000277c0       POLICY_MAPPINGS_it         0000000000093540     OpensslLib:v3_pmaps.obj
 0002:000277f0       POLICY_MAPPING_it          0000000000093570     OpensslLib:v3_pmaps.obj
 0002:00027840       v3_sxnet                   00000000000935c0     OpensslLib:v3_sxnet.obj
 0002:000278a8       ??_C@_04LDDJGOBB@zone@     0000000000093628     OpensslLib:v3_sxnet.obj
 0002:000278b0       ??_C@_04CCHAHKJA@user@     0000000000093630     OpensslLib:v3_sxnet.obj
 0002:000278b8       ??_C@_07FLDOGLPN@SXNETID@  0000000000093638     OpensslLib:v3_sxnet.obj
 0002:000278c0       ??_C@_03NDFJNBKD@ids@      0000000000093640     OpensslLib:v3_sxnet.obj
 0002:000278c4       ??_C@_05BPAJFIHK@SXNET@    0000000000093644     OpensslLib:v3_sxnet.obj
 0002:000278d0       ??_C@_0BF@NMLBNADB@?6?$CF?$CKsZone?3?5?$CFs?0?5User?3?5@ 0000000000093650     OpensslLib:v3_sxnet.obj
 0002:00027930       SXNETID_it                 00000000000936b0     OpensslLib:v3_sxnet.obj
 0002:000279a0       SXNET_it                   0000000000093720     OpensslLib:v3_sxnet.obj
 0002:000279d0       v3_pci                     0000000000093750     OpensslLib:v3_pci.obj
 0002:00027a38       ??_C@_0BE@HDJEDONA@?$CF?$CKsPolicy?5Text?3?5?$CFs?6@ 00000000000937b8     OpensslLib:v3_pci.obj
 0002:00027a50       ??_C@_08JGCCIMAA@language@ 00000000000937d0     OpensslLib:v3_pci.obj
 0002:00027a5c       ??_C@_04ODCMNEMO@hex?3@    00000000000937dc     OpensslLib:v3_pci.obj
 0002:00027a64       ??_C@_05BOPHDICO@file?3@   00000000000937e4     OpensslLib:v3_pci.obj
 0002:00027a6c       ??_C@_05FHIGHPDA@text?3@   00000000000937ec     OpensslLib:v3_pci.obj
 0002:00027a80       v3_tls_feature             0000000000093800     OpensslLib:v3_tlsf.obj
 0002:00027ae8       ??_C@_0M@HGHOPPFP@TLS_FEATURE@ 0000000000093868     OpensslLib:v3_tlsf.obj
 0002:00027af8       ??_C@_0P@NAKMKOPA@status_request@ 0000000000093878     OpensslLib:v3_tlsf.obj
 0002:00027b08       ??_C@_0BC@HEECFCMD@status_request_v2@ 0000000000093888     OpensslLib:v3_tlsf.obj
 0002:00027b70       ??_C@_04JBGFELJA@tag?$DN@  00000000000938f0     OpensslLib:asn1_gen.obj
 0002:00027b78       ??_C@_05CCNLIHFO@ASCII@    00000000000938f8     OpensslLib:asn1_gen.obj
 0002:00027b80       ??_C@_03IECIMIEG@HEX@      0000000000093900     OpensslLib:asn1_gen.obj
 0002:00027b88       ??_C@_07HMNLDFAL@BITLIST@  0000000000093908     OpensslLib:asn1_gen.obj
 0002:00027b90       ??_C@_05NALEHOPE@Char?$DN@ 0000000000093910     OpensslLib:asn1_gen.obj
 0002:00027b98       ??_C@_04PPJDIBFE@BOOL@     0000000000093918     OpensslLib:asn1_gen.obj
 0002:00027ba0       ??_C@_03JMHEAPMO@INT@      0000000000093920     OpensslLib:asn1_gen.obj
 0002:00027ba4       ??_C@_04PNKFCNMG@ENUM@     0000000000093924     OpensslLib:asn1_gen.obj
 0002:00027bac       ??_C@_03PGJCFEMG@OID@      000000000009392c     OpensslLib:asn1_gen.obj
 0002:00027bb0       ??_C@_03JCIJEFNJ@UTC@      0000000000093930     OpensslLib:asn1_gen.obj
 0002:00027bb8       ??_C@_07EECHABMP@GENTIME@  0000000000093938     OpensslLib:asn1_gen.obj
 0002:00027bc0       ??_C@_03LBMHMDEB@OCT@      0000000000093940     OpensslLib:asn1_gen.obj
 0002:00027bc8       ??_C@_0M@JIDALIGG@OCTETSTRING@ 0000000000093948     OpensslLib:asn1_gen.obj
 0002:00027bd4       ??_C@_06GOEDGPII@BITSTR@   0000000000093954     OpensslLib:asn1_gen.obj
 0002:00027be0       ??_C@_09MBLGEDKL@BITSTRING@ 0000000000093960     OpensslLib:asn1_gen.obj
 0002:00027bec       ??_C@_04CBEPCLMK@UNIV@     000000000009396c     OpensslLib:asn1_gen.obj
 0002:00027bf4       ??_C@_03OLMOBCBF@IA5@      0000000000093974     OpensslLib:asn1_gen.obj
 0002:00027bf8       ??_C@_09OMDMMLJJ@PRINTABLE@ 0000000000093978     OpensslLib:asn1_gen.obj
 0002:00027c04       ??_C@_03HMGPCGIG@T61@      0000000000093984     OpensslLib:asn1_gen.obj
 0002:00027c08       ??_C@_0O@GENPGMAM@TELETEXSTRING@ 0000000000093988     OpensslLib:asn1_gen.obj
 0002:00027c18       ??_C@_0O@OIKLOOAP@GeneralString@ 0000000000093998     OpensslLib:asn1_gen.obj
 0002:00027c28       ??_C@_06GBOJAPHH@GENSTR@   00000000000939a8     OpensslLib:asn1_gen.obj
 0002:00027c30       ??_C@_07DBOJJFHC@NUMERIC@  00000000000939b0     OpensslLib:asn1_gen.obj
 0002:00027c38       ??_C@_03NCPCKDJB@SEQ@      00000000000939b8     OpensslLib:asn1_gen.obj
 0002:00027c3c       ??_C@_03KKGFKKLA@EXP@      00000000000939bc     OpensslLib:asn1_gen.obj
 0002:00027c40       ??_C@_08CNKBIFDO@EXPLICIT@ 00000000000939c0     OpensslLib:asn1_gen.obj
 0002:00027c4c       ??_C@_03PKFOHEJD@IMP@      00000000000939cc     OpensslLib:asn1_gen.obj
 0002:00027c50       ??_C@_08PPMOEJGF@IMPLICIT@ 00000000000939d0     OpensslLib:asn1_gen.obj
 0002:00027c60       ??_C@_07KIEILLID@OCTWRAP@  00000000000939e0     OpensslLib:asn1_gen.obj
 0002:00027c68       ??_C@_07LAEBDLGO@SEQWRAP@  00000000000939e8     OpensslLib:asn1_gen.obj
 0002:00027c70       ??_C@_07OAIMKKNN@SETWRAP@  00000000000939f0     OpensslLib:asn1_gen.obj
 0002:00027c78       ??_C@_07JHDNPBBM@BITWRAP@  00000000000939f8     OpensslLib:asn1_gen.obj
 0002:00027c80       ??_C@_04HPGCGPG@FORM@      0000000000093a00     OpensslLib:asn1_gen.obj
 0002:00027c88       ??_C@_06DPGELLJH@FORMAT@   0000000000093a08     OpensslLib:asn1_gen.obj
 0002:00027c90       ??_C@_07IOGEOOAA@string?$DN@ 0000000000093a10     OpensslLib:asn1_gen.obj
 0002:00027c98       ??_C@_03DNALGGBA@DIR@      0000000000093a18     OpensslLib:asn1_gen.obj
 0002:00029bc8       ??_C@_08KLAPILAK@SigEd448@ 0000000000095948     OpensslLib:eddsa.obj
 0002:000318a0       ??_C@_05NJJIPCOC@?$CFs?50?6@ 000000000009d620     OpensslLib:t_pkey.obj
 0002:000318a8       ??_C@_0BE@KHLFKPFC@?$CFs?5?$CFs?$CFlu?5?$CI?$CFs0x?$CFlx?$CJ?6@ 000000000009d628     OpensslLib:t_pkey.obj
 0002:000318c0       ??_C@_0M@IBLDKCHK@?5?$CINegative?$CJ@ 000000000009d640     OpensslLib:t_pkey.obj
 0002:000318cc       ??_C@_05JMJKDBEJ@?$CFs?$CFs?6@ 000000000009d64c     OpensslLib:t_pkey.obj
 0002:00031960       curve448_point_identity    000000000009d6e0     OpensslLib:curve448.obj
 0002:00031aa8       ??_C@_03JFFFKLGJ@C1x@      000000000009d828     OpensslLib:sm2_crypt.obj
 0002:00031aac       ??_C@_03IMEOJKCI@C1y@      000000000009d82c     OpensslLib:sm2_crypt.obj
 0002:00031ab0       ??_C@_02IGAJHAEE@C3@       000000000009d830     OpensslLib:sm2_crypt.obj
 0002:00031ab4       ??_C@_02JPBCEBAF@C2@       000000000009d834     OpensslLib:sm2_crypt.obj
 0002:00031ab8       ??_C@_0P@HHMLELMD@SM2_Ciphertext@ 000000000009d838     OpensslLib:sm2_crypt.obj
 0002:00031b50       SM2_Ciphertext_it          000000000009d8d0     OpensslLib:sm2_crypt.obj
 0002:000323e0       ??_C@_0BI@DFFFIKFB@Generator?5?$CIcompressed?$CJ?3@ 000000000009e160     OpensslLib:eck_prn.obj
 0002:000323f8       ??_C@_0BK@DOCPEENO@Generator?5?$CIuncompressed?$CJ?3@ 000000000009e178     OpensslLib:eck_prn.obj
 0002:00032418       ??_C@_0BE@FPCNHCIJ@Generator?5?$CIhybrid?$CJ?3@ 000000000009e198     OpensslLib:eck_prn.obj
 0002:00032430       ??_C@_0N@JOFLCJFF@ASN1?5OID?3?5?$CFs@ 000000000009e1b0     OpensslLib:eck_prn.obj
 0002:00032440       ??_C@_0BA@LNIECBHN@NIST?5CURVE?3?5?$CFs?6@ 000000000009e1c0     OpensslLib:eck_prn.obj
 0002:00032450       ??_C@_0BA@KNKNOIFH@Field?5Type?3?5?$CFs?6@ 000000000009e1d0     OpensslLib:eck_prn.obj
 0002:00032460       ??_C@_0BA@ENMKKION@Basis?5Type?3?5?$CFs?6@ 000000000009e1e0     OpensslLib:eck_prn.obj
 0002:00032470       ??_C@_0M@JDIPGLHE@Polynomial?3@ 000000000009e1f0     OpensslLib:eck_prn.obj
 0002:0003247c       ??_C@_06DBHHIIKM@Prime?3@  000000000009e1fc     OpensslLib:eck_prn.obj
 0002:00032484       ??_C@_05GMFDOKMO@A?3?5?5?5@ 000000000009e204     OpensslLib:eck_prn.obj
 0002:0003248c       ??_C@_05OKMHJIGA@B?3?5?5?5@ 000000000009e20c     OpensslLib:eck_prn.obj
 0002:00032498       ??_C@_07KOGOKIFH@Order?3?5@ 000000000009e218     OpensslLib:eck_prn.obj
 0002:000324a0       ??_C@_0L@IEMHODML@Cofactor?3?5@ 000000000009e220     OpensslLib:eck_prn.obj
 0002:000324ac       ??_C@_05PDHKGGIM@Seed?3@   000000000009e22c     OpensslLib:eck_prn.obj
 0002:000324b4       ??_C@_02JPPHBJLD@?2?6@     000000000009e234     OpensslLib:f_int.obj
 0002:000324b8       ??_C@_01JEJKBAGA@g@        000000000009e238     OpensslLib:dh_asn1.obj
 0002:000324bc       ??_C@_06IJDLPEM@length@    000000000009e23c     OpensslLib:dh_asn1.obj
 0002:000324c8       ??_C@_08LKFDNFJ@DHparams@  000000000009e248     OpensslLib:dh_asn1.obj
 0002:000324d8       ??_C@_07HDOCMLOI@counter@  000000000009e258     OpensslLib:dh_asn1.obj
 0002:000324e0       ??_C@_0O@KANPBCM@int_dhvparams@ 000000000009e260     OpensslLib:dh_asn1.obj
 0002:000324f0       ??_C@_01CBDEGOCN@j@        000000000009e270     OpensslLib:dh_asn1.obj
 0002:000324f8       ??_C@_07JLLHOFNK@vparams@  000000000009e278     OpensslLib:dh_asn1.obj
 0002:00032500       ??_C@_0O@HMLHGNDO@int_dhx942_dh@ 000000000009e280     OpensslLib:dh_asn1.obj
 0002:000325e0       DHparams_it                000000000009e360     OpensslLib:dh_asn1.obj
 0002:000351a0       ??_C@_09OJPHJNPC@fips_mode@ 00000000000a0f20     OpensslLib:evp_cnf.obj
 0002:000351b0       ??_C@_0M@HEHLDANB@alg_section@ 00000000000a0f30     OpensslLib:evp_cnf.obj
 0002:000351c0       ??_C@_0N@DJMJOKGL@stbl_section@ 00000000000a0f40     OpensslLib:asn_mstbl.obj
 0002:000351d0       ??_C@_03KLIPLJLL@min@      00000000000a0f50     OpensslLib:asn_mstbl.obj
 0002:000351d4       ??_C@_04LFLEPBN@mask@      00000000000a0f54     OpensslLib:asn_mstbl.obj
 0002:000351dc       ??_C@_05GECEPKB@flags@     00000000000a0f5c     OpensslLib:asn_mstbl.obj
 0002:000351e4       ??_C@_06HCDOONEJ@nomask@   00000000000a0f64     OpensslLib:asn_mstbl.obj
 0002:000351ec       ??_C@_06KABKJMAI@field?$DN@ 00000000000a0f6c     OpensslLib:asn_mstbl.obj
 0002:000351f8       ??_C@_08IPPANOEC@ssl_conf@ 00000000000a0f78     OpensslLib:conf_ssl.obj
 0002:00035208       ??_C@_0M@HCKPEIO@oid_section@ 00000000000a0f88     OpensslLib:asn_moid.obj
 0002:000352e0       _bignum_dh2048_224_q       00000000000a1060     OpensslLib:bn_dh.obj
 0002:000352f8       _bignum_dh2048_256_g       00000000000a1078     OpensslLib:bn_dh.obj
 0002:00035310       _bignum_dh1024_160_g       00000000000a1090     OpensslLib:bn_dh.obj
 0002:00035328       _bignum_dh2048_224_p       00000000000a10a8     OpensslLib:bn_dh.obj
 0002:00035340       _bignum_dh2048_256_p       00000000000a10c0     OpensslLib:bn_dh.obj
 0002:00035358       _bignum_dh2048_224_g       00000000000a10d8     OpensslLib:bn_dh.obj
 0002:00035370       _bignum_dh1024_160_p       00000000000a10f0     OpensslLib:bn_dh.obj
 0002:00035388       _bignum_dh2048_256_q       00000000000a1108     OpensslLib:bn_dh.obj
 0002:000353a0       _bignum_dh1024_160_q       00000000000a1120     OpensslLib:bn_dh.obj
 0002:000353b8       _bignum_ffdhe4096_p        00000000000a1138     OpensslLib:bn_dh.obj
 0002:000353d0       _bignum_ffdhe8192_p        00000000000a1150     OpensslLib:bn_dh.obj
 0002:000353e8       _bignum_ffdhe2048_p        00000000000a1168     OpensslLib:bn_dh.obj
 0002:00035400       _bignum_const_2            00000000000a1180     OpensslLib:bn_dh.obj
 0002:00035418       _bignum_ffdhe6144_p        00000000000a1198     OpensslLib:bn_dh.obj
 0002:00035430       _bignum_ffdhe3072_p        00000000000a11b0     OpensslLib:bn_dh.obj
 0002:00037530       curve448_scalar_zero       00000000000a32b0     OpensslLib:scalar.obj
 0002:000375b0       curve448_scalar_one        00000000000a3330     OpensslLib:scalar.obj
 0002:0003cab0       CumulativeDays             00000000000a8830     BaseCryptLib:TimerWrapper.obj
 0002:0003cb90       __real@4020000000000000    00000000000a8910     OpensslLib:drbg_lib.obj
 0002:0003cb98       __real@43e0000000000000    00000000000a8918     OpensslLib:drbg_lib.obj
 0002:0003cba0       __xmm@00000003000000020000000100000000 00000000000a8920     OpensslLib:f_generic.obj
 0002:0003cbb0       __xmm@00000008000000080000000800000008 00000000000a8930     OpensslLib:f_generic.obj
 0002:0003cbc0       __xmm@36363636363636363636363636363636 00000000000a8940     OpensslLib:hmac.obj
 0002:0003cbd0       __xmm@5c5c5c5c5c5c5c5c5c5c5c5c5c5c5c5c 00000000000a8950     OpensslLib:hmac.obj
 0002:0003cc20       mSecurityArchProtocolHandle 00000000000a89a0     SecurityStubDxe:SecurityStub.obj
 0002:0003cc28       mEndOfDxe                  00000000000a89a8     SecurityStubDxe:Defer3rdPartyImageLoad.obj
 0002:0003cc29       mImageLoadedAfterEndOfDxe  00000000000a89a9     SecurityStubDxe:Defer3rdPartyImageLoad.obj
 0002:0003cc30       mDeferred3rdPartyImage     00000000000a89b0     SecurityStubDxe:Defer3rdPartyImageLoad.obj
 0002:0003cc40       gST                        00000000000a89c0     UefiBootServicesTableLib:UefiBootServicesTableLib.obj
 0002:0003cc48       gBS                        00000000000a89c8     UefiBootServicesTableLib:UefiBootServicesTableLib.obj
 0002:0003cc50       gRT                        00000000000a89d0     UefiRuntimeServicesTableLib:UefiRuntimeServicesTableLib.obj
 0002:0003cc58       mDevicePathLibDevicePathToText 00000000000a89d8     UefiDevicePathLibDevicePathProtocol:UefiDevicePathLib.obj
 0002:0003cc60       mDevicePathLibDevicePathUtilities 00000000000a89e0     UefiDevicePathLibDevicePathProtocol:UefiDevicePathLib.obj
 0002:0003cc68       mHobList                   00000000000a89e8     DxeHobLib:HobLib.obj
 0002:0003cc70       mNumberOfSecurity2Handler  00000000000a89f0     DxeSecurityManagementLib:DxeSecurityManagementLib.obj
 0002:0003cc78       mSecurityTable             00000000000a89f8     DxeSecurityManagementLib:DxeSecurityManagementLib.obj
 0002:0003cc80       mNumberOfSecurityHandler   00000000000a8a00     DxeSecurityManagementLib:DxeSecurityManagementLib.obj
 0002:0003cc88       mSecurity2Table            00000000000a8a08     DxeSecurityManagementLib:DxeSecurityManagementLib.obj
 0002:0003cc90       mMaxNumberOfSecurity2Handler 00000000000a8a10     DxeSecurityManagementLib:DxeSecurityManagementLib.obj
 0002:0003cc94       mCurrentAuthOperation2     00000000000a8a14     DxeSecurityManagementLib:DxeSecurityManagementLib.obj
 0002:0003cc98       mReportStatusCodeLibStatusCodeProtocol 00000000000a8a18     DxeReportStatusCodeLib:ReportStatusCodeLib.obj
 0002:0003cca0       mImageBase                 00000000000a8a20     DxeImageVerificationLib:DxeImageVerificationLib.obj
 0002:0003cca8       mMeasuredAuthorityList     00000000000a8a28     DxeImageVerificationLib:Measurement.obj
 0002:0003ccb0       mMeasuredAuthorityCountMax 00000000000a8a30     DxeImageVerificationLib:Measurement.obj
 0002:0003ccb8       mMeasuredAuthorityCount    00000000000a8a38     DxeImageVerificationLib:Measurement.obj
 0002:0003ccc0       mMeasuredHobData           00000000000a8a40     DxeTpmMeasureBootLib:DxeTpmMeasureBootLib.obj
 0002:0003ccc8       mCacheMeasuredHandle       00000000000a8a48     DxeTpmMeasureBootLib:DxeTpmMeasureBootLib.obj
 0002:0003ccd0       mMeasureGptCount           00000000000a8a50     DxeTpmMeasureBootLib:DxeTpmMeasureBootLib.obj
 0002:0003ccd8       mMeasureGptTableFlag       00000000000a8a58     DxeTpmMeasureBootLib:DxeTpmMeasureBootLib.obj
 0002:0003cce0       mTcg2MeasuredHobData       00000000000a8a60     DxeTpm2MeasureBootLib:DxeTpm2MeasureBootLib.obj
 0002:0003cce8       mTcg2MeasureGptCount       00000000000a8a68     DxeTpm2MeasureBootLib:DxeTpm2MeasureBootLib.obj
 0002:0003ccf0       mTcg2CacheMeasuredHandle   00000000000a8a70     DxeTpm2MeasureBootLib:DxeTpm2MeasureBootLib.obj
 0002:0003ccf8       mTcg2MeasureGptTableFlag   00000000000a8a78     DxeTpm2MeasureBootLib:DxeTpm2MeasureBootLib.obj
 0002:0003cd00       mPcd                       00000000000a8a80     DxePcdLib:DxePcdLib.obj
 0002:0003ce10       errno                      00000000000a8b90     BaseCryptLib:CrtWrapper.obj
 0002:0003d7c0       mTcg2ImageSize             00000000000a9540     <common>
 0002:0003d7c8       mTpmImageSize              00000000000a9548     <common>
 0002:0003d7d0       mNtHeader                  00000000000a9550     <common>
 0002:0003d7d8       mPeCoffHeaderOffset        00000000000a9558     <common>
 0002:0003d7e0       mImageDigest               00000000000a9560     <common>
 0002:0003d820       mImageSize                 00000000000a95a0     <common>
 0002:0003d830       mCertType                  00000000000a95b0     <common>
 0002:0003d840       mImageDigestSize           00000000000a95c0     <common>
 0002:0003d848       __volatile_metadata        00000000000a95c8     <linker-defined>

 entry point at        0001:000003b8

 Static symbols

 0001:0000002a       InternalMemCopyMem.0       00000000000002ca     BaseMemoryLibRepStr:CopyMem.obj
 0001:0000003a       @CopyBackward              00000000000002da     BaseMemoryLibRepStr:CopyMem.obj
 0001:00000043       @CopyBytes                 00000000000002e3     BaseMemoryLibRepStr:CopyMem.obj
 0001:0000012a       @UseRepIo                  00000000000003ca     BaseIoLibIntrinsicSev:IoFifoSev.obj
 0001:0000012c       @SevNoRepIo_Done           00000000000003cc     BaseIoLibIntrinsicSev:IoFifoSev.obj
 0001:00000144       @IoReadFifo8_NoRep         00000000000003e4     BaseIoLibIntrinsicSev:IoFifoSev.obj
 0001:00000146       @IoReadFifo8_Loop          00000000000003e6     BaseIoLibIntrinsicSev:IoFifoSev.obj
 0001:0000014e       @IoReadFifo8_Done          00000000000003ee     BaseIoLibIntrinsicSev:IoFifoSev.obj
 0001:00000167       @IoReadFifo16_NoRep        0000000000000407     BaseIoLibIntrinsicSev:IoFifoSev.obj
 0001:00000169       @IoReadFifo16_Loop         0000000000000409     BaseIoLibIntrinsicSev:IoFifoSev.obj
 0001:00000174       @IoReadFifo16_Done         0000000000000414     BaseIoLibIntrinsicSev:IoFifoSev.obj
 0001:0000018c       @IoReadFifo32_NoRep        000000000000042c     BaseIoLibIntrinsicSev:IoFifoSev.obj
 0001:0000018e       @IoReadFifo32_Loop         000000000000042e     BaseIoLibIntrinsicSev:IoFifoSev.obj
 0001:00000197       @IoReadFifo32_Done         0000000000000437     BaseIoLibIntrinsicSev:IoFifoSev.obj
 0001:000001af       @IoWriteFifo8_NoRep        000000000000044f     BaseIoLibIntrinsicSev:IoFifoSev.obj
 0001:000001b1       @IoWriteFifo8_Loop         0000000000000451     BaseIoLibIntrinsicSev:IoFifoSev.obj
 0001:000001b9       @IoWriteFifo8_Done         0000000000000459     BaseIoLibIntrinsicSev:IoFifoSev.obj
 0001:000001d2       @IoWriteFifo16_NoRep       0000000000000472     BaseIoLibIntrinsicSev:IoFifoSev.obj
 0001:000001d4       @IoWriteFifo16_Loop        0000000000000474     BaseIoLibIntrinsicSev:IoFifoSev.obj
 0001:000001df       @IoWriteFifo16_Done        000000000000047f     BaseIoLibIntrinsicSev:IoFifoSev.obj
 0001:000001f7       @IoWriteFifo32_NoRep       0000000000000497     BaseIoLibIntrinsicSev:IoFifoSev.obj
 0001:000001f9       @IoWriteFifo32_Loop        0000000000000499     BaseIoLibIntrinsicSev:IoFifoSev.obj
 0001:00000202       @IoWriteFifo32_Done        00000000000004a2     BaseIoLibIntrinsicSev:IoFifoSev.obj
 0001:0000027f       AsmCpuid.0                 000000000000051f     BaseLib:CpuId.obj
 0001:00000284       AsmCpuid.1                 0000000000000524     BaseLib:CpuId.obj
 0001:0000028b       AsmCpuid.2                 000000000000052b     BaseLib:CpuId.obj
 0001:00000294       AsmCpuid.3                 0000000000000534     BaseLib:CpuId.obj
 0001:00004c20       Tpm12MeasureAndLogData     0000000000004ec0 f   DxeTpmMeasurementLib:DxeTpmMeasurementLib.obj
 0001:00004d10       Tpm20MeasureAndLogData     0000000000004fb0 f   DxeTpmMeasurementLib:DxeTpmMeasurementLib.obj
 0001:00004dec       CcMeasureAndLogData        000000000000508c f   DxeTpmMeasurementLib:DxeTpmMeasurementLib.obj
 0001:00006dfc       sha1_block_data_order      000000000000709c f   OpensslLib:sha1dgst.obj
 0001:000076bc       sha512_block_data_order    000000000000795c f   OpensslLib:sha512.obj
 0001:00007b24       x509_object_cmp            0000000000007dc4 f   OpensslLib:x509_lu.obj
 0001:00007f24       x509_store_add             00000000000081c4 f   OpensslLib:x509_lu.obj
 0001:00008044       x509_object_idx_cnt        00000000000082e4 f   OpensslLib:x509_lu.obj
 0001:00008a64       check_suite_b              0000000000008d04 f   OpensslLib:x509_cmp.obj
 0001:00008c88       null_callback              0000000000008f28 f   OpensslLib:x509_vfy.obj
 0001:00008c8c       verify_cb_cert             0000000000008f2c f   OpensslLib:x509_vfy.obj
 0001:00008cdc       check_auth_level           0000000000008f7c f   OpensslLib:x509_vfy.obj
 0001:00008e44       verify_chain               00000000000090e4 f   OpensslLib:x509_vfy.obj
 0001:000090a4       find_issuer                0000000000009344 f   OpensslLib:x509_vfy.obj
 0001:000091d0       check_issued               0000000000009470 f   OpensslLib:x509_vfy.obj
 0001:000091ec       check_chain_extensions     000000000000948c f   OpensslLib:x509_vfy.obj
 0001:00009594       check_name_constraints     0000000000009834 f   OpensslLib:x509_vfy.obj
 0001:0000988c       check_id_error             0000000000009b2c f   OpensslLib:x509_vfy.obj
 0001:000098d8       check_hosts                0000000000009b78 f   OpensslLib:x509_vfy.obj
 0001:000099d8       check_id                   0000000000009c78 f   OpensslLib:x509_vfy.obj
 0001:00009b24       check_trust                0000000000009dc4 f   OpensslLib:x509_vfy.obj
 0001:00009db0       check_revocation           000000000000a050 f   OpensslLib:x509_vfy.obj
 0001:00009e2c       check_cert                 000000000000a0cc f   OpensslLib:x509_vfy.obj
 0001:0000a080       check_crl_time             000000000000a320 f   OpensslLib:x509_vfy.obj
 0001:0000a178       get_crl_sk                 000000000000a418 f   OpensslLib:x509_vfy.obj
 0001:0000a4e0       crl_extension_match        000000000000a780 f   OpensslLib:x509_vfy.obj
 0001:0000a5e0       crl_akid_check             000000000000a880 f   OpensslLib:x509_vfy.obj
 0001:0000a76c       check_crl_path             000000000000aa0c f   OpensslLib:x509_vfy.obj
 0001:0000a874       idp_check_dp               000000000000ab14 f   OpensslLib:x509_vfy.obj
 0001:0000ab40       crl_crldp_check            000000000000ade0 f   OpensslLib:x509_vfy.obj
 0001:0000aca0       check_crl                  000000000000af40 f   OpensslLib:x509_vfy.obj
 0001:0000af54       cert_crl                   000000000000b1f4 f   OpensslLib:x509_vfy.obj
 0001:0000b000       check_policy               000000000000b2a0 f   OpensslLib:x509_vfy.obj
 0001:0000b2a0       internal_verify            000000000000b540 f   OpensslLib:x509_vfy.obj
 0001:0000baf4       dane_match                 000000000000bd94 f   OpensslLib:x509_vfy.obj
 0001:0000be34       check_dane_issuer          000000000000c0d4 f   OpensslLib:x509_vfy.obj
 0001:0000beb0       check_dane_pkeys           000000000000c150 f   OpensslLib:x509_vfy.obj
 0001:0000c000       check_leaf_suiteb          000000000000c2a0 f   OpensslLib:x509_vfy.obj
 0001:0000c0a8       dane_verify                000000000000c348 f   OpensslLib:x509_vfy.obj
 0001:0000c1e4       build_chain                000000000000c484 f   OpensslLib:x509_vfy.obj
 0001:0000cb84       check_key_level            000000000000ce24 f   OpensslLib:x509_vfy.obj
 0001:0000cca4       mem_init                   000000000000cf44 f   OpensslLib:bss_mem.obj
 0001:0000cd40       mem_new                    000000000000cfe0 f   OpensslLib:bss_mem.obj
 0001:0000cd48       mem_free                   000000000000cfe8 f   OpensslLib:bss_mem.obj
 0001:0000cd94       mem_buf_free               000000000000d034 f   OpensslLib:bss_mem.obj
 0001:0000ce48       mem_buf_sync               000000000000d0e8 f   OpensslLib:bss_mem.obj
 0001:0000ceac       mem_read                   000000000000d14c f   OpensslLib:bss_mem.obj
 0001:0000cf48       mem_write                  000000000000d1e8 f   OpensslLib:bss_mem.obj
 0001:0000d014       mem_ctrl                   000000000000d2b4 f   OpensslLib:bss_mem.obj
 0001:0000d194       mem_gets                   000000000000d434 f   OpensslLib:bss_mem.obj
 0001:0000d210       mem_puts                   000000000000d4b0 f   OpensslLib:bss_mem.obj
 0001:0000d23c       x509_cb                    000000000000d4dc f   OpensslLib:x_x509.obj
 0001:0000d524       init                       000000000000d7c4 f   OpensslLib:m_sha1.obj
 0001:0000d530       update                     000000000000d7d0 f   OpensslLib:m_sha1.obj
 0001:0000d53c       final                      000000000000d7dc f   OpensslLib:m_sha1.obj
 0001:0000d54c       ctrl                       000000000000d7ec f   OpensslLib:m_sha1.obj
 0001:0000d660       init224                    000000000000d900 f   OpensslLib:m_sha1.obj
 0001:0000d66c       update224                  000000000000d90c f   OpensslLib:m_sha1.obj
 0001:0000d66c       update256                  000000000000d90c f   OpensslLib:m_sha1.obj
 0001:0000d678       final224                   000000000000d918 f   OpensslLib:m_sha1.obj
 0001:0000d678       final256                   000000000000d918 f   OpensslLib:m_sha1.obj
 0001:0000d688       init256                    000000000000d928 f   OpensslLib:m_sha1.obj
 0001:0000d694       init512_224                000000000000d934 f   OpensslLib:m_sha1.obj
 0001:0000d728       init512_256                000000000000d9c8 f   OpensslLib:m_sha1.obj
 0001:0000d7bc       init384                    000000000000da5c f   OpensslLib:m_sha1.obj
 0001:0000d7c8       update384                  000000000000da68 f   OpensslLib:m_sha1.obj
 0001:0000d7c8       update512                  000000000000da68 f   OpensslLib:m_sha1.obj
 0001:0000d7d4       final384                   000000000000da74 f   OpensslLib:m_sha1.obj
 0001:0000d7d4       final512                   000000000000da74 f   OpensslLib:m_sha1.obj
 0001:0000d7e4       init512                    000000000000da84 f   OpensslLib:m_sha1.obj
 0001:0000d8ac       sk_reserve                 000000000000db4c f   OpensslLib:stack.obj
 0001:0000da8c       internal_delete            000000000000dd2c f   OpensslLib:stack.obj
 0001:0000daf4       internal_find              000000000000dd94 f   OpensslLib:stack.obj
 0001:0000dc84       bio_call_callback          000000000000df24 f   OpensslLib:bio_lib.obj
 0001:0000df2c       bio_read_intern            000000000000e1cc f   OpensslLib:bio_lib.obj
 0001:0000e058       bio_write_intern           000000000000e2f8 f   OpensslLib:bio_lib.obj
 0001:0000edb8       pk7_cb                     000000000000f058 f   OpensslLib:pk7_asn1.obj
 0001:0000ee48       si_cb                      000000000000f0e8 f   OpensslLib:pk7_asn1.obj
 0001:0000ee68       ri_cb                      000000000000f108 f   OpensslLib:pk7_asn1.obj
 0001:0000ee88       o_names_init_ossl_         000000000000f128 f   OpensslLib:o_names.obj
 0001:0000eee0       obj_name_cmp               000000000000f180 f   OpensslLib:o_names.obj
 0001:0000ef30       obj_name_hash              000000000000f1d0 f   OpensslLib:o_names.obj
 0001:0000f1ac       init                       000000000000f44c f   OpensslLib:m_md5.obj
 0001:0000f1ec       update                     000000000000f48c f   OpensslLib:m_md5.obj
 0001:0000f1f8       final                      000000000000f498 f   OpensslLib:m_md5.obj
 0001:0000f208       sn_cmp_BSEARCH_CMP_FN      000000000000f4a8 f   OpensslLib:obj_dat.obj
 0001:0000f224       ln_cmp_BSEARCH_CMP_FN      000000000000f4c4 f   OpensslLib:obj_dat.obj
 0001:0000f244       added_obj_hash             000000000000f4e4 f   OpensslLib:obj_dat.obj
 0001:0000f308       added_obj_cmp              000000000000f5a8 f   OpensslLib:obj_dat.obj
 0001:0000f6ec       obj_cmp_BSEARCH_CMP_FN     000000000000f98c f   OpensslLib:obj_dat.obj
 0001:0001005c       pkey_set_type              00000000000102fc f   OpensslLib:p_lib.obj
 0001:00010238       x509_name_ex_new           00000000000104d8 f   OpensslLib:x_name.obj
 0001:000102c0       x509_name_ex_free          0000000000010560 f   OpensslLib:x_name.obj
 0001:00010328       local_sk_X509_NAME_ENTRY_free 00000000000105c8 f   OpensslLib:x_name.obj
 0001:00010330       local_sk_X509_NAME_ENTRY_pop_free 00000000000105d0 f   OpensslLib:x_name.obj
 0001:0001033c       x509_name_ex_d2i           00000000000105dc f   OpensslLib:x_name.obj
 0001:000105f8       x509_name_ex_i2d           0000000000010898 f   OpensslLib:x_name.obj
 0001:00010670       x509_name_encode           0000000000010910 f   OpensslLib:x_name.obj
 0001:000107f4       x509_name_ex_print         0000000000010a94 f   OpensslLib:x_name.obj
 0001:0001083c       x509_name_canon            0000000000010adc f   OpensslLib:x_name.obj
 0001:00010a34       asn1_string_canon          0000000000010cd4 f   OpensslLib:x_name.obj
 0001:00010b6c       i2d_name_canon             0000000000010e0c f   OpensslLib:x_name.obj
 0001:00011748       send_bio_chars             00000000000119e8 f   OpensslLib:a_strex.obj
 0001:00011784       do_esc_char                0000000000011a24 f   OpensslLib:a_strex.obj
 0001:00011904       do_buf                     0000000000011ba4 f   OpensslLib:a_strex.obj
 0001:00011b30       do_hex_dump                0000000000011dd0 f   OpensslLib:a_strex.obj
 0001:00011bbc       do_dump                    0000000000011e5c f   OpensslLib:a_strex.obj
 0001:00011ce4       do_print_ex                0000000000011f84 f   OpensslLib:a_strex.obj
 0001:00011ee4       do_indent                  0000000000012184 f   OpensslLib:a_strex.obj
 0001:00011f50       do_name_ex                 00000000000121f0 f   OpensslLib:a_strex.obj
 0001:0001238c       rsa_cb                     000000000001262c f   OpensslLib:rsa_asn1.obj
 0001:00012400       rsa_pss_cb                 00000000000126a0 f   OpensslLib:rsa_asn1.obj
 0001:000127d8       sha256_block_data_order    0000000000012a78 f   OpensslLib:sha256.obj
 0001:00012c40       ocsp_nonce_free            0000000000012ee0 f   OpensslLib:v3_ocsp.obj
 0001:00012d30       asn1_item_embed_d2i        0000000000012fd0 f   OpensslLib:tasn_dec.obj
 0001:00013408       asn1_template_ex_d2i       00000000000136a8 f   OpensslLib:tasn_dec.obj
 0001:0001357c       asn1_template_noexp_d2i    000000000001381c f   OpensslLib:tasn_dec.obj
 0001:0001380c       asn1_d2i_ex_primitive      0000000000013aac f   OpensslLib:tasn_dec.obj
 0001:00013ae0       asn1_ex_c2i                0000000000013d80 f   OpensslLib:tasn_dec.obj
 0001:00013d94       asn1_find_end              0000000000014034 f   OpensslLib:tasn_dec.obj
 0001:00013ed4       asn1_collect               0000000000014174 f   OpensslLib:tasn_dec.obj
 0001:00014090       asn1_check_tlen            0000000000014330 f   OpensslLib:tasn_dec.obj
 0001:00014320       asn1_item_embed_new        00000000000145c0 f   OpensslLib:tasn_new.obj
 0001:00014584       asn1_template_new          0000000000014824 f   OpensslLib:tasn_new.obj
 0001:0001461c       asn1_template_clear        00000000000148bc f   OpensslLib:tasn_new.obj
 0001:00014698       asn1_primitive_new         0000000000014938 f   OpensslLib:tasn_new.obj
 0001:00014c40       i2c_ibuf                   0000000000014ee0 f   OpensslLib:a_int.obj
 0001:00014d14       c2i_ibuf                   0000000000014fb4 f   OpensslLib:a_int.obj
 0001:00014e30       asn1_get_uint64            00000000000150d0 f   OpensslLib:a_int.obj
 0001:00014f5c       asn1_string_get_int64      00000000000151fc f   OpensslLib:a_int.obj
 0001:00015030       asn1_string_set_int64      00000000000152d0 f   OpensslLib:a_int.obj
 0001:00015090       bn_to_asn1_string          0000000000015330 f   OpensslLib:a_int.obj
 0001:00015178       asn1_string_to_bn          0000000000015418 f   OpensslLib:a_int.obj
 0001:00015a70       asn1_item_flags_i2d        0000000000015d10 f   OpensslLib:tasn_enc.obj
 0001:00015ebc       asn1_template_ex_i2d       000000000001615c f   OpensslLib:tasn_enc.obj
 0001:000161a0       der_cmp                    0000000000016440 f   OpensslLib:tasn_enc.obj
 0001:000161ec       asn1_set_seq_out           000000000001648c f   OpensslLib:tasn_enc.obj
 0001:00016454       asn1_i2d_ex_primitive      00000000000166f4 f   OpensslLib:tasn_enc.obj
 0001:00016548       asn1_ex_i2c                00000000000167e8 f   OpensslLib:tasn_enc.obj
 0001:0001671c       ERR_STATE_free             00000000000169bc f   OpensslLib:err.obj
 0001:00016958       get_error_values           0000000000016bf8 f   OpensslLib:err.obj
 0001:00016b00       err_do_init_ossl_          0000000000016da0 f   OpensslLib:err.obj
 0001:00016c30       err_set_error_data_int     0000000000016ed0 f   OpensslLib:err.obj
 0001:00016f30       sk_OPENSSL_STRING_deep_copy 00000000000171d0 f   OpensslLib:x509_vpm.obj
 0001:00017088       str_copy                   0000000000017328 f   OpensslLib:x509_vpm.obj
 0001:00017090       str_free                   0000000000017330 f   OpensslLib:x509_vpm.obj
 0001:0001731c       int_x509_param_set1        00000000000175bc f   OpensslLib:x509_vpm.obj
 0001:0001750c       table_cmp_BSEARCH_CMP_FN   00000000000177ac f   OpensslLib:x509_vpm.obj
 0001:00017598       crl_inf_cb                 0000000000017838 f   OpensslLib:x_crl.obj
 0001:000175cc       crl_cb                     000000000001786c f   OpensslLib:x_crl.obj
 0001:00017bc0       setup_idp                  0000000000017e60 f   OpensslLib:x_crl.obj
 0001:00017cb8       X509_REVOKED_cmp           0000000000017f58 f   OpensslLib:x_crl.obj
 0001:00017cc4       def_crl_verify             0000000000017f64 f   OpensslLib:x_crl.obj
 0001:00017cec       def_crl_lookup             0000000000017f8c f   OpensslLib:x_crl.obj
 0001:00017e9c       do_ex_data_init_ossl_      000000000001813c f   OpensslLib:ex_data.obj
 0001:00017ee4       get_and_lock               0000000000018184 f   OpensslLib:ex_data.obj
 0001:00018574       table_cmp_BSEARCH_CMP_FN   0000000000018814 f   OpensslLib:a_strnid.obj
 0001:00018574       sig_cmp_BSEARCH_CMP_FN     0000000000018814 f   OpensslLib:obj_xref.obj
 0001:00018574       nid_cmp_BSEARCH_CMP_FN     0000000000018814 f   OpensslLib:v3_purp.obj
 0001:0001857c       check_sig_alg_match        000000000001881c f   OpensslLib:v3_purp.obj
 0001:00018634       x509v3_cache_extensions    00000000000188d4 f   OpensslLib:v3_purp.obj
 0001:00018d64       check_ca                   0000000000019004 f   OpensslLib:v3_purp.obj
 0001:00018dc4       check_purpose_ssl_client   0000000000019064 f   OpensslLib:v3_purp.obj
 0001:00018e34       check_purpose_ssl_server   00000000000190d4 f   OpensslLib:v3_purp.obj
 0001:00018ea4       check_purpose_ns_ssl_server 0000000000019144 f   OpensslLib:v3_purp.obj
 0001:00018ee0       purpose_smime              0000000000019180 f   OpensslLib:v3_purp.obj
 0001:00018f3c       check_purpose_smime_sign   00000000000191dc f   OpensslLib:v3_purp.obj
 0001:00018f78       check_purpose_smime_encrypt 0000000000019218 f   OpensslLib:v3_purp.obj
 0001:00018fb4       check_purpose_crl_sign     0000000000019254 f   OpensslLib:v3_purp.obj
 0001:00018fec       ocsp_helper                000000000001928c f   OpensslLib:v3_purp.obj
 0001:00019000       check_purpose_timestamp_sign 00000000000192a0 f   OpensslLib:v3_purp.obj
 0001:0001908c       ecx_cmp_parameters         000000000001932c f   OpensslLib:ecx_meth.obj
 0001:0001908c       final                      000000000001932c f   OpensslLib:m_null.obj
 0001:0001908c       init                       000000000001932c f   OpensslLib:m_null.obj
 0001:0001908c       update                     000000000001932c f   OpensslLib:m_null.obj
 0001:0001908c       i2r_ocsp_nocheck           000000000001932c f   OpensslLib:v3_ocsp.obj
 0001:0001908c       no_check                   000000000001932c f   OpensslLib:v3_purp.obj
 0001:0001a1c4       ec_guess_cofactor          000000000001a464 f   OpensslLib:ec_lib.obj
 0001:0001aea8       ec_precompute_mont_data    000000000001b148 f   OpensslLib:ec_lib.obj
 0001:0001af84       ec_field_inverse_mod_ord   000000000001b224 f   OpensslLib:ec_lib.obj
 0001:0001b07c       pubkey_cb                  000000000001b31c f   OpensslLib:x_pubkey.obj
 0001:0001b0e0       x509_pubkey_decode         000000000001b380 f   OpensslLib:x_pubkey.obj
 0001:0001b2c4       leap_year                  000000000001b564 f   OpensslLib:a_time.obj
 0001:0001b324       determine_days             000000000001b5c4 f   OpensslLib:a_time.obj
 0001:0001bcd8       bignum_to_string           000000000001bf78 f   OpensslLib:v3_utl.obj
 0001:0001c398       strip_spaces               000000000001c638 f   OpensslLib:v3_utl.obj
 0001:0001c474       equal_nocase               000000000001c714 f   OpensslLib:v3_utl.obj
 0001:0001c4f8       equal_case                 000000000001c798 f   OpensslLib:v3_utl.obj
 0001:0001c56c       equal_email                000000000001c80c f   OpensslLib:v3_utl.obj
 0001:0001c60c       wildcard_match             000000000001c8ac f   OpensslLib:v3_utl.obj
 0001:0001c73c       valid_star                 000000000001c9dc f   OpensslLib:v3_utl.obj
 0001:0001c890       equal_wildcard             000000000001cb30 f   OpensslLib:v3_utl.obj
 0001:0001c934       do_check_string            000000000001cbd4 f   OpensslLib:v3_utl.obj
 0001:0001ca6c       do_x509_check              000000000001cd0c f   OpensslLib:v3_utl.obj
 0001:0001cdcc       ipv4_from_asc              000000000001d06c f   OpensslLib:v3_utl.obj
 0001:0001ce50       ipv6_from_asc              000000000001d0f0 f   OpensslLib:v3_utl.obj
 0001:0001cf88       ipv6_cb                    000000000001d228 f   OpensslLib:v3_utl.obj
 0001:0001d23c       tree_init                  000000000001d4dc f   OpensslLib:pcy_tree.obj
 0001:0001d5a8       tree_link_nodes            000000000001d848 f   OpensslLib:pcy_tree.obj
 0001:0001d758       tree_add_unmatched         000000000001d9f8 f   OpensslLib:pcy_tree.obj
 0001:0001d7ec       tree_link_any              000000000001da8c f   OpensslLib:pcy_tree.obj
 0001:0001d9d8       tree_add_auth_node         000000000001dc78 f   OpensslLib:pcy_tree.obj
 0001:0001da54       tree_calculate_authority_set 000000000001dcf4 f   OpensslLib:pcy_tree.obj
 0001:0001db74       tree_calculate_user_set    000000000001de14 f   OpensslLib:pcy_tree.obj
 0001:0001dce4       tree_evaluate              000000000001df84 f   OpensslLib:pcy_tree.obj
 0001:0001decc       exnode_free                000000000001e16c f   OpensslLib:pcy_tree.obj
 0001:0001e390       trust_1oidany              000000000001e630 f   OpensslLib:x509_trs.obj
 0001:0001e39c       trust_1oid                 000000000001e63c f   OpensslLib:x509_trs.obj
 0001:0001e3a8       trust_compat               000000000001e648 f   OpensslLib:x509_trs.obj
 0001:0001e3ec       obj_trust                  000000000001e68c f   OpensslLib:x509_trs.obj
 0001:0001e50c       ia5ncasecmp                000000000001e7ac f   OpensslLib:v3_ncons.obj
 0001:0001e558       v2i_NAME_CONSTRAINTS       000000000001e7f8 f   OpensslLib:v3_ncons.obj
 0001:0001e764       i2r_NAME_CONSTRAINTS       000000000001ea04 f   OpensslLib:v3_ncons.obj
 0001:0001e7c0       do_i2r_name_constraints    000000000001ea60 f   OpensslLib:v3_ncons.obj
 0001:0001ec74       nc_match                   000000000001ef14 f   OpensslLib:v3_ncons.obj
 0001:0001edb0       nc_match_single            000000000001f050 f   OpensslLib:v3_ncons.obj
 0001:0001ef54       nc_email                   000000000001f1f4 f   OpensslLib:v3_ncons.obj
 0001:0001f024       nc_uri                     000000000001f2c4 f   OpensslLib:v3_ncons.obj
 0001:0001f234       sec_alloc_realloc          000000000001f4d4 f   OpensslLib:buffer.obj
 0001:0001f548       gnames_from_sectname       000000000001f7e8 f   OpensslLib:v3_crld.obj
 0001:0001f5ec       set_dist_point_name        000000000001f88c f   OpensslLib:v3_crld.obj
 0001:0001f7d8       set_reasons                000000000001fa78 f   OpensslLib:v3_crld.obj
 0001:0001f8d0       print_reasons              000000000001fb70 f   OpensslLib:v3_crld.obj
 0001:0001f9a4       crldp_from_section         000000000001fc44 f   OpensslLib:v3_crld.obj
 0001:0001faa4       v2i_crld                   000000000001fd44 f   OpensslLib:v3_crld.obj
 0001:0001fc6c       dpn_cb                     000000000001ff0c f   OpensslLib:v3_crld.obj
 0001:0001fcd0       v2i_idp                    000000000001ff70 f   OpensslLib:v3_crld.obj
 0001:0001fea0       print_gens                 0000000000020140 f   OpensslLib:v3_crld.obj
 0001:0001ff20       print_distpoint            00000000000201c0 f   OpensslLib:v3_crld.obj
 0001:0001ff74       i2r_idp                    0000000000020214 f   OpensslLib:v3_crld.obj
 0001:0001ffb8       i2r_crldp                  0000000000020258 f   OpensslLib:v3_crld.obj
 0001:00020150       policy_cache_create        00000000000203f0 f   OpensslLib:pcy_cache.obj
 0001:000202c4       policy_cache_new           0000000000020564 f   OpensslLib:pcy_cache.obj
 0001:0002048c       policy_data_cmp            000000000002072c f   OpensslLib:pcy_cache.obj
 0001:00020520       PKCS7_get_octet_string     00000000000207c0 f   OpensslLib:pk7_doit.obj
 0001:00020580       PKCS7_bio_add_digest       0000000000020820 f   OpensslLib:pk7_doit.obj
 0001:0002062c       pkcs7_encode_rinfo         00000000000208cc f   OpensslLib:pk7_doit.obj
 0001:00020d90       PKCS7_find_digest          0000000000021030 f   OpensslLib:pk7_doit.obj
 0001:00020e1c       do_pkcs7_signed_attrib     00000000000210bc f   OpensslLib:pk7_doit.obj
 0001:000218a0       get_attribute              0000000000021b40 f   OpensslLib:pk7_doit.obj
 0001:0002190c       add_attribute              0000000000021bac f   OpensslLib:pk7_doit.obj
 0001:00021fac       ossl_init_get_thread_local 000000000002224c f   OpensslLib:init.obj
 0001:00022008       ossl_init_base_ossl_       00000000000222a8 f   OpensslLib:init.obj
 0001:00022074       ossl_init_add_all_digests_ossl_ 0000000000022314 f   OpensslLib:init.obj
 0001:00022190       ossl_init_config_ossl_     0000000000022430 f   OpensslLib:init.obj
 0001:00022228       ossl_init_async_ossl_      00000000000224c8 f   OpensslLib:init.obj
 0001:0002254c       sigx_cmp_BSEARCH_CMP_FN    00000000000227ec f   OpensslLib:obj_xref.obj
 0001:000226b4       sk_table_cmp               0000000000022954 f   OpensslLib:a_strnid.obj
 0001:000226b4       ameth_cmp_BSEARCH_CMP_FN   0000000000022954 f   OpensslLib:ameth_lib.obj
 0001:000226b4       pmeth_cmp_BSEARCH_CMP_FN   0000000000022954 f   OpensslLib:pmeth_lib.obj
 0001:000226b4       ext_cmp_BSEARCH_CMP_FN     0000000000022954 f   OpensslLib:v3_lib.obj
 0001:000226c4       int_ctx_new                0000000000022964 f   OpensslLib:pmeth_lib.obj
 0001:00022d1c       expand                     0000000000022fbc f   OpensslLib:lhash.obj
 0001:00022e10       getrn                      00000000000230b0 f   OpensslLib:lhash.obj
 0001:00022fd0       ec_asn1_group2fieldid      0000000000023270 f   OpensslLib:ec_asn1.obj
 0001:00023100       ec_asn1_group2curve        00000000000233a0 f   OpensslLib:ec_asn1.obj
 0001:00026838       bn_free_d                  0000000000026ad8 f   OpensslLib:bn_lib.obj
 0001:00026c60       bn2binpad                  0000000000026f00 f   OpensslLib:bn_lib.obj
 0001:00027fa4       make_kn                    0000000000028244 f   OpensslLib:cmac.obj
 0001:000284c4       st_free                    0000000000028764 f   OpensslLib:a_strnid.obj
 0001:00028e24       traverse_string            00000000000290c4 f   OpensslLib:a_mbstr.obj
 0001:00028f1c       in_utf8                    00000000000291bc f   OpensslLib:a_mbstr.obj
 0001:00028f24       out_utf8                   00000000000291c4 f   OpensslLib:a_mbstr.obj
 0001:00028f48       type_str                   00000000000291e8 f   OpensslLib:a_mbstr.obj
 0001:00028fec       cpy_asc                    000000000002928c f   OpensslLib:a_mbstr.obj
 0001:00028ffc       cpy_bmp                    000000000002929c f   OpensslLib:a_mbstr.obj
 0001:00029018       cpy_univ                   00000000000292b8 f   OpensslLib:a_mbstr.obj
 0001:00029048       cpy_utf8                   00000000000292e8 f   OpensslLib:a_mbstr.obj
 0001:000292a4       bn_new                     0000000000029544 f   OpensslLib:x_bignum.obj
 0001:000292c8       bn_secure_new              0000000000029568 f   OpensslLib:x_bignum.obj
 0001:000292f4       bn_free                    0000000000029594 f   OpensslLib:x_bignum.obj
 0001:00029324       bn_i2c                     00000000000295c4 f   OpensslLib:x_bignum.obj
 0001:0002939c       bn_c2i                     000000000002963c f   OpensslLib:x_bignum.obj
 0001:00029404       bn_secure_c2i              00000000000296a4 f   OpensslLib:x_bignum.obj
 0001:00029490       bn_print                   0000000000029730 f   OpensslLib:x_bignum.obj
 0001:00029598       uint64_new                 0000000000029838 f   OpensslLib:x_int64.obj
 0001:000295d4       uint32_new                 0000000000029874 f   OpensslLib:x_int64.obj
 0001:00029610       uint32_free                00000000000298b0 f   OpensslLib:x_int64.obj
 0001:0002963c       uint32_clear               00000000000298dc f   OpensslLib:x_int64.obj
 0001:00029644       uint32_i2c                 00000000000298e4 f   OpensslLib:x_int64.obj
 0001:000296e4       uint32_c2i                 0000000000029984 f   OpensslLib:x_int64.obj
 0001:000297dc       uint32_print               0000000000029a7c f   OpensslLib:x_int64.obj
 0001:0002a1a8       evp_EncryptDecryptUpdate   000000000002a448 f   OpensslLib:evp_enc.obj
 0001:0002a9f8       i2v_BASIC_CONSTRAINTS      000000000002ac98 f   OpensslLib:v3_bcons.obj
 0001:0002aa4c       v2i_BASIC_CONSTRAINTS      000000000002acec f   OpensslLib:v3_bcons.obj
 0001:0002ad80       BN_STACK_push              000000000002b020 f   OpensslLib:bn_ctx.obj
 0001:0002ae4c       BN_POOL_get                000000000002b0ec f   OpensslLib:bn_ctx.obj
 0001:0002af54       ec_group_new_from_data     000000000002b1f4 f   OpensslLib:ec_curve.obj
 0001:0002bc58       bnrand                     000000000002bef8 f   OpensslLib:bn_rand.obj
 0001:0002bde8       bnrand_range               000000000002c088 f   OpensslLib:bn_rand.obj
 0001:0002c1f0       bn_from_montgomery_word    000000000002c490 f   OpensslLib:bn_mont.obj
 0001:0002ea3c       bn_get_bits                000000000002ecdc f   OpensslLib:bn_exp.obj
 0001:0002ea94       MOD_EXP_CTIME_COPY_TO_PREBUF 000000000002ed34 f   OpensslLib:bn_exp.obj
 0001:0002eaec       MOD_EXP_CTIME_COPY_FROM_PREBUF 000000000002ed8c f   OpensslLib:bn_exp.obj
 0001:0002f85c       julian_adj                 000000000002fafc f   OpensslLib:o_time.obj
 0001:0002f978       julian_to_date             000000000002fc18 f   OpensslLib:o_time.obj
 0001:0002faa4       i2v_AUTHORITY_INFO_ACCESS  000000000002fd44 f   OpensslLib:v3_info.obj
 0001:0002fc5c       v2i_AUTHORITY_INFO_ACCESS  000000000002fefc f   OpensslLib:v3_info.obj
 0001:0002fe20       module_add                 00000000000300c0 f   OpensslLib:conf_mod.obj
 0001:000301c8       node_cmp                   0000000000030468 f   OpensslLib:pcy_node.obj
 0001:0003073c       v2i_issuer_alt             00000000000309dc f   OpensslLib:v3_alt.obj
 0001:00030868       copy_issuer                0000000000030b08 f   OpensslLib:v3_alt.obj
 0001:000309ac       v2i_subject_alt            0000000000030c4c f   OpensslLib:v3_alt.obj
 0001:00030b10       copy_email                 0000000000030db0 f   OpensslLib:v3_alt.obj
 0001:0003109c       do_othername               000000000003133c f   OpensslLib:v3_alt.obj
 0001:00031164       do_dirname                 0000000000031404 f   OpensslLib:v3_alt.obj
 0001:0003127c       i2v_POLICY_CONSTRAINTS     000000000003151c f   OpensslLib:v3_pcons.obj
 0001:000312c0       v2i_POLICY_CONSTRAINTS     0000000000031560 f   OpensslLib:v3_pcons.obj
 0001:00031460       r2i_certpol                0000000000031700 f   OpensslLib:v3_cpols.obj
 0001:000316a0       policy_section             0000000000031940 f   OpensslLib:v3_cpols.obj
 0001:00031968       displaytext_str2tag        0000000000031c08 f   OpensslLib:v3_cpols.obj
 0001:00031a40       notice_section             0000000000031ce0 f   OpensslLib:v3_cpols.obj
 0001:00031e10       i2r_certpol                00000000000320b0 f   OpensslLib:v3_cpols.obj
 0001:00031eb4       print_qualifiers           0000000000032154 f   OpensslLib:v3_cpols.obj
 0001:000324f8       do_rand_init_ossl_         0000000000032798 f   OpensslLib:rand_lib.obj
 0001:000326b8       rand_pool_grow             0000000000032958 f   OpensslLib:rand_lib.obj
 0001:00032a78       enc_new                    0000000000032d18 f   OpensslLib:bio_enc.obj
 0001:00032afc       enc_free                   0000000000032d9c f   OpensslLib:bio_enc.obj
 0001:00032b80       enc_read                   0000000000032e20 f   OpensslLib:bio_enc.obj
 0001:00032e34       enc_write                  00000000000330d4 f   OpensslLib:bio_enc.obj
 0001:00032fd0       enc_ctrl                   0000000000033270 f   OpensslLib:bio_enc.obj
 0001:000331c8       enc_callback_ctrl          0000000000033468 f   OpensslLib:bio_enc.obj
 0001:000331c8       md_callback_ctrl           0000000000033468 f   OpensslLib:bio_md.obj
 0001:000331e0       update                     0000000000033480 f   OpensslLib:m_sigver.obj
 0001:00033200       do_sigver_init             00000000000334a0 f   OpensslLib:m_sigver.obj
 0001:00033718       md_new                     00000000000339b8 f   OpensslLib:bio_md.obj
 0001:00033744       md_free                    00000000000339e4 f   OpensslLib:bio_md.obj
 0001:00033794       md_read                    0000000000033a34 f   OpensslLib:bio_md.obj
 0001:00033838       md_write                   0000000000033ad8 f   OpensslLib:bio_md.obj
 0001:000338dc       md_ctrl                    0000000000033b7c f   OpensslLib:bio_md.obj
 0001:00033a04       md_gets                    0000000000033ca4 f   OpensslLib:bio_md.obj
 0001:00033bac       null_gets                  0000000000033e4c f   OpensslLib:bss_null.obj
 0001:00033bac       null_read                  0000000000033e4c f   OpensslLib:bss_null.obj
 0001:00033bb0       null_write                 0000000000033e50 f   OpensslLib:bss_null.obj
 0001:00033bb4       null_ctrl                  0000000000033e54 f   OpensslLib:bss_null.obj
 0001:00033bec       null_puts                  0000000000033e8c f   OpensslLib:bss_null.obj
 0001:00034504       rand_drbg_new              00000000000347a4 f   OpensslLib:drbg_lib.obj
 0001:00034fc4       drbg_setup                 0000000000035264 f   OpensslLib:drbg_lib.obj
 0001:0003507c       do_rand_drbg_init_ossl_    000000000003531c f   OpensslLib:drbg_lib.obj
 0001:0003510c       drbg_bytes                 00000000000353ac f   OpensslLib:drbg_lib.obj
 0001:00035264       drbg_add                   0000000000035504 f   OpensslLib:drbg_lib.obj
 0001:00035388       drbg_seed                  0000000000035628 f   OpensslLib:drbg_lib.obj
 0001:00035398       drbg_status                0000000000035638 f   OpensslLib:drbg_lib.obj
 0001:00035524       pkey_dh_init               00000000000357c4 f   OpensslLib:dh_pmeth.obj
 0001:00035580       pkey_dh_cleanup            0000000000035820 f   OpensslLib:dh_pmeth.obj
 0001:000355c4       pkey_dh_copy               0000000000035864 f   OpensslLib:dh_pmeth.obj
 0001:00035678       pkey_dh_ctrl               0000000000035918 f   OpensslLib:dh_pmeth.obj
 0001:00035838       pkey_dh_ctrl_str           0000000000035ad8 f   OpensslLib:dh_pmeth.obj
 0001:000359dc       pkey_dh_paramgen           0000000000035c7c f   OpensslLib:dh_pmeth.obj
 0001:00035c0c       pkey_dh_keygen             0000000000035eac f   OpensslLib:dh_pmeth.obj
 0001:00035c98       pkey_dh_derive             0000000000035f38 f   OpensslLib:dh_pmeth.obj
 0001:00035db8       pkey_cmac_init             0000000000036058 f   OpensslLib:cm_pmeth.obj
 0001:00035de0       pkey_cmac_copy             0000000000036080 f   OpensslLib:cm_pmeth.obj
 0001:00035e20       cmac_key_free              00000000000360c0 f   OpensslLib:cm_ameth.obj
 0001:00035e20       pkey_cmac_cleanup          00000000000360c0 f   OpensslLib:cm_pmeth.obj
 0001:00035e2c       pkey_cmac_keygen           00000000000360cc f   OpensslLib:cm_pmeth.obj
 0001:00035e94       int_update                 0000000000036134 f   OpensslLib:cm_pmeth.obj
 0001:00035fa4       cmac_signctx_init          0000000000036244 f   OpensslLib:cm_pmeth.obj
 0001:00035fbc       cmac_signctx               000000000003625c f   OpensslLib:cm_pmeth.obj
 0001:000360cc       pkey_cmac_ctrl             000000000003636c f   OpensslLib:cm_pmeth.obj
 0001:00036158       pkey_cmac_ctrl_str         00000000000363f8 f   OpensslLib:cm_pmeth.obj
 0001:00036228       ecx_key_op                 00000000000364c8 f   OpensslLib:ecx_meth.obj
 0001:000364e8       ecx_pub_encode             0000000000036788 f   OpensslLib:ecx_meth.obj
 0001:000365dc       ecx_pub_decode             000000000003687c f   OpensslLib:ecx_meth.obj
 0001:00036608       ecx_pub_cmp                00000000000368a8 f   OpensslLib:ecx_meth.obj
 0001:00036678       ecx_priv_decode            0000000000036918 f   OpensslLib:ecx_meth.obj
 0001:0003670c       ecx_priv_encode            00000000000369ac f   OpensslLib:ecx_meth.obj
 0001:00036838       ecx_size                   0000000000036ad8 f   OpensslLib:ecx_meth.obj
 0001:00036864       ecx_bits                   0000000000036b04 f   OpensslLib:ecx_meth.obj
 0001:00036894       ecx_security_bits          0000000000036b34 f   OpensslLib:ecx_meth.obj
 0001:000368b4       ecx_free                   0000000000036b54 f   OpensslLib:ecx_meth.obj
 0001:00036940       ecx_key_print              0000000000036be0 f   OpensslLib:ecx_meth.obj
 0001:00036adc       ecx_priv_print             0000000000036d7c f   OpensslLib:ecx_meth.obj
 0001:00036af4       ecx_pub_print              0000000000036d94 f   OpensslLib:ecx_meth.obj
 0001:00036b08       ecx_ctrl                   0000000000036da8 f   OpensslLib:ecx_meth.obj
 0001:00036bd0       ecd_ctrl                   0000000000036e70 f   OpensslLib:ecx_meth.obj
 0001:00036be8       ecx_set_priv_key           0000000000036e88 f   OpensslLib:ecx_meth.obj
 0001:00036c10       ecx_set_pub_key            0000000000036eb0 f   OpensslLib:ecx_meth.obj
 0001:00036c34       ecx_get_priv_key           0000000000036ed4 f   OpensslLib:ecx_meth.obj
 0001:00036d14       ecx_get_pub_key            0000000000036fb4 f   OpensslLib:ecx_meth.obj
 0001:00036dec       ecd_size25519              000000000003708c f   OpensslLib:ecx_meth.obj
 0001:00036dec       hmac_size                  000000000003708c f   OpensslLib:hm_ameth.obj
 0001:00036df4       ecd_size448                0000000000037094 f   OpensslLib:ecx_meth.obj
 0001:00036dfc       ecd_item_verify            000000000003709c f   OpensslLib:ecx_meth.obj
 0001:00036e78       ecd_item_sign25519         0000000000037118 f   OpensslLib:ecx_meth.obj
 0001:00036ed0       ecd_sig_info_set25519      0000000000037170 f   OpensslLib:ecx_meth.obj
 0001:00036ef0       ecd_item_sign448           0000000000037190 f   OpensslLib:ecx_meth.obj
 0001:00036f48       ecd_sig_info_set448        00000000000371e8 f   OpensslLib:ecx_meth.obj
 0001:00036f68       pkey_ecx_keygen            0000000000037208 f   OpensslLib:ecx_meth.obj
 0001:00036f94       validate_ecx_derive        0000000000037234 f   OpensslLib:ecx_meth.obj
 0001:00037004       pkey_ecx_derive25519       00000000000372a4 f   OpensslLib:ecx_meth.obj
 0001:0003708c       pkey_ecx_derive448         000000000003732c f   OpensslLib:ecx_meth.obj
 0001:000370ec       pkey_ecx_ctrl              000000000003738c f   OpensslLib:ecx_meth.obj
 0001:000370fc       pkey_ecd_digestsign25519   000000000003739c f   OpensslLib:ecx_meth.obj
 0001:00037168       pkey_ecd_digestsign448     0000000000037408 f   OpensslLib:ecx_meth.obj
 0001:000371d4       pkey_ecd_digestverify25519 0000000000037474 f   OpensslLib:ecx_meth.obj
 0001:000371fc       pkey_ecd_digestverify448   000000000003749c f   OpensslLib:ecx_meth.obj
 0001:0003723c       pkey_ecd_ctrl              00000000000374dc f   OpensslLib:ecx_meth.obj
 0001:00037284       pkey_rsa_init              0000000000037524 f   OpensslLib:rsa_pmeth.obj
 0001:000372e8       pkey_rsa_copy              0000000000037588 f   OpensslLib:rsa_pmeth.obj
 0001:00037394       setup_tbuf                 0000000000037634 f   OpensslLib:rsa_pmeth.obj
 0001:0003740c       pkey_rsa_cleanup           00000000000376ac f   OpensslLib:rsa_pmeth.obj
 0001:00037468       pkey_rsa_sign              0000000000037708 f   OpensslLib:rsa_pmeth.obj
 0001:0003768c       pkey_rsa_verifyrecover     000000000003792c f   OpensslLib:rsa_pmeth.obj
 0001:00037830       pkey_rsa_verify            0000000000037ad0 f   OpensslLib:rsa_pmeth.obj
 0001:000379f0       pkey_rsa_encrypt           0000000000037c90 f   OpensslLib:rsa_pmeth.obj
 0001:00037af4       pkey_rsa_decrypt           0000000000037d94 f   OpensslLib:rsa_pmeth.obj
 0001:00037c34       check_padding_md           0000000000037ed4 f   OpensslLib:rsa_pmeth.obj
 0001:00037cec       pkey_rsa_ctrl              0000000000037f8c f   OpensslLib:rsa_pmeth.obj
 0001:0003808c       pkey_rsa_ctrl_str          000000000003832c f   OpensslLib:rsa_pmeth.obj
 0001:000384dc       pkey_rsa_keygen            000000000003877c f   OpensslLib:rsa_pmeth.obj
 0001:00038684       pkey_pss_init              0000000000038924 f   OpensslLib:rsa_pmeth.obj
 0001:00038770       pkey_tls1_prf_init         0000000000038a10 f   OpensslLib:tls1_prf.obj
 0001:000387ac       pkey_tls1_prf_cleanup      0000000000038a4c f   OpensslLib:tls1_prf.obj
 0001:000387f0       pkey_tls1_prf_ctrl         0000000000038a90 f   OpensslLib:tls1_prf.obj
 0001:000388f4       pkey_tls1_prf_ctrl_str     0000000000038b94 f   OpensslLib:tls1_prf.obj
 0001:00038a08       pkey_tls1_prf_derive       0000000000038ca8 f   OpensslLib:tls1_prf.obj
 0001:00038a7c       tls1_prf_P_hash            0000000000038d1c f   OpensslLib:tls1_prf.obj
 0001:00038de4       tls1_prf_alg               0000000000039084 f   OpensslLib:tls1_prf.obj
 0001:00038f40       pkey_hkdf_init             00000000000391e0 f   OpensslLib:hkdf.obj
 0001:00038f7c       pkey_hkdf_cleanup          000000000003921c f   OpensslLib:hkdf.obj
 0001:00038fcc       pkey_hkdf_ctrl             000000000003926c f   OpensslLib:hkdf.obj
 0001:00039108       pkey_hkdf_ctrl_str         00000000000393a8 f   OpensslLib:hkdf.obj
 0001:000392b4       pkey_hkdf_derive_init      0000000000039554 f   OpensslLib:hkdf.obj
 0001:0003930c       pkey_hkdf_derive           00000000000395ac f   OpensslLib:hkdf.obj
 0001:0003948c       HKDF_Extract               000000000003972c f   OpensslLib:hkdf.obj
 0001:00039574       HKDF_Expand                0000000000039814 f   OpensslLib:hkdf.obj
 0001:00039784       pkey_sm2_init              0000000000039a24 f   OpensslLib:sm2_pmeth.obj
 0001:000397c0       pkey_sm2_cleanup           0000000000039a60 f   OpensslLib:sm2_pmeth.obj
 0001:00039814       pkey_sm2_copy              0000000000039ab4 f   OpensslLib:sm2_pmeth.obj
 0001:000398e0       pkey_sm2_sign              0000000000039b80 f   OpensslLib:sm2_pmeth.obj
 0001:00039974       pkey_sm2_verify            0000000000039c14 f   OpensslLib:sm2_pmeth.obj
 0001:00039ac0       pkey_sm2_encrypt           0000000000039d60 f   OpensslLib:sm2_pmeth.obj
 0001:00039bb0       pkey_sm2_decrypt           0000000000039e50 f   OpensslLib:sm2_pmeth.obj
 0001:00039c88       pkey_sm2_ctrl              0000000000039f28 f   OpensslLib:sm2_pmeth.obj
 0001:00039e0c       pkey_sm2_ctrl_str          000000000003a0ac f   OpensslLib:sm2_pmeth.obj
 0001:00039ef0       pkey_sm2_digest_custom     000000000003a190 f   OpensslLib:sm2_pmeth.obj
 0001:00039fc0       pkey_siphash_init          000000000003a260 f   OpensslLib:siphash_pmeth.obj
 0001:0003a00c       pkey_siphash_cleanup       000000000003a2ac f   OpensslLib:siphash_pmeth.obj
 0001:0003a060       pkey_siphash_copy          000000000003a300 f   OpensslLib:siphash_pmeth.obj
 0001:0003a0d8       pkey_siphash_keygen        000000000003a378 f   OpensslLib:siphash_pmeth.obj
 0001:0003a114       int_update                 000000000003a3b4 f   OpensslLib:siphash_pmeth.obj
 0001:0003a134       siphash_signctx_init       000000000003a3d4 f   OpensslLib:siphash_pmeth.obj
 0001:0003a194       siphash_signctx            000000000003a434 f   OpensslLib:siphash_pmeth.obj
 0001:0003a1b8       pkey_siphash_ctrl          000000000003a458 f   OpensslLib:siphash_pmeth.obj
 0001:0003a2b4       pkey_siphash_ctrl_str      000000000003a554 f   OpensslLib:siphash_pmeth.obj
 0001:0003a36c       pkey_ec_init               000000000003a60c f   OpensslLib:ec_pmeth.obj
 0001:0003a3b0       pkey_ec_copy               000000000003a650 f   OpensslLib:ec_pmeth.obj
 0001:0003a458       pkey_ec_cleanup            000000000003a6f8 f   OpensslLib:ec_pmeth.obj
 0001:0003a4b4       pkey_ec_sign               000000000003a754 f   OpensslLib:ec_pmeth.obj
 0001:0003a588       pkey_ec_verify             000000000003a828 f   OpensslLib:ec_pmeth.obj
 0001:0003a5f4       pkey_ec_derive             000000000003a894 f   OpensslLib:ec_pmeth.obj
 0001:0003a6b0       pkey_ec_kdf_derive         000000000003a950 f   OpensslLib:ec_pmeth.obj
 0001:0003a7e0       pkey_ec_ctrl               000000000003aa80 f   OpensslLib:ec_pmeth.obj
 0001:0003aa50       pkey_ec_ctrl_str           000000000003acf0 f   OpensslLib:ec_pmeth.obj
 0001:0003abc0       pkey_ec_paramgen           000000000003ae60 f   OpensslLib:ec_pmeth.obj
 0001:0003ac44       pkey_ec_keygen             000000000003aee4 f   OpensslLib:ec_pmeth.obj
 0001:0003ad30       pkey_hmac_init             000000000003afd0 f   OpensslLib:hm_pmeth.obj
 0001:0003ada0       pkey_hmac_copy             000000000003b040 f   OpensslLib:hm_pmeth.obj
 0001:0003ae18       pkey_hmac_cleanup          000000000003b0b8 f   OpensslLib:hm_pmeth.obj
 0001:0003ae64       pkey_hmac_keygen           000000000003b104 f   OpensslLib:hm_pmeth.obj
 0001:0003aea8       int_update                 000000000003b148 f   OpensslLib:hm_pmeth.obj
 0001:0003aee0       hmac_signctx_init          000000000003b180 f   OpensslLib:hm_pmeth.obj
 0001:0003af20       hmac_signctx               000000000003b1c0 f   OpensslLib:hm_pmeth.obj
 0001:0003af8c       pkey_hmac_ctrl             000000000003b22c f   OpensslLib:hm_pmeth.obj
 0001:0003affc       pkey_hmac_ctrl_str         000000000003b29c f   OpensslLib:hm_pmeth.obj
 0001:0003b410       rsa_ossl_public_encrypt    000000000003b6b0 f   OpensslLib:rsa_ossl.obj
 0001:0003b6c0       rsa_get_blinding           000000000003b960 f   OpensslLib:rsa_ossl.obj
 0001:0003b738       rsa_ossl_private_encrypt   000000000003b9d8 f   OpensslLib:rsa_ossl.obj
 0001:0003bbb8       rsa_ossl_private_decrypt   000000000003be58 f   OpensslLib:rsa_ossl.obj
 0001:0003bf94       rsa_ossl_public_decrypt    000000000003c234 f   OpensslLib:rsa_ossl.obj
 0001:0003c2c0       rsa_ossl_mod_exp           000000000003c560 f   OpensslLib:rsa_ossl.obj
 0001:0003cda0       rsa_ossl_init              000000000003d040 f   OpensslLib:rsa_ossl.obj
 0001:0003cdac       rsa_ossl_finish            000000000003d04c f   OpensslLib:rsa_ossl.obj
 0001:0003d814       generate_key               000000000003dab4 f   OpensslLib:dh_key.obj
 0001:0003da6c       compute_key                000000000003dd0c f   OpensslLib:dh_key.obj
 0001:0003dbd8       dh_bn_mod_exp              000000000003de78 f   OpensslLib:dh_key.obj
 0001:0003dc14       dh_init                    000000000003deb4 f   OpensslLib:dh_key.obj
 0001:0003dc20       dh_finish                  000000000003dec0 f   OpensslLib:dh_key.obj
 0001:0003dc38       cmac_size                  000000000003ded8 f   OpensslLib:cm_ameth.obj
 0001:0003dc40       eckey_param2type           000000000003dee0 f   OpensslLib:ec_ameth.obj
 0001:0003dd1c       eckey_pub_encode           000000000003dfbc f   OpensslLib:ec_ameth.obj
 0001:0003df30       eckey_pub_decode           000000000003e1d0 f   OpensslLib:ec_ameth.obj
 0001:0003e0b8       eckey_pub_cmp              000000000003e358 f   OpensslLib:ec_ameth.obj
 0001:0003e108       eckey_priv_decode          000000000003e3a8 f   OpensslLib:ec_ameth.obj
 0001:0003e284       eckey_priv_encode          000000000003e524 f   OpensslLib:ec_ameth.obj
 0001:0003e3b4       int_ec_size                000000000003e654 f   OpensslLib:ec_ameth.obj
 0001:0003e3c0       ec_bits                    000000000003e660 f   OpensslLib:ec_ameth.obj
 0001:0003e3d0       ec_security_bits           000000000003e670 f   OpensslLib:ec_ameth.obj
 0001:0003e434       ec_missing_parameters      000000000003e6d4 f   OpensslLib:ec_ameth.obj
 0001:0003e450       ec_copy_parameters         000000000003e6f0 f   OpensslLib:ec_ameth.obj
 0001:0003e4c0       ec_cmp_parameters          000000000003e760 f   OpensslLib:ec_ameth.obj
 0001:0003e4fc       int_ec_free                000000000003e79c f   OpensslLib:ec_ameth.obj
 0001:0003e508       do_EC_KEY_print            000000000003e7a8 f   OpensslLib:ec_ameth.obj
 0001:0003e748       eckey_param_decode         000000000003e9e8 f   OpensslLib:ec_ameth.obj
 0001:0003e78c       eckey_param_encode         000000000003ea2c f   OpensslLib:ec_ameth.obj
 0001:0003e798       eckey_param_print          000000000003ea38 f   OpensslLib:ec_ameth.obj
 0001:0003e7a8       eckey_pub_print            000000000003ea48 f   OpensslLib:ec_ameth.obj
 0001:0003e7b8       eckey_priv_print           000000000003ea58 f   OpensslLib:ec_ameth.obj
 0001:0003e7c4       old_ec_priv_decode         000000000003ea64 f   OpensslLib:ec_ameth.obj
 0001:0003e80c       old_ec_priv_encode         000000000003eaac f   OpensslLib:ec_ameth.obj
 0001:0003e818       ec_pkey_ctrl               000000000003eab8 f   OpensslLib:ec_ameth.obj
 0001:0003e920       ec_pkey_check              000000000003ebc0 f   OpensslLib:ec_ameth.obj
 0001:0003e954       ec_pkey_public_check       000000000003ebf4 f   OpensslLib:ec_ameth.obj
 0001:0003e960       ec_pkey_param_check        000000000003ec00 f   OpensslLib:ec_ameth.obj
 0001:0003e994       siphash_size               000000000003ec34 f   OpensslLib:siphash_ameth.obj
 0001:0003e99c       hmac_key_free              000000000003ec3c f   OpensslLib:hm_ameth.obj
 0001:0003e99c       siphash_key_free           000000000003ec3c f   OpensslLib:siphash_ameth.obj
 0001:0003e9d0       dh_pkey_ctrl               000000000003ec70 f   OpensslLib:dh_ameth.obj
 0001:0003e9d0       siphash_pkey_ctrl          000000000003ec70 f   OpensslLib:siphash_ameth.obj
 0001:0003e9d8       hmac_pkey_public_cmp       000000000003ec78 f   OpensslLib:hm_ameth.obj
 0001:0003e9d8       siphash_pkey_public_cmp    000000000003ec78 f   OpensslLib:siphash_ameth.obj
 0001:0003e9e8       siphash_set_priv_key       000000000003ec88 f   OpensslLib:siphash_ameth.obj
 0001:0003ea58       siphash_get_priv_key       000000000003ecf8 f   OpensslLib:siphash_ameth.obj
 0001:0003eab0       hmac_pkey_ctrl             000000000003ed50 f   OpensslLib:hm_ameth.obj
 0001:0003eac8       hmac_set_priv_key          000000000003ed68 f   OpensslLib:hm_ameth.obj
 0001:0003eb3c       hmac_get_priv_key          000000000003eddc f   OpensslLib:hm_ameth.obj
 0001:0003eb8c       rsa_param_encode           000000000003ee2c f   OpensslLib:rsa_ameth.obj
 0001:0003ebe4       rsa_param_decode           000000000003ee84 f   OpensslLib:rsa_ameth.obj
 0001:0003ec60       rsa_pub_encode             000000000003ef00 f   OpensslLib:rsa_ameth.obj
 0001:0003ed48       rsa_pub_decode             000000000003efe8 f   OpensslLib:rsa_ameth.obj
 0001:0003ede0       rsa_pub_cmp                000000000003f080 f   OpensslLib:rsa_ameth.obj
 0001:0003ee48       old_rsa_priv_decode        000000000003f0e8 f   OpensslLib:rsa_ameth.obj
 0001:0003ee94       old_rsa_priv_encode        000000000003f134 f   OpensslLib:rsa_ameth.obj
 0001:0003eea8       rsa_priv_encode            000000000003f148 f   OpensslLib:rsa_ameth.obj
 0001:0003ef80       rsa_priv_decode            000000000003f220 f   OpensslLib:rsa_ameth.obj
 0001:0003f014       int_rsa_size               000000000003f2b4 f   OpensslLib:rsa_ameth.obj
 0001:0003f038       rsa_bits                   000000000003f2d8 f   OpensslLib:rsa_ameth.obj
 0001:0003f048       rsa_security_bits          000000000003f2e8 f   OpensslLib:rsa_ameth.obj
 0001:0003f104       int_rsa_free               000000000003f3a4 f   OpensslLib:rsa_ameth.obj
 0001:0003f110       rsa_pss_param_print        000000000003f3b0 f   OpensslLib:rsa_ameth.obj
 0001:0003f3f4       pkey_rsa_print             000000000003f694 f   OpensslLib:rsa_ameth.obj
 0001:0003f75c       rsa_pub_print              000000000003f9fc f   OpensslLib:rsa_ameth.obj
 0001:0003f764       rsa_priv_print             000000000003fa04 f   OpensslLib:rsa_ameth.obj
 0001:0003f770       rsa_pss_decode             000000000003fa10 f   OpensslLib:rsa_ameth.obj
 0001:0003f7f4       rsa_sig_print              000000000003fa94 f   OpensslLib:rsa_ameth.obj
 0001:0003f8a4       rsa_pkey_ctrl              000000000003fb44 f   OpensslLib:rsa_ameth.obj
 0001:0003f998       rsa_md_to_algor            000000000003fc38 f   OpensslLib:rsa_ameth.obj
 0001:0003fa08       rsa_md_to_mgf1             000000000003fca8 f   OpensslLib:rsa_ameth.obj
 0001:0003fc04       rsa_ctx_to_pss_string      000000000003fea4 f   OpensslLib:rsa_ameth.obj
 0001:0003fda0       rsa_pss_to_ctx             0000000000040040 f   OpensslLib:rsa_ameth.obj
 0001:00040188       rsa_item_verify            0000000000040428 f   OpensslLib:rsa_ameth.obj
 0001:000401e8       rsa_item_sign              0000000000040488 f   OpensslLib:rsa_ameth.obj
 0001:000402b8       rsa_sig_info_set           0000000000040558 f   OpensslLib:rsa_ameth.obj
 0001:0004038c       rsa_pkey_check             000000000004062c f   OpensslLib:rsa_ameth.obj
 0001:00040398       i2d_dhp                    0000000000040638 f   OpensslLib:dh_ameth.obj
 0001:00040440       int_dh_free                00000000000406e0 f   OpensslLib:dh_ameth.obj
 0001:0004044c       dh_pub_decode              00000000000406ec f   OpensslLib:dh_ameth.obj
 0001:00040618       dh_pub_encode              00000000000408b8 f   OpensslLib:dh_ameth.obj
 0001:0004075c       dh_priv_decode             00000000000409fc f   OpensslLib:dh_ameth.obj
 0001:00040954       dh_priv_encode             0000000000040bf4 f   OpensslLib:dh_ameth.obj
 0001:00040a70       dh_param_decode            0000000000040d10 f   OpensslLib:dh_ameth.obj
 0001:00040ad0       dh_param_encode            0000000000040d70 f   OpensslLib:dh_ameth.obj
 0001:00040adc       do_dh_print                0000000000040d7c f   OpensslLib:dh_ameth.obj
 0001:00040dd0       int_dh_size                0000000000041070 f   OpensslLib:dh_ameth.obj
 0001:00040df4       dh_bits                    0000000000041094 f   OpensslLib:dh_ameth.obj
 0001:00040e04       dh_security_bits           00000000000410a4 f   OpensslLib:dh_ameth.obj
 0001:00040e4c       dh_cmp_parameters          00000000000410ec f   OpensslLib:dh_ameth.obj
 0001:00040ec0       int_dh_bn_cpy              0000000000041160 f   OpensslLib:dh_ameth.obj
 0001:00040f0c       int_dh_param_copy          00000000000411ac f   OpensslLib:dh_ameth.obj
 0001:00040fe4       dh_copy_parameters         0000000000041284 f   OpensslLib:dh_ameth.obj
 0001:00041040       dh_missing_parameters      00000000000412e0 f   OpensslLib:dh_ameth.obj
 0001:00041060       dh_pub_cmp                 0000000000041300 f   OpensslLib:dh_ameth.obj
 0001:000410a8       dh_param_print             0000000000041348 f   OpensslLib:dh_ameth.obj
 0001:000410b4       dh_public_print            0000000000041354 f   OpensslLib:dh_ameth.obj
 0001:000410c4       dh_private_print           0000000000041364 f   OpensslLib:dh_ameth.obj
 0001:000410d4       dh_pkey_public_check       0000000000041374 f   OpensslLib:dh_ameth.obj
 0001:00041164       dh_pkey_param_check        0000000000041404 f   OpensslLib:dh_ameth.obj
 0001:00041e18       ecdsa_sign_setup           00000000000420b8 f   OpensslLib:ecdsa_ossl.obj
 0001:00042b74       bn_mod_inverse_no_branch   0000000000042e14 f   OpensslLib:bn_gcd.obj
 0001:00044688       i2v_EXTENDED_KEY_USAGE     0000000000044928 f   OpensslLib:v3_extku.obj
 0001:00044714       v2i_EXTENDED_KEY_USAGE     00000000000449b4 f   OpensslLib:v3_extku.obj
 0001:00044a24       i2r_ocsp_crlid             0000000000044cc4 f   OpensslLib:v3_ocsp.obj
 0001:00044b78       i2r_ocsp_acutoff           0000000000044e18 f   OpensslLib:v3_ocsp.obj
 0001:00044bc4       i2r_object                 0000000000044e64 f   OpensslLib:v3_ocsp.obj
 0001:00044c08       ocsp_nonce_new             0000000000044ea8 f   OpensslLib:v3_ocsp.obj
 0001:00044c14       i2d_ocsp_nonce             0000000000044eb4 f   OpensslLib:v3_ocsp.obj
 0001:00044c60       d2i_ocsp_nonce             0000000000044f00 f   OpensslLib:v3_ocsp.obj
 0001:00044cf8       i2r_ocsp_nonce             0000000000044f98 f   OpensslLib:v3_ocsp.obj
 0001:00044d3c       s2i_ocsp_nocheck           0000000000044fdc f   OpensslLib:v3_ocsp.obj
 0001:00044d48       i2r_ocsp_serviceloc        0000000000044fe8 f   OpensslLib:v3_ocsp.obj
 0001:00044e54       i2v_AUTHORITY_KEYID        00000000000450f4 f   OpensslLib:v3_akey.obj
 0001:00044f0c       v2i_AUTHORITY_KEYID        00000000000451ac f   OpensslLib:v3_akey.obj
 0001:0004533c       s2i_asn1_int               00000000000455dc f   OpensslLib:v3_int.obj
 0001:00045344       i2r_NAMING_AUTHORITY       00000000000455e4 f   OpensslLib:v3_admis.obj
 0001:000454f0       i2r_ADMISSION_SYNTAX       0000000000045790 f   OpensslLib:v3_admis.obj
 0001:0004592c       s2i_skey_id                0000000000045bcc f   OpensslLib:v3_skey.obj
 0001:00045b18       i2r_PKEY_USAGE_PERIOD      0000000000045db8 f   OpensslLib:v3_pku.obj
 0001:00045be4       i2v_POLICY_MAPPINGS        0000000000045e84 f   OpensslLib:v3_pmaps.obj
 0001:00045c9c       v2i_POLICY_MAPPINGS        0000000000045f3c f   OpensslLib:v3_pmaps.obj
 0001:00045e80       sxnet_i2r                  0000000000046120 f   OpensslLib:v3_sxnet.obj
 0001:00045f4c       sxnet_v2i                  00000000000461ec f   OpensslLib:v3_sxnet.obj
 0001:00046248       i2r_pci                    00000000000464e8 f   OpensslLib:v3_pci.obj
 0001:000462e8       process_pci_value          0000000000046588 f   OpensslLib:v3_pci.obj
 0001:00046764       r2i_pci                    0000000000046a04 f   OpensslLib:v3_pci.obj
 0001:00046b8c       i2v_TLS_FEATURE            0000000000046e2c f   OpensslLib:v3_tlsf.obj
 0001:00046c40       v2i_TLS_FEATURE            0000000000046ee0 f   OpensslLib:v3_tlsf.obj
 0001:00046e28       generate_v3                00000000000470c8 f   OpensslLib:asn1_gen.obj
 0001:00047140       asn1_cb                    00000000000473e0 f   OpensslLib:asn1_gen.obj
 0001:00047454       parse_tagging              00000000000476f4 f   OpensslLib:asn1_gen.obj
 0001:00047500       asn1_multi                 00000000000477a0 f   OpensslLib:asn1_gen.obj
 0001:00047690       append_exp                 0000000000047930 f   OpensslLib:asn1_gen.obj
 0001:00047724       asn1_str2tag               00000000000479c4 f   OpensslLib:asn1_gen.obj
 0001:000477b8       asn1_str2type              0000000000047a58 f   OpensslLib:asn1_gen.obj
 0001:00047b4c       bitstr_cb                  0000000000047dec f   OpensslLib:asn1_gen.obj
 0001:00047ba0       mask_cb                    0000000000047e40 f   OpensslLib:asn1_gen.obj
 0001:00047c4c       RandGetBytes               0000000000047eec f   OpensslLib:rand_pool.obj
 0001:00048080       hmac_ctx_cleanup           0000000000048320 f   OpensslLib:hmac.obj
 0001:00048144       hmac_ctx_alloc_mds         00000000000483e4 f   OpensslLib:hmac.obj
 0001:00048228       sm4_init_key               00000000000484c8 f   OpensslLib:e_sm4.obj
 0001:00048248       sm4_cbc_cipher             00000000000484e8 f   OpensslLib:e_sm4.obj
 0001:00048350       sm4_cfb128_cipher          00000000000485f0 f   OpensslLib:e_sm4.obj
 0001:00048400       sm4_ecb_cipher             00000000000486a0 f   OpensslLib:e_sm4.obj
 0001:00048484       sm4_ofb_cipher             0000000000048724 f   OpensslLib:e_sm4.obj
 0001:00048584       sm4_ctr_cipher             0000000000048824 f   OpensslLib:e_sm4.obj
 0001:000485ec       aria_init_key              000000000004888c f   OpensslLib:e_aria.obj
 0001:00048658       aria_128_cbc_cipher        00000000000488f8 f   OpensslLib:e_aria.obj
 0001:00048658       aria_192_cbc_cipher        00000000000488f8 f   OpensslLib:e_aria.obj
 0001:00048658       aria_256_cbc_cipher        00000000000488f8 f   OpensslLib:e_aria.obj
 0001:0004872c       aria_128_cfb128_cipher     00000000000489cc f   OpensslLib:e_aria.obj
 0001:0004872c       aria_192_cfb128_cipher     00000000000489cc f   OpensslLib:e_aria.obj
 0001:0004872c       aria_256_cfb128_cipher     00000000000489cc f   OpensslLib:e_aria.obj
 0001:000487dc       aria_128_ecb_cipher        0000000000048a7c f   OpensslLib:e_aria.obj
 0001:000487dc       aria_192_ecb_cipher        0000000000048a7c f   OpensslLib:e_aria.obj
 0001:000487dc       aria_256_ecb_cipher        0000000000048a7c f   OpensslLib:e_aria.obj
 0001:00048854       aria_128_ofb_cipher        0000000000048af4 f   OpensslLib:e_aria.obj
 0001:00048854       aria_192_ofb_cipher        0000000000048af4 f   OpensslLib:e_aria.obj
 0001:00048854       aria_256_ofb_cipher        0000000000048af4 f   OpensslLib:e_aria.obj
 0001:00048954       aria_128_cfb1_cipher       0000000000048bf4 f   OpensslLib:e_aria.obj
 0001:00048954       aria_192_cfb1_cipher       0000000000048bf4 f   OpensslLib:e_aria.obj
 0001:00048954       aria_256_cfb1_cipher       0000000000048bf4 f   OpensslLib:e_aria.obj
 0001:00048a10       aria_128_cfb8_cipher       0000000000048cb0 f   OpensslLib:e_aria.obj
 0001:00048a10       aria_192_cfb8_cipher       0000000000048cb0 f   OpensslLib:e_aria.obj
 0001:00048a10       aria_256_cfb8_cipher       0000000000048cb0 f   OpensslLib:e_aria.obj
 0001:00048abc       aria_ctr_cipher            0000000000048d5c f   OpensslLib:e_aria.obj
 0001:00048b24       aria_gcm_init_key          0000000000048dc4 f   OpensslLib:e_aria.obj
 0001:00048c4c       aria_gcm_ctrl              0000000000048eec f   OpensslLib:e_aria.obj
 0001:000490bc       aria_gcm_tls_cipher        000000000004935c f   OpensslLib:e_aria.obj
 0001:00049200       aria_gcm_cipher            00000000000494a0 f   OpensslLib:e_aria.obj
 0001:000492d8       aria_gcm_cleanup           0000000000049578 f   OpensslLib:e_aria.obj
 0001:00049310       aria_ccm_init_key          00000000000495b0 f   OpensslLib:e_aria.obj
 0001:000493f8       aria_ccm_ctrl              0000000000049698 f   OpensslLib:e_aria.obj
 0001:00049638       aria_ccm_tls_cipher        00000000000498d8 f   OpensslLib:e_aria.obj
 0001:00049814       aria_ccm_cipher            0000000000049ab4 f   OpensslLib:e_aria.obj
 0001:00049a48       aes_init_key               0000000000049ce8 f   OpensslLib:e_aes.obj
 0001:00049b00       aes_cbc_cipher             0000000000049da0 f   OpensslLib:e_aes.obj
 0001:00049b6c       aes_ecb_cipher             0000000000049e0c f   OpensslLib:e_aes.obj
 0001:00049be4       aes_ofb_cipher             0000000000049e84 f   OpensslLib:e_aes.obj
 0001:00049c44       aes_cfb_cipher             0000000000049ee4 f   OpensslLib:e_aes.obj
 0001:00049cac       aes_cfb8_cipher            0000000000049f4c f   OpensslLib:e_aes.obj
 0001:00049d0c       aes_cfb1_cipher            0000000000049fac f   OpensslLib:e_aes.obj
 0001:00049e40       aes_ctr_cipher             000000000004a0e0 f   OpensslLib:e_aes.obj
 0001:00049ed4       aes_gcm_cleanup            000000000004a174 f   OpensslLib:e_aes.obj
 0001:00049f3c       aes_gcm_ctrl               000000000004a1dc f   OpensslLib:e_aes.obj
 0001:0004a3ac       aes_gcm_init_key           000000000004a64c f   OpensslLib:e_aes.obj
 0001:0004a4b0       aes_gcm_tls_cipher         000000000004a750 f   OpensslLib:e_aes.obj
 0001:0004a5fc       aes_gcm_cipher             000000000004a89c f   OpensslLib:e_aes.obj
 0001:0004a6f4       aes_xts_ctrl               000000000004a994 f   OpensslLib:e_aes.obj
 0001:0004a764       aes_xts_init_key           000000000004aa04 f   OpensslLib:e_aes.obj
 0001:0004a8b4       aes_xts_cipher             000000000004ab54 f   OpensslLib:e_aes.obj
 0001:0004a94c       aes_ccm_ctrl               000000000004abec f   OpensslLib:e_aes.obj
 0001:0004ab8c       aes_ccm_init_key           000000000004ae2c f   OpensslLib:e_aes.obj
 0001:0004ac4c       aes_ccm_tls_cipher         000000000004aeec f   OpensslLib:e_aes.obj
 0001:0004ae28       aes_ccm_cipher             000000000004b0c8 f   OpensslLib:e_aes.obj
 0001:0004b05c       aes_wrap_init_key          000000000004b2fc f   OpensslLib:e_aes.obj
 0001:0004b0f4       aes_wrap_cipher            000000000004b394 f   OpensslLib:e_aes.obj
 0001:0004b298       ctr_XOR                    000000000004b538 f   OpensslLib:drbg_ctr.obj
 0001:0004b318       ctr_BCC_block              000000000004b5b8 f   OpensslLib:drbg_ctr.obj
 0001:0004b384       ctr_BCC_blocks             000000000004b624 f   OpensslLib:drbg_ctr.obj
 0001:0004b420       ctr_BCC_update             000000000004b6c0 f   OpensslLib:drbg_ctr.obj
 0001:0004b504       ctr_df                     000000000004b7a4 f   OpensslLib:drbg_ctr.obj
 0001:0004b768       ctr_update                 000000000004ba08 f   OpensslLib:drbg_ctr.obj
 0001:0004b99c       drbg_ctr_instantiate       000000000004bc3c f   OpensslLib:drbg_ctr.obj
 0001:0004ba94       drbg_ctr_reseed            000000000004bd34 f   OpensslLib:drbg_ctr.obj
 0001:0004bb00       drbg_ctr_generate          000000000004bda0 f   OpensslLib:drbg_ctr.obj
 0001:0004bd6c       drbg_ctr_uninstantiate     000000000004c00c f   OpensslLib:drbg_ctr.obj
 0001:0004c010       init                       000000000004c2b0 f   OpensslLib:m_sha3.obj
 0001:0004c090       sha3_init                  000000000004c330 f   OpensslLib:m_sha3.obj
 0001:0004c098       shake_init                 000000000004c338 f   OpensslLib:m_sha3.obj
 0001:0004c0a0       sha3_update                000000000004c340 f   OpensslLib:m_sha3.obj
 0001:0004c1b8       sha3_final                 000000000004c458 f   OpensslLib:m_sha3.obj
 0001:0004c260       shake_ctrl                 000000000004c500 f   OpensslLib:m_sha3.obj
 0001:0004c280       init                       000000000004c520 f   OpensslLib:m_sm3.obj
 0001:0004c2dc       update                     000000000004c57c f   OpensslLib:m_sm3.obj
 0001:0004c40c       final                      000000000004c6ac f   OpensslLib:m_sm3.obj
 0001:0004c41c       init                       000000000004c6bc f   OpensslLib:m_md5_sha1.obj
 0001:0004c460       update                     000000000004c700 f   OpensslLib:m_md5_sha1.obj
 0001:0004c4a4       final                      000000000004c744 f   OpensslLib:m_md5_sha1.obj
 0001:0004c4dc       ctrl                       000000000004c77c f   OpensslLib:m_md5_sha1.obj
 0001:0004c67c       trans_cb                   000000000004c91c f   OpensslLib:pmeth_gn.obj
 0001:0004c694       dh_param_init              000000000004c934 f   OpensslLib:dh_rfc7919.obj
 0001:0004c754       dh_builtin_genparams       000000000004c9f4 f   OpensslLib:dh_gen.obj
 0001:0004c904       oneshot_hash               000000000004cba4 f   OpensslLib:eddsa.obj
 0001:0004c9b4       hash_init_with_dom         000000000004cc54 f   OpensslLib:eddsa.obj
 0001:0004d0f0       fe_frombytes               000000000004d390 f   OpensslLib:curve25519.obj
 0001:0004d3a8       fe_tobytes                 000000000004d648 f   OpensslLib:curve25519.obj
 0001:0004d618       fe_mul                     000000000004d8b8 f   OpensslLib:curve25519.obj
 0001:0004ded0       fe_sq                      000000000004e170 f   OpensslLib:curve25519.obj
 0001:0004e45c       fe_invert                  000000000004e6fc f   OpensslLib:curve25519.obj
 0001:0004e69c       fe_sq2                     000000000004e93c f   OpensslLib:curve25519.obj
 0001:0004ec0c       fe_pow22523                000000000004eeac f   OpensslLib:curve25519.obj
 0001:0004ee50       ge_p3_tobytes              000000000004f0f0 f   OpensslLib:curve25519.obj
 0001:0004eed0       ge_frombytes_vartime       000000000004f170 f   OpensslLib:curve25519.obj
 0001:0004f128       ge_p3_to_cached            000000000004f3c8 f   OpensslLib:curve25519.obj
 0001:0004f1b0       ge_p1p1_to_p2              000000000004f450 f   OpensslLib:curve25519.obj
 0001:0004f20c       ge_p1p1_to_p3              000000000004f4ac f   OpensslLib:curve25519.obj
 0001:0004f280       ge_p2_dbl                  000000000004f520 f   OpensslLib:curve25519.obj
 0001:0004f36c       ge_p3_dbl                  000000000004f60c f   OpensslLib:curve25519.obj
 0001:0004f3f8       ge_madd                    000000000004f698 f   OpensslLib:curve25519.obj
 0001:0004f538       ge_add                     000000000004f7d8 f   OpensslLib:curve25519.obj
 0001:0004f68c       cmov                       000000000004f92c f   OpensslLib:curve25519.obj
 0001:0004f70c       table_select               000000000004f9ac f   OpensslLib:curve25519.obj
 0001:0004f918       ge_scalarmult_base         000000000004fbb8 f   OpensslLib:curve25519.obj
 0001:0004fb04       x25519_scalar_mult_generic 000000000004fda4 f   OpensslLib:curve25519.obj
 0001:0004ffd0       slide                      0000000000050270 f   OpensslLib:curve25519.obj
 0001:000500d0       ge_double_scalarmult_vartime 0000000000050370 f   OpensslLib:curve25519.obj
 0001:00050638       x25519_sc_reduce           00000000000508d8 f   OpensslLib:curve25519.obj
 0001:00051470       sc_muladd                  0000000000051710 f   OpensslLib:curve25519.obj
 0001:00053854       gf_bias                    0000000000053af4 f   OpensslLib:curve448.obj
 0001:000538b4       gf_weak_reduce             0000000000053b54 f   OpensslLib:curve448.obj
 0001:000538b4       gf_weak_reduce             0000000000053b54 f   OpensslLib:f_generic.obj
 0001:00053900       gf_sub_nr                  0000000000053ba0 f   OpensslLib:curve448.obj
 0001:00053944       gf_cond_neg                0000000000053be4 f   OpensslLib:curve448.obj
 0001:000539bc       gf_invert                  0000000000053c5c f   OpensslLib:curve448.obj
 0001:00053a48       point_double_internal      0000000000053ce8 f   OpensslLib:curve448.obj
 0001:00053c14       pt_to_pniels               0000000000053eb4 f   OpensslLib:curve448.obj
 0001:00053c94       pniels_to_pt               0000000000053f34 f   OpensslLib:curve448.obj
 0001:00053d34       niels_to_pt                0000000000053fd4 f   OpensslLib:curve448.obj
 0001:00053dd0       add_niels_to_pt            0000000000054070 f   OpensslLib:curve448.obj
 0001:00053f44       sub_niels_from_pt          00000000000541e4 f   OpensslLib:curve448.obj
 0001:000540ac       add_pniels_to_pt           000000000005434c f   OpensslLib:curve448.obj
 0001:00054d44       recode_wnaf                0000000000054fe4 f   OpensslLib:curve448.obj
 0001:00055538       rsa_get_public_exp         00000000000557d8 f   OpensslLib:rsa_crpt.obj
 0001:000560f4       rsa_builtin_keygen         0000000000056394 f   OpensslLib:rsa_gen.obj
 0001:00056a94       encode_pkcs1               0000000000056d34 f   OpensslLib:rsa_sign.obj
 0001:00057a6c       sm2_sig_gen                0000000000057d0c f   OpensslLib:sm2_sign.obj
 0001:00057d18       sm2_sig_verify             0000000000057fb8 f   OpensslLib:sm2_sign.obj
 0001:0005812c       ec_field_size              00000000000583cc f   OpensslLib:sm2_crypt.obj
 0001:0005968c       nist_cp_bn_0               000000000005992c f   OpensslLib:bn_nist.obj
 0001:0005bfa8       print_bin                  000000000005c248 f   OpensslLib:eck_prn.obj
 0001:0005cc24       dh_cb                      000000000005cec4 f   OpensslLib:dh_asn1.obj
 0001:0005d82c       SM4_T_slow                 000000000005dacc f   OpensslLib:sm4.obj
 0001:0005f140       cfbr_encrypt_block         000000000005f3e0 f   OpensslLib:cfb128.obj
 0001:0005f418       gcm_gmult_4bit             000000000005f6b8 f   OpensslLib:gcm128.obj
 0001:00060a68       rotnr                      0000000000060d08 f   OpensslLib:aria.obj
 0001:00060af0       sl2                        0000000000060d90 f   OpensslLib:aria.obj
 0001:00060b80       a                          0000000000060e20 f   OpensslLib:aria.obj
 0001:00060cfc       FO                         0000000000060f9c f   OpensslLib:aria.obj
 0001:00062b94       crypto_128_unwrap_raw      0000000000062e34 f   OpensslLib:wrap128.obj
 0001:00063030       alg_module_init            00000000000632d0 f   OpensslLib:evp_cnf.obj
 0001:00063188       stbl_module_init           0000000000063428 f   OpensslLib:asn_mstbl.obj
 0001:00063264       stbl_module_finish         0000000000063504 f   OpensslLib:asn_mstbl.obj
 0001:00063290       do_tcreate                 0000000000063530 f   OpensslLib:asn_mstbl.obj
 0001:000635fc       ssl_module_free            000000000006389c f   OpensslLib:conf_ssl.obj
 0001:00063720       ssl_module_init            00000000000639c0 f   OpensslLib:conf_ssl.obj
 0001:00063a24       oid_module_init            0000000000063cc4 f   OpensslLib:asn_moid.obj
 0001:00063c28       oid_module_finish          0000000000063ec8 f   OpensslLib:asn_moid.obj
 0001:00063c2c       Round                      0000000000063ecc f   OpensslLib:keccak1600.obj
 0001:00063ffc       KeccakF1600                000000000006429c f   OpensslLib:keccak1600.obj
 0001:000670c4       witness                    0000000000067364 f   OpensslLib:bn_prime.obj
 0001:000671a4       probable_prime             0000000000067444 f   OpensslLib:bn_prime.obj
 0001:00067338       probable_prime_dh          00000000000675d8 f   OpensslLib:bn_prime.obj
 0001:00067628       sc_subx                    00000000000678c8 f   OpensslLib:scalar.obj
 0001:000676b4       sc_montmul                 0000000000067954 f   OpensslLib:scalar.obj
 0001:00067a78       gf_sqrn                    0000000000067d18 f   OpensslLib:f_generic.obj
 0001:0006b7d0       QuickSortWorker            000000000006ba70 f   BaseCryptLib:CrtWrapper.obj
 0002:000003cc       allow_customize            000000000006c14c     OpensslLib:mem.obj
 0002:000003d0       new_nid                    000000000006c150     OpensslLib:obj_dat.obj
 0002:000003d8       memset_func                000000000006c158     OpensslLib:mem_clr.obj
 0002:000003e0       int_crl_meth               000000000006c160     OpensslLib:x_crl.obj
 0002:00000410       xstandard                  000000000006c190     OpensslLib:v3_purp.obj
 0002:000005c0       trstandard                 000000000006c340     OpensslLib:x509_trs.obj
 0002:00000700       destructor_key             000000000006c480     OpensslLib:init.obj
 0002:00000710       standard_methods           000000000006c490     OpensslLib:pmeth_lib.obj
 0002:00000790       standard_methods           000000000006c510     OpensslLib:ameth_lib.obj
 0002:00000800       bignum_pf                  000000000006c580     OpensslLib:x_bignum.obj
 0002:00000840       cbignum_pf                 000000000006c5c0     OpensslLib:x_bignum.obj
 0002:00000880       uint32_pf                  000000000006c600     OpensslLib:x_int64.obj
 0002:000008c0       nist_curves                000000000006c640     OpensslLib:ec_curve.obj
 0002:000009b0       standard_exts              000000000006c730     OpensslLib:v3_lib.obj
 0002:00000b30       rsa_pkcs1_ossl_meth        000000000006c8b0     OpensslLib:rsa_ossl.obj
 0002:00000bb0       dh_ossl                    000000000006c930     OpensslLib:dh_key.obj
 0002:00000c00       key_usage_type_table       000000000006c980     OpensslLib:v3_bitst.obj
 0002:00000cf0       ns_cert_type_table         000000000006ca70     OpensslLib:v3_bitst.obj
 0002:00000dd0       crl_reasons                000000000006cb50     OpensslLib:v3_enum.obj
 0002:00000ee0       tls_feature_tbl            000000000006cc60     OpensslLib:v3_tlsf.obj
 0002:00000f00       drbg_ctr_meth              000000000006cc80     OpensslLib:drbg_ctr.obj
 0002:00000f20       ?c80@?1??ctr_df@@9@9       000000000006cca0     OpensslLib:drbg_ctr.obj
 0002:00001150       TS_TST_INFO_seq_tt         000000000006ced0     BaseCryptLib:CryptTs.obj
 0002:000012c0       TS_ACCURACY_seq_tt         000000000006d040     BaseCryptLib:CryptTs.obj
 0002:00001320       TS_MESSAGE_IMPRINT_seq_tt  000000000006d0a0     BaseCryptLib:CryptTs.obj
 0002:00001360       K512                       000000000006d0e0     OpensslLib:sha512.obj
 0002:000015e8       minbits_table              000000000006d368     OpensslLib:x509_vfy.obj
 0002:00001610       mem_method                 000000000006d390     OpensslLib:bss_mem.obj
 0002:00001720       X509_CINF_seq_tt           000000000006d4a0     OpensslLib:x_x509.obj
 0002:00001860       X509_seq_tt                000000000006d5e0     OpensslLib:x_x509.obj
 0002:000018f0       X509_CINF_aux              000000000006d670     OpensslLib:x_x509.obj
 0002:00001918       X509_aux                   000000000006d698     OpensslLib:x_x509.obj
 0002:00001970       sha1_md                    000000000006d6f0     OpensslLib:m_sha1.obj
 0002:000019c0       sha224_md                  000000000006d740     OpensslLib:m_sha1.obj
 0002:00001a10       sha512_224_md              000000000006d790     OpensslLib:m_sha1.obj
 0002:00001a60       sha256_md                  000000000006d7e0     OpensslLib:m_sha1.obj
 0002:00001ab0       sha512_md                  000000000006d830     OpensslLib:m_sha1.obj
 0002:00001b00       sha384_md                  000000000006d880     OpensslLib:m_sha1.obj
 0002:00001b50       sha512_256_md              000000000006d8d0     OpensslLib:m_sha1.obj
 0002:00001e30       PKCS7_ENVELOPE_seq_tt      000000000006dbb0     OpensslLib:pk7_asn1.obj
 0002:00001f20       PKCS7_adb                  000000000006dca0     OpensslLib:pk7_asn1.obj
 0002:00001f50       PKCS7_SIGNER_INFO_aux      000000000006dcd0     OpensslLib:pk7_asn1.obj
 0002:00001f80       PKCS7_SIGNER_INFO_seq_tt   000000000006dd00     OpensslLib:pk7_asn1.obj
 0002:000020c0       PKCS7_ENC_CONTENT_seq_tt   000000000006de40     OpensslLib:pk7_asn1.obj
 0002:00002180       PKCS7_adbtbl               000000000006df00     OpensslLib:pk7_asn1.obj
 0002:000022a0       PKCS7_RECIP_INFO_aux       000000000006e020     OpensslLib:pk7_asn1.obj
 0002:000022f8       p7default_tt               000000000006e078     OpensslLib:pk7_asn1.obj
 0002:00002320       PKCS7_ISSUER_AND_SERIAL_seq_tt 000000000006e0a0     OpensslLib:pk7_asn1.obj
 0002:00002360       PKCS7_SIGN_ENVELOPE_seq_tt 000000000006e0e0     OpensslLib:pk7_asn1.obj
 0002:00002440       PKCS7_RECIP_INFO_seq_tt    000000000006e1c0     OpensslLib:pk7_asn1.obj
 0002:000024f0       PKCS7_aux                  000000000006e270     OpensslLib:pk7_asn1.obj
 0002:00002550       PKCS7_SIGNED_seq_tt        000000000006e2d0     OpensslLib:pk7_asn1.obj
 0002:00002610       PKCS7_ATTR_SIGN_item_tt    000000000006e390     OpensslLib:pk7_asn1.obj
 0002:00002630       PKCS7_DIGEST_seq_tt        000000000006e3b0     OpensslLib:pk7_asn1.obj
 0002:000026e0       PKCS7_ATTR_VERIFY_item_tt  000000000006e460     OpensslLib:pk7_asn1.obj
 0002:00002700       PKCS7_seq_tt               000000000006e480     OpensslLib:pk7_asn1.obj
 0002:00002740       PKCS7_ENCRYPT_seq_tt       000000000006e4c0     OpensslLib:pk7_asn1.obj
 0002:00002780       md5_md                     000000000006e500     OpensslLib:m_md5.obj
 0002:0000aa60       nid_objs                   00000000000767e0     OpensslLib:obj_dat.obj
 0002:00016520       ln_objs                    00000000000822a0     OpensslLib:obj_dat.obj
 0002:000177b0       so                         0000000000083530     OpensslLib:obj_dat.obj
 0002:00019610       obj_objs                   0000000000085390     OpensslLib:obj_dat.obj
 0002:0001a6d0       sn_objs                    0000000000086450     OpensslLib:obj_dat.obj
 0002:0001b9f8       X509_NAME_ENTRIES_item_tt  0000000000087778     OpensslLib:x_name.obj
 0002:0001ba20       X509_NAME_ENTRY_seq_tt     00000000000877a0     OpensslLib:x_name.obj
 0002:0001ba90       X509_NAME_INTERNAL_item_tt 0000000000087810     OpensslLib:x_name.obj
 0002:0001bab0       x509_name_ff               0000000000087830     OpensslLib:x_name.obj
 0002:0001bae8       X509_NAME_INTERNAL_it      0000000000087868     OpensslLib:x_name.obj
 0002:0001bb18       X509_NAME_ENTRIES_it       0000000000087898     OpensslLib:x_name.obj
 0002:0001bb80       tag2nbyte                  0000000000087900     OpensslLib:a_strex.obj
 0002:0001bba0       char_type                  0000000000087920     OpensslLib:a_strex.obj
 0002:0001bca0       ?hexdig@?1??do_hex_dump@@9@9 0000000000087a20     OpensslLib:a_strex.obj
 0002:0001bca0       ?hexdig@?1??OPENSSL_buf2hexstr@@9@9 0000000000087a20     OpensslLib:o_str.obj
 0002:0001bca0       ?hex@?1??X509_NAME_oneline@@9@9 0000000000087a20     OpensslLib:x509_obj.obj
 0002:0001bdf0       RSAPublicKey_seq_tt        0000000000087b70     OpensslLib:rsa_asn1.obj
 0002:0001be30       RSAPublicKey_aux           0000000000087bb0     OpensslLib:rsa_asn1.obj
 0002:0001be60       RSAPrivateKey_seq_tt       0000000000087be0     OpensslLib:rsa_asn1.obj
 0002:0001bfa0       RSAPrivateKey_aux          0000000000087d20     OpensslLib:rsa_asn1.obj
 0002:0001bff8       RSA_PSS_PARAMS_aux         0000000000087d78     OpensslLib:rsa_asn1.obj
 0002:0001c020       RSA_PSS_PARAMS_seq_tt      0000000000087da0     OpensslLib:rsa_asn1.obj
 0002:0001c0d0       RSA_PRIME_INFO_seq_tt      0000000000087e50     OpensslLib:rsa_asn1.obj
 0002:0001c130       K256                       0000000000087eb0     OpensslLib:sha256.obj
 0002:0001c5d8       ASN1_SEQUENCE_ANY_item_tt  0000000000088358     OpensslLib:tasn_typ.obj
 0002:0001c688       ASN1_SET_ANY_item_tt       0000000000088408     OpensslLib:tasn_typ.obj
 0002:0001c7b0       tag2bit                    0000000000088530     OpensslLib:tasn_dec.obj
 0002:0001c880       X509_ALGOR_seq_tt          0000000000088600     OpensslLib:x_algor.obj
 0002:0001c910       X509_EXTENSION_seq_tt      0000000000088690     OpensslLib:x_exten.obj
 0002:0001caf0       OTHERNAME_seq_tt           0000000000088870     OpensslLib:v3_genn.obj
 0002:0001cb30       EDIPARTYNAME_seq_tt        00000000000888b0     OpensslLib:v3_genn.obj
 0002:0001cb70       GENERAL_NAMES_item_tt      00000000000888f0     OpensslLib:v3_genn.obj
 0002:0001cbf0       GENERAL_NAME_ch_tt         0000000000088970     OpensslLib:v3_genn.obj
 0002:0001cd40       default_table              0000000000088ac0     OpensslLib:x509_vpm.obj
 0002:0001d040       X509_REVOKED_seq_tt        0000000000088dc0     OpensslLib:x_crl.obj
 0002:0001d0a0       X509_CRL_INFO_seq_tt       0000000000088e20     OpensslLib:x_crl.obj
 0002:0001d180       X509_CRL_seq_tt            0000000000088f00     OpensslLib:x_crl.obj
 0002:0001d1e0       X509_CRL_INFO_aux          0000000000088f60     OpensslLib:x_crl.obj
 0002:0001d208       X509_CRL_aux               0000000000088f88     OpensslLib:x_crl.obj
 0002:0001d350       ?supported_nids@?1??X509_supported_extension@@9@9 00000000000890d0     OpensslLib:v3_purp.obj
 0002:0001d3e8       X509_PUBKEY_aux            0000000000089168     OpensslLib:x_pubkey.obj
 0002:0001d410       X509_PUBKEY_seq_tt         0000000000089190     OpensslLib:x_pubkey.obj
 0002:0001d530       ?max@?1??asn1_time_to_tm@@9@9 00000000000892b0     OpensslLib:a_time.obj
 0002:0001d560       ?min@?1??asn1_time_to_tm@@9@9 00000000000892e0     OpensslLib:a_time.obj
 0002:0001d588       _asn1_mon                  0000000000089308     OpensslLib:a_time.obj
 0002:0001d5b8       ?ydays@?1??determine_days@@9@9 0000000000089338     OpensslLib:a_time.obj
 0002:0001d5f0       ?mdays@?1??asn1_time_to_tm@@9@9 0000000000089370     OpensslLib:a_time.obj
 0002:0001d7f0       NAME_CONSTRAINTS_seq_tt    0000000000089570     OpensslLib:v3_ncons.obj
 0002:0001d8d0       GENERAL_SUBTREE_seq_tt     0000000000089650     OpensslLib:v3_ncons.obj
 0002:0001d960       ctype_char_map             00000000000896e0     OpensslLib:ctype.obj
 0002:0001dac8       CRL_DIST_POINTS_item_tt    0000000000089848     OpensslLib:v3_crld.obj
 0002:0001daf0       ISSUING_DIST_POINT_seq_tt  0000000000089870     OpensslLib:v3_crld.obj
 0002:0001dc80       reason_flags               0000000000089a00     OpensslLib:v3_crld.obj
 0002:0001de10       DIST_POINT_NAME_ch_tt      0000000000089b90     OpensslLib:v3_crld.obj
 0002:0001dec0       DIST_POINT_seq_tt          0000000000089c40     OpensslLib:v3_crld.obj
 0002:0001df50       DIST_POINT_NAME_aux        0000000000089cd0     OpensslLib:v3_crld.obj
 0002:0001e1c0       X509_CERT_AUX_seq_tt       0000000000089f40     OpensslLib:x_x509a.obj
 0002:0001e2d0       AUTHORITY_KEYID_seq_tt     000000000008a050     OpensslLib:v3_akeya.obj
 0002:0001e360       X509_VAL_seq_tt            000000000008a0e0     OpensslLib:x_val.obj
 0002:0001eef0       sigoid_srt_xref            000000000008ac70     OpensslLib:obj_xref.obj
 0002:0001f050       sigoid_srt                 000000000008add0     OpensslLib:obj_xref.obj
 0002:0001f2b0       X509_ATTRIBUTE_seq_tt      000000000008b030     OpensslLib:x_attrib.obj
 0002:0001f380       X509_SIG_seq_tt            000000000008b100     OpensslLib:x_sig.obj
 0002:0001f5b0       X9_62_CURVE_it             000000000008b330     OpensslLib:ec_asn1.obj
 0002:0001f5e0       X9_62_FIELDID_seq_tt       000000000008b360     OpensslLib:ec_asn1.obj
 0002:0001f620       X9_62_PENTANOMIAL_seq_tt   000000000008b3a0     OpensslLib:ec_asn1.obj
 0002:0001f680       fieldID_def_tt             000000000008b400     OpensslLib:ec_asn1.obj
 0002:0001f6a0       X9_62_CHARACTERISTIC_TWO_adb 000000000008b420     OpensslLib:ec_asn1.obj
 0002:0001f6d0       X9_62_CHARACTERISTIC_TWO_seq_tt 000000000008b450     OpensslLib:ec_asn1.obj
 0002:0001f730       ECDSA_SIG_seq_tt           000000000008b4b0     OpensslLib:ec_asn1.obj
 0002:0001f770       ECPARAMETERS_seq_tt        000000000008b4f0     OpensslLib:ec_asn1.obj
 0002:0001f830       ECDSA_SIG_it               000000000008b5b0     OpensslLib:ec_asn1.obj
 0002:0001f860       X9_62_FIELDID_it           000000000008b5e0     OpensslLib:ec_asn1.obj
 0002:0001f890       X9_62_CHARACTERISTIC_TWO_it 000000000008b610     OpensslLib:ec_asn1.obj
 0002:0001f8c0       ECPKPARAMETERS_ch_tt       000000000008b640     OpensslLib:ec_asn1.obj
 0002:0001f950       EC_PRIVATEKEY_it           000000000008b6d0     OpensslLib:ec_asn1.obj
 0002:0001f980       X9_62_FIELDID_adb          000000000008b700     OpensslLib:ec_asn1.obj
 0002:0001f9b0       EC_PRIVATEKEY_seq_tt       000000000008b730     OpensslLib:ec_asn1.obj
 0002:0001fa30       X9_62_CURVE_seq_tt         000000000008b7b0     OpensslLib:ec_asn1.obj
 0002:0001fa90       X9_62_PENTANOMIAL_it       000000000008b810     OpensslLib:ec_asn1.obj
 0002:0001fac0       X9_62_CHARACTERISTIC_TWO_adbtbl 000000000008b840     OpensslLib:ec_asn1.obj
 0002:0001fb38       char_two_def_tt            000000000008b8b8     OpensslLib:ec_asn1.obj
 0002:0001fb60       X9_62_FIELDID_adbtbl       000000000008b8e0     OpensslLib:ec_asn1.obj
 0002:0001fbd0       Hex                        000000000008b950     OpensslLib:bn_print.obj
 0002:0001fbe8       ?const_one@?1??BN_value_one@@9@9 000000000008b968     OpensslLib:bn_lib.obj
 0002:0001fc00       ?data_one@?1??BN_value_one@@9@9 000000000008b980     OpensslLib:bn_lib.obj
 0002:0001fc18       ?zero_iv@?1??CMAC_Init@@9@9 000000000008b998     OpensslLib:cmac.obj
 0002:0001fc40       tbl_standard               000000000008b9c0     OpensslLib:a_strnid.obj
 0002:00020010       ?tag2str@?1??ASN1_tag2str@@9@9 000000000008bd90     OpensslLib:asn1_par.obj
 0002:00020280       PROXY_POLICY_seq_tt        000000000008c000     OpensslLib:v3_pcia.obj
 0002:000202f0       PROXY_CERT_INFO_EXTENSION_seq_tt 000000000008c070     OpensslLib:v3_pcia.obj
 0002:00020390       BASIC_CONSTRAINTS_seq_tt   000000000008c110     OpensslLib:v3_bcons.obj
 0002:00020970       _EC_brainpoolP512t1        000000000008c6f0     OpensslLib:ec_curve.obj
 0002:00020b00       _EC_WTLS_8                 000000000008c880     OpensslLib:ec_curve.obj
 0002:00020b70       _EC_brainpoolP512r1        000000000008c8f0     OpensslLib:ec_curve.obj
 0002:00020d00       _EC_X9_62_PRIME_239V3      000000000008ca80     OpensslLib:ec_curve.obj
 0002:00020de0       _EC_SECG_PRIME_224K1       000000000008cb60     OpensslLib:ec_curve.obj
 0002:00020ea0       _EC_SECG_PRIME_128R2       000000000008cc20     OpensslLib:ec_curve.obj
 0002:00020f30       _EC_sm2p256v1              000000000008ccb0     OpensslLib:ec_curve.obj
 0002:00021000       curve_list                 000000000008cd80     OpensslLib:ec_curve.obj
 0002:00021500       _EC_brainpoolP256t1        000000000008d280     OpensslLib:ec_curve.obj
 0002:000215d0       _EC_SECG_PRIME_112R1       000000000008d350     OpensslLib:ec_curve.obj
 0002:00021650       _EC_NIST_PRIME_521         000000000008d3d0     OpensslLib:ec_curve.obj
 0002:00021800       _EC_NIST_PRIME_192         000000000008d580     OpensslLib:ec_curve.obj
 0002:000218c0       _EC_NIST_PRIME_384         000000000008d640     OpensslLib:ec_curve.obj
 0002:00021a10       _EC_SECG_PRIME_128R1       000000000008d790     OpensslLib:ec_curve.obj
 0002:00021aa0       _EC_WTLS_9                 000000000008d820     OpensslLib:ec_curve.obj
 0002:00021b30       _EC_SECG_PRIME_160R2       000000000008d8b0     OpensslLib:ec_curve.obj
 0002:00021be0       _EC_SECG_PRIME_192K1       000000000008d960     OpensslLib:ec_curve.obj
 0002:00021c80       _EC_NIST_PRIME_224         000000000008da00     OpensslLib:ec_curve.obj
 0002:00021d50       _EC_brainpoolP160t1        000000000008dad0     OpensslLib:ec_curve.obj
 0002:00021de0       _EC_brainpoolP384r1        000000000008db60     OpensslLib:ec_curve.obj
 0002:00021f10       _EC_WTLS_12                000000000008dc90     OpensslLib:ec_curve.obj
 0002:00021fd0       _EC_SECG_PRIME_160K1       000000000008dd50     OpensslLib:ec_curve.obj
 0002:00022060       _EC_X9_62_PRIME_239V1      000000000008dde0     OpensslLib:ec_curve.obj
 0002:00022140       _EC_brainpoolP160r1        000000000008dec0     OpensslLib:ec_curve.obj
 0002:000221d0       _EC_brainpoolP224t1        000000000008df50     OpensslLib:ec_curve.obj
 0002:00022290       _EC_X9_62_PRIME_239V2      000000000008e010     OpensslLib:ec_curve.obj
 0002:00022370       _EC_X9_62_PRIME_192V2      000000000008e0f0     OpensslLib:ec_curve.obj
 0002:00022430       _EC_SECG_PRIME_256K1       000000000008e1b0     OpensslLib:ec_curve.obj
 0002:00022500       _EC_brainpoolP224r1        000000000008e280     OpensslLib:ec_curve.obj
 0002:000225c0       _EC_SECG_PRIME_112R2       000000000008e340     OpensslLib:ec_curve.obj
 0002:00022640       _EC_brainpoolP192r1        000000000008e3c0     OpensslLib:ec_curve.obj
 0002:000226e0       _EC_brainpoolP320t1        000000000008e460     OpensslLib:ec_curve.obj
 0002:000227e0       _EC_brainpoolP320r1        000000000008e560     OpensslLib:ec_curve.obj
 0002:000228e0       _EC_SECG_PRIME_160R1       000000000008e660     OpensslLib:ec_curve.obj
 0002:00022990       _EC_brainpoolP256r1        000000000008e710     OpensslLib:ec_curve.obj
 0002:00022a60       _EC_brainpoolP384t1        000000000008e7e0     OpensslLib:ec_curve.obj
 0002:00022b90       _EC_brainpoolP192t1        000000000008e910     OpensslLib:ec_curve.obj
 0002:00022c30       _EC_X9_62_PRIME_192V3      000000000008e9b0     OpensslLib:ec_curve.obj
 0002:00022cf0       _EC_X9_62_PRIME_256V1      000000000008ea70     OpensslLib:ec_curve.obj
 0002:00022df0       openssl_ec_key_method      000000000008eb70     OpensslLib:ec_kmeth.obj
 0002:00022f20       ACCESS_DESCRIPTION_seq_tt  000000000008eca0     OpensslLib:v3_info.obj
 0002:00023038       AUTHORITY_INFO_ACCESS_item_tt 000000000008edb8     OpensslLib:v3_info.obj
 0002:00023380       POLICY_CONSTRAINTS_seq_tt  000000000008f100     OpensslLib:v3_pcons.obj
 0002:000235f8       POLICYQUALINFO_adb         000000000008f378     OpensslLib:v3_cpols.obj
 0002:00023630       POLICYQUALINFO_adbtbl      000000000008f3b0     OpensslLib:v3_cpols.obj
 0002:000236b0       POLICYQUALINFO_seq_tt      000000000008f430     OpensslLib:v3_cpols.obj
 0002:000236f0       NOTICEREF_seq_tt           000000000008f470     OpensslLib:v3_cpols.obj
 0002:00023730       policydefault_tt           000000000008f4b0     OpensslLib:v3_cpols.obj
 0002:00023750       USERNOTICE_seq_tt          000000000008f4d0     OpensslLib:v3_cpols.obj
 0002:00023790       CERTIFICATEPOLICIES_item_tt 000000000008f510     OpensslLib:v3_cpols.obj
 0002:000237e0       POLICYINFO_seq_tt          000000000008f560     OpensslLib:v3_cpols.obj
 0002:00023890       methods_enc                000000000008f610     OpensslLib:bio_enc.obj
 0002:00023900       methods_md                 000000000008f680     OpensslLib:bio_md.obj
 0002:00023960       null_method                000000000008f6e0     OpensslLib:bss_null.obj
 0002:00023a58       ossl_pers_string           000000000008f7d8     OpensslLib:drbg_lib.obj
 0002:00025250       OCSP_SERVICELOC_seq_tt     0000000000090fd0     OpensslLib:ocsp_asn.obj
 0002:00025290       OCSP_CRLID_seq_tt          0000000000091010     OpensslLib:ocsp_asn.obj
 0002:000263c0       EXTENDED_KEY_USAGE_item_tt 0000000000092140     OpensslLib:v3_extku.obj
 0002:00027260       ADMISSIONS_seq_tt          0000000000092fe0     OpensslLib:v3_admis.obj
 0002:00027320       NAMING_AUTHORITY_seq_tt    00000000000930a0     OpensslLib:v3_admis.obj
 0002:00027380       PROFESSION_INFO_seq_tt     0000000000093100     OpensslLib:v3_admis.obj
 0002:00027420       ADMISSION_SYNTAX_seq_tt    00000000000931a0     OpensslLib:v3_admis.obj
 0002:00027650       PKEY_USAGE_PERIOD_seq_tt   00000000000933d0     OpensslLib:v3_pku.obj
 0002:00027780       POLICY_MAPPING_seq_tt      0000000000093500     OpensslLib:v3_pmaps.obj
 0002:00027820       POLICY_MAPPINGS_item_tt    00000000000935a0     OpensslLib:v3_pmaps.obj
 0002:000278f0       SXNET_seq_tt               0000000000093670     OpensslLib:v3_sxnet.obj
 0002:00027960       SXNETID_seq_tt             00000000000936e0     OpensslLib:v3_sxnet.obj
 0002:00027b20       TLS_FEATURE_it             00000000000938a0     OpensslLib:v3_tlsf.obj
 0002:00027b50       TLS_FEATURE_item_tt        00000000000938d0     OpensslLib:v3_tlsf.obj
 0002:00027ca0       ?tnst@?1??asn1_str2tag@@9@9 0000000000093a20     OpensslLib:asn1_gen.obj
 0002:00027fb0       ?dummy_key@?1??HMAC@@9@9   0000000000093d30     OpensslLib:hmac.obj
 0002:00027fc0       sm4_ecb                    0000000000093d40     OpensslLib:e_sm4.obj
 0002:00028020       sm4_ctr_mode               0000000000093da0     OpensslLib:e_sm4.obj
 0002:00028080       sm4_cfb128                 0000000000093e00     OpensslLib:e_sm4.obj
 0002:000280e0       sm4_cbc                    0000000000093e60     OpensslLib:e_sm4.obj
 0002:00028140       sm4_ofb                    0000000000093ec0     OpensslLib:e_sm4.obj
 0002:000281a0       aria_256_ctr               0000000000093f20     OpensslLib:e_aria.obj
 0002:00028200       aria_192_ofb               0000000000093f80     OpensslLib:e_aria.obj
 0002:00028260       aria_128_cbc               0000000000093fe0     OpensslLib:e_aria.obj
 0002:000282c0       aria_192_ccm               0000000000094040     OpensslLib:e_aria.obj
 0002:00028320       aria_128_ofb               00000000000940a0     OpensslLib:e_aria.obj
 0002:00028380       aria_128_gcm               0000000000094100     OpensslLib:e_aria.obj
 0002:000283e0       aria_192_cfb8              0000000000094160     OpensslLib:e_aria.obj
 0002:00028440       aria_256_cbc               00000000000941c0     OpensslLib:e_aria.obj
 0002:000284a0       aria_192_cfb1              0000000000094220     OpensslLib:e_aria.obj
 0002:00028500       aria_128_ecb               0000000000094280     OpensslLib:e_aria.obj
 0002:00028560       aria_256_ecb               00000000000942e0     OpensslLib:e_aria.obj
 0002:000285c0       aria_192_ecb               0000000000094340     OpensslLib:e_aria.obj
 0002:00028620       aria_128_cfb1              00000000000943a0     OpensslLib:e_aria.obj
 0002:00028680       aria_256_cfb8              0000000000094400     OpensslLib:e_aria.obj
 0002:000286e0       aria_256_gcm               0000000000094460     OpensslLib:e_aria.obj
 0002:00028740       aria_256_cfb1              00000000000944c0     OpensslLib:e_aria.obj
 0002:000287a0       aria_128_cfb128            0000000000094520     OpensslLib:e_aria.obj
 0002:00028800       aria_256_cfb128            0000000000094580     OpensslLib:e_aria.obj
 0002:00028860       aria_128_ctr               00000000000945e0     OpensslLib:e_aria.obj
 0002:000288c0       aria_128_cfb8              0000000000094640     OpensslLib:e_aria.obj
 0002:00028920       aria_192_cfb128            00000000000946a0     OpensslLib:e_aria.obj
 0002:00028980       aria_192_cbc               0000000000094700     OpensslLib:e_aria.obj
 0002:000289e0       aria_192_ctr               0000000000094760     OpensslLib:e_aria.obj
 0002:00028a40       aria_128_ccm               00000000000947c0     OpensslLib:e_aria.obj
 0002:00028aa0       aria_256_ofb               0000000000094820     OpensslLib:e_aria.obj
 0002:00028b00       aria_256_ccm               0000000000094880     OpensslLib:e_aria.obj
 0002:00028b60       aria_192_gcm               00000000000948e0     OpensslLib:e_aria.obj
 0002:00028bc0       aes_192_ecb                0000000000094940     OpensslLib:e_aes.obj
 0002:00028c20       aes_192_ccm                00000000000949a0     OpensslLib:e_aes.obj
 0002:00028c80       aes_192_ctr                0000000000094a00     OpensslLib:e_aes.obj
 0002:00028ce0       aes_128_ofb                0000000000094a60     OpensslLib:e_aes.obj
 0002:00028d40       aes_256_ccm                0000000000094ac0     OpensslLib:e_aes.obj
 0002:00028da0       aes_192_gcm                0000000000094b20     OpensslLib:e_aes.obj
 0002:00028e00       aes_128_wrap_pad           0000000000094b80     OpensslLib:e_aes.obj
 0002:00028e60       aes_256_ctr                0000000000094be0     OpensslLib:e_aes.obj
 0002:00028ec0       aes_192_cfb8               0000000000094c40     OpensslLib:e_aes.obj
 0002:00028f20       aes_192_cfb                0000000000094ca0     OpensslLib:e_aes.obj
 0002:00028f80       aes_256_gcm                0000000000094d00     OpensslLib:e_aes.obj
 0002:00028fe0       aes_128_gcm                0000000000094d60     OpensslLib:e_aes.obj
 0002:00029040       aes_128_cfb1               0000000000094dc0     OpensslLib:e_aes.obj
 0002:000290a0       aes_192_cbc                0000000000094e20     OpensslLib:e_aes.obj
 0002:00029100       aes_128_xts                0000000000094e80     OpensslLib:e_aes.obj
 0002:00029160       aes_128_ctr                0000000000094ee0     OpensslLib:e_aes.obj
 0002:000291c0       aes_256_wrap               0000000000094f40     OpensslLib:e_aes.obj
 0002:00029220       aes_256_cbc                0000000000094fa0     OpensslLib:e_aes.obj
 0002:00029280       aes_192_ofb                0000000000095000     OpensslLib:e_aes.obj
 0002:000292e0       aes_256_wrap_pad           0000000000095060     OpensslLib:e_aes.obj
 0002:00029340       aes_128_ecb                00000000000950c0     OpensslLib:e_aes.obj
 0002:000293a0       aes_256_ofb                0000000000095120     OpensslLib:e_aes.obj
 0002:00029400       aes_256_cfb                0000000000095180     OpensslLib:e_aes.obj
 0002:00029460       aes_128_wrap               00000000000951e0     OpensslLib:e_aes.obj
 0002:000294c0       aes_256_cfb1               0000000000095240     OpensslLib:e_aes.obj
 0002:00029520       aes_128_cbc                00000000000952a0     OpensslLib:e_aes.obj
 0002:00029580       aes_192_wrap_pad           0000000000095300     OpensslLib:e_aes.obj
 0002:000295e0       aes_256_cfb8               0000000000095360     OpensslLib:e_aes.obj
 0002:00029640       aes_128_cfb8               00000000000953c0     OpensslLib:e_aes.obj
 0002:000296a0       aes_256_ecb                0000000000095420     OpensslLib:e_aes.obj
 0002:00029700       aes_256_xts                0000000000095480     OpensslLib:e_aes.obj
 0002:00029760       aes_128_cfb                00000000000954e0     OpensslLib:e_aes.obj
 0002:000297c0       aes_192_wrap               0000000000095540     OpensslLib:e_aes.obj
 0002:00029820       aes_192_cfb1               00000000000955a0     OpensslLib:e_aes.obj
 0002:00029880       aes_128_ccm                0000000000095600     OpensslLib:e_aes.obj
 0002:000298d8       ?df_key@?3??drbg_ctr_init@@9@9 0000000000095658     OpensslLib:drbg_ctr.obj
 0002:00029900       ?shake128_md@?1??EVP_shake128@@9@9 0000000000095680     OpensslLib:m_sha3.obj
 0002:00029950       ?shake256_md@?1??EVP_shake256@@9@9 00000000000956d0     OpensslLib:m_sha3.obj
 0002:000299a0       ?sha3_224_md@?1??EVP_sha3_224@@9@9 0000000000095720     OpensslLib:m_sha3.obj
 0002:000299f0       ?sha3_384_md@?1??EVP_sha3_384@@9@9 0000000000095770     OpensslLib:m_sha3.obj
 0002:00029a40       ?sha3_256_md@?1??EVP_sha3_256@@9@9 00000000000957c0     OpensslLib:m_sha3.obj
 0002:00029a90       ?sha3_512_md@?1??EVP_sha3_512@@9@9 0000000000095810     OpensslLib:m_sha3.obj
 0002:00029ae0       sm3_md                     0000000000095860     OpensslLib:m_sm3.obj
 0002:00029b30       md5_sha1_md                00000000000958b0     OpensslLib:m_md5_sha1.obj
 0002:00029b80       null_md                    0000000000095900     OpensslLib:m_null.obj
 0002:00029be0       ?order@?1??c448_ed448_verify@@9@9 0000000000095960     OpensslLib:eddsa.obj
 0002:00029c20       ?zero@?1??fe_isnonzero@@9@9 00000000000959a0     OpensslLib:curve25519.obj
 0002:00029c40       d                          00000000000959c0     OpensslLib:curve25519.obj
 0002:00029c68       d2                         00000000000959e8     OpensslLib:curve25519.obj
 0002:00029c90       k25519Precomp              0000000000095a10     OpensslLib:curve25519.obj
 0002:00031490       sqrtm1                     000000000009d210     OpensslLib:curve25519.obj
 0002:000314b8       ?kZeros@?1??X25519@@9@9    000000000009d238     OpensslLib:curve25519.obj
 0002:000314e0       Bi                         000000000009d260     OpensslLib:curve25519.obj
 0002:000318e0       ONE                        000000000009d660     OpensslLib:curve448.obj
 0002:00031920       precomputed_scalarmul_adjustment 000000000009d6a0     OpensslLib:curve448.obj
 0002:00031a60       ZERO                       000000000009d7e0     OpensslLib:curve448.obj
 0002:00031aa0       zeroes                     000000000009d820     OpensslLib:rsa_pss.obj
 0002:00031ad0       SM2_Ciphertext_seq_tt      000000000009d850     OpensslLib:sm2_crypt.obj
 0002:00031b80       ?ret@?1??EC_GFp_nist_method@@9@9 000000000009d900     OpensslLib:ecp_nist.obj
 0002:00031d30       _nist_p_256                000000000009dab0     OpensslLib:bn_nist.obj
 0002:00031dd0       ?_bignum_nist_p_256_sqr@?1??BN_nist_mod_256@@9@9 000000000009db50     OpensslLib:bn_nist.obj
 0002:00031df0       _nist_p_521                000000000009db70     OpensslLib:bn_nist.obj
 0002:00031e38       _nist_p_192_sqr            000000000009dbb8     OpensslLib:bn_nist.obj
 0002:00031e68       _nist_p_224_sqr            000000000009dbe8     OpensslLib:bn_nist.obj
 0002:00031ea0       _bignum_nist_p_521         000000000009dc20     OpensslLib:bn_nist.obj
 0002:00031eb8       _bignum_nist_p_256         000000000009dc38     OpensslLib:bn_nist.obj
 0002:00031ed0       _bignum_nist_p_384         000000000009dc50     OpensslLib:bn_nist.obj
 0002:00031ee8       ?_bignum_nist_p_521_sqr@?1??BN_nist_mod_521@@9@9 000000000009dc68     OpensslLib:bn_nist.obj
 0002:00031f00       _nist_p_384_sqr            000000000009dc80     OpensslLib:bn_nist.obj
 0002:00031f60       ?_bignum_nist_p_224_sqr@?1??BN_nist_mod_224@@9@9 000000000009dce0     OpensslLib:bn_nist.obj
 0002:00031f80       _nist_p_224                000000000009dd00     OpensslLib:bn_nist.obj
 0002:00031fc0       ?_bignum_nist_p_384_sqr@?1??BN_nist_mod_384@@9@9 000000000009dd40     OpensslLib:bn_nist.obj
 0002:00031fd8       ?_bignum_nist_p_192_sqr@?1??BN_nist_mod_192@@9@9 000000000009dd58     OpensslLib:bn_nist.obj
 0002:00031ff0       _nist_p_521_sqr            000000000009dd70     OpensslLib:bn_nist.obj
 0002:00032080       _nist_p_256_sqr            000000000009de00     OpensslLib:bn_nist.obj
 0002:000320c0       _bignum_nist_p_224         000000000009de40     OpensslLib:bn_nist.obj
 0002:000320d8       _bignum_nist_p_192         000000000009de58     OpensslLib:bn_nist.obj
 0002:000320f0       _nist_p_384                000000000009de70     OpensslLib:bn_nist.obj
 0002:000321e0       _nist_p_192                000000000009df60     OpensslLib:bn_nist.obj
 0002:00032230       ?ret@?1??EC_GFp_mont_method@@9@9 000000000009dfb0     OpensslLib:ecp_mont.obj
 0002:00032510       DHvparams_it               000000000009e290     OpensslLib:dh_asn1.obj
 0002:00032540       DHxparams_seq_tt           000000000009e2c0     OpensslLib:dh_asn1.obj
 0002:00032610       DHparams_seq_tt            000000000009e390     OpensslLib:dh_asn1.obj
 0002:00032670       DHvparams_seq_tt           000000000009e3f0     OpensslLib:dh_asn1.obj
 0002:000326b0       DHparams_aux               000000000009e430     OpensslLib:dh_asn1.obj
 0002:000326d8       DHxparams_it               000000000009e458     OpensslLib:dh_asn1.obj
 0002:00032710       ?tab@?1??BN_kronecker@@9@9 000000000009e490     OpensslLib:bn_kron.obj
 0002:00032730       ?CK@?1??SM4_set_key@@9@9   000000000009e4b0     OpensslLib:sm4.obj
 0002:000327b0       SM4_S                      000000000009e530     OpensslLib:sm4.obj
 0002:000328b0       SM4_SBOX_T                 000000000009e630     OpensslLib:sm4.obj
 0002:00032cb0       rem_4bit                   000000000009ea30     OpensslLib:gcm128.obj
 0002:00032d30       sb4                        000000000009eab0     OpensslLib:aria.obj
 0002:00032e30       c3                         000000000009ebb0     OpensslLib:aria.obj
 0002:00032e40       Td4                        000000000009ebc0     OpensslLib:aes_core.obj
 0002:00032e40       sb3                        000000000009ebc0     OpensslLib:aria.obj
 0002:00032f40       c2                         000000000009ecc0     OpensslLib:aria.obj
 0002:00032f50       c1                         000000000009ecd0     OpensslLib:aria.obj
 0002:00032f60       sb2                        000000000009ece0     OpensslLib:aria.obj
 0002:00033060       sb1                        000000000009ede0     OpensslLib:aria.obj
 0002:00033160       Td2                        000000000009eee0     OpensslLib:aes_core.obj
 0002:00033560       Td1                        000000000009f2e0     OpensslLib:aes_core.obj
 0002:00033960       Td0                        000000000009f6e0     OpensslLib:aes_core.obj
 0002:00033d60       Te0                        000000000009fae0     OpensslLib:aes_core.obj
 0002:00034160       rcon                       000000000009fee0     OpensslLib:aes_core.obj
 0002:00034190       Te3                        000000000009ff10     OpensslLib:aes_core.obj
 0002:00034590       Te2                        00000000000a0310     OpensslLib:aes_core.obj
 0002:00034990       Td3                        00000000000a0710     OpensslLib:aes_core.obj
 0002:00034d90       Te1                        00000000000a0b10     OpensslLib:aes_core.obj
 0002:00035190       default_aiv                00000000000a0f10     OpensslLib:wrap128.obj
 0002:00035198       default_iv                 00000000000a0f18     OpensslLib:wrap128.obj
 0002:00035220       iotas                      00000000000a0fa0     OpensslLib:keccak1600.obj
 0002:00035450       dh1024_160_g               00000000000a11d0     OpensslLib:bn_dh.obj
 0002:000354d0       ffdhe4096_p                00000000000a1250     OpensslLib:bn_dh.obj
 0002:000356d0       dh2048_256_q               00000000000a1450     OpensslLib:bn_dh.obj
 0002:000356f0       ffdhe3072_p                00000000000a1470     OpensslLib:bn_dh.obj
 0002:00035870       dh2048_256_p               00000000000a15f0     OpensslLib:bn_dh.obj
 0002:00035970       dh2048_256_g               00000000000a16f0     OpensslLib:bn_dh.obj
 0002:00035a70       dh2048_224_g               00000000000a17f0     OpensslLib:bn_dh.obj
 0002:00035b70       value_2                    00000000000a18f0     OpensslLib:bn_dh.obj
 0002:00035b78       dh2048_224_q               00000000000a18f8     OpensslLib:bn_dh.obj
 0002:00035b98       dh1024_160_q               00000000000a1918     OpensslLib:bn_dh.obj
 0002:00035bb0       dh2048_224_p               00000000000a1930     OpensslLib:bn_dh.obj
 0002:00035cb0       ffdhe8192_p                00000000000a1a30     OpensslLib:bn_dh.obj
 0002:000360b0       ffdhe2048_p                00000000000a1e30     OpensslLib:bn_dh.obj
 0002:000361b0       ffdhe6144_p                00000000000a1f30     OpensslLib:bn_dh.obj
 0002:000364b0       dh1024_160_p               00000000000a2230     OpensslLib:bn_dh.obj
 0002:00036530       primes                     00000000000a22b0     OpensslLib:bn_prime.obj
 0002:00037570       sc_p                       00000000000a32f0     OpensslLib:scalar.obj
 0002:000375f0       sc_r2                      00000000000a3370     OpensslLib:scalar.obj
 0002:00037630       curve448_wnaf_base_table   00000000000a33b0     OpensslLib:curve448_tables.obj
 0002:00038e30       curve448_precomputed_base_table 00000000000a4bb0     OpensslLib:curve448_tables.obj
 0002:0003ca30       MODULUS                    00000000000a87b0     OpensslLib:f_generic.obj
 0002:0003ca70       ONE                        00000000000a87f0     OpensslLib:f_generic.obj
 0002:0003cbe0       allzeroes                  00000000000a8960     OpensslLib:curve25519.obj
 0002:0003cd08       names_lh                   00000000000a8a88     OpensslLib:o_names.obj
 0002:0003cd10       init                       00000000000a8a90     OpensslLib:o_names.obj
 0002:0003cd18       obj_lock                   00000000000a8a98     OpensslLib:o_names.obj
 0002:0003cd20       o_names_init_ossl_ret_     00000000000a8aa0     OpensslLib:o_names.obj
 0002:0003cd28       added                      00000000000a8aa8     OpensslLib:obj_dat.obj
 0002:0003cd30       err_init                   00000000000a8ab0     OpensslLib:err.obj
 0002:0003cd34       err_do_init_ossl_ret_      00000000000a8ab4     OpensslLib:err.obj
 0002:0003cd38       param_table                00000000000a8ab8     OpensslLib:x509_vpm.obj
 0002:0003cd40       ?thread_local_key@?1??CRYPTO_THREAD_init_local@@9@9 00000000000a8ac0     OpensslLib:threads_none.obj
 0002:0003cd48       ex_data_lock               00000000000a8ac8     OpensslLib:ex_data.obj
 0002:0003cd50       do_ex_data_init_ossl_ret_  00000000000a8ad0     OpensslLib:ex_data.obj
 0002:0003cd54       ex_data_init               00000000000a8ad4     OpensslLib:ex_data.obj
 0002:0003cd58       xptable                    00000000000a8ad8     OpensslLib:v3_purp.obj
 0002:0003cd60       trtable                    00000000000a8ae0     OpensslLib:x509_trs.obj
 0002:0003cd68       add_all_digests            00000000000a8ae8     OpensslLib:init.obj
 0002:0003cd6c       ossl_init_load_crypto_strings_ossl_ret_ 00000000000a8aec     OpensslLib:init.obj
 0002:0003cd70       ossl_init_base_ossl_ret_   00000000000a8af0     OpensslLib:init.obj
 0002:0003cd74       ossl_init_config_ossl_ret_ 00000000000a8af4     OpensslLib:init.obj
 0002:0003cd78       init_lock                  00000000000a8af8     OpensslLib:init.obj
 0002:0003cd80       register_atexit            00000000000a8b00     OpensslLib:init.obj
 0002:0003cd88       conf_settings              00000000000a8b08     OpensslLib:init.obj
 0002:0003cd90       ossl_init_async_ossl_ret_  00000000000a8b10     OpensslLib:init.obj
 0002:0003cd94       ossl_init_zlib_ossl_ret_   00000000000a8b14     OpensslLib:init.obj
 0002:0003cd98       zlib                       00000000000a8b18     OpensslLib:init.obj
 0002:0003cd9c       ossl_init_register_atexit_ossl_ret_ 00000000000a8b1c     OpensslLib:init.obj
 0002:0003cda0       add_all_ciphers            00000000000a8b20     OpensslLib:init.obj
 0002:0003cda4       ossl_init_load_crypto_nodelete_ossl_ret_ 00000000000a8b24     OpensslLib:init.obj
 0002:0003cda8       config                     00000000000a8b28     OpensslLib:init.obj
 0002:0003cdac       load_crypto_nodelete       00000000000a8b2c     OpensslLib:init.obj
 0002:0003cdb0       async                      00000000000a8b30     OpensslLib:init.obj
 0002:0003cdb4       ossl_init_add_all_ciphers_ossl_ret_ 00000000000a8b34     OpensslLib:init.obj
 0002:0003cdb8       stopped                    00000000000a8b38     OpensslLib:init.obj
 0002:0003cdbc       load_crypto_strings        00000000000a8b3c     OpensslLib:init.obj
 0002:0003cdc0       ossl_init_add_all_digests_ossl_ret_ 00000000000a8b40     OpensslLib:init.obj
 0002:0003cdc4       base                       00000000000a8b44     OpensslLib:init.obj
 0002:0003cdc8       app_pkey_methods           00000000000a8b48     OpensslLib:pmeth_lib.obj
 0002:0003cdd0       app_methods                00000000000a8b50     OpensslLib:ameth_lib.obj
 0002:0003cdd8       stable                     00000000000a8b58     OpensslLib:a_strnid.obj
 0002:0003cde0       supported_modules          00000000000a8b60     OpensslLib:conf_mod.obj
 0002:0003cde8       ext_list                   00000000000a8b68     OpensslLib:v3_lib.obj
 0002:0003cdf0       rand_init                  00000000000a8b70     OpensslLib:rand_lib.obj
 0002:0003cdf4       do_rand_init_ossl_ret_     00000000000a8b74     OpensslLib:rand_lib.obj
 0002:0003cdf8       openssl_configured         00000000000a8b78     OpensslLib:conf_sap.obj
 0002:0003cdfc       do_rand_drbg_init_ossl_ret_ 00000000000a8b7c     OpensslLib:drbg_lib.obj
 0002:0003ce00       rand_drbg_init             00000000000a8b80     OpensslLib:drbg_lib.obj
 0002:0003ce04       rand_drbg_flags            00000000000a8b84     OpensslLib:drbg_lib.obj
 0002:0003ce08       ?zeros@?1??CRYPTO_128_unwrap_pad@@9@9 00000000000a8b88     OpensslLib:wrap128.obj
 0002:0003ce20       mRunningOnQ35              00000000000a8ba0     DxePciLibI440FxQ35:PciLib.obj
 0002:0003ce24       mAcpiTimerIoAddr           00000000000a8ba4     DxeAcpiTimerLib:DxeAcpiTimerLib.obj
 0002:0003ce28       free_type                  00000000000a8ba8     OpensslLib:o_names.obj
 0002:0003ce30       ?m@?1??SHA512@@9@9         00000000000a8bb0     OpensslLib:sha512.obj
 0002:0003ce70       name_funcs_stack           00000000000a8bf0     OpensslLib:o_names.obj
 0002:0003ce78       err_string_lock            00000000000a8bf8     OpensslLib:err.obj
 0002:0003ce80       err_thread_local           00000000000a8c00     OpensslLib:err.obj
 0002:0003ce84       rand_nonce_count           00000000000a8c04     OpensslLib:rand_lib.obj
 0002:0003ce88       pbe_algs                   00000000000a8c08     OpensslLib:evp_pbe.obj
 0002:0003ce90       thread_local_storage       00000000000a8c10     OpensslLib:threads_none.obj
 0002:0003d690       ex_data                    00000000000a9410     OpensslLib:ex_data.obj
 0002:0003d710       sigx_app                   00000000000a9490     OpensslLib:obj_xref.obj
 0002:0003d718       sig_app                    00000000000a9498     OpensslLib:obj_xref.obj
 0002:0003d720       ?nilbn@?1??bn_init@@9@9    00000000000a94a0     OpensslLib:bn_lib.obj
 0002:0003d738       default_RAND_meth          00000000000a94b8     OpensslLib:rand_lib.obj
 0002:0003d740       rand_nonce_lock            00000000000a94c0     OpensslLib:rand_lib.obj
 0002:0003d748       rand_meth_lock             00000000000a94c8     OpensslLib:rand_lib.obj
 0002:0003d750       ctxkey                     00000000000a94d0     OpensslLib:async.obj
 0002:0003d754       poolkey                    00000000000a94d4     OpensslLib:async.obj
 0002:0003d758       private_drbg               00000000000a94d8     OpensslLib:drbg_lib.obj
 0002:0003d75c       public_drbg                00000000000a94dc     OpensslLib:drbg_lib.obj
 0002:0003d760       master_drbg                00000000000a94e0     OpensslLib:drbg_lib.obj
 0002:0003d768       ?tntmp@?1??asn1_str2tag@@9@9 00000000000a94e8     OpensslLib:asn1_gen.obj
 0002:0003d770       ?m@?1??HMAC@@9@9           00000000000a94f0     OpensslLib:hmac.obj
 0002:0003d7b0       ssl_names_count            00000000000a9530     OpensslLib:conf_ssl.obj
 0002:0003d7b8       ssl_names                  00000000000a9538     OpensslLib:conf_ssl.obj
 0004:00000000       $unwind$strchr             00000000000ad8c0     BaseCryptLib:CrtWrapper.obj
 0004:00000000       $unwind$ASN1_ENUMERATED_get 00000000000ad8c0     OpensslLib:a_int.obj
 0004:00000000       $unwind$ASN1_INTEGER_get   00000000000ad8c0     OpensslLib:a_int.obj
 0004:00000000       $unwind$asn1_string_set_int64 00000000000ad8c0     OpensslLib:a_int.obj
 0004:00000000       $unwind$st_free            00000000000ad8c0     OpensslLib:a_strnid.obj
 0004:00000000       $unwind$stbl_module_finish 00000000000ad8c0     OpensslLib:asn_mstbl.obj
 0004:00000000       $unwind$ASN1_TYPE_free     00000000000ad8c0     OpensslLib:tasn_typ.obj
 0004:00000000       $unwind$X509_ALGOR_free    00000000000ad8c0     OpensslLib:x_algor.obj
 0004:00000000       $unwind$BN_GENCB_call      00000000000ad8c0     OpensslLib:bn_prime.obj
 0004:00000000       $unwind$int_dh_size        00000000000ad8c0     OpensslLib:dh_ameth.obj
 0004:00000000       $unwind$dh_finish          00000000000ad8c0     OpensslLib:dh_key.obj
 0004:00000000       $unwind$gf_sub_nr          00000000000ad8c0     OpensslLib:curve448.obj
 0004:00000000       $unwind$ec_security_bits   00000000000ad8c0     OpensslLib:ec_ameth.obj
 0004:00000000       $unwind$eckey_pub_cmp      00000000000ad8c0     OpensslLib:ec_ameth.obj
 0004:00000000       $unwind$ERR_set_mark       00000000000ad8c0     OpensslLib:err.obj
 0004:00000000       $unwind$md_gets            00000000000ad8c0     OpensslLib:bio_md.obj
 0004:00000000       $unwind$aria_gcm_cleanup   00000000000ad8c0     OpensslLib:e_aria.obj
 0004:00000000       $unwind$sm4_init_key       00000000000ad8c0     OpensslLib:e_sm4.obj
 0004:00000000       $unwind$EVP_CIPHER_CTX_iv_length 00000000000ad8c0     OpensslLib:evp_lib.obj
 0004:00000000       $unwind$hmac_get_priv_key  00000000000ad8c0     OpensslLib:hm_ameth.obj
 0004:00000000       $unwind$int_update         00000000000ad8c0     OpensslLib:hm_pmeth.obj
 0004:00000000       $unwind$ossl_init_add_all_digests_ossl_ 00000000000ad8c0     OpensslLib:init.obj
 0004:00000000       $unwind$ossl_init_config_ossl_ 00000000000ad8c0     OpensslLib:init.obj
 0004:00000000       $unwind$openssl_lh_strcasehash 00000000000ad8c0     OpensslLib:lhash.obj
 0004:00000000       $unwind$o_names_init_ossl_ 00000000000ad8c0     OpensslLib:o_names.obj
 0004:00000000       $unwind$obj_name_cmp       00000000000ad8c0     OpensslLib:o_names.obj
 0004:00000000       $unwind$added_obj_cmp      00000000000ad8c0     OpensslLib:obj_dat.obj
 0004:00000000       $unwind$obj_cmp_BSEARCH_CMP_FN 00000000000ad8c0     OpensslLib:obj_dat.obj
 0004:00000000       $unwind$OBJ_cmp            00000000000ad8c0     OpensslLib:obj_lib.obj
 0004:00000000       $unwind$i2r_object         00000000000ad8c0     OpensslLib:v3_ocsp.obj
 0004:00000000       $unwind$i2r_ocsp_acutoff   00000000000ad8c0     OpensslLib:v3_ocsp.obj
 0004:00000000       $unwind$i2r_ocsp_nonce     00000000000ad8c0     OpensslLib:v3_ocsp.obj
 0004:00000000       $unwind$PKCS7_free         00000000000ad8c0     OpensslLib:pk7_asn1.obj
 0004:00000000       $unwind$ri_cb              00000000000ad8c0     OpensslLib:pk7_asn1.obj
 0004:00000000       $unwind$si_cb              00000000000ad8c0     OpensslLib:pk7_asn1.obj
 0004:00000000       $unwind$RAND_DRBG_get0_master 00000000000ad8c0     OpensslLib:drbg_lib.obj
 0004:00000000       $unwind$drbg_status        00000000000ad8c0     OpensslLib:drbg_lib.obj
 0004:00000000       $unwind$RAND_get_rand_method 00000000000ad8c0     OpensslLib:rand_lib.obj
 0004:00000000       $unwind$int_rsa_size       00000000000ad8c0     OpensslLib:rsa_ameth.obj
 0004:00000000       $unwind$rsa_pss_cb         00000000000ad8c0     OpensslLib:rsa_asn1.obj
 0004:00000000       $unwind$int_update         00000000000ad8c0     OpensslLib:siphash_pmeth.obj
 0004:00000000       $unwind$x509_object_cmp    00000000000ad8c0     OpensslLib:x509_lu.obj
 0004:00000000       $unwind$check_issued       00000000000ad8c0     OpensslLib:x509_vfy.obj
 0004:00000000       $unwind$str_free           00000000000ad8c0     OpensslLib:x509_vpm.obj
 0004:00000000       $unwind$X509_ATTRIBUTE_free 00000000000ad8c0     OpensslLib:x_attrib.obj
 0004:00000000       $unwind$X509_CRL_free      00000000000ad8c0     OpensslLib:x_crl.obj
 0004:00000000       $unwind$X509_NAME_ENTRY_free 00000000000ad8c0     OpensslLib:x_name.obj
 0004:00000000       $unwind$X509_free          00000000000ad8c0     OpensslLib:x_x509.obj
 0004:00000000       $unwind$policy_node_free   00000000000ad8c0     OpensslLib:pcy_node.obj
 0004:00000000       $unwind$exnode_free        00000000000ad8c0     OpensslLib:pcy_tree.obj
 0004:00000000       $unwind$POLICYINFO_free    00000000000ad8c0     OpensslLib:v3_cpols.obj
 0004:00000000       $unwind$POLICYQUALINFO_free 00000000000ad8c0     OpensslLib:v3_cpols.obj
 0004:00000000       $unwind$DIST_POINT_free    00000000000ad8c0     OpensslLib:v3_crld.obj
 0004:00000000       $unwind$dpn_cb             00000000000ad8c0     OpensslLib:v3_crld.obj
 0004:00000000       $unwind$GENERAL_NAMES_free 00000000000ad8c0     OpensslLib:v3_genn.obj
 0004:00000000       $unwind$GENERAL_NAME_free  00000000000ad8c0     OpensslLib:v3_genn.obj
 0004:00000000       $unwind$ACCESS_DESCRIPTION_free 00000000000ad8c0     OpensslLib:v3_info.obj
 0004:00000000       $unwind$POLICY_MAPPING_free 00000000000ad8c0     OpensslLib:v3_pmaps.obj
 0004:00000000       $unwind$check_purpose_crl_sign 00000000000ad8c0     OpensslLib:v3_purp.obj
 0004:00000000       $unwind$check_purpose_smime_encrypt 00000000000ad8c0     OpensslLib:v3_purp.obj
 0004:00000000       $unwind$check_purpose_smime_sign 00000000000ad8c0     OpensslLib:v3_purp.obj
 0004:00000000       $unwind$check_purpose_ssl_client 00000000000ad8c0     OpensslLib:v3_purp.obj
 0004:00000000       $unwind$check_purpose_ssl_server 00000000000ad8c0     OpensslLib:v3_purp.obj
 0004:00000000       $unwind$purpose_smime      00000000000ad8c0     OpensslLib:v3_purp.obj
 0004:00000000       $unwind$name_cmp           00000000000ad8c0     OpensslLib:v3_utl.obj
 0004:00000000       $unwind$GetFirstGuidHob    00000000000ad8c0     DxeHobLib:HobLib.obj
 0004:00000000       $unwind$GetHobList         00000000000ad8c0     DxeHobLib:HobLib.obj
 0004:00000000       $unwind$GetPcdProtocol     00000000000ad8c0     DxePcdLib:DxePcdLib.obj
 0004:00000000       $unwind$_ModuleEntryPoint  00000000000ad8c0     UefiDriverEntryPoint:DriverEntryPoint.obj
 0004:00000000       $unwind$AllocatePool       00000000000ad8c0     UefiMemoryAllocationLib:MemoryAllocationLib.obj
 0004:00000000       $unwind$DxeImageVerificationLibImageRead 00000000000ad8c0     DxeImageVerificationLib:DxeImageVerificationLib.obj
 0004:00000000       $unwind$DxeTpm2MeasureBootLibImageRead 00000000000ad8c0     DxeTpm2MeasureBootLib:DxeTpm2MeasureBootLib.obj
 0004:00000000       $unwind$DxeTpmMeasureBootLibImageRead 00000000000ad8c0     DxeTpmMeasureBootLib:DxeTpmMeasureBootLib.obj
 0004:00000008       $unwind$ProcessLibraryConstructorList 00000000000ad8c8     SecurityStubDxe:AutoGen.obj
 0004:00000014       $unwind$ProcessModuleEntryPointList 00000000000ad8d4     SecurityStubDxe:AutoGen.obj
 0004:0000001c       $unwind$time               00000000000ad8dc     BaseCryptLib:TimerWrapper.obj
 0004:0000001c       $unwind$ASN1_item_digest   00000000000ad8dc     OpensslLib:a_digest.obj
 0004:0000001c       $unwind$asn1_template_new  00000000000ad8dc     OpensslLib:tasn_new.obj
 0004:0000001c       $unwind$asn1_do_adb        00000000000ad8dc     OpensslLib:tasn_utl.obj
 0004:0000001c       $unwind$asn1_do_lock       00000000000ad8dc     OpensslLib:tasn_utl.obj
 0004:0000001c       $unwind$BIO_new_mem_buf    00000000000ad8dc     OpensslLib:bss_mem.obj
 0004:0000001c       $unwind$BN_BLINDING_new    00000000000ad8dc     OpensslLib:bn_blind.obj
 0004:0000001c       $unwind$BN_POOL_get        00000000000ad8dc     OpensslLib:bn_ctx.obj
 0004:0000001c       $unwind$BN_div             00000000000ad8dc     OpensslLib:bn_div.obj
 0004:0000001c       $unwind$BN_nnmod           00000000000ad8dc     OpensslLib:bn_mod.obj
 0004:0000001c       $unwind$pkey_dh_keygen     00000000000ad8dc     OpensslLib:dh_pmeth.obj
 0004:0000001c       $unwind$EC_GROUP_get_ecpkparameters 00000000000ad8dc     OpensslLib:ec_asn1.obj
 0004:0000001c       $unwind$EC_KEY_new_method  00000000000ad8dc     OpensslLib:ec_kmeth.obj
 0004:0000001c       $unwind$EC_GROUP_new       00000000000ad8dc     OpensslLib:ec_lib.obj
 0004:0000001c       $unwind$EC_POINT_new       00000000000ad8dc     OpensslLib:ec_lib.obj
 0004:0000001c       $unwind$EC_POINTs_make_affine 00000000000ad8dc     OpensslLib:ec_lib.obj
 0004:0000001c       $unwind$pkey_ec_derive     00000000000ad8dc     OpensslLib:ec_pmeth.obj
 0004:0000001c       $unwind$ecd_item_verify    00000000000ad8dc     OpensslLib:ecx_meth.obj
 0004:0000001c       $unwind$enc_new            00000000000ad8dc     OpensslLib:bio_enc.obj
 0004:0000001c       $unwind$EVP_DigestInit_ex  00000000000ad8dc     OpensslLib:digest.obj
 0004:0000001c       $unwind$aes_init_key       00000000000ad8dc     OpensslLib:e_aes.obj
 0004:0000001c       $unwind$aes_xts_cipher     00000000000ad8dc     OpensslLib:e_aes.obj
 0004:0000001c       $unwind$EVP_CIPHER_CTX_copy 00000000000ad8dc     OpensslLib:evp_enc.obj
 0004:0000001c       $unwind$EVP_DecryptFinal_ex 00000000000ad8dc     OpensslLib:evp_enc.obj
 0004:0000001c       $unwind$EVP_CIPHER_param_to_asn1 00000000000ad8dc     OpensslLib:evp_lib.obj
 0004:0000001c       $unwind$EVP_PKEY_copy_parameters 00000000000ad8dc     OpensslLib:p_lib.obj
 0004:0000001c       $unwind$EVP_PKEY_CTX_dup   00000000000ad8dc     OpensslLib:pmeth_lib.obj
 0004:0000001c       $unwind$pkey_hmac_init     00000000000ad8dc     OpensslLib:hm_pmeth.obj
 0004:0000001c       $unwind$CRYPTO_memdup      00000000000ad8dc     OpensslLib:o_str.obj
 0004:0000001c       $unwind$OPENSSL_buf2hexstr 00000000000ad8dc     OpensslLib:o_str.obj
 0004:0000001c       $unwind$OBJ_dup            00000000000ad8dc     OpensslLib:obj_lib.obj
 0004:0000001c       $unwind$drbg_setup         00000000000ad8dc     OpensslLib:drbg_lib.obj
 0004:0000001c       $unwind$rand_drbg_new      00000000000ad8dc     OpensslLib:drbg_lib.obj
 0004:0000001c       $unwind$RAND_bytes         00000000000ad8dc     OpensslLib:rand_lib.obj
 0004:0000001c       $unwind$rand_pool_add      00000000000ad8dc     OpensslLib:rand_lib.obj
 0004:0000001c       $unwind$rand_pool_bytes_needed 00000000000ad8dc     OpensslLib:rand_lib.obj
 0004:0000001c       $unwind$rsa_item_verify    00000000000ad8dc     OpensslLib:rsa_ameth.obj
 0004:0000001c       $unwind$pkey_siphash_ctrl  00000000000ad8dc     OpensslLib:siphash_pmeth.obj
 0004:0000001c       $unwind$pkey_sm2_decrypt   00000000000ad8dc     OpensslLib:sm2_pmeth.obj
 0004:0000001c       $unwind$OPENSSL_sk_dup     00000000000ad8dc     OpensslLib:stack.obj
 0004:0000001c       $unwind$sk_reserve         00000000000ad8dc     OpensslLib:stack.obj
 0004:0000001c       $unwind$X509_verify_cert   00000000000ad8dc     OpensslLib:x509_vfy.obj
 0004:0000001c       $unwind$x509_name_ex_new   00000000000ad8dc     OpensslLib:x_name.obj
 0004:0000001c       $unwind$i2s_ASN1_IA5STRING 00000000000ad8dc     OpensslLib:v3_ia5.obj
 0004:0000001c       $unwind$s2i_ASN1_IA5STRING 00000000000ad8dc     OpensslLib:v3_ia5.obj
 0004:0000001c       $unwind$i2s_ASN1_INTEGER   00000000000ad8dc     OpensslLib:v3_utl.obj
 0004:0000001c       $unwind$SecurityStubAuthenticateState 00000000000ad8dc     SecurityStubDxe:SecurityStub.obj
 0004:00000028       $unwind$bn_to_asn1_string  00000000000ad8e8     OpensslLib:a_int.obj
 0004:00000028       $unwind$asn1_enc_save      00000000000ad8e8     OpensslLib:tasn_utl.obj
 0004:00000028       $unwind$BN_BLINDING_convert_ex 00000000000ad8e8     OpensslLib:bn_blind.obj
 0004:00000028       $unwind$BN_BLINDING_invert_ex 00000000000ad8e8     OpensslLib:bn_blind.obj
 0004:00000028       $unwind$BN_BLINDING_update 00000000000ad8e8     OpensslLib:bn_blind.obj
 0004:00000028       $unwind$BN_STACK_push      00000000000ad8e8     OpensslLib:bn_ctx.obj
 0004:00000028       $unwind$BN_mod_inverse     00000000000ad8e8     OpensslLib:bn_gcd.obj
 0004:00000028       $unwind$BN_mod_lshift_quick 00000000000ad8e8     OpensslLib:bn_mod.obj
 0004:00000028       $unwind$bnrand_range       00000000000ad8e8     OpensslLib:bn_rand.obj
 0004:00000028       $unwind$pkey_cmac_ctrl_str 00000000000ad8e8     OpensslLib:cm_pmeth.obj
 0004:00000028       $unwind$module_add         00000000000ad8e8     OpensslLib:conf_mod.obj
 0004:00000028       $unwind$i2o_ECPublicKey    00000000000ad8e8     OpensslLib:ec_asn1.obj
 0004:00000028       $unwind$EC_GROUP_check     00000000000ad8e8     OpensslLib:ec_check.obj
 0004:00000028       $unwind$ec_key_simple_priv2oct 00000000000ad8e8     OpensslLib:ec_key.obj
 0004:00000028       $unwind$EC_POINT_get_affine_coordinates 00000000000ad8e8     OpensslLib:ec_lib.obj
 0004:00000028       $unwind$ecx_pub_encode     00000000000ad8e8     OpensslLib:ecx_meth.obj
 0004:00000028       $unwind$aria_ccm_init_key  00000000000ad8e8     OpensslLib:e_aria.obj
 0004:00000028       $unwind$aria_gcm_init_key  00000000000ad8e8     OpensslLib:e_aria.obj
 0004:00000028       $unwind$EVP_EncryptFinal_ex 00000000000ad8e8     OpensslLib:evp_enc.obj
 0004:00000028       $unwind$EVP_PKEY_sign      00000000000ad8e8     OpensslLib:pmeth_fn.obj
 0004:00000028       $unwind$CRYPTO_set_ex_data 00000000000ad8e8     OpensslLib:ex_data.obj
 0004:00000028       $unwind$OBJ_create         00000000000ad8e8     OpensslLib:obj_dat.obj
 0004:00000028       $unwind$d2i_ocsp_nonce     00000000000ad8e8     OpensslLib:v3_ocsp.obj
 0004:00000028       $unwind$RAND_DRBG_set      00000000000ad8e8     OpensslLib:drbg_lib.obj
 0004:00000028       $unwind$drbg_bytes         00000000000ad8e8     OpensslLib:drbg_lib.obj
 0004:00000028       $unwind$rand_pool_grow     00000000000ad8e8     OpensslLib:rand_lib.obj
 0004:00000028       $unwind$pkey_sm2_ctrl      00000000000ad8e8     OpensslLib:sm2_pmeth.obj
 0004:00000028       $unwind$X509_STORE_CTX_init 00000000000ad8e8     OpensslLib:x509_vfy.obj
 0004:00000028       $unwind$X509_get_pubkey_parameters 00000000000ad8e8     OpensslLib:x509_vfy.obj
 0004:00000028       $unwind$policy_data_new    00000000000ad8e8     OpensslLib:pcy_data.obj
 0004:00000028       $unwind$gnames_from_sectname 00000000000ad8e8     OpensslLib:v3_crld.obj
 0004:00000028       $unwind$equal_email        00000000000ad8e8     OpensslLib:v3_utl.obj
 0004:00000028       $unwind$Security2StubAuthenticate 00000000000ad8e8     SecurityStubDxe:SecurityStub.obj
 0004:0000003c       $unwind$GetDefferedImageInfo 00000000000ad8fc     SecurityStubDxe:Defer3rdPartyImageLoad.obj
 0004:00000058       $unwind$ASN1_item_dup      00000000000ad918     OpensslLib:a_dup.obj
 0004:00000058       $unwind$asn1_string_to_bn  00000000000ad918     OpensslLib:a_int.obj
 0004:00000058       $unwind$ASN1_TYPE_unpack_sequence 00000000000ad918     OpensslLib:a_type.obj
 0004:00000058       $unwind$ASN1_generate_v3   00000000000ad918     OpensslLib:asn1_gen.obj
 0004:00000058       $unwind$append_exp         00000000000ad918     OpensslLib:asn1_gen.obj
 0004:00000058       $unwind$ASN1_STRING_type_new 00000000000ad918     OpensslLib:asn1_lib.obj
 0004:00000058       $unwind$uint32_new         00000000000ad918     OpensslLib:x_int64.obj
 0004:00000058       $unwind$uint64_new         00000000000ad918     OpensslLib:x_int64.obj
 0004:00000058       $unwind$BN_CTX_get         00000000000ad918     OpensslLib:bn_ctx.obj
 0004:00000058       $unwind$BN_CTX_start       00000000000ad918     OpensslLib:bn_ctx.obj
 0004:00000058       $unwind$BN_lshift          00000000000ad918     OpensslLib:bn_shift.obj
 0004:00000058       $unwind$BN_rshift          00000000000ad918     OpensslLib:bn_shift.obj
 0004:00000058       $unwind$pkey_cmac_ctrl     00000000000ad918     OpensslLib:cm_pmeth.obj
 0004:00000058       $unwind$CMAC_CTX_new       00000000000ad918     OpensslLib:cmac.obj
 0004:00000058       $unwind$dh_param_decode    00000000000ad918     OpensslLib:dh_ameth.obj
 0004:00000058       $unwind$dh_pkey_public_check 00000000000ad918     OpensslLib:dh_ameth.obj
 0004:00000058       $unwind$dh_bn_mod_exp      00000000000ad918     OpensslLib:dh_key.obj
 0004:00000058       $unwind$pkey_dh_init       00000000000ad918     OpensslLib:dh_pmeth.obj
 0004:00000058       $unwind$curve448_scalar_add 00000000000ad918     OpensslLib:scalar.obj
 0004:00000058       $unwind$eckey_param_decode 00000000000ad918     OpensslLib:ec_ameth.obj
 0004:00000058       $unwind$old_ec_priv_decode 00000000000ad918     OpensslLib:ec_ameth.obj
 0004:00000058       $unwind$ECDSA_SIG_new      00000000000ad918     OpensslLib:ec_asn1.obj
 0004:00000058       $unwind$pkey_ec_init       00000000000ad918     OpensslLib:ec_pmeth.obj
 0004:00000058       $unwind$pkey_ec_verify     00000000000ad918     OpensslLib:ec_pmeth.obj
 0004:00000058       $unwind$ec_GFp_mont_field_decode 00000000000ad918     OpensslLib:ecp_mont.obj
 0004:00000058       $unwind$ec_GFp_mont_field_encode 00000000000ad918     OpensslLib:ecp_mont.obj
 0004:00000058       $unwind$ec_GFp_mont_field_mul 00000000000ad918     OpensslLib:ecp_mont.obj
 0004:00000058       $unwind$ec_GFp_mont_field_set_to_one 00000000000ad918     OpensslLib:ecp_mont.obj
 0004:00000058       $unwind$ec_GFp_mont_field_sqr 00000000000ad918     OpensslLib:ecp_mont.obj
 0004:00000058       $unwind$ec_GFp_simple_point_set_affine_coordinates 00000000000ad918     OpensslLib:ecp_smpl.obj
 0004:00000058       $unwind$pkey_ecd_digestsign25519 00000000000ad918     OpensslLib:ecx_meth.obj
 0004:00000058       $unwind$aes_cbc_cipher     00000000000ad918     OpensslLib:e_aes.obj
 0004:00000058       $unwind$EVP_PKEY_new       00000000000ad918     OpensslLib:p_lib.obj
 0004:00000058       $unwind$EVP_PKEY_sign_init 00000000000ad918     OpensslLib:pmeth_fn.obj
 0004:00000058       $unwind$EVP_PKEY_verify_init 00000000000ad918     OpensslLib:pmeth_fn.obj
 0004:00000058       $unwind$EVP_PKEY_CTX_ctrl  00000000000ad918     OpensslLib:pmeth_lib.obj
 0004:00000058       $unwind$hmac_signctx       00000000000ad918     OpensslLib:hm_pmeth.obj
 0004:00000058       $unwind$pkey_hkdf_init     00000000000ad918     OpensslLib:hkdf.obj
 0004:00000058       $unwind$pkey_tls1_prf_init 00000000000ad918     OpensslLib:tls1_prf.obj
 0004:00000058       $unwind$PKCS7_ctrl         00000000000ad918     OpensslLib:pk7_lib.obj
 0004:00000058       $unwind$ctr_BCC_block      00000000000ad918     OpensslLib:drbg_ctr.obj
 0004:00000058       $unwind$rand_pool_add_begin 00000000000ad918     OpensslLib:rand_lib.obj
 0004:00000058       $unwind$old_rsa_priv_decode 00000000000ad918     OpensslLib:rsa_ameth.obj
 0004:00000058       $unwind$rsa_multip_info_new 00000000000ad918     OpensslLib:rsa_mp.obj
 0004:00000058       $unwind$RSA_padding_check_PKCS1_type_1 00000000000ad918     OpensslLib:rsa_pk1.obj
 0004:00000058       $unwind$setup_tbuf         00000000000ad918     OpensslLib:rsa_pmeth.obj
 0004:00000058       $unwind$pkey_siphash_init  00000000000ad918     OpensslLib:siphash_pmeth.obj
 0004:00000058       $unwind$pkey_sm2_init      00000000000ad918     OpensslLib:sm2_pmeth.obj
 0004:00000058       $unwind$X509_STORE_new     00000000000ad918     OpensslLib:x509_lu.obj
 0004:00000058       $unwind$x509_name_ex_print 00000000000ad918     OpensslLib:x_name.obj
 0004:00000058       $unwind$X509_PUBKEY_get0   00000000000ad918     OpensslLib:x_pubkey.obj
 0004:00000058       $unwind$InternalReportStatusCode 00000000000ad918     DxeReportStatusCodeLib:ReportStatusCodeLib.obj
 0004:00000058       $unwind$DxeSmmReadyToLock  00000000000ad918     SecurityStubDxe:Defer3rdPartyImageLoad.obj
 0004:00000060       $unwind$Defer3rdPartyImageLoad 00000000000ad920     SecurityStubDxe:Defer3rdPartyImageLoad.obj
 0004:00000074       $unwind$malloc             00000000000ad934     BaseCryptLib:BaseMemAllocation.obj
 0004:00000074       $unwind$ASN1_INTEGER_cmp   00000000000ad934     OpensslLib:a_int.obj
 0004:00000074       $unwind$cpy_utf8           00000000000ad934     OpensslLib:a_mbstr.obj
 0004:00000074       $unwind$out_utf8           00000000000ad934     OpensslLib:a_mbstr.obj
 0004:00000074       $unwind$send_bio_chars     00000000000ad934     OpensslLib:a_strex.obj
 0004:00000074       $unwind$ASN1_item_new      00000000000ad934     OpensslLib:tasn_new.obj
 0004:00000074       $unwind$bn_free            00000000000ad934     OpensslLib:x_bignum.obj
 0004:00000074       $unwind$bn_new             00000000000ad934     OpensslLib:x_bignum.obj
 0004:00000074       $unwind$bn_secure_new      00000000000ad934     OpensslLib:x_bignum.obj
 0004:00000074       $unwind$uint32_free        00000000000ad934     OpensslLib:x_int64.obj
 0004:00000074       $unwind$BIO_push           00000000000ad934     OpensslLib:bio_lib.obj
 0004:00000074       $unwind$bread_conv         00000000000ad934     OpensslLib:bio_meth.obj
 0004:00000074       $unwind$bwrite_conv        00000000000ad934     OpensslLib:bio_meth.obj
 0004:00000074       $unwind$mem_buf_sync       00000000000ad934     OpensslLib:bss_mem.obj
 0004:00000074       $unwind$mem_free           00000000000ad934     OpensslLib:bss_mem.obj
 0004:00000074       $unwind$mem_gets           00000000000ad934     OpensslLib:bss_mem.obj
 0004:00000074       $unwind$bn_free_d          00000000000ad934     OpensslLib:bn_lib.obj
 0004:00000074       $unwind$nist_cp_bn_0       00000000000ad934     OpensslLib:bn_nist.obj
 0004:00000074       $unwind$pkey_cmac_init     00000000000ad934     OpensslLib:cm_pmeth.obj
 0004:00000074       $unwind$dh_cb              00000000000ad934     OpensslLib:dh_asn1.obj
 0004:00000074       $unwind$pkey_dh_cleanup    00000000000ad934     OpensslLib:dh_pmeth.obj
 0004:00000074       $unwind$ec_cmp_parameters  00000000000ad934     OpensslLib:ec_ameth.obj
 0004:00000074       $unwind$ec_GFp_mont_group_clear_finish 00000000000ad934     OpensslLib:ecp_mont.obj
 0004:00000074       $unwind$ec_GFp_mont_group_finish 00000000000ad934     OpensslLib:ecp_mont.obj
 0004:00000074       $unwind$ec_GFp_mont_group_init 00000000000ad934     OpensslLib:ecp_mont.obj
 0004:00000074       $unwind$ec_GFp_simple_group_clear_finish 00000000000ad934     OpensslLib:ecp_smpl.obj
 0004:00000074       $unwind$ec_GFp_simple_group_finish 00000000000ad934     OpensslLib:ecp_smpl.obj
 0004:00000074       $unwind$ec_GFp_simple_group_init 00000000000ad934     OpensslLib:ecp_smpl.obj
 0004:00000074       $unwind$ec_GFp_simple_point_clear_finish 00000000000ad934     OpensslLib:ecp_smpl.obj
 0004:00000074       $unwind$ec_GFp_simple_point_finish 00000000000ad934     OpensslLib:ecp_smpl.obj
 0004:00000074       $unwind$ec_GFp_simple_point_init 00000000000ad934     OpensslLib:ecp_smpl.obj
 0004:00000074       $unwind$ecd_item_sign25519 00000000000ad934     OpensslLib:ecx_meth.obj
 0004:00000074       $unwind$ecd_item_sign448   00000000000ad934     OpensslLib:ecx_meth.obj
 0004:00000074       $unwind$ERR_pop_to_mark    00000000000ad934     OpensslLib:err.obj
 0004:00000074       $unwind$err_clear_last_constant_time 00000000000ad934     OpensslLib:err.obj
 0004:00000074       $unwind$get_error_values   00000000000ad934     OpensslLib:err.obj
 0004:00000074       $unwind$md_new             00000000000ad934     OpensslLib:bio_md.obj
 0004:00000074       $unwind$openssl_add_all_ciphers_int 00000000000ad934     OpensslLib:c_allc.obj
 0004:00000074       $unwind$EVP_MD_CTX_reset   00000000000ad934     OpensslLib:digest.obj
 0004:00000074       $unwind$EVP_CIPHER_CTX_reset 00000000000ad934     OpensslLib:evp_enc.obj
 0004:00000074       $unwind$init               00000000000ad934     OpensslLib:m_md5.obj
 0004:00000074       $unwind$init               00000000000ad934     OpensslLib:m_md5_sha1.obj
 0004:00000074       $unwind$EVP_add_cipher     00000000000ad934     OpensslLib:names.obj
 0004:00000074       $unwind$EVP_get_cipherbyname 00000000000ad934     OpensslLib:names.obj
 0004:00000074       $unwind$EVP_get_digestbyname 00000000000ad934     OpensslLib:names.obj
 0004:00000074       $unwind$do_ex_data_init_ossl_ 00000000000ad934     OpensslLib:ex_data.obj
 0004:00000074       $unwind$hmac_key_free      00000000000ad934     OpensslLib:hm_ameth.obj
 0004:00000074       $unwind$pkey_hmac_keygen   00000000000ad934     OpensslLib:hm_pmeth.obj
 0004:00000074       $unwind$HMAC_CTX_new       00000000000ad934     OpensslLib:hmac.obj
 0004:00000074       $unwind$hmac_ctx_cleanup   00000000000ad934     OpensslLib:hmac.obj
 0004:00000074       $unwind$ossl_init_thread_start 00000000000ad934     OpensslLib:init.obj
 0004:00000074       $unwind$pkey_hkdf_cleanup  00000000000ad934     OpensslLib:hkdf.obj
 0004:00000074       $unwind$pkey_hkdf_derive_init 00000000000ad934     OpensslLib:hkdf.obj
 0004:00000074       $unwind$pkey_tls1_prf_cleanup 00000000000ad934     OpensslLib:tls1_prf.obj
 0004:00000074       $unwind$OPENSSL_LH_retrieve 00000000000ad934     OpensslLib:lhash.obj
 0004:00000074       $unwind$CRYPTO_ccm128_setiv 00000000000ad934     OpensslLib:ccm128.obj
 0004:00000074       $unwind$CRYPTO_ccm128_tag  00000000000ad934     OpensslLib:ccm128.obj
 0004:00000074       $unwind$CRYPTO_strdup      00000000000ad934     OpensslLib:o_str.obj
 0004:00000074       $unwind$OPENSSL_gmtime     00000000000ad934     OpensslLib:o_time.obj
 0004:00000074       $unwind$obj_name_hash      00000000000ad934     OpensslLib:o_names.obj
 0004:00000074       $unwind$added_obj_hash     00000000000ad934     OpensslLib:obj_dat.obj
 0004:00000074       $unwind$PKCS7_get_octet_string 00000000000ad934     OpensslLib:pk7_doit.obj
 0004:00000074       $unwind$PKCS7_get_signer_info 00000000000ad934     OpensslLib:pk7_lib.obj
 0004:00000074       $unwind$do_rand_drbg_init_ossl_ 00000000000ad934     OpensslLib:drbg_lib.obj
 0004:00000074       $unwind$do_rand_init_ossl_ 00000000000ad934     OpensslLib:rand_lib.obj
 0004:00000074       $unwind$rand_drbg_cleanup_entropy 00000000000ad934     OpensslLib:rand_lib.obj
 0004:00000074       $unwind$rsa_param_encode   00000000000ad934     OpensslLib:rsa_ameth.obj
 0004:00000074       $unwind$rsa_security_bits  00000000000ad934     OpensslLib:rsa_ameth.obj
 0004:00000074       $unwind$rsa_multip_info_free 00000000000ad934     OpensslLib:rsa_mp.obj
 0004:00000074       $unwind$rsa_multip_info_free_ex 00000000000ad934     OpensslLib:rsa_mp.obj
 0004:00000074       $unwind$pkey_rsa_cleanup   00000000000ad934     OpensslLib:rsa_pmeth.obj
 0004:00000074       $unwind$pkey_rsa_init      00000000000ad934     OpensslLib:rsa_pmeth.obj
 0004:00000074       $unwind$SHA1_Init          00000000000ad934     OpensslLib:sha1dgst.obj
 0004:00000074       $unwind$SHA224_Init        00000000000ad934     OpensslLib:sha256.obj
 0004:00000074       $unwind$SHA256_Init        00000000000ad934     OpensslLib:sha256.obj
 0004:00000074       $unwind$siphash_get_priv_key 00000000000ad934     OpensslLib:siphash_ameth.obj
 0004:00000074       $unwind$siphash_key_free   00000000000ad934     OpensslLib:siphash_ameth.obj
 0004:00000074       $unwind$pkey_siphash_keygen 00000000000ad934     OpensslLib:siphash_pmeth.obj
 0004:00000074       $unwind$init               00000000000ad934     OpensslLib:m_sm3.obj
 0004:00000074       $unwind$X509V3_EXT_d2i     00000000000ad934     OpensslLib:v3_lib.obj
 0004:00000074       $unwind$check_purpose_timestamp_sign 00000000000ad934     OpensslLib:v3_purp.obj
 0004:00000074       $unwind$equal_case         00000000000ad934     OpensslLib:v3_utl.obj
 0004:00000074       $unwind$ipv6_cb            00000000000ad934     OpensslLib:v3_utl.obj
 0004:00000074       $unwind$SaveAndDisableInterrupts 00000000000ad934     BaseLib:Cpu.obj
 0004:00000074       $unwind$PciCf8Read32       00000000000ad934     BasePciCf8Lib:PciCf8Lib.obj
 0004:00000074       $unwind$InternalAllocateZeroPool 00000000000ad934     UefiMemoryAllocationLib:MemoryAllocationLib.obj
 0004:00000074       $unwind$OnReadyToBoot      00000000000ad934     DxeImageVerificationLib:DxeImageVerificationLib.obj
 0004:0000007c       $unwind$ConvertAsn1TimeToEfiTime 00000000000ad93c     BaseCryptLib:CryptTs.obj
 0004:0000007c       $unwind$asn1_primitive_free 00000000000ad93c     OpensslLib:tasn_fre.obj
 0004:0000007c       $unwind$X509_ALGOR_set0    00000000000ad93c     OpensslLib:x_algor.obj
 0004:0000007c       $unwind$BN_set_bit         00000000000ad93c     OpensslLib:bn_lib.obj
 0004:0000007c       $unwind$BN_MONT_CTX_set_locked 00000000000ad93c     OpensslLib:bn_mont.obj
 0004:0000007c       $unwind$BN_add_word        00000000000ad93c     OpensslLib:bn_word.obj
 0004:0000007c       $unwind$ge_p1p1_to_p2      00000000000ad93c     OpensslLib:curve25519.obj
 0004:0000007c       $unwind$niels_to_pt        00000000000ad93c     OpensslLib:curve448.obj
 0004:0000007c       $unwind$oneshot_hash       00000000000ad93c     OpensslLib:eddsa.obj
 0004:0000007c       $unwind$EC_curve_nist2nid  00000000000ad93c     OpensslLib:ec_curve.obj
 0004:0000007c       $unwind$ec_precompute_mont_data 00000000000ad93c     OpensslLib:ec_lib.obj
 0004:0000007c       $unwind$ERR_clear_error    00000000000ad93c     OpensslLib:err.obj
 0004:0000007c       $unwind$ERR_put_error      00000000000ad93c     OpensslLib:err.obj
 0004:0000007c       $unwind$aes_ccm_ctrl       00000000000ad93c     OpensslLib:e_aes.obj
 0004:0000007c       $unwind$aria_ccm_ctrl      00000000000ad93c     OpensslLib:e_aria.obj
 0004:0000007c       $unwind$init               00000000000ad93c     OpensslLib:m_sha3.obj
 0004:0000007c       $unwind$sha3_final         00000000000ad93c     OpensslLib:m_sha3.obj
 0004:0000007c       $unwind$hmac_set_priv_key  00000000000ad93c     OpensslLib:hm_ameth.obj
 0004:0000007c       $unwind$CRYPTO_clear_realloc 00000000000ad93c     OpensslLib:mem.obj
 0004:0000007c       $unwind$CRYPTO_ccm128_init 00000000000ad93c     OpensslLib:ccm128.obj
 0004:0000007c       $unwind$PKCS7_add1_attrib_digest 00000000000ad93c     OpensslLib:pk7_attr.obj
 0004:0000007c       $unwind$ctr_BCC_update     00000000000ad93c     OpensslLib:drbg_ctr.obj
 0004:0000007c       $unwind$rsa_pss_params_create 00000000000ad93c     OpensslLib:rsa_ameth.obj
 0004:0000007c       $unwind$OPENSSL_sk_insert  00000000000ad93c     OpensslLib:stack.obj
 0004:0000007c       $unwind$x509_store_add     00000000000ad93c     OpensslLib:x509_lu.obj
 0004:0000007c       $unwind$X509_check_trust   00000000000ad93c     OpensslLib:x509_trs.obj
 0004:0000007c       $unwind$check_crl_time     00000000000ad93c     OpensslLib:x509_vfy.obj
 0004:0000007c       $unwind$crl_extension_match 00000000000ad93c     OpensslLib:x509_vfy.obj
 0004:0000007c       $unwind$x509_check_cert_time 00000000000ad93c     OpensslLib:x509_vfy.obj
 0004:0000007c       $unwind$X509_ATTRIBUTE_create 00000000000ad93c     OpensslLib:x_attrib.obj
 0004:0000007c       $unwind$tree_add_unmatched 00000000000ad93c     OpensslLib:pcy_tree.obj
 0004:0000007c       $unwind$do_othername       00000000000ad93c     OpensslLib:v3_alt.obj
 0004:0000007c       $unwind$print_gens         00000000000ad93c     OpensslLib:v3_crld.obj
 0004:0000007c       $unwind$print_reasons      00000000000ad93c     OpensslLib:v3_crld.obj
 0004:0000007c       $unwind$InternalReallocatePool 00000000000ad93c     UefiMemoryAllocationLib:MemoryAllocationLib.obj
 0004:0000007c       $unwind$SecureBootHook     00000000000ad93c     DxeImageVerificationLib:Measurement.obj
 0004:00000090       $unwind$UefiDevicePathLibLocateProtocol 00000000000ad950     UefiDevicePathLibDevicePathProtocol:UefiDevicePathLib.obj
 0004:00000098       $unwind$AES_set_decrypt_key 00000000000ad958     OpensslLib:aes_core.obj
 0004:00000098       $unwind$asn1_str2tag       00000000000ad958     OpensslLib:asn1_gen.obj
 0004:00000098       $unwind$ASN1_STRING_cmp    00000000000ad958     OpensslLib:asn1_lib.obj
 0004:00000098       $unwind$ASN1_STRING_copy   00000000000ad958     OpensslLib:asn1_lib.obj
 0004:00000098       $unwind$ASN1_STRING_dup    00000000000ad958     OpensslLib:asn1_lib.obj
 0004:00000098       $unwind$der_cmp            00000000000ad958     OpensslLib:tasn_enc.obj
 0004:00000098       $unwind$BIO_indent         00000000000ad958     OpensslLib:bio_lib.obj
 0004:00000098       $unwind$BIO_pop            00000000000ad958     OpensslLib:bio_lib.obj
 0004:00000098       $unwind$mem_buf_free       00000000000ad958     OpensslLib:bss_mem.obj
 0004:00000098       $unwind$BN_dup             00000000000ad958     OpensslLib:bn_lib.obj
 0004:00000098       $unwind$BN_set_word        00000000000ad958     OpensslLib:bn_lib.obj
 0004:00000098       $unwind$BN_mod_lshift1_quick 00000000000ad958     OpensslLib:bn_mod.obj
 0004:00000098       $unwind$BN_mod_sub_quick   00000000000ad958     OpensslLib:bn_mod.obj
 0004:00000098       $unwind$BN_MONT_CTX_copy   00000000000ad958     OpensslLib:bn_mont.obj
 0004:00000098       $unwind$BN_lshift1         00000000000ad958     OpensslLib:bn_shift.obj
 0004:00000098       $unwind$BN_mod_word        00000000000ad958     OpensslLib:bn_word.obj
 0004:00000098       $unwind$pkey_cmac_copy     00000000000ad958     OpensslLib:cm_pmeth.obj
 0004:00000098       $unwind$dh_pub_cmp         00000000000ad958     OpensslLib:dh_ameth.obj
 0004:00000098       $unwind$dh_security_bits   00000000000ad958     OpensslLib:dh_ameth.obj
 0004:00000098       $unwind$int_dh_bn_cpy      00000000000ad958     OpensslLib:dh_ameth.obj
 0004:00000098       $unwind$pkey_dh_copy       00000000000ad958     OpensslLib:dh_pmeth.obj
 0004:00000098       $unwind$dh_param_init      00000000000ad958     OpensslLib:dh_rfc7919.obj
 0004:00000098       $unwind$ge_p3_to_cached    00000000000ad958     OpensslLib:curve25519.obj
 0004:00000098       $unwind$gf_strong_reduce   00000000000ad958     OpensslLib:f_generic.obj
 0004:00000098       $unwind$ec_copy_parameters 00000000000ad958     OpensslLib:ec_ameth.obj
 0004:00000098       $unwind$EC_KEY_dup         00000000000ad958     OpensslLib:ec_key.obj
 0004:00000098       $unwind$EC_GROUP_dup       00000000000ad958     OpensslLib:ec_lib.obj
 0004:00000098       $unwind$pkey_ec_cleanup    00000000000ad958     OpensslLib:ec_pmeth.obj
 0004:00000098       $unwind$pkey_ec_copy       00000000000ad958     OpensslLib:ec_pmeth.obj
 0004:00000098       $unwind$ec_GFp_mont_group_copy 00000000000ad958     OpensslLib:ecp_mont.obj
 0004:00000098       $unwind$ec_GFp_simple_group_copy 00000000000ad958     OpensslLib:ecp_smpl.obj
 0004:00000098       $unwind$ec_GFp_simple_invert 00000000000ad958     OpensslLib:ecp_smpl.obj
 0004:00000098       $unwind$ec_GFp_simple_point_copy 00000000000ad958     OpensslLib:ecp_smpl.obj
 0004:00000098       $unwind$ecx_free           00000000000ad958     OpensslLib:ecx_meth.obj
 0004:00000098       $unwind$md_free            00000000000ad958     OpensslLib:bio_md.obj
 0004:00000098       $unwind$aes_gcm_cipher     00000000000ad958     OpensslLib:e_aes.obj
 0004:00000098       $unwind$aes_gcm_cleanup    00000000000ad958     OpensslLib:e_aes.obj
 0004:00000098       $unwind$aria_gcm_cipher    00000000000ad958     OpensslLib:e_aria.obj
 0004:00000098       $unwind$EVP_CIPHER_type    00000000000ad958     OpensslLib:evp_lib.obj
 0004:00000098       $unwind$final              00000000000ad958     OpensslLib:m_md5_sha1.obj
 0004:00000098       $unwind$EVP_add_digest     00000000000ad958     OpensslLib:names.obj
 0004:00000098       $unwind$pkey_hmac_cleanup  00000000000ad958     OpensslLib:hm_pmeth.obj
 0004:00000098       $unwind$HMAC_CTX_copy      00000000000ad958     OpensslLib:hmac.obj
 0004:00000098       $unwind$hmac_ctx_alloc_mds 00000000000ad958     OpensslLib:hmac.obj
 0004:00000098       $unwind$ossl_init_base_ossl_ 00000000000ad958     OpensslLib:init.obj
 0004:00000098       $unwind$CRYPTO_zalloc      00000000000ad958     OpensslLib:mem.obj
 0004:00000098       $unwind$CRYPTO_gcm128_tag  00000000000ad958     OpensslLib:gcm128.obj
 0004:00000098       $unwind$i2d_ocsp_nonce     00000000000ad958     OpensslLib:v3_ocsp.obj
 0004:00000098       $unwind$pk7_cb             00000000000ad958     OpensslLib:pk7_asn1.obj
 0004:00000098       $unwind$get_attribute      00000000000ad958     OpensslLib:pk7_doit.obj
 0004:00000098       $unwind$PKCS7_stream       00000000000ad958     OpensslLib:pk7_lib.obj
 0004:00000098       $unwind$RAND_priv_bytes    00000000000ad958     OpensslLib:rand_lib.obj
 0004:00000098       $unwind$rsa_pub_cmp        00000000000ad958     OpensslLib:rsa_ameth.obj
 0004:00000098       $unwind$pkey_rsa_copy      00000000000ad958     OpensslLib:rsa_pmeth.obj
 0004:00000098       $unwind$pkey_siphash_cleanup 00000000000ad958     OpensslLib:siphash_pmeth.obj
 0004:00000098       $unwind$pkey_sm2_cleanup   00000000000ad958     OpensslLib:sm2_pmeth.obj
 0004:00000098       $unwind$internal_delete    00000000000ad958     OpensslLib:stack.obj
 0004:00000098       $unwind$check_suite_b      00000000000ad958     OpensslLib:x509_cmp.obj
 0004:00000098       $unwind$trust_compat       00000000000ad958     OpensslLib:x509_trs.obj
 0004:00000098       $unwind$X509v3_get_ext_by_NID 00000000000ad958     OpensslLib:x509_v3.obj
 0004:00000098       $unwind$X509_STORE_CTX_cleanup 00000000000ad958     OpensslLib:x509_vfy.obj
 0004:00000098       $unwind$check_dane_issuer  00000000000ad958     OpensslLib:x509_vfy.obj
 0004:00000098       $unwind$check_key_level    00000000000ad958     OpensslLib:x509_vfy.obj
 0004:00000098       $unwind$verify_chain       00000000000ad958     OpensslLib:x509_vfy.obj
 0004:00000098       $unwind$X509_NAME_get_index_by_NID 00000000000ad958     OpensslLib:x509name.obj
 0004:00000098       $unwind$X509_PUBKEY_set0_param 00000000000ad958     OpensslLib:x_pubkey.obj
 0004:00000098       $unwind$pubkey_cb          00000000000ad958     OpensslLib:x_pubkey.obj
 0004:00000098       $unwind$displaytext_str2tag 00000000000ad958     OpensslLib:v3_cpols.obj
 0004:00000098       $unwind$i2r_idp            00000000000ad958     OpensslLib:v3_crld.obj
 0004:00000098       $unwind$i2r_PKEY_USAGE_PERIOD 00000000000ad958     OpensslLib:v3_pku.obj
 0004:00000098       $unwind$X509_check_akid    00000000000ad958     OpensslLib:v3_purp.obj
 0004:00000098       $unwind$check_purpose_ns_ssl_server 00000000000ad958     OpensslLib:v3_purp.obj
 0004:00000098       $unwind$x509_likely_issued 00000000000ad958     OpensslLib:v3_purp.obj
 0004:00000098       $unwind$a2i_ipadd          00000000000ad958     OpensslLib:v3_utl.obj
 0004:00000098       $unwind$RegisterSecurity2Handler 00000000000ad958     DxeSecurityManagementLib:DxeSecurityManagementLib.obj
 0004:00000098       $unwind$ConvertDevicePathToText 00000000000ad958     UefiDevicePathLibDevicePathProtocol:UefiDevicePathLib.obj
 0004:000000a4       $unwind$UTF8_getc          00000000000ad964     OpensslLib:a_utf8.obj
 0004:000000a4       $unwind$bn_add_words       00000000000ad964     OpensslLib:bn_asm.obj
 0004:000000a4       $unwind$MOD_EXP_CTIME_COPY_TO_PREBUF 00000000000ad964     OpensslLib:bn_exp.obj
 0004:000000a4       $unwind$cmov               00000000000ad964     OpensslLib:curve25519.obj
 0004:000000a4       $unwind$ctr_XOR            00000000000ad964     OpensslLib:drbg_ctr.obj
 0004:000000a4       $unwind$EfiGetSystemConfigurationTable 00000000000ad964     UefiLib:UefiLib.obj
 0004:000000ac       $unwind$GetEfiGlobalVariable2 00000000000ad96c     UefiLib:UefiLib.obj
 0004:000000b8       $unwind$ExecuteSecurityHandlers 00000000000ad978     DxeSecurityManagementLib:DxeSecurityManagementLib.obj
 0004:000000d0       $unwind$ASN1_get_object    00000000000ad990     OpensslLib:asn1_lib.obj
 0004:000000d0       $unwind$asn1_item_embed_new 00000000000ad990     OpensslLib:tasn_new.obj
 0004:000000d0       $unwind$DH_check           00000000000ad990     OpensslLib:dh_check.obj
 0004:000000d0       $unwind$pkey_dh_paramgen   00000000000ad990     OpensslLib:dh_pmeth.obj
 0004:000000d0       $unwind$ec_key_simple_generate_key 00000000000ad990     OpensslLib:ec_key.obj
 0004:000000d0       $unwind$EC_POINT_point2buf 00000000000ad990     OpensslLib:ec_oct.obj
 0004:000000d0       $unwind$ec_GFp_nist_field_sqr 00000000000ad990     OpensslLib:ecp_nist.obj
 0004:000000d0       $unwind$ec_GFp_simple_blind_coordinates 00000000000ad990     OpensslLib:ecp_smpl.obj
 0004:000000d0       $unwind$aes_xts_init_key   00000000000ad990     OpensslLib:e_aes.obj
 0004:000000d0       $unwind$CRYPTO_128_wrap_pad 00000000000ad990     OpensslLib:wrap128.obj
 0004:000000d0       $unwind$i2r_ocsp_serviceloc 00000000000ad990     OpensslLib:v3_ocsp.obj
 0004:000000d0       $unwind$RSA_setup_blinding 00000000000ad990     OpensslLib:rsa_crpt.obj
 0004:000000d0       $unwind$pkey_rsa_ctrl      00000000000ad990     OpensslLib:rsa_pmeth.obj
 0004:000000d0       $unwind$pkey_rsa_keygen    00000000000ad990     OpensslLib:rsa_pmeth.obj
 0004:000000d0       $unwind$sk_OPENSSL_STRING_deep_copy 00000000000ad990     OpensslLib:x509_vpm.obj
 0004:000000d0       $unwind$copy_email         00000000000ad990     OpensslLib:v3_alt.obj
 0004:000000d0       $unwind$do_dirname         00000000000ad990     OpensslLib:v3_alt.obj
 0004:000000d0       $unwind$v2i_GENERAL_NAMES  00000000000ad990     OpensslLib:v3_alt.obj
 0004:000000d0       $unwind$sxnet_i2r          00000000000ad990     OpensslLib:v3_sxnet.obj
 0004:000000d0       $unwind$X509V3_add_value   00000000000ad990     OpensslLib:v3_utl.obj
 0004:000000d0       $unwind$ExecuteSecurity2Handlers 00000000000ad990     DxeSecurityManagementLib:DxeSecurityManagementLib.obj
 0004:000000e8       $unwind$HashPeImage        00000000000ad9a8     DxeImageVerificationLib:DxeImageVerificationLib.obj
 0004:00000100       $unwind$AddImageExeInfo    00000000000ad9c0     DxeImageVerificationLib:DxeImageVerificationLib.obj
 0004:00000118       $unwind$IsCertHashFoundInDbx 00000000000ad9d8     DxeImageVerificationLib:DxeImageVerificationLib.obj
 0004:00000134       $unwind$IsSignatureFoundInDatabase 00000000000ad9f4     DxeImageVerificationLib:DxeImageVerificationLib.obj
 0004:0000014c       $unwind$PassTimestampCheck 00000000000ada0c     DxeImageVerificationLib:DxeImageVerificationLib.obj
 0004:00000164       $unwind$IsForbiddenByDbx   00000000000ada24     DxeImageVerificationLib:DxeImageVerificationLib.obj
 0004:0000017c       $unwind$IsAllowedByDb      00000000000ada3c     DxeImageVerificationLib:DxeImageVerificationLib.obj
 0004:00000194       $unwind$DxeImageVerificationHandler 00000000000ada54     DxeImageVerificationLib:DxeImageVerificationLib.obj
 0004:000001b4       $unwind$i2c_ASN1_BIT_STRING 00000000000ada74     OpensslLib:a_bitstr.obj
 0004:000001b4       $unwind$mem_ctrl           00000000000ada74     OpensslLib:bss_mem.obj
 0004:000001b4       $unwind$BN_mul_word        00000000000ada74     OpensslLib:bn_word.obj
 0004:000001b4       $unwind$cmac_signctx       00000000000ada74     OpensslLib:cm_pmeth.obj
 0004:000001b4       $unwind$ssl_module_free    00000000000ada74     OpensslLib:conf_ssl.obj
 0004:000001b4       $unwind$DH_check_params    00000000000ada74     OpensslLib:dh_check.obj
 0004:000001b4       $unwind$ge_p1p1_to_p3      00000000000ada74     OpensslLib:curve25519.obj
 0004:000001b4       $unwind$EVP_CIPHER_set_asn1_iv 00000000000ada74     OpensslLib:evp_lib.obj
 0004:000001b4       $unwind$sha3_update        00000000000ada74     OpensslLib:m_sha3.obj
 0004:000001b4       $unwind$expand             00000000000ada74     OpensslLib:lhash.obj
 0004:000001b4       $unwind$MD5_Final          00000000000ada74     OpensslLib:md5_dgst.obj
 0004:000001b4       $unwind$CRYPTO_realloc     00000000000ada74     OpensslLib:mem.obj
 0004:000001b4       $unwind$SHA3_absorb        00000000000ada74     OpensslLib:keccak1600.obj
 0004:000001b4       $unwind$SHA512_Update      00000000000ada74     OpensslLib:sha512.obj
 0004:000001b4       $unwind$update             00000000000ada74     OpensslLib:m_sm3.obj
 0004:000001b4       $unwind$sm3_final          00000000000ada74     OpensslLib:sm3.obj
 0004:000001b4       $unwind$X509at_get_attr_by_OBJ 00000000000ada74     OpensslLib:x509_att.obj
 0004:000001b4       $unwind$X509v3_get_ext_by_OBJ 00000000000ada74     OpensslLib:x509_v3.obj
 0004:000001b4       $unwind$check_crl          00000000000ada74     OpensslLib:x509_vfy.obj
 0004:000001b4       $unwind$dane_verify        00000000000ada74     OpensslLib:x509_vfy.obj
 0004:000001b4       $unwind$internal_verify    00000000000ada74     OpensslLib:x509_vfy.obj
 0004:000001b4       $unwind$X509_VERIFY_PARAM_inherit 00000000000ada74     OpensslLib:x509_vpm.obj
 0004:000001b4       $unwind$X509_NAME_get_index_by_OBJ 00000000000ada74     OpensslLib:x509name.obj
 0004:000001b4       $unwind$i2v_GENERAL_NAMES  00000000000ada74     OpensslLib:v3_alt.obj
 0004:000001b4       $unwind$i2r_crldp          00000000000ada74     OpensslLib:v3_crld.obj
 0004:000001b4       $unwind$nc_email           00000000000ada74     OpensslLib:v3_ncons.obj
 0004:000001b4       $unwind$SXNET_get_id_INTEGER 00000000000ada74     OpensslLib:v3_sxnet.obj
 0004:000001b4       $unwind$AddDataMeasured    00000000000ada74     DxeImageVerificationLib:Measurement.obj
 0004:000001b4       $unwind$IsDataMeasured     00000000000ada74     DxeImageVerificationLib:Measurement.obj
 0004:000001cc       $unwind$asn1_multi         00000000000ada8c     OpensslLib:asn1_gen.obj
 0004:000001cc       $unwind$probable_prime     00000000000ada8c     OpensslLib:bn_prime.obj
 0004:000001cc       $unwind$BN_bn2dec          00000000000ada8c     OpensslLib:bn_print.obj
 0004:000001cc       $unwind$ec_GFp_simple_group_set_curve 00000000000ada8c     OpensslLib:ecp_smpl.obj
 0004:000001cc       $unwind$aria_128_cbc_cipher 00000000000ada8c     OpensslLib:e_aria.obj
 0004:000001cc       $unwind$aria_192_cbc_cipher 00000000000ada8c     OpensslLib:e_aria.obj
 0004:000001cc       $unwind$aria_256_cbc_cipher 00000000000ada8c     OpensslLib:e_aria.obj
 0004:000001cc       $unwind$sm4_cbc_cipher     00000000000ada8c     OpensslLib:e_sm4.obj
 0004:000001cc       $unwind$EVP_DecryptUpdate  00000000000ada8c     OpensslLib:evp_enc.obj
 0004:000001cc       $unwind$check_hosts        00000000000ada8c     OpensslLib:x509_vfy.obj
 0004:000001cc       $unwind$X509V3_NAME_from_section 00000000000ada8c     OpensslLib:v3_utl.obj
 0004:000001cc       $unwind$MeasureVariable    00000000000ada8c     DxeImageVerificationLib:Measurement.obj
 0004:000001e8       $unwind$Tcg2MeasureGptTable 00000000000adaa8     DxeTpm2MeasureBootLib:DxeTpm2MeasureBootLib.obj
 0004:000001e8       $unwind$TcgMeasureGptTable 00000000000adaa8     DxeTpmMeasureBootLib:DxeTpmMeasureBootLib.obj
 0004:00000200       $unwind$TcgMeasurePeImage  00000000000adac0     DxeTpmMeasureBootLib:DxeTpmMeasureBootLib.obj
 0004:00000218       $unwind$DxeTpmMeasureBootHandler 00000000000adad8     DxeTpmMeasureBootLib:DxeTpmMeasureBootLib.obj
 0004:00000238       $unwind$Tcg2MeasurePeImage 00000000000adaf8     DxeTpm2MeasureBootLib:DxeTpm2MeasureBootLib.obj
 0004:00000250       $unwind$DxeTpm2MeasureBootHandler 00000000000adb10     DxeTpm2MeasureBootLib:DxeTpm2MeasureBootLib.obj
 0004:00000270       $unwind$bn_sub_words       00000000000adb30     OpensslLib:bn_asm.obj
 0004:00000270       $unwind$curve448_scalar_halve 00000000000adb30     OpensslLib:scalar.obj
 0004:00000270       $unwind$julian_adj         00000000000adb30     OpensslLib:o_time.obj
 0004:00000270       $unwind$AsciiStriCmp       00000000000adb30     BaseLib:String.obj
 0004:0000027c       $unwind$asn1_get_uint64    00000000000adb3c     OpensslLib:a_int.obj
 0004:0000027c       $unwind$bitstr_cb          00000000000adb3c     OpensslLib:asn1_gen.obj
 0004:0000027c       $unwind$parse_tagging      00000000000adb3c     OpensslLib:asn1_gen.obj
 0004:0000027c       $unwind$BN_CTX_new         00000000000adb3c     OpensslLib:bn_ctx.obj
 0004:0000027c       $unwind$BN_mod_exp         00000000000adb3c     OpensslLib:bn_exp.obj
 0004:0000027c       $unwind$BN_new             00000000000adb3c     OpensslLib:bn_lib.obj
 0004:0000027c       $unwind$BN_MONT_CTX_new    00000000000adb3c     OpensslLib:bn_mont.obj
 0004:0000027c       $unwind$BUF_MEM_new        00000000000adb3c     OpensslLib:buffer.obj
 0004:0000027c       $unwind$DH_new_by_nid      00000000000adb3c     OpensslLib:dh_rfc7919.obj
 0004:0000027c       $unwind$ec_pkey_check      00000000000adb3c     OpensslLib:ec_ameth.obj
 0004:0000027c       $unwind$ec_pkey_param_check 00000000000adb3c     OpensslLib:ec_ameth.obj
 0004:0000027c       $unwind$EC_GROUP_new_from_ecpkparameters 00000000000adb3c     OpensslLib:ec_asn1.obj
 0004:0000027c       $unwind$EC_KEY_check_key   00000000000adb3c     OpensslLib:ec_key.obj
 0004:0000027c       $unwind$ec_key_simple_generate_public_key 00000000000adb3c     OpensslLib:ec_key.obj
 0004:0000027c       $unwind$EC_POINT_add       00000000000adb3c     OpensslLib:ec_lib.obj
 0004:0000027c       $unwind$EC_POINT_cmp       00000000000adb3c     OpensslLib:ec_lib.obj
 0004:0000027c       $unwind$EC_POINT_copy      00000000000adb3c     OpensslLib:ec_lib.obj
 0004:0000027c       $unwind$EC_POINT_dbl       00000000000adb3c     OpensslLib:ec_lib.obj
 0004:0000027c       $unwind$EC_POINT_invert    00000000000adb3c     OpensslLib:ec_lib.obj
 0004:0000027c       $unwind$EC_POINT_is_at_infinity 00000000000adb3c     OpensslLib:ec_lib.obj
 0004:0000027c       $unwind$EC_POINT_is_on_curve 00000000000adb3c     OpensslLib:ec_lib.obj
 0004:0000027c       $unwind$EC_POINT_set_to_infinity 00000000000adb3c     OpensslLib:ec_lib.obj
 0004:0000027c       $unwind$EC_POINT_oct2point 00000000000adb3c     OpensslLib:ec_oct.obj
 0004:0000027c       $unwind$EC_POINT_point2oct 00000000000adb3c     OpensslLib:ec_oct.obj
 0004:0000027c       $unwind$EC_POINT_set_compressed_coordinates 00000000000adb3c     OpensslLib:ec_oct.obj
 0004:0000027c       $unwind$ossl_ecdh_compute_key 00000000000adb3c     OpensslLib:ecdh_ossl.obj
 0004:0000027c       $unwind$ossl_ecdsa_sign_setup 00000000000adb3c     OpensslLib:ecdsa_ossl.obj
 0004:0000027c       $unwind$ecx_priv_print     00000000000adb3c     OpensslLib:ecx_meth.obj
 0004:0000027c       $unwind$ecx_pub_decode     00000000000adb3c     OpensslLib:ecx_meth.obj
 0004:0000027c       $unwind$ecx_pub_print      00000000000adb3c     OpensslLib:ecx_meth.obj
 0004:0000027c       $unwind$ecx_set_priv_key   00000000000adb3c     OpensslLib:ecx_meth.obj
 0004:0000027c       $unwind$ecx_set_pub_key    00000000000adb3c     OpensslLib:ecx_meth.obj
 0004:0000027c       $unwind$pkey_ecd_ctrl      00000000000adb3c     OpensslLib:ecx_meth.obj
 0004:0000027c       $unwind$pkey_ecx_keygen    00000000000adb3c     OpensslLib:ecx_meth.obj
 0004:0000027c       $unwind$validate_ecx_derive 00000000000adb3c     OpensslLib:ecx_meth.obj
 0004:0000027c       $unwind$aria_init_key      00000000000adb3c     OpensslLib:e_aria.obj
 0004:0000027c       $unwind$EVP_CIPHER_CTX_ctrl 00000000000adb3c     OpensslLib:evp_enc.obj
 0004:0000027c       $unwind$EVP_CIPHER_CTX_set_key_length 00000000000adb3c     OpensslLib:evp_enc.obj
 0004:0000027c       $unwind$update             00000000000adb3c     OpensslLib:m_sigver.obj
 0004:0000027c       $unwind$EVP_PKEY_get0_EC_KEY 00000000000adb3c     OpensslLib:p_lib.obj
 0004:0000027c       $unwind$EVP_PKEY_verify    00000000000adb3c     OpensslLib:pmeth_fn.obj
 0004:0000027c       $unwind$pkey_hmac_ctrl     00000000000adb3c     OpensslLib:hm_pmeth.obj
 0004:0000027c       $unwind$rand_pool_add_end  00000000000adb3c     OpensslLib:rand_lib.obj
 0004:0000027c       $unwind$RSA_pkey_ctx_ctrl  00000000000adb3c     OpensslLib:rsa_lib.obj
 0004:0000027c       $unwind$check_padding_md   00000000000adb3c     OpensslLib:rsa_pmeth.obj
 0004:0000027c       $unwind$siphash_signctx_init 00000000000adb3c     OpensslLib:siphash_pmeth.obj
 0004:0000027c       $unwind$X509_OBJECT_new    00000000000adb3c     OpensslLib:x509_lu.obj
 0004:0000027c       $unwind$def_crl_verify     00000000000adb3c     OpensslLib:x_crl.obj
 0004:0000027c       $unwind$GENERAL_NAME_print 00000000000adb3c     OpensslLib:v3_alt.obj
 0004:0000027c       $unwind$X509V3_get_section 00000000000adb3c     OpensslLib:v3_conf.obj
 0004:0000027c       $unwind$EfiCreateEventReadyToBootEx 00000000000adb3c     UefiLib:UefiNotTiano.obj
 0004:00000284       $unwind$GetFileBufferByFilePath 00000000000adb44     DxeServicesLib:DxeServicesLib.obj
 0004:000002a4       $unwind$Tpm12MeasureAndLogData 00000000000adb64     DxeTpmMeasurementLib:DxeTpmMeasurementLib.obj
 0004:000002b8       $unwind$BIO_ctrl           00000000000adb78     OpensslLib:bio_lib.obj
 0004:000002b8       $unwind$bio_read_intern    00000000000adb78     OpensslLib:bio_lib.obj
 0004:000002b8       $unwind$bio_write_intern   00000000000adb78     OpensslLib:bio_lib.obj
 0004:000002b8       $unwind$ossl_ecdsa_verify  00000000000adb78     OpensslLib:ecdsa_ossl.obj
 0004:000002b8       $unwind$rand_drbg_get_nonce 00000000000adb78     OpensslLib:rand_lib.obj
 0004:000002b8       $unwind$a2i_IPADDRESS_NC   00000000000adb78     OpensslLib:v3_utl.obj
 0004:000002b8       $unwind$Tpm20MeasureAndLogData 00000000000adb78     DxeTpmMeasurementLib:DxeTpmMeasurementLib.obj
 0004:000002cc       $unwind$CcMeasureAndLogData 00000000000adb8c     DxeTpmMeasurementLib:DxeTpmMeasurementLib.obj
 0004:000002e0       $unwind$TpmMeasureAndLogData 00000000000adba0     DxeTpmMeasurementLib:DxeTpmMeasurementLib.obj
 0004:000002f4       $unwind$PeCoffLoaderGetPeHeader 00000000000adbb4     BasePeCoffLib:BasePeCoff.obj
 0004:00000310       $unwind$PeCoffLoaderGetImageInfo 00000000000adbd0     BasePeCoffLib:BasePeCoff.obj
 0004:00000330       $unwind$WrapPkcs7Data      00000000000adbf0     BaseCryptLib:CryptPkcs7VerifyCommon.obj
 0004:00000330       $unwind$bn_mul_normal      00000000000adbf0     OpensslLib:bn_mul.obj
 0004:00000330       $unwind$BN_hex2bn          00000000000adbf0     OpensslLib:bn_print.obj
 0004:00000330       $unwind$ec_GFp_simple_get_Jprojective_coordinates_GFp 00000000000adbf0     OpensslLib:ecp_smpl.obj
 0004:00000330       $unwind$ec_GFp_simple_set_Jprojective_coordinates_GFp 00000000000adbf0     OpensslLib:ecp_smpl.obj
 0004:00000330       $unwind$CRYPTO_cfb128_encrypt 00000000000adbf0     OpensslLib:cfb128.obj
 0004:00000330       $unwind$CRYPTO_gcm128_finish 00000000000adbf0     OpensslLib:gcm128.obj
 0004:00000330       $unwind$CRYPTO_ofb128_encrypt 00000000000adbf0     OpensslLib:ofb128.obj
 0004:00000330       $unwind$OBJ_bsearch_ex_    00000000000adbf0     OpensslLib:obj_dat.obj
 0004:00000330       $unwind$add_attribute      00000000000adbf0     OpensslLib:pk7_doit.obj
 0004:00000330       $unwind$SHA512_Final       00000000000adbf0     OpensslLib:sha512.obj
 0004:00000330       $unwind$tree_evaluate      00000000000adbf0     OpensslLib:pcy_tree.obj
 0004:00000330       $unwind$set_reasons        00000000000adbf0     OpensslLib:v3_crld.obj
 0004:00000330       $unwind$valid_star         00000000000adbf0     OpensslLib:v3_utl.obj
 0004:0000034c       $unwind$X509PopCertificate 00000000000adc0c     BaseCryptLib:CryptPkcs7VerifyCommon.obj
 0004:00000364       $unwind$Pkcs7GetSigners    00000000000adc24     BaseCryptLib:CryptPkcs7VerifyCommon.obj
 0004:0000037c       $unwind$Pkcs7Verify        00000000000adc3c     BaseCryptLib:CryptPkcs7VerifyCommon.obj
 0004:00000394       $unwind$AuthenticodeVerify 00000000000adc54     BaseCryptLib:CryptAuthenticode.obj
 0004:000003ac       $unwind$CheckTSTInfo       00000000000adc6c     BaseCryptLib:CryptTs.obj
 0004:000003ac       $unwind$CRYPTO_gcm128_decrypt 00000000000adc6c     OpensslLib:gcm128.obj
 0004:000003ac       $unwind$CRYPTO_gcm128_encrypt 00000000000adc6c     OpensslLib:gcm128.obj
 0004:000003ac       $unwind$CRYPTO_gcm128_setiv 00000000000adc6c     OpensslLib:gcm128.obj
 0004:000003ac       $unwind$check_dane_pkeys   00000000000adc6c     OpensslLib:x509_vfy.obj
 0004:000003ac       $unwind$check_trust        00000000000adc6c     OpensslLib:x509_vfy.obj
 0004:000003ac       $unwind$tree_calculate_authority_set 00000000000adc6c     OpensslLib:pcy_tree.obj
 0004:000003c8       $unwind$TimestampTokenVerify 00000000000adc88     BaseCryptLib:CryptTs.obj
 0004:000003c8       $unwind$sm2_compute_z_digest 00000000000adc88     OpensslLib:sm2_sign.obj
 0004:000003e4       $unwind$ImageTimestampVerify 00000000000adca4     BaseCryptLib:CryptTs.obj
 0004:000003fc       $unwind$BN_uadd            00000000000adcbc     OpensslLib:bn_add.obj
 0004:000003fc       $unwind$bn_div_words       00000000000adcbc     OpensslLib:bn_asm.obj
 0004:000003fc       $unwind$BN_bin2bn          00000000000adcbc     OpensslLib:bn_lib.obj
 0004:000003fc       $unwind$BN_num_bits        00000000000adcbc     OpensslLib:bn_lib.obj
 0004:000003fc       $unwind$bn_from_mont_fixed_top 00000000000adcbc     OpensslLib:bn_mont.obj
 0004:000003fc       $unwind$BN_div_word        00000000000adcbc     OpensslLib:bn_word.obj
 0004:000003fc       $unwind$int_update         00000000000adcbc     OpensslLib:cm_pmeth.obj
 0004:000003fc       $unwind$ec_GFp_simple_group_get_curve 00000000000adcbc     OpensslLib:ecp_smpl.obj
 0004:000003fc       $unwind$md_ctrl            00000000000adcbc     OpensslLib:bio_md.obj
 0004:000003fc       $unwind$EVP_Digest         00000000000adcbc     OpensslLib:digest.obj
 0004:000003fc       $unwind$aes_ecb_cipher     00000000000adcbc     OpensslLib:e_aes.obj
 0004:000003fc       $unwind$aria_128_ecb_cipher 00000000000adcbc     OpensslLib:e_aria.obj
 0004:000003fc       $unwind$aria_192_ecb_cipher 00000000000adcbc     OpensslLib:e_aria.obj
 0004:000003fc       $unwind$aria_256_ecb_cipher 00000000000adcbc     OpensslLib:e_aria.obj
 0004:000003fc       $unwind$sm4_ecb_cipher     00000000000adcbc     OpensslLib:e_sm4.obj
 0004:000003fc       $unwind$getrn              00000000000adcbc     OpensslLib:lhash.obj
 0004:000003fc       $unwind$MD5_Update         00000000000adcbc     OpensslLib:md5_dgst.obj
 0004:000003fc       $unwind$OBJ_NAME_add       00000000000adcbc     OpensslLib:o_names.obj
 0004:000003fc       $unwind$SHA1_Final         00000000000adcbc     OpensslLib:sha1dgst.obj
 0004:000003fc       $unwind$SHA1_Update        00000000000adcbc     OpensslLib:sha1dgst.obj
 0004:000003fc       $unwind$SHA256_Final       00000000000adcbc     OpensslLib:sha256.obj
 0004:000003fc       $unwind$SHA256_Update      00000000000adcbc     OpensslLib:sha256.obj
 0004:000003fc       $unwind$SM4_decrypt        00000000000adcbc     OpensslLib:sm4.obj
 0004:000003fc       $unwind$SM4_encrypt        00000000000adcbc     OpensslLib:sm4.obj
 0004:000003fc       $unwind$obj_trust          00000000000adcbc     OpensslLib:x509_trs.obj
 0004:000003fc       $unwind$i2r_certpol        00000000000adcbc     OpensslLib:v3_cpols.obj
 0004:000003fc       $unwind$crldp_from_section 00000000000adcbc     OpensslLib:v3_crld.obj
 0004:00000414       $unwind$asn1_check_tlen    00000000000adcd4     OpensslLib:tasn_dec.obj
 0004:00000414       $unwind$sha1_block_data_order 00000000000adcd4     OpensslLib:sha1dgst.obj
 0004:00000430       $unwind$SHA512             00000000000adcf0     OpensslLib:sha512.obj
 0004:0000043c       $unwind$sha512_block_data_order 00000000000adcfc     OpensslLib:sha512.obj
 0004:00000454       $unwind$CRYPTO_ccm128_aad  00000000000add14     OpensslLib:ccm128.obj
 0004:00000454       $unwind$X509_STORE_free    00000000000add14     OpensslLib:x509_lu.obj
 0004:0000046c       $unwind$ASN1_BIT_STRING_set_bit 00000000000add2c     OpensslLib:a_bitstr.obj
 0004:0000046c       $unwind$BN_usub            00000000000add2c     OpensslLib:bn_add.obj
 0004:0000046c       $unwind$BN_mod_mul_reciprocal 00000000000add2c     OpensslLib:bn_recp.obj
 0004:0000046c       $unwind$DH_check_pub_key   00000000000add2c     OpensslLib:dh_check.obj
 0004:0000046c       $unwind$ec_field_inverse_mod_ord 00000000000add2c     OpensslLib:ec_lib.obj
 0004:0000046c       $unwind$ec_guess_cofactor  00000000000add2c     OpensslLib:ec_lib.obj
 0004:0000046c       $unwind$ec_GFp_mont_field_inv 00000000000add2c     OpensslLib:ecp_mont.obj
 0004:0000046c       $unwind$ec_GFp_nist_field_mul 00000000000add2c     OpensslLib:ecp_nist.obj
 0004:0000046c       $unwind$ec_GFp_nist_group_set_curve 00000000000add2c     OpensslLib:ecp_nist.obj
 0004:0000046c       $unwind$ec_GFp_simple_field_inv 00000000000add2c     OpensslLib:ecp_smpl.obj
 0004:0000046c       $unwind$ec_GFp_simple_make_affine 00000000000add2c     OpensslLib:ecp_smpl.obj
 0004:0000046c       $unwind$X509_STORE_CTX_get_by_subject 00000000000add2c     OpensslLib:x509_lu.obj
 0004:0000046c       $unwind$v2i_issuer_alt     00000000000add2c     OpensslLib:v3_alt.obj
 0004:0000046c       $unwind$v2i_subject_alt    00000000000add2c     OpensslLib:v3_alt.obj
 0004:00000488       $unwind$ASN1_STRING_clear_free 00000000000add48     OpensslLib:asn1_lib.obj
 0004:00000488       $unwind$asn1_ex_i2c        00000000000add48     OpensslLib:tasn_enc.obj
 0004:00000488       $unwind$BN_BLINDING_free   00000000000add48     OpensslLib:bn_blind.obj
 0004:00000488       $unwind$BN_clear_free      00000000000add48     OpensslLib:bn_lib.obj
 0004:00000488       $unwind$BN_free            00000000000add48     OpensslLib:bn_lib.obj
 0004:00000488       $unwind$BN_MONT_CTX_free   00000000000add48     OpensslLib:bn_mont.obj
 0004:00000488       $unwind$EC_POINT_clear_free 00000000000add48     OpensslLib:ec_lib.obj
 0004:00000488       $unwind$EC_POINT_free      00000000000add48     OpensslLib:ec_lib.obj
 0004:00000488       $unwind$EVP_PKEY_free      00000000000add48     OpensslLib:p_lib.obj
 0004:00000488       $unwind$EVP_PKEY_CTX_free  00000000000add48     OpensslLib:pmeth_lib.obj
 0004:00000488       $unwind$CRYPTO_clear_free  00000000000add48     OpensslLib:mem.obj
 0004:00000488       $unwind$OPENSSL_sk_free    00000000000add48     OpensslLib:stack.obj
 0004:00000488       $unwind$OPENSSL_sk_sort    00000000000add48     OpensslLib:stack.obj
 0004:00000488       $unwind$X509_OBJECT_free   00000000000add48     OpensslLib:x509_lu.obj
 0004:00000488       $unwind$policy_data_free   00000000000add48     OpensslLib:pcy_data.obj
 0004:00000488       $unwind$i2v_BASIC_CONSTRAINTS 00000000000add48     OpensslLib:v3_bcons.obj
 0004:00000488       $unwind$i2v_POLICY_CONSTRAINTS 00000000000add48     OpensslLib:v3_pcons.obj
 0004:00000488       $unwind$X509V3_conf_free   00000000000add48     OpensslLib:v3_utl.obj
 0004:00000490       $unwind$ED25519_sign       00000000000add50     OpensslLib:curve25519.obj
 0004:00000490       $unwind$x509_object_idx_cnt 00000000000add50     OpensslLib:x509_lu.obj
 0004:000004ac       $unwind$X509_STORE_CTX_get1_certs 00000000000add6c     OpensslLib:x509_lu.obj
 0004:000004c8       $unwind$X509_STORE_CTX_get1_crls 00000000000add88     OpensslLib:x509_lu.obj
 0004:000004e4       $unwind$X509_OBJECT_retrieve_match 00000000000adda4     OpensslLib:x509_lu.obj
 0004:000004fc       $unwind$X509_STORE_CTX_get1_issuer 00000000000addbc     OpensslLib:x509_lu.obj
 0004:00000518       $unwind$ASN1_STRING_set0   00000000000addd8     OpensslLib:asn1_lib.obj
 0004:00000518       $unwind$PKCS8_pkey_set0    00000000000addd8     OpensslLib:p8_pkey.obj
 0004:00000518       $unwind$bn_c2i             00000000000addd8     OpensslLib:x_bignum.obj
 0004:00000518       $unwind$bn_i2c             00000000000addd8     OpensslLib:x_bignum.obj
 0004:00000518       $unwind$mem_init           00000000000addd8     OpensslLib:bss_mem.obj
 0004:00000518       $unwind$mem_read           00000000000addd8     OpensslLib:bss_mem.obj
 0004:00000518       $unwind$BN_add             00000000000addd8     OpensslLib:bn_add.obj
 0004:00000518       $unwind$BN_sub             00000000000addd8     OpensslLib:bn_add.obj
 0004:00000518       $unwind$BN_copy            00000000000addd8     OpensslLib:bn_lib.obj
 0004:00000518       $unwind$BN_sub_word        00000000000addd8     OpensslLib:bn_word.obj
 0004:00000518       $unwind$sec_alloc_realloc  00000000000addd8     OpensslLib:buffer.obj
 0004:00000518       $unwind$pkey_cmac_keygen   00000000000addd8     OpensslLib:cm_pmeth.obj
 0004:00000518       $unwind$CMAC_CTX_copy      00000000000addd8     OpensslLib:cmac.obj
 0004:00000518       $unwind$dh_cmp_parameters  00000000000addd8     OpensslLib:dh_ameth.obj
 0004:00000518       $unwind$dh_copy_parameters 00000000000addd8     OpensslLib:dh_ameth.obj
 0004:00000518       $unwind$int_dh_param_copy  00000000000addd8     OpensslLib:dh_ameth.obj
 0004:00000518       $unwind$d2i_DHxparams      00000000000addd8     OpensslLib:dh_asn1.obj
 0004:00000518       $unwind$DH_compute_key     00000000000addd8     OpensslLib:dh_key.obj
 0004:00000518       $unwind$pkey_dh_ctrl       00000000000addd8     OpensslLib:dh_pmeth.obj
 0004:00000518       $unwind$pt_to_pniels       00000000000addd8     OpensslLib:curve448.obj
 0004:00000518       $unwind$EC_KEY_set_group   00000000000addd8     OpensslLib:ec_key.obj
 0004:00000518       $unwind$ecx_get_priv_key   00000000000addd8     OpensslLib:ecx_meth.obj
 0004:00000518       $unwind$ecx_get_pub_key    00000000000addd8     OpensslLib:ecx_meth.obj
 0004:00000518       $unwind$err_set_error_data_int 00000000000addd8     OpensslLib:err.obj
 0004:00000518       $unwind$enc_free           00000000000addd8     OpensslLib:bio_enc.obj
 0004:00000518       $unwind$EVP_DigestFinal_ex 00000000000addd8     OpensslLib:digest.obj
 0004:00000518       $unwind$aes_gcm_init_key   00000000000addd8     OpensslLib:e_aes.obj
 0004:00000518       $unwind$aes_wrap_init_key  00000000000addd8     OpensslLib:e_aes.obj
 0004:00000518       $unwind$update             00000000000addd8     OpensslLib:m_md5_sha1.obj
 0004:00000518       $unwind$EVP_PKEY_CTX_hex2ctrl 00000000000addd8     OpensslLib:pmeth_lib.obj
 0004:00000518       $unwind$pkey_hmac_copy     00000000000addd8     OpensslLib:hm_pmeth.obj
 0004:00000518       $unwind$pkey_hmac_ctrl_str 00000000000addd8     OpensslLib:hm_pmeth.obj
 0004:00000518       $unwind$pkey_hkdf_ctrl     00000000000addd8     OpensslLib:hkdf.obj
 0004:00000518       $unwind$pkey_tls1_prf_ctrl 00000000000addd8     OpensslLib:tls1_prf.obj
 0004:00000518       $unwind$OPENSSL_LH_new     00000000000addd8     OpensslLib:lhash.obj
 0004:00000518       $unwind$CRYPTO_strndup     00000000000addd8     OpensslLib:o_str.obj
 0004:00000518       $unwind$drbg_ctr_uninstantiate 00000000000addd8     OpensslLib:drbg_ctr.obj
 0004:00000518       $unwind$rsa_md_to_algor    00000000000addd8     OpensslLib:rsa_ameth.obj
 0004:00000518       $unwind$rsa_cb             00000000000addd8     OpensslLib:rsa_asn1.obj
 0004:00000518       $unwind$rsa_get_blinding   00000000000addd8     OpensslLib:rsa_ossl.obj
 0004:00000518       $unwind$rsa_ossl_finish    00000000000addd8     OpensslLib:rsa_ossl.obj
 0004:00000518       $unwind$siphash_set_priv_key 00000000000addd8     OpensslLib:siphash_ameth.obj
 0004:00000518       $unwind$pkey_siphash_copy  00000000000addd8     OpensslLib:siphash_pmeth.obj
 0004:00000518       $unwind$pkey_siphash_ctrl_str 00000000000addd8     OpensslLib:siphash_pmeth.obj
 0004:00000518       $unwind$OPENSSL_sk_new_reserve 00000000000addd8     OpensslLib:stack.obj
 0004:00000518       $unwind$X509_NAME_cmp      00000000000addd8     OpensslLib:x509_cmp.obj
 0004:00000518       $unwind$X509_cmp           00000000000addd8     OpensslLib:x509_cmp.obj
 0004:00000518       $unwind$check_revocation   00000000000addd8     OpensslLib:x509_vfy.obj
 0004:00000518       $unwind$X509_NAME_delete_entry 00000000000addd8     OpensslLib:x509name.obj
 0004:00000518       $unwind$x509_name_ex_i2d   00000000000addd8     OpensslLib:x_name.obj
 0004:00000518       $unwind$tree_add_auth_node 00000000000addd8     OpensslLib:pcy_tree.obj
 0004:00000518       $unwind$nc_match_single    00000000000addd8     OpensslLib:v3_ncons.obj
 0004:00000518       $unwind$nc_uri             00000000000addd8     OpensslLib:v3_ncons.obj
 0004:00000518       $unwind$X509_check_purpose 00000000000addd8     OpensslLib:v3_purp.obj
 0004:00000518       $unwind$X509V3_add_value_int 00000000000addd8     OpensslLib:v3_utl.obj
 0004:00000518       $unwind$rand_pool_acquire_entropy 00000000000addd8     OpensslLib:rand_pool.obj
 0004:00000518       $unwind$InternalAcpiDelay  00000000000addd8     DxeAcpiTimerLib:AcpiTimerLib.obj
 0004:00000528       $unwind$X509_find_by_issuer_and_serial 00000000000adde8     OpensslLib:x509_cmp.obj
 0004:00000544       $unwind$gmtime             00000000000ade04     BaseCryptLib:TimerWrapper.obj
 0004:00000544       $unwind$BN_kronecker       00000000000ade04     OpensslLib:bn_kron.obj
 0004:00000544       $unwind$bn_lshift_fixed_top 00000000000ade04     OpensslLib:bn_shift.obj
 0004:00000544       $unwind$bn_rshift_fixed_top 00000000000ade04     OpensslLib:bn_shift.obj
 0004:00000544       $unwind$aes_gcm_tls_cipher 00000000000ade04     OpensslLib:e_aes.obj
 0004:00000544       $unwind$aria_gcm_tls_cipher 00000000000ade04     OpensslLib:e_aria.obj
 0004:00000544       $unwind$CRYPTO_ctr128_encrypt 00000000000ade04     OpensslLib:ctr128.obj
 0004:00000544       $unwind$CRYPTO_gcm128_aad  00000000000ade04     OpensslLib:gcm128.obj
 0004:00000544       $unwind$rsa_pss_param_print 00000000000ade04     OpensslLib:rsa_ameth.obj
 0004:00000544       $unwind$rsa_get_public_exp 00000000000ade04     OpensslLib:rsa_crpt.obj
 0004:00000544       $unwind$SipHash_Update     00000000000ade04     OpensslLib:siphash.obj
 0004:00000544       $unwind$X509_chain_check_suiteb 00000000000ade04     OpensslLib:x509_cmp.obj
 0004:00000544       $unwind$check_auth_level   00000000000ade04     OpensslLib:x509_vfy.obj
 0004:00000544       $unwind$crl_akid_check     00000000000ade04     OpensslLib:x509_vfy.obj
 0004:00000544       $unwind$X509_VERIFY_PARAM_set1_policies 00000000000ade04     OpensslLib:x509_vpm.obj
 0004:00000544       $unwind$X509V3_get_d2i     00000000000ade04     OpensslLib:v3_lib.obj
 0004:00000560       $unwind$find_issuer        00000000000ade20     OpensslLib:x509_vfy.obj
 0004:00000578       $unwind$rsa_multip_calc_product 00000000000ade38     OpensslLib:rsa_mp.obj
 0004:00000578       $unwind$check_chain_extensions 00000000000ade38     OpensslLib:x509_vfy.obj
 0004:00000590       $unwind$EC_GROUP_new_from_ecparameters 00000000000ade50     OpensslLib:ec_asn1.obj
 0004:00000590       $unwind$ec_asn1_group2curve 00000000000ade50     OpensslLib:ec_asn1.obj
 0004:00000590       $unwind$ec_GFp_simple_group_check_discriminant 00000000000ade50     OpensslLib:ecp_smpl.obj
 0004:00000590       $unwind$enc_write          00000000000ade50     OpensslLib:bio_enc.obj
 0004:00000590       $unwind$evp_EncryptDecryptUpdate 00000000000ade50     OpensslLib:evp_enc.obj
 0004:00000590       $unwind$rand_drbg_restart  00000000000ade50     OpensslLib:drbg_lib.obj
 0004:00000590       $unwind$check_name_constraints 00000000000ade50     OpensslLib:x509_vfy.obj
 0004:000005ac       $unwind$qsort              00000000000ade6c     BaseCryptLib:CrtWrapper.obj
 0004:000005ac       $unwind$ASN1_STRING_set    00000000000ade6c     OpensslLib:asn1_lib.obj
 0004:000005ac       $unwind$ASN1_item_pack     00000000000ade6c     OpensslLib:asn_pack.obj
 0004:000005ac       $unwind$bn_secure_c2i      00000000000ade6c     OpensslLib:x_bignum.obj
 0004:000005ac       $unwind$mem_write          00000000000ade6c     OpensslLib:bss_mem.obj
 0004:000005ac       $unwind$witness            00000000000ade6c     OpensslLib:bn_prime.obj
 0004:000005ac       $unwind$CONF_parse_list    00000000000ade6c     OpensslLib:conf_mod.obj
 0004:000005ac       $unwind$ec_asn1_group2fieldid 00000000000ade6c     OpensslLib:ec_asn1.obj
 0004:000005ac       $unwind$EC_GROUP_new_curve_GFp 00000000000ade6c     OpensslLib:ec_cvt.obj
 0004:000005ac       $unwind$ec_key_simple_check_key 00000000000ade6c     OpensslLib:ec_key.obj
 0004:000005ac       $unwind$EC_GROUP_set_generator 00000000000ade6c     OpensslLib:ec_lib.obj
 0004:000005ac       $unwind$pkey_ec_keygen     00000000000ade6c     OpensslLib:ec_pmeth.obj
 0004:000005ac       $unwind$ecx_key_print      00000000000ade6c     OpensslLib:ecx_meth.obj
 0004:000005ac       $unwind$EVP_CipherInit_ex  00000000000ade6c     OpensslLib:evp_enc.obj
 0004:000005ac       $unwind$EVP_CIPHER_get_asn1_iv 00000000000ade6c     OpensslLib:evp_lib.obj
 0004:000005ac       $unwind$PKCS7_get0_signers 00000000000ade6c     OpensslLib:pk7_smime.obj
 0004:000005ac       $unwind$rand_pool_new      00000000000ade6c     OpensslLib:rand_lib.obj
 0004:000005ac       $unwind$RSA_padding_add_PKCS1_type_2 00000000000ade6c     OpensslLib:rsa_pk1.obj
 0004:000005ac       $unwind$RSA_padding_add_SSLv23 00000000000ade6c     OpensslLib:rsa_ssl.obj
 0004:000005ac       $unwind$ec_field_size      00000000000ade6c     OpensslLib:sm2_crypt.obj
 0004:000005ac       $unwind$check_id           00000000000ade6c     OpensslLib:x509_vfy.obj
 0004:000005ac       $unwind$level_add_node     00000000000ade6c     OpensslLib:pcy_node.obj
 0004:000005ac       $unwind$copy_issuer        00000000000ade6c     OpensslLib:v3_alt.obj
 0004:000005ac       $unwind$v2i_GENERAL_NAME_ex 00000000000ade6c     OpensslLib:v3_alt.obj
 0004:000005ac       $unwind$NAME_CONSTRAINTS_check 00000000000ade6c     OpensslLib:v3_ncons.obj
 0004:000005ac       $unwind$do_i2r_name_constraints 00000000000ade6c     OpensslLib:v3_ncons.obj
 0004:000005c4       $unwind$check_cert         00000000000ade84     OpensslLib:x509_vfy.obj
 0004:000005d8       $unwind$get_crl_sk         00000000000ade98     OpensslLib:x509_vfy.obj
 0004:000005f0       $unwind$check_crl_path     00000000000adeb0     OpensslLib:x509_vfy.obj
 0004:00000600       $unwind$bn_mod_sub_fixed_top 00000000000adec0     OpensslLib:bn_mod.obj
 0004:00000600       $unwind$idp_check_dp       00000000000adec0     OpensslLib:x509_vfy.obj
 0004:00000618       $unwind$crl_crldp_check    00000000000aded8     OpensslLib:x509_vfy.obj
 0004:00000630       $unwind$cert_crl           00000000000adef0     OpensslLib:x509_vfy.obj
 0004:00000630       $unwind$check_leaf_suiteb  00000000000adef0     OpensslLib:x509_vfy.obj
 0004:00000630       $unwind$check_sig_alg_match 00000000000adef0     OpensslLib:v3_purp.obj
 0004:00000640       $unwind$c2i_ibuf           00000000000adf00     OpensslLib:a_int.obj
 0004:00000640       $unwind$BIO_new            00000000000adf00     OpensslLib:bio_lib.obj
 0004:00000640       $unwind$bn_expand2         00000000000adf00     OpensslLib:bn_lib.obj
 0004:00000640       $unwind$BN_mod_sqr         00000000000adf00     OpensslLib:bn_mod.obj
 0004:00000640       $unwind$BN_bn2hex          00000000000adf00     OpensslLib:bn_print.obj
 0004:00000640       $unwind$BUF_MEM_grow       00000000000adf00     OpensslLib:buffer.obj
 0004:00000640       $unwind$BUF_MEM_grow_clean 00000000000adf00     OpensslLib:buffer.obj
 0004:00000640       $unwind$DH_new             00000000000adf00     OpensslLib:dh_lib.obj
 0004:00000640       $unwind$d2i_ECParameters   00000000000adf00     OpensslLib:ec_asn1.obj
 0004:00000640       $unwind$EC_KEY_copy        00000000000adf00     OpensslLib:ec_key.obj
 0004:00000640       $unwind$EC_KEY_oct2key     00000000000adf00     OpensslLib:ec_key.obj
 0004:00000640       $unwind$ec_key_simple_oct2priv 00000000000adf00     OpensslLib:ec_key.obj
 0004:00000640       $unwind$ECDH_compute_key   00000000000adf00     OpensslLib:ec_kmeth.obj
 0004:00000640       $unwind$EC_GROUP_copy      00000000000adf00     OpensslLib:ec_lib.obj
 0004:00000640       $unwind$EC_GROUP_set_seed  00000000000adf00     OpensslLib:ec_lib.obj
 0004:00000640       $unwind$EC_POINT_set_affine_coordinates 00000000000adf00     OpensslLib:ec_lib.obj
 0004:00000640       $unwind$pkey_ec_ctrl       00000000000adf00     OpensslLib:ec_pmeth.obj
 0004:00000640       $unwind$pkey_ec_ctrl_str   00000000000adf00     OpensslLib:ec_pmeth.obj
 0004:00000640       $unwind$pkey_ec_paramgen   00000000000adf00     OpensslLib:ec_pmeth.obj
 0004:00000640       $unwind$ecx_ctrl           00000000000adf00     OpensslLib:ecx_meth.obj
 0004:00000640       $unwind$EVP_DigestFinalXOF 00000000000adf00     OpensslLib:digest.obj
 0004:00000640       $unwind$EVP_MD_CTX_copy_ex 00000000000adf00     OpensslLib:digest.obj
 0004:00000640       $unwind$aes_ccm_init_key   00000000000adf00     OpensslLib:e_aes.obj
 0004:00000640       $unwind$EVP_PKEY_assign    00000000000adf00     OpensslLib:p_lib.obj
 0004:00000640       $unwind$EVP_PKEY_CTX_md    00000000000adf00     OpensslLib:pmeth_lib.obj
 0004:00000640       $unwind$OPENSSL_init_crypto 00000000000adf00     OpensslLib:init.obj
 0004:00000640       $unwind$pkey_hkdf_ctrl_str 00000000000adf00     OpensslLib:hkdf.obj
 0004:00000640       $unwind$pkey_tls1_prf_ctrl_str 00000000000adf00     OpensslLib:tls1_prf.obj
 0004:00000640       $unwind$OPENSSL_hexstr2buf 00000000000adf00     OpensslLib:o_str.obj
 0004:00000640       $unwind$PKCS7_bio_add_digest 00000000000adf00     OpensslLib:pk7_doit.obj
 0004:00000640       $unwind$PKCS7_find_digest  00000000000adf00     OpensslLib:pk7_doit.obj
 0004:00000640       $unwind$rsa_param_decode   00000000000adf00     OpensslLib:rsa_ameth.obj
 0004:00000640       $unwind$pkey_sm2_copy      00000000000adf00     OpensslLib:sm2_pmeth.obj
 0004:00000640       $unwind$pkey_sm2_ctrl_str  00000000000adf00     OpensslLib:sm2_pmeth.obj
 0004:00000640       $unwind$pkey_sm2_encrypt   00000000000adf00     OpensslLib:sm2_pmeth.obj
 0004:00000640       $unwind$check_policy       00000000000adf00     OpensslLib:x509_vfy.obj
 0004:00000640       $unwind$X509_NAME_ENTRY_create_by_OBJ 00000000000adf00     OpensslLib:x509name.obj
 0004:00000640       $unwind$X509_verify        00000000000adf00     OpensslLib:x_all.obj
 0004:00000640       $unwind$x509_pubkey_decode 00000000000adf00     OpensslLib:x_pubkey.obj
 0004:00000640       $unwind$i2s_ASN1_ENUMERATED_TABLE 00000000000adf00     OpensslLib:v3_enum.obj
 0004:00000640       $unwind$i2r_NAME_CONSTRAINTS 00000000000adf00     OpensslLib:v3_ncons.obj
 0004:00000640       $unwind$i2r_pci            00000000000adf00     OpensslLib:v3_pci.obj
 0004:00000640       $unwind$bignum_to_string   00000000000adf00     OpensslLib:v3_utl.obj
 0004:00000650       $unwind$X509_cmp_time      00000000000adf10     OpensslLib:x509_vfy.obj
 0004:00000660       $unwind$X509_time_adj      00000000000adf20     OpensslLib:x509_vfy.obj
 0004:00000668       $unwind$bn_mod_add_fixed_top 00000000000adf28     OpensslLib:bn_mod.obj
 0004:00000668       $unwind$dane_match         00000000000adf28     OpensslLib:x509_vfy.obj
 0004:00000684       $unwind$build_chain        00000000000adf44     OpensslLib:x509_vfy.obj
 0004:0000069c       $unwind$x509_cb            00000000000adf5c     OpensslLib:x_x509.obj
 0004:000006b0       $unwind$ctrl               00000000000adf70     OpensslLib:m_sha1.obj
 0004:000006c0       $unwind$pkey_set_type      00000000000adf80     OpensslLib:p_lib.obj
 0004:000006c0       $unwind$internal_find      00000000000adf80     OpensslLib:stack.obj
 0004:000006cc       $unwind$ERR_STATE_free     00000000000adf8c     OpensslLib:err.obj
 0004:000006cc       $unwind$OPENSSL_sk_pop_free 00000000000adf8c     OpensslLib:stack.obj
 0004:000006e0       $unwind$bio_call_callback  00000000000adfa0     OpensslLib:bio_lib.obj
 0004:000006e0       $unwind$aes_cfb8_cipher    00000000000adfa0     OpensslLib:e_aes.obj
 0004:000006e0       $unwind$X509V3_get_value_bool 00000000000adfa0     OpensslLib:v3_utl.obj
 0004:000006f0       $unwind$BIO_free           00000000000adfb0     OpensslLib:bio_lib.obj
 0004:000006f0       $unwind$pkey_ecd_digestsign448 00000000000adfb0     OpensslLib:ecx_meth.obj
 0004:000006f0       $unwind$aes_ctr_cipher     00000000000adfb0     OpensslLib:e_aes.obj
 0004:000006f8       $unwind$BIO_puts           00000000000adfb8     OpensslLib:bio_lib.obj
 0004:00000708       $unwind$BIO_callback_ctrl  00000000000adfc8     OpensslLib:bio_lib.obj
 0004:00000710       $unwind$ASN1_STRING_free   00000000000adfd0     OpensslLib:asn1_lib.obj
 0004:00000710       $unwind$BIO_free_all       00000000000adfd0     OpensslLib:bio_lib.obj
 0004:00000710       $unwind$BUF_MEM_free       00000000000adfd0     OpensslLib:buffer.obj
 0004:00000710       $unwind$rand_pool_free     00000000000adfd0     OpensslLib:rand_lib.obj
 0004:00000710       $unwind$x509_name_ex_free  00000000000adfd0     OpensslLib:x_name.obj
 0004:00000710       $unwind$i2v_AUTHORITY_KEYID 00000000000adfd0     OpensslLib:v3_akey.obj
 0004:00000710       $unwind$i2v_ASN1_BIT_STRING 00000000000adfd0     OpensslLib:v3_bitst.obj
 0004:0000071c       $unwind$PKCS7_verify       00000000000adfdc     OpensslLib:pk7_smime.obj
 0004:00000734       $unwind$c2i_uint64_int     00000000000adff4     OpensslLib:a_int.obj
 0004:00000734       $unwind$OBJ_NAME_get       00000000000adff4     OpensslLib:o_names.obj
 0004:00000734       $unwind$equal_wildcard     00000000000adff4     OpensslLib:v3_utl.obj
 0004:0000074c       $unwind$OBJ_add_object     00000000000ae00c     OpensslLib:obj_dat.obj
 0004:0000074c       $unwind$ctr_BCC_blocks     00000000000ae00c     OpensslLib:drbg_ctr.obj
 0004:0000074c       $unwind$rsa_priv_encode    00000000000ae00c     OpensslLib:rsa_ameth.obj
 0004:0000075c       $unwind$OBJ_nid2ln         00000000000ae01c     OpensslLib:obj_dat.obj
 0004:0000075c       $unwind$OBJ_nid2obj        00000000000ae01c     OpensslLib:obj_dat.obj
 0004:0000075c       $unwind$OBJ_nid2sn         00000000000ae01c     OpensslLib:obj_dat.obj
 0004:00000764       $unwind$OBJ_obj2nid        00000000000ae024     OpensslLib:obj_dat.obj
 0004:0000076c       $unwind$OBJ_txt2obj        00000000000ae02c     OpensslLib:obj_dat.obj
 0004:0000076c       $unwind$sxnet_v2i          00000000000ae02c     OpensslLib:v3_sxnet.obj
 0004:00000780       $unwind$CRYPTO_ccm128_decrypt_ccm64 00000000000ae040     OpensslLib:ccm128.obj
 0004:00000780       $unwind$CRYPTO_ccm128_encrypt_ccm64 00000000000ae040     OpensslLib:ccm128.obj
 0004:00000780       $unwind$OBJ_obj2txt        00000000000ae040     OpensslLib:obj_dat.obj
 0004:00000798       $unwind$OBJ_ln2nid         00000000000ae058     OpensslLib:obj_dat.obj
 0004:00000798       $unwind$OBJ_sn2nid         00000000000ae058     OpensslLib:obj_dat.obj
 0004:000007a0       $unwind$i2d_X509_NAME      00000000000ae060     OpensslLib:x_name.obj
 0004:000007a8       $unwind$x509_name_ex_d2i   00000000000ae068     OpensslLib:x_name.obj
 0004:000007c4       $unwind$x509_name_encode   00000000000ae084     OpensslLib:x_name.obj
 0004:000007dc       $unwind$x509_name_canon    00000000000ae09c     OpensslLib:x_name.obj
 0004:000007f4       $unwind$asn1_string_canon  00000000000ae0b4     OpensslLib:x_name.obj
 0004:00000804       $unwind$BN_BLINDING_create_param 00000000000ae0c4     OpensslLib:bn_blind.obj
 0004:00000804       $unwind$aes_wrap_cipher    00000000000ae0c4     OpensslLib:e_aes.obj
 0004:00000804       $unwind$RAND_DRBG_reseed   00000000000ae0c4     OpensslLib:drbg_lib.obj
 0004:00000804       $unwind$i2d_name_canon     00000000000ae0c4     OpensslLib:x_name.obj
 0004:00000804       $unwind$do_check_string    00000000000ae0c4     OpensslLib:v3_utl.obj
 0004:00000818       $unwind$X509_NAME_print    00000000000ae0d8     OpensslLib:x_name.obj
 0004:00000830       $unwind$RAND_DRBG_generate 00000000000ae0f0     OpensslLib:drbg_lib.obj
 0004:00000830       $unwind$X509_NAME_add_entry 00000000000ae0f0     OpensslLib:x509name.obj
 0004:0000084c       $unwind$i2c_ibuf           00000000000ae10c     OpensslLib:a_int.obj
 0004:0000084c       $unwind$ASN1_put_object    00000000000ae10c     OpensslLib:asn1_lib.obj
 0004:0000084c       $unwind$make_kn            00000000000ae10c     OpensslLib:cmac.obj
 0004:0000084c       $unwind$gf_mulw_unsigned   00000000000ae10c     OpensslLib:f_impl.obj
 0004:0000084c       $unwind$sc_subx            00000000000ae10c     OpensslLib:scalar.obj
 0004:0000084c       $unwind$gcm_gmult_4bit     00000000000ae10c     OpensslLib:gcm128.obj
 0004:0000084c       $unwind$julian_to_date     00000000000ae10c     OpensslLib:o_time.obj
 0004:0000084c       $unwind$SipHash_Final      00000000000ae10c     OpensslLib:siphash.obj
 0004:0000085c       $unwind$do_esc_char        00000000000ae11c     OpensslLib:a_strex.obj
 0004:00000864       $unwind$do_buf             00000000000ae124     OpensslLib:a_strex.obj
 0004:0000087c       $unwind$do_hex_dump        00000000000ae13c     OpensslLib:a_strex.obj
 0004:00000890       $unwind$do_dump            00000000000ae150     OpensslLib:a_strex.obj
 0004:000008a0       $unwind$do_print_ex        00000000000ae160     OpensslLib:a_strex.obj
 0004:000008b8       $unwind$do_indent          00000000000ae178     OpensslLib:a_strex.obj
 0004:000008c8       $unwind$do_name_ex         00000000000ae188     OpensslLib:a_strex.obj
 0004:000008e4       $unwind$ASN1_STRING_to_UTF8 00000000000ae1a4     OpensslLib:a_strex.obj
 0004:000008e4       $unwind$ASN1_item_d2i      00000000000ae1a4     OpensslLib:tasn_dec.obj
 0004:000008ec       $unwind$sha256_block_data_order 00000000000ae1ac     OpensslLib:sha256.obj
 0004:00000904       $unwind$stbl_module_init   00000000000ae1c4     OpensslLib:asn_mstbl.obj
 0004:00000904       $unwind$ASN1_item_ex_d2i   00000000000ae1c4     OpensslLib:tasn_dec.obj
 0004:00000914       $unwind$asn1_item_embed_d2i 00000000000ae1d4     OpensslLib:tasn_dec.obj
 0004:0000092c       $unwind$asn1_template_ex_d2i 00000000000ae1ec     OpensslLib:tasn_dec.obj
 0004:00000944       $unwind$asn1_template_noexp_d2i 00000000000ae204     OpensslLib:tasn_dec.obj
 0004:0000095c       $unwind$asn1_d2i_ex_primitive 00000000000ae21c     OpensslLib:tasn_dec.obj
 0004:0000097c       $unwind$asn1_ex_c2i        00000000000ae23c     OpensslLib:tasn_dec.obj
 0004:0000097c       $unwind$ec_GFp_simple_point2oct 00000000000ae23c     OpensslLib:ecp_oct.obj
 0004:0000097c       $unwind$ec_GFp_simple_set_compressed_coordinates 00000000000ae23c     OpensslLib:ecp_oct.obj
 0004:0000097c       $unwind$pkey_rsa_print     00000000000ae23c     OpensslLib:rsa_ameth.obj
 0004:00000998       $unwind$asn1_find_end      00000000000ae258     OpensslLib:tasn_dec.obj
 0004:000009a8       $unwind$asn1_collect       00000000000ae268     OpensslLib:tasn_dec.obj
 0004:000009c0       $unwind$asn1_primitive_new 00000000000ae280     OpensslLib:tasn_new.obj
 0004:000009d4       $unwind$c2i_ASN1_INTEGER   00000000000ae294     OpensslLib:a_int.obj
 0004:000009e8       $unwind$asn1_string_get_int64 00000000000ae2a8     OpensslLib:a_int.obj
 0004:000009e8       $unwind$ec_pkey_ctrl       00000000000ae2a8     OpensslLib:ec_ameth.obj
 0004:000009f8       $unwind$asn1_item_embed_free 00000000000ae2b8     OpensslLib:tasn_fre.obj
 0004:00000a10       $unwind$asn1_template_free 00000000000ae2d0     OpensslLib:tasn_fre.obj
 0004:00000a24       $unwind$asn1_item_flags_i2d 00000000000ae2e4     OpensslLib:tasn_enc.obj
 0004:00000a38       $unwind$ASN1_item_ex_i2d   00000000000ae2f8     OpensslLib:tasn_enc.obj
 0004:00000a54       $unwind$asn1_template_ex_i2d 00000000000ae314     OpensslLib:tasn_enc.obj
 0004:00000a70       $unwind$asn1_set_seq_out   00000000000ae330     OpensslLib:tasn_enc.obj
 0004:00000a70       $unwind$BN_generate_prime_ex 00000000000ae330     OpensslLib:bn_prime.obj
 0004:00000a70       $unwind$rsa_ossl_private_encrypt 00000000000ae330     OpensslLib:rsa_ossl.obj
 0004:00000a88       $unwind$asn1_i2d_ex_primitive 00000000000ae348     OpensslLib:tasn_enc.obj
 0004:00000aa0       $unwind$ERR_get_state      00000000000ae360     OpensslLib:err.obj
 0004:00000ab4       $unwind$ERR_add_error_data 00000000000ae374     OpensslLib:err.obj
 0004:00000ac8       $unwind$ASN1_OBJECT_free   00000000000ae388     OpensslLib:a_object.obj
 0004:00000ac8       $unwind$DH_free            00000000000ae388     OpensslLib:dh_lib.obj
 0004:00000ac8       $unwind$EC_KEY_free        00000000000ae388     OpensslLib:ec_key.obj
 0004:00000ac8       $unwind$EC_GROUP_free      00000000000ae388     OpensslLib:ec_lib.obj
 0004:00000ac8       $unwind$RSA_free           00000000000ae388     OpensslLib:rsa_lib.obj
 0004:00000ac8       $unwind$X509_VERIFY_PARAM_free 00000000000ae388     OpensslLib:x509_vpm.obj
 0004:00000ad0       $unwind$determine_days     00000000000ae390     OpensslLib:a_time.obj
 0004:00000ad0       $unwind$BN_rshift1         00000000000ae390     OpensslLib:bn_shift.obj
 0004:00000ad0       $unwind$int_x509_param_set1 00000000000ae390     OpensslLib:x509_vpm.obj
 0004:00000ae4       $unwind$X509_VERIFY_PARAM_lookup 00000000000ae3a4     OpensslLib:x509_vpm.obj
 0004:00000af0       $unwind$crl_cb             00000000000ae3b0     OpensslLib:x_crl.obj
 0004:00000b08       $unwind$def_crl_lookup     00000000000ae3c8     OpensslLib:x_crl.obj
 0004:00000b20       $unwind$get_and_lock       00000000000ae3e0     OpensslLib:ex_data.obj
 0004:00000b28       $unwind$CRYPTO_new_ex_data 00000000000ae3e8     OpensslLib:ex_data.obj
 0004:00000b40       $unwind$CRYPTO_dup_ex_data 00000000000ae400     OpensslLib:ex_data.obj
 0004:00000b5c       $unwind$CRYPTO_free_ex_data 00000000000ae41c     OpensslLib:ex_data.obj
 0004:00000b78       $unwind$ECDSA_size         00000000000ae438     OpensslLib:ec_asn1.obj
 0004:00000b78       $unwind$EC_GROUP_new_by_curve_name 00000000000ae438     OpensslLib:ec_curve.obj
 0004:00000b78       $unwind$X509_TRUST_get_by_id 00000000000ae438     OpensslLib:x509_trs.obj
 0004:00000b78       $unwind$X509_PURPOSE_get_by_id 00000000000ae438     OpensslLib:v3_purp.obj
 0004:00000b80       $unwind$x509v3_cache_extensions 00000000000ae440     OpensslLib:v3_purp.obj
 0004:00000b98       $unwind$X509_NAME_oneline  00000000000ae458     OpensslLib:x509_obj.obj
 0004:00000bb4       $unwind$pkey_dh_derive     00000000000ae474     OpensslLib:dh_pmeth.obj
 0004:00000bb4       $unwind$eckey_param2type   00000000000ae474     OpensslLib:ec_ameth.obj
 0004:00000bb4       $unwind$EC_KEY_priv2buf    00000000000ae474     OpensslLib:ec_key.obj
 0004:00000bb4       $unwind$CRYPTO_gcm128_init 00000000000ae474     OpensslLib:gcm128.obj
 0004:00000bc8       $unwind$EC_GROUP_cmp       00000000000ae488     OpensslLib:ec_lib.obj
 0004:00000be0       $unwind$EC_POINT_mul       00000000000ae4a0     OpensslLib:ec_lib.obj
 0004:00000bf8       $unwind$asn1_time_to_tm    00000000000ae4b8     OpensslLib:a_time.obj
 0004:00000c10       $unwind$asn1_time_from_tm  00000000000ae4d0     OpensslLib:a_time.obj
 0004:00000c28       $unwind$ASN1_TIME_diff     00000000000ae4e8     OpensslLib:a_time.obj
 0004:00000c3c       $unwind$ASN1_TIME_print    00000000000ae4fc     OpensslLib:a_time.obj
 0004:00000c54       $unwind$s2i_ASN1_INTEGER   00000000000ae514     OpensslLib:v3_utl.obj
 0004:00000c64       $unwind$OBJ_find_sigid_algs 00000000000ae524     OpensslLib:obj_xref.obj
 0004:00000c64       $unwind$drbg_ctr_reseed    00000000000ae524     OpensslLib:drbg_ctr.obj
 0004:00000c64       $unwind$X509V3_get_value_int 00000000000ae524     OpensslLib:v3_utl.obj
 0004:00000c70       $unwind$bn_print           00000000000ae530     OpensslLib:x_bignum.obj
 0004:00000c70       $unwind$X509V3_parse_list  00000000000ae530     OpensslLib:v3_utl.obj
 0004:00000c88       $unwind$wildcard_match     00000000000ae548     OpensslLib:v3_utl.obj
 0004:00000ca4       $unwind$BN_is_prime_fasttest_ex 00000000000ae564     OpensslLib:bn_prime.obj
 0004:00000ca4       $unwind$BN_mod_sqrt        00000000000ae564     OpensslLib:bn_sqrt.obj
 0004:00000ca4       $unwind$do_x509_check      00000000000ae564     OpensslLib:v3_utl.obj
 0004:00000cbc       $unwind$ipv4_from_asc      00000000000ae57c     OpensslLib:v3_utl.obj
 0004:00000cc4       $unwind$ipv6_from_asc      00000000000ae584     OpensslLib:v3_utl.obj
 0004:00000cd4       $unwind$RSA_check_key_ex   00000000000ae594     OpensslLib:rsa_chk.obj
 0004:00000cd4       $unwind$tree_init          00000000000ae594     OpensslLib:pcy_tree.obj
 0004:00000cec       $unwind$BN_gcd             00000000000ae5ac     OpensslLib:bn_gcd.obj
 0004:00000cec       $unwind$ec_GFp_simple_oct2point 00000000000ae5ac     OpensslLib:ecp_oct.obj
 0004:00000cec       $unwind$ec_GFp_simple_ladder_pre 00000000000ae5ac     OpensslLib:ecp_smpl.obj
 0004:00000cec       $unwind$CRYPTO_ctr128_encrypt_ctr32 00000000000ae5ac     OpensslLib:ctr128.obj
 0004:00000cec       $unwind$tree_link_nodes    00000000000ae5ac     OpensslLib:pcy_tree.obj
 0004:00000cec       $unwind$print_qualifiers   00000000000ae5ac     OpensslLib:v3_cpols.obj
 0004:00000d04       $unwind$CRYPTO_ccm128_decrypt 00000000000ae5c4     OpensslLib:ccm128.obj
 0004:00000d04       $unwind$tree_link_any      00000000000ae5c4     OpensslLib:pcy_tree.obj
 0004:00000d1c       $unwind$c2i_ASN1_OBJECT    00000000000ae5dc     OpensslLib:a_object.obj
 0004:00000d1c       $unwind$BN_nist_mod_256    00000000000ae5dc     OpensslLib:bn_nist.obj
 0004:00000d1c       $unwind$ec_GFp_simple_dbl  00000000000ae5dc     OpensslLib:ecp_smpl.obj
 0004:00000d1c       $unwind$tree_calculate_user_set 00000000000ae5dc     OpensslLib:pcy_tree.obj
 0004:00000d38       $unwind$BN_CTX_free        00000000000ae5f8     OpensslLib:bn_ctx.obj
 0004:00000d38       $unwind$X509_policy_tree_free 00000000000ae5f8     OpensslLib:pcy_tree.obj
 0004:00000d48       $unwind$X509_policy_check  00000000000ae608     OpensslLib:pcy_tree.obj
 0004:00000d5c       $unwind$v2i_NAME_CONSTRAINTS 00000000000ae61c     OpensslLib:v3_ncons.obj
 0004:00000d74       $unwind$NAME_CONSTRAINTS_check_CN 00000000000ae634     OpensslLib:v3_ncons.obj
 0004:00000d8c       $unwind$nc_match           00000000000ae64c     OpensslLib:v3_ncons.obj
 0004:00000da4       $unwind$set_dist_point_name 00000000000ae664     OpensslLib:v3_crld.obj
 0004:00000dbc       $unwind$c2i_ASN1_BIT_STRING 00000000000ae67c     OpensslLib:a_bitstr.obj
 0004:00000dbc       $unwind$v2i_crld           00000000000ae67c     OpensslLib:v3_crld.obj
 0004:00000dd8       $unwind$ASN1_item_verify   00000000000ae698     OpensslLib:a_verify.obj
 0004:00000dd8       $unwind$ASN1_bn_print      00000000000ae698     OpensslLib:t_pkey.obj
 0004:00000dd8       $unwind$aes_cfb1_cipher    00000000000ae698     OpensslLib:e_aes.obj
 0004:00000dd8       $unwind$aria_128_ofb_cipher 00000000000ae698     OpensslLib:e_aria.obj
 0004:00000dd8       $unwind$aria_192_ofb_cipher 00000000000ae698     OpensslLib:e_aria.obj
 0004:00000dd8       $unwind$aria_256_ofb_cipher 00000000000ae698     OpensslLib:e_aria.obj
 0004:00000dd8       $unwind$sm4_ofb_cipher     00000000000ae698     OpensslLib:e_sm4.obj
 0004:00000dd8       $unwind$tls1_prf_alg       00000000000ae698     OpensslLib:tls1_prf.obj
 0004:00000dd8       $unwind$int_rsa_verify     00000000000ae698     OpensslLib:rsa_sign.obj
 0004:00000dd8       $unwind$policy_cache_set_mapping 00000000000ae698     OpensslLib:pcy_map.obj
 0004:00000dd8       $unwind$policy_section     00000000000ae698     OpensslLib:v3_cpols.obj
 0004:00000dd8       $unwind$r2i_certpol        00000000000ae698     OpensslLib:v3_cpols.obj
 0004:00000dd8       $unwind$v2i_idp            00000000000ae698     OpensslLib:v3_crld.obj
 0004:00000dd8       $unwind$v2i_POLICY_MAPPINGS 00000000000ae698     OpensslLib:v3_pmaps.obj
 0004:00000dd8       $unwind$v2i_TLS_FEATURE    00000000000ae698     OpensslLib:v3_tlsf.obj
 0004:00000df4       $unwind$print_distpoint    00000000000ae6b4     OpensslLib:v3_crld.obj
 0004:00000dfc       $unwind$DIST_POINT_set_dpname 00000000000ae6bc     OpensslLib:v3_crld.obj
 0004:00000e10       $unwind$ec_GFp_mont_group_set_curve 00000000000ae6d0     OpensslLib:ecp_mont.obj
 0004:00000e10       $unwind$policy_cache_create 00000000000ae6d0     OpensslLib:pcy_cache.obj
 0004:00000e2c       $unwind$policy_cache_new   00000000000ae6ec     OpensslLib:pcy_cache.obj
 0004:00000e40       $unwind$pkcs7_encode_rinfo 00000000000ae700     OpensslLib:pk7_doit.obj
 0004:00000e5c       $unwind$PKCS7_dataInit     00000000000ae71c     OpensslLib:pk7_doit.obj
 0004:00000e78       $unwind$do_pkcs7_signed_attrib 00000000000ae738     OpensslLib:pk7_doit.obj
 0004:00000e8c       $unwind$ec_curve_nid_from_params 00000000000ae74c     OpensslLib:ec_curve.obj
 0004:00000e8c       $unwind$PKCS7_dataFinal    00000000000ae74c     OpensslLib:pk7_doit.obj
 0004:00000ea4       $unwind$PKCS7_SIGNER_INFO_sign 00000000000ae764     OpensslLib:pk7_doit.obj
 0004:00000eb8       $unwind$PKCS7_signatureVerify 00000000000ae778     OpensslLib:pk7_doit.obj
 0004:00000ed4       $unwind$ossl_init_get_thread_local 00000000000ae794     OpensslLib:init.obj
 0004:00000edc       $unwind$OBJ_find_sigid_by_algs 00000000000ae79c     OpensslLib:obj_xref.obj
 0004:00000ee4       $unwind$int_ctx_new        00000000000ae7a4     OpensslLib:pmeth_lib.obj
 0004:00000ef8       $unwind$OPENSSL_LH_insert  00000000000ae7b8     OpensslLib:lhash.obj
 0004:00000f0c       $unwind$EC_GROUP_get_ecparameters 00000000000ae7cc     OpensslLib:ec_asn1.obj
 0004:00000f1c       $unwind$d2i_ECPKParameters 00000000000ae7dc     OpensslLib:ec_asn1.obj
 0004:00000f1c       $unwind$d2i_ECPrivateKey   00000000000ae7dc     OpensslLib:ec_asn1.obj
 0004:00000f2c       $unwind$i2d_ECPrivateKey   00000000000ae7ec     OpensslLib:ec_asn1.obj
 0004:00000f44       $unwind$i2d_ECParameters   00000000000ae804     OpensslLib:ec_asn1.obj
 0004:00000f54       $unwind$ASN1_item_i2d_bio  00000000000ae814     OpensslLib:a_i2d_fp.obj
 0004:00000f64       $unwind$RSA_new_method     00000000000ae824     OpensslLib:rsa_lib.obj
 0004:00000f70       $unwind$md5_block_data_order 00000000000ae830     OpensslLib:md5_dgst.obj
 0004:00000f88       $unwind$BN_dec2bn          00000000000ae848     OpensslLib:bn_print.obj
 0004:00000fa0       $unwind$aria_encrypt       00000000000ae860     OpensslLib:aria.obj
 0004:00000fa0       $unwind$bn2binpad          00000000000ae860     OpensslLib:bn_lib.obj
 0004:00000fa0       $unwind$aes_ccm_tls_cipher 00000000000ae860     OpensslLib:e_aes.obj
 0004:00000fa0       $unwind$aria_128_cfb1_cipher 00000000000ae860     OpensslLib:e_aria.obj
 0004:00000fa0       $unwind$aria_128_cfb8_cipher 00000000000ae860     OpensslLib:e_aria.obj
 0004:00000fa0       $unwind$aria_192_cfb1_cipher 00000000000ae860     OpensslLib:e_aria.obj
 0004:00000fa0       $unwind$aria_192_cfb8_cipher 00000000000ae860     OpensslLib:e_aria.obj
 0004:00000fa0       $unwind$aria_256_cfb1_cipher 00000000000ae860     OpensslLib:e_aria.obj
 0004:00000fa0       $unwind$aria_256_cfb8_cipher 00000000000ae860     OpensslLib:e_aria.obj
 0004:00000fa0       $unwind$aria_ccm_tls_cipher 00000000000ae860     OpensslLib:e_aria.obj
 0004:00000fa0       $unwind$pkey_rsa_encrypt   00000000000ae860     OpensslLib:rsa_pmeth.obj
 0004:00000fa0       $unwind$RSA_sign           00000000000ae860     OpensslLib:rsa_sign.obj
 0004:00000fa0       $unwind$a2i_GENERAL_NAME   00000000000ae860     OpensslLib:v3_alt.obj
 0004:00000fa0       $unwind$v2i_EXTENDED_KEY_USAGE 00000000000ae860     OpensslLib:v3_extku.obj
 0004:00000fb8       $unwind$BN_consttime_swap  00000000000ae878     OpensslLib:bn_lib.obj
 0004:00000fc4       $unwind$a2d_ASN1_OBJECT    00000000000ae884     OpensslLib:a_object.obj
 0004:00000fdc       $unwind$i2a_ASN1_OBJECT    00000000000ae89c     OpensslLib:a_object.obj
 0004:00000ff0       $unwind$d2i_ASN1_OBJECT    00000000000ae8b0     OpensslLib:a_object.obj
 0004:00000ff8       $unwind$EVP_PKEY_asn1_find 00000000000ae8b8     OpensslLib:ameth_lib.obj
 0004:00001004       $unwind$CMAC_CTX_free      00000000000ae8c4     OpensslLib:cmac.obj
 0004:00001004       $unwind$EC_ec_pre_comp_free 00000000000ae8c4     OpensslLib:ec_mult.obj
 0004:00001004       $unwind$HMAC_CTX_free      00000000000ae8c4     OpensslLib:hmac.obj
 0004:00001004       $unwind$RAND_DRBG_free     00000000000ae8c4     OpensslLib:drbg_lib.obj
 0004:00001010       $unwind$CMAC_Init          00000000000ae8d0     OpensslLib:cmac.obj
 0004:00001028       $unwind$ASN1_STRING_set_by_NID 00000000000ae8e8     OpensslLib:a_strnid.obj
 0004:00001028       $unwind$aes_cfb_cipher     00000000000ae8e8     OpensslLib:e_aes.obj
 0004:00001028       $unwind$aes_ofb_cipher     00000000000ae8e8     OpensslLib:e_aes.obj
 0004:00001028       $unwind$aria_ctr_cipher    00000000000ae8e8     OpensslLib:e_aria.obj
 0004:00001028       $unwind$sm4_ctr_cipher     00000000000ae8e8     OpensslLib:e_sm4.obj
 0004:00001034       $unwind$ASN1_STRING_TABLE_get 00000000000ae8f4     OpensslLib:a_strnid.obj
 0004:0000103c       $unwind$ASN1_STRING_print  00000000000ae8fc     OpensslLib:a_print.obj
 0004:00001050       $unwind$ASN1_mbstring_ncopy 00000000000ae910     OpensslLib:a_mbstr.obj
 0004:00001068       $unwind$traverse_string    00000000000ae928     OpensslLib:a_mbstr.obj
 0004:00001068       $unwind$md_read            00000000000ae928     OpensslLib:bio_md.obj
 0004:0000107c       $unwind$uint32_i2c         00000000000ae93c     OpensslLib:x_int64.obj
 0004:0000107c       $unwind$ecx_priv_decode    00000000000ae93c     OpensslLib:ecx_meth.obj
 0004:0000108c       $unwind$uint32_c2i         00000000000ae94c     OpensslLib:x_int64.obj
 0004:000010a0       $unwind$ASN1_TYPE_set      00000000000ae960     OpensslLib:a_type.obj
 0004:000010ac       $unwind$dh_priv_encode     00000000000ae96c     OpensslLib:dh_ameth.obj
 0004:000010ac       $unwind$aria_128_cfb128_cipher 00000000000ae96c     OpensslLib:e_aria.obj
 0004:000010ac       $unwind$aria_192_cfb128_cipher 00000000000ae96c     OpensslLib:e_aria.obj
 0004:000010ac       $unwind$aria_256_cfb128_cipher 00000000000ae96c     OpensslLib:e_aria.obj
 0004:000010ac       $unwind$sm4_cfb128_cipher  00000000000ae96c     OpensslLib:e_sm4.obj
 0004:000010ac       $unwind$v2i_BASIC_CONSTRAINTS 00000000000ae96c     OpensslLib:v3_bcons.obj
 0004:000010ac       $unwind$v2i_POLICY_CONSTRAINTS 00000000000ae96c     OpensslLib:v3_pcons.obj
 0004:000010c0       $unwind$ec_group_new_from_data 00000000000ae980     OpensslLib:ec_curve.obj
 0004:000010d8       $unwind$bn_compute_wNAF    00000000000ae998     OpensslLib:bn_intern.obj
 0004:000010f0       $unwind$bnrand             00000000000ae9b0     OpensslLib:bn_rand.obj
 0004:0000110c       $unwind$BN_generate_dsa_nonce 00000000000ae9cc     OpensslLib:bn_rand.obj
 0004:0000112c       $unwind$BN_mod_mul         00000000000ae9ec     OpensslLib:bn_mod.obj
 0004:0000112c       $unwind$bn_mul_mont_fixed_top 00000000000ae9ec     OpensslLib:bn_mont.obj
 0004:00001144       $unwind$bn_from_montgomery_word 00000000000aea04     OpensslLib:bn_mont.obj
 0004:0000115c       $unwind$BN_MONT_CTX_set    00000000000aea1c     OpensslLib:bn_mont.obj
 0004:00001178       $unwind$ec_scalar_mul_ladder 00000000000aea38     OpensslLib:ec_mult.obj
 0004:00001178       $unwind$ec_GFp_simple_ladder_post 00000000000aea38     OpensslLib:ecp_smpl.obj
 0004:00001178       $unwind$ec_GFp_simple_points_make_affine 00000000000aea38     OpensslLib:ecp_smpl.obj
 0004:00001190       $unwind$ec_wNAF_mul        00000000000aea50     OpensslLib:ec_mult.obj
 0004:000011ac       $unwind$bn_div_fixed_top   00000000000aea6c     OpensslLib:bn_div.obj
 0004:000011ac       $unwind$notice_section     00000000000aea6c     OpensslLib:v3_cpols.obj
 0004:000011c4       $unwind$BN_mod_exp_recp    00000000000aea84     OpensslLib:bn_exp.obj
 0004:000011e0       $unwind$BN_mod_exp_mont    00000000000aeaa0     OpensslLib:bn_exp.obj
 0004:00001200       $unwind$MOD_EXP_CTIME_COPY_FROM_PREBUF 00000000000aeac0     OpensslLib:bn_exp.obj
 0004:00001218       $unwind$BN_mod_exp_mont_consttime 00000000000aead8     OpensslLib:bn_exp.obj
 0004:00001218       $unwind$bn_mod_inverse_no_branch 00000000000aead8     OpensslLib:bn_gcd.obj
 0004:00001230       $unwind$BN_mod_exp_mont_word 00000000000aeaf0     OpensslLib:bn_exp.obj
 0004:00001230       $unwind$ec_GFp_simple_ladder_step 00000000000aeaf0     OpensslLib:ecp_smpl.obj
 0004:00001248       $unwind$OPENSSL_gmtime_adj 00000000000aeb08     OpensslLib:o_time.obj
 0004:00001250       $unwind$OPENSSL_gmtime_diff 00000000000aeb10     OpensslLib:o_time.obj
 0004:00001260       $unwind$i2v_AUTHORITY_INFO_ACCESS 00000000000aeb20     OpensslLib:v3_info.obj
 0004:0000127c       $unwind$v2i_AUTHORITY_INFO_ACCESS 00000000000aeb3c     OpensslLib:v3_info.obj
 0004:00001298       $unwind$X509V3_EXT_get_nid 00000000000aeb58     OpensslLib:v3_lib.obj
 0004:000012a4       $unwind$i2v_GENERAL_NAME   00000000000aeb64     OpensslLib:v3_alt.obj
 0004:000012b4       $unwind$rand_drbg_get_entropy 00000000000aeb74     OpensslLib:rand_lib.obj
 0004:000012c8       $unwind$enc_read           00000000000aeb88     OpensslLib:bio_enc.obj
 0004:000012c8       $unwind$v2i_AUTHORITY_KEYID 00000000000aeb88     OpensslLib:v3_akey.obj
 0004:000012e0       $unwind$enc_ctrl           00000000000aeba0     OpensslLib:bio_enc.obj
 0004:000012e0       $unwind$rsa_pss_get_param  00000000000aeba0     OpensslLib:rsa_ameth.obj
 0004:000012f8       $unwind$do_sigver_init     00000000000aebb8     OpensslLib:m_sigver.obj
 0004:0000130c       $unwind$EVP_DigestSignFinal 00000000000aebcc     OpensslLib:m_sigver.obj
 0004:0000130c       $unwind$EVP_DigestVerifyFinal 00000000000aebcc     OpensslLib:m_sigver.obj
 0004:0000130c       $unwind$EVP_VerifyFinal    00000000000aebcc     OpensslLib:p_verify.obj
 0004:00001324       $unwind$md_write           00000000000aebe4     OpensslLib:bio_md.obj
 0004:00001324       $unwind$rsa_sig_print      00000000000aebe4     OpensslLib:rsa_ameth.obj
 0004:00001324       $unwind$RandGetBytes       00000000000aebe4     OpensslLib:rand_pool.obj
 0004:00001338       $unwind$EVP_SignFinal      00000000000aebf8     OpensslLib:p_sign.obj
 0004:0000134c       $unwind$RAND_DRBG_instantiate 00000000000aec0c     OpensslLib:drbg_lib.obj
 0004:00001360       $unwind$BN_nist_mod_192    00000000000aec20     OpensslLib:bn_nist.obj
 0004:00001360       $unwind$generate_key       00000000000aec20     OpensslLib:dh_key.obj
 0004:00001360       $unwind$aes_ccm_cipher     00000000000aec20     OpensslLib:e_aes.obj
 0004:00001360       $unwind$aria_ccm_cipher    00000000000aec20     OpensslLib:e_aria.obj
 0004:00001360       $unwind$drbg_ctr_instantiate 00000000000aec20     OpensslLib:drbg_ctr.obj
 0004:00001360       $unwind$RAND_DRBG_bytes    00000000000aec20     OpensslLib:drbg_lib.obj
 0004:0000137c       $unwind$drbg_add           00000000000aec3c     OpensslLib:drbg_lib.obj
 0004:0000138c       $unwind$RAND_DRBG_get0_private 00000000000aec4c     OpensslLib:drbg_lib.obj
 0004:0000139c       $unwind$pkey_dh_ctrl_str   00000000000aec5c     OpensslLib:dh_pmeth.obj
 0004:000013b0       $unwind$ecx_key_op         00000000000aec70     OpensslLib:ecx_meth.obj
 0004:000013d0       $unwind$ecx_priv_encode    00000000000aec90     OpensslLib:ecx_meth.obj
 0004:000013e0       $unwind$pkey_ecx_derive25519 00000000000aeca0     OpensslLib:ecx_meth.obj
 0004:000013e0       $unwind$pkey_ecx_derive448 00000000000aeca0     OpensslLib:ecx_meth.obj
 0004:000013e0       $unwind$rsa_pkey_ctrl      00000000000aeca0     OpensslLib:rsa_ameth.obj
 0004:000013ec       $unwind$pkey_ecd_digestverify448 00000000000aecac     OpensslLib:ecx_meth.obj
 0004:000013ec       $unwind$pkey_tls1_prf_derive 00000000000aecac     OpensslLib:tls1_prf.obj
 0004:000013f4       $unwind$pkey_rsa_sign      00000000000aecb4     OpensslLib:rsa_pmeth.obj
 0004:000013f4       $unwind$SXNET_add_id_INTEGER 00000000000aecb4     OpensslLib:v3_sxnet.obj
 0004:0000140c       $unwind$pkey_ec_sign       00000000000aeccc     OpensslLib:ec_pmeth.obj
 0004:0000140c       $unwind$pkey_rsa_verifyrecover 00000000000aeccc     OpensslLib:rsa_pmeth.obj
 0004:00001420       $unwind$pkey_rsa_verify    00000000000aece0     OpensslLib:rsa_pmeth.obj
 0004:00001434       $unwind$pkey_rsa_decrypt   00000000000aecf4     OpensslLib:rsa_pmeth.obj
 0004:00001448       $unwind$pkey_rsa_ctrl_str  00000000000aed08     OpensslLib:rsa_pmeth.obj
 0004:0000145c       $unwind$pkey_pss_init      00000000000aed1c     OpensslLib:rsa_pmeth.obj
 0004:0000146c       $unwind$tls1_prf_P_hash    00000000000aed2c     OpensslLib:tls1_prf.obj
 0004:00001488       $unwind$pkey_hkdf_derive   00000000000aed48     OpensslLib:hkdf.obj
 0004:000014a0       $unwind$HKDF_Extract       00000000000aed60     OpensslLib:hkdf.obj
 0004:000014b8       $unwind$HKDF_Expand        00000000000aed78     OpensslLib:hkdf.obj
 0004:000014d0       $unwind$dh_pkey_param_check 00000000000aed90     OpensslLib:dh_ameth.obj
 0004:000014d0       $unwind$pkey_sm2_sign      00000000000aed90     OpensslLib:sm2_pmeth.obj
 0004:000014e4       $unwind$pkey_sm2_verify    00000000000aeda4     OpensslLib:sm2_pmeth.obj
 0004:000014f8       $unwind$pkey_sm2_digest_custom 00000000000aedb8     OpensslLib:sm2_pmeth.obj
 0004:00001510       $unwind$pkey_ec_kdf_derive 00000000000aedd0     OpensslLib:ec_pmeth.obj
 0004:00001510       $unwind$drbg_ctr_generate  00000000000aedd0     OpensslLib:drbg_ctr.obj
 0004:00001528       $unwind$BIO_dump_indent_cb 00000000000aede8     OpensslLib:b_dump.obj
 0004:00001548       $unwind$rsa_ossl_public_encrypt 00000000000aee08     OpensslLib:rsa_ossl.obj
 0004:00001548       $unwind$RSA_padding_add_PKCS1_PSS_mgf1 00000000000aee08     OpensslLib:rsa_pss.obj
 0004:00001560       $unwind$rsa_ossl_private_decrypt 00000000000aee20     OpensslLib:rsa_ossl.obj
 0004:0000157c       $unwind$rsa_ossl_public_decrypt 00000000000aee3c     OpensslLib:rsa_ossl.obj
 0004:00001594       $unwind$rsa_ossl_mod_exp   00000000000aee54     OpensslLib:rsa_ossl.obj
 0004:000015b0       $unwind$bn_mul_add_words   00000000000aee70     OpensslLib:bn_asm.obj
 0004:000015b0       $unwind$gf_deserialize     00000000000aee70     OpensslLib:f_generic.obj
 0004:000015c4       $unwind$bn_mul_words       00000000000aee84     OpensslLib:bn_asm.obj
 0004:000015dc       $unwind$compute_key        00000000000aee9c     OpensslLib:dh_key.obj
 0004:000015f4       $unwind$dh_pub_decode      00000000000aeeb4     OpensslLib:dh_ameth.obj
 0004:000015f4       $unwind$eckey_pub_encode   00000000000aeeb4     OpensslLib:ec_ameth.obj
 0004:000015f4       $unwind$rsa_pub_encode     00000000000aeeb4     OpensslLib:rsa_ameth.obj
 0004:00001604       $unwind$eckey_priv_decode  00000000000aeec4     OpensslLib:ec_ameth.obj
 0004:00001604       $unwind$eckey_pub_decode   00000000000aeec4     OpensslLib:ec_ameth.obj
 0004:0000161c       $unwind$eckey_priv_encode  00000000000aeedc     OpensslLib:ec_ameth.obj
 0004:00001630       $unwind$do_EC_KEY_print    00000000000aeef0     OpensslLib:ec_ameth.obj
 0004:0000164c       $unwind$FO                 00000000000aef0c     OpensslLib:aria.obj
 0004:0000164c       $unwind$rsa_priv_decode    00000000000aef0c     OpensslLib:rsa_ameth.obj
 0004:0000164c       $unwind$rsa_pub_decode     00000000000aef0c     OpensslLib:rsa_ameth.obj
 0004:0000165c       $unwind$mask_cb            00000000000aef1c     OpensslLib:asn1_gen.obj
 0004:0000165c       $unwind$rsa_pss_decode     00000000000aef1c     OpensslLib:rsa_ameth.obj
 0004:00001668       $unwind$rsa_md_to_mgf1     00000000000aef28     OpensslLib:rsa_ameth.obj
 0004:00001678       $unwind$rsa_ctx_to_pss_string 00000000000aef38     OpensslLib:rsa_ameth.obj
 0004:00001688       $unwind$rsa_pss_to_ctx     00000000000aef48     OpensslLib:rsa_ameth.obj
 0004:000016a0       $unwind$rsa_item_sign      00000000000aef60     OpensslLib:rsa_ameth.obj
 0004:000016b0       $unwind$rsa_sig_info_set   00000000000aef70     OpensslLib:rsa_ameth.obj
 0004:000016c0       $unwind$i2d_dhp            00000000000aef80     OpensslLib:dh_ameth.obj
 0004:000016c8       $unwind$dh_pub_encode      00000000000aef88     OpensslLib:dh_ameth.obj
 0004:000016dc       $unwind$dh_priv_decode     00000000000aef9c     OpensslLib:dh_ameth.obj
 0004:000016f0       $unwind$do_dh_print        00000000000aefb0     OpensslLib:dh_ameth.obj
 0004:00001708       $unwind$bn_mul_fixed_top   00000000000aefc8     OpensslLib:bn_mul.obj
 0004:00001724       $unwind$hash_init_with_dom 00000000000aefe4     OpensslLib:eddsa.obj
 0004:00001724       $unwind$ossl_ecdsa_sign    00000000000aefe4     OpensslLib:ecdsa_ossl.obj
 0004:0000172c       $unwind$ecdsa_sign_setup   00000000000aefec     OpensslLib:ecdsa_ossl.obj
 0004:00001744       $unwind$int_bn_mod_inverse 00000000000af004     OpensslLib:bn_gcd.obj
 0004:00001744       $unwind$ossl_ecdsa_sign_sig 00000000000af004     OpensslLib:ecdsa_ossl.obj
 0004:0000175c       $unwind$ossl_ecdsa_verify_sig 00000000000af01c     OpensslLib:ecdsa_ossl.obj
 0004:00001774       $unwind$ecdh_simple_compute_key 00000000000af034     OpensslLib:ecdh_ossl.obj
 0004:0000178c       $unwind$bn_sqr_fixed_top   00000000000af04c     OpensslLib:bn_sqr.obj
 0004:000017ac       $unwind$bn_sqr_normal      00000000000af06c     OpensslLib:bn_sqr.obj
 0004:000017c4       $unwind$BN_div_recp        00000000000af084     OpensslLib:bn_recp.obj
 0004:000017dc       $unwind$i2v_EXTENDED_KEY_USAGE 00000000000af09c     OpensslLib:v3_extku.obj
 0004:000017ec       $unwind$v2i_ASN1_BIT_STRING 00000000000af0ac     OpensslLib:v3_bitst.obj
 0004:00001808       $unwind$i2r_ocsp_crlid     00000000000af0c8     OpensslLib:v3_ocsp.obj
 0004:0000181c       $unwind$i2r_NAMING_AUTHORITY 00000000000af0dc     OpensslLib:v3_admis.obj
 0004:00001838       $unwind$i2r_ADMISSION_SYNTAX 00000000000af0f8     OpensslLib:v3_admis.obj
 0004:00001858       $unwind$s2i_skey_id        00000000000af118     OpensslLib:v3_skey.obj
 0004:00001868       $unwind$i2v_POLICY_MAPPINGS 00000000000af128     OpensslLib:v3_pmaps.obj
 0004:00001880       $unwind$process_pci_value  00000000000af140     OpensslLib:v3_pci.obj
 0004:0000189c       $unwind$r2i_pci            00000000000af15c     OpensslLib:v3_pci.obj
 0004:000018b4       $unwind$i2v_TLS_FEATURE    00000000000af174     OpensslLib:v3_tlsf.obj
 0004:000018c8       $unwind$generate_v3        00000000000af188     OpensslLib:asn1_gen.obj
 0004:000018e8       $unwind$asn1_cb            00000000000af1a8     OpensslLib:asn1_gen.obj
 0004:00001900       $unwind$asn1_str2type      00000000000af1c0     OpensslLib:asn1_gen.obj
 0004:00001914       $unwind$HMAC_Init_ex       00000000000af1d4     OpensslLib:hmac.obj
 0004:00001934       $unwind$HMAC_Final         00000000000af1f4     OpensslLib:hmac.obj
 0004:00001944       $unwind$aes_gcm_ctrl       00000000000af204     OpensslLib:e_aes.obj
 0004:00001944       $unwind$aria_gcm_ctrl      00000000000af204     OpensslLib:e_aria.obj
 0004:0000195c       $unwind$ctr_df             00000000000af21c     OpensslLib:drbg_ctr.obj
 0004:00001974       $unwind$ctr_update         00000000000af234     OpensslLib:drbg_ctr.obj
 0004:00001994       $unwind$drbg_ctr_init      00000000000af254     OpensslLib:drbg_ctr.obj
 0004:000019ac       $unwind$ctrl               00000000000af26c     OpensslLib:m_md5_sha1.obj
 0004:000019c4       $unwind$dh_builtin_genparams 00000000000af284     OpensslLib:dh_gen.obj
 0004:000019e0       $unwind$c448_ed448_sign    00000000000af2a0     OpensslLib:eddsa.obj
 0004:00001a00       $unwind$c448_ed448_verify  00000000000af2c0     OpensslLib:eddsa.obj
 0004:00001a20       $unwind$ED448_public_from_private 00000000000af2e0     OpensslLib:eddsa.obj
 0004:00001a3c       $unwind$fe_frombytes       00000000000af2fc     OpensslLib:curve25519.obj
 0004:00001a54       $unwind$fe_tobytes         00000000000af314     OpensslLib:curve25519.obj
 0004:00001a70       $unwind$fe_mul             00000000000af330     OpensslLib:curve25519.obj
 0004:00001a88       $unwind$fe_sq              00000000000af348     OpensslLib:curve25519.obj
 0004:00001a88       $unwind$fe_sq2             00000000000af348     OpensslLib:curve25519.obj
 0004:00001aa0       $unwind$fe_invert          00000000000af360     OpensslLib:curve25519.obj
 0004:00001abc       $unwind$fe_pow22523        00000000000af37c     OpensslLib:curve25519.obj
 0004:00001ad8       $unwind$ge_p3_tobytes      00000000000af398     OpensslLib:curve25519.obj
 0004:00001ae8       $unwind$ge_frombytes_vartime 00000000000af3a8     OpensslLib:curve25519.obj
 0004:00001b04       $unwind$ge_p2_dbl          00000000000af3c4     OpensslLib:curve25519.obj
 0004:00001b04       $unwind$cfbr_encrypt_block 00000000000af3c4     OpensslLib:cfb128.obj
 0004:00001b1c       $unwind$ge_p3_dbl          00000000000af3dc     OpensslLib:curve25519.obj
 0004:00001b30       $unwind$ge_add             00000000000af3f0     OpensslLib:curve25519.obj
 0004:00001b30       $unwind$ge_madd            00000000000af3f0     OpensslLib:curve25519.obj
 0004:00001b4c       $unwind$table_select       00000000000af40c     OpensslLib:curve25519.obj
 0004:00001b6c       $unwind$ge_scalarmult_base 00000000000af42c     OpensslLib:curve25519.obj
 0004:00001b88       $unwind$x25519_scalar_mult_generic 00000000000af448     OpensslLib:curve25519.obj
 0004:00001ba4       $unwind$slide              00000000000af464     OpensslLib:curve25519.obj
 0004:00001bbc       $unwind$ge_double_scalarmult_vartime 00000000000af47c     OpensslLib:curve25519.obj
 0004:00001bdc       $unwind$x25519_sc_reduce   00000000000af49c     OpensslLib:curve25519.obj
 0004:00001bf4       $unwind$sc_muladd          00000000000af4b4     OpensslLib:curve25519.obj
 0004:00001c0c       $unwind$ED25519_verify     00000000000af4cc     OpensslLib:curve25519.obj
 0004:00001c2c       $unwind$X25519_public_from_private 00000000000af4ec     OpensslLib:curve25519.obj
 0004:00001c3c       $unwind$ASN1_buf_print     00000000000af4fc     OpensslLib:t_pkey.obj
 0004:00001c50       $unwind$gf_cond_neg        00000000000af510     OpensslLib:curve448.obj
 0004:00001c50       $unwind$gf_sqrn            00000000000af510     OpensslLib:f_generic.obj
 0004:00001c5c       $unwind$gf_invert          00000000000af51c     OpensslLib:curve448.obj
 0004:00001c70       $unwind$point_double_internal 00000000000af530     OpensslLib:curve448.obj
 0004:00001c90       $unwind$add_pniels_to_pt   00000000000af550     OpensslLib:curve448.obj
 0004:00001c90       $unwind$pniels_to_pt       00000000000af550     OpensslLib:curve448.obj
 0004:00001c90       $unwind$gf_serialize       00000000000af550     OpensslLib:f_generic.obj
 0004:00001ca4       $unwind$add_niels_to_pt    00000000000af564     OpensslLib:curve448.obj
 0004:00001ca4       $unwind$sub_niels_from_pt  00000000000af564     OpensslLib:curve448.obj
 0004:00001cc4       $unwind$curve448_precomputed_scalarmul 00000000000af584     OpensslLib:curve448.obj
 0004:00001ce0       $unwind$curve448_point_mul_by_ratio_and_encode_like_eddsa 00000000000af5a0     OpensslLib:curve448.obj
 0004:00001cf4       $unwind$curve448_point_decode_like_eddsa_and_mul_by_ratio 00000000000af5b4     OpensslLib:curve448.obj
 0004:00001d14       $unwind$x448_int           00000000000af5d4     OpensslLib:curve448.obj
 0004:00001d34       $unwind$recode_wnaf        00000000000af5f4     OpensslLib:curve448.obj
 0004:00001d50       $unwind$curve448_base_double_scalarmul_non_secret 00000000000af610     OpensslLib:curve448.obj
 0004:00001d70       $unwind$X448_public_from_private 00000000000af630     OpensslLib:curve448.obj
 0004:00001d88       $unwind$RSA_sign_ASN1_OCTET_STRING 00000000000af648     OpensslLib:rsa_saos.obj
 0004:00001da0       $unwind$RSA_padding_add_PKCS1_OAEP_mgf1 00000000000af660     OpensslLib:rsa_oaep.obj
 0004:00001db8       $unwind$RSA_padding_check_PKCS1_OAEP_mgf1 00000000000af678     OpensslLib:rsa_oaep.obj
 0004:00001dd4       $unwind$PKCS1_MGF1         00000000000af694     OpensslLib:rsa_oaep.obj
 0004:00001dec       $unwind$rsa_builtin_keygen 00000000000af6ac     OpensslLib:rsa_gen.obj
 0004:00001e08       $unwind$encode_pkcs1       00000000000af6c8     OpensslLib:rsa_sign.obj
 0004:00001e1c       $unwind$RSA_verify_PKCS1_PSS_mgf1 00000000000af6dc     OpensslLib:rsa_pss.obj
 0004:00001e38       $unwind$sm2_sig_gen        00000000000af6f8     OpensslLib:sm2_sign.obj
 0004:00001e50       $unwind$sm2_sig_verify     00000000000af710     OpensslLib:sm2_sign.obj
 0004:00001e68       $unwind$sm2_sign           00000000000af728     OpensslLib:sm2_sign.obj
 0004:00001e7c       $unwind$sm2_encrypt        00000000000af73c     OpensslLib:sm2_crypt.obj
 0004:00001e98       $unwind$sm2_decrypt        00000000000af758     OpensslLib:sm2_crypt.obj
 0004:00001eb0       $unwind$ecdh_KDF_X9_63     00000000000af770     OpensslLib:ecdh_kdf.obj
 0004:00001ec8       $unwind$BN_nist_mod_224    00000000000af788     OpensslLib:bn_nist.obj
 0004:00001ee4       $unwind$BN_nist_mod_384    00000000000af7a4     OpensslLib:bn_nist.obj
 0004:00001efc       $unwind$BN_nist_mod_521    00000000000af7bc     OpensslLib:bn_nist.obj
 0004:00001f18       $unwind$RSA_padding_check_PKCS1_type_2 00000000000af7d8     OpensslLib:rsa_pk1.obj
 0004:00001f34       $unwind$RSA_padding_check_SSLv23 00000000000af7f4     OpensslLib:rsa_ssl.obj
 0004:00001f50       $unwind$ECPKParameters_print 00000000000af810     OpensslLib:eck_prn.obj
 0004:00001f68       $unwind$print_bin          00000000000af828     OpensslLib:eck_prn.obj
 0004:00001f84       $unwind$X509_signature_dump 00000000000af844     OpensslLib:t_x509.obj
 0004:00001fa0       $unwind$i2a_ASN1_INTEGER   00000000000af860     OpensslLib:f_int.obj
 0004:00001fb4       $unwind$i2a_ASN1_STRING    00000000000af874     OpensslLib:f_string.obj
 0004:00001fc8       $unwind$SM4_set_key        00000000000af888     OpensslLib:sm4.obj
 0004:00001fd8       $unwind$CRYPTO_cbc128_encrypt 00000000000af898     OpensslLib:cbc128.obj
 0004:00001ff0       $unwind$CRYPTO_cbc128_decrypt 00000000000af8b0     OpensslLib:cbc128.obj
 0004:00002008       $unwind$CRYPTO_cfb128_1_encrypt 00000000000af8c8     OpensslLib:cfb128.obj
 0004:00002020       $unwind$CRYPTO_cfb128_8_encrypt 00000000000af8e0     OpensslLib:cfb128.obj
 0004:0000203c       $unwind$CRYPTO_ccm128_encrypt 00000000000af8fc     OpensslLib:ccm128.obj
 0004:00002054       $unwind$rotnr              00000000000af914     OpensslLib:aria.obj
 0004:00002060       $unwind$aria_set_encrypt_key 00000000000af920     OpensslLib:aria.obj
 0004:00002084       $unwind$aria_set_decrypt_key 00000000000af944     OpensslLib:aria.obj
 0004:0000209c       $unwind$CRYPTO_xts128_encrypt 00000000000af95c     OpensslLib:xts128.obj
 0004:000020b8       $unwind$AES_set_encrypt_key 00000000000af978     OpensslLib:aes_core.obj
 0004:000020d4       $unwind$AES_decrypt        00000000000af994     OpensslLib:aes_core.obj
 0004:000020d4       $unwind$AES_encrypt        00000000000af994     OpensslLib:aes_core.obj
 0004:000020f0       $unwind$CRYPTO_128_wrap    00000000000af9b0     OpensslLib:wrap128.obj
 0004:0000210c       $unwind$crypto_128_unwrap_raw 00000000000af9cc     OpensslLib:wrap128.obj
 0004:00002124       $unwind$CRYPTO_128_unwrap_pad 00000000000af9e4     OpensslLib:wrap128.obj
 0004:0000213c       $unwind$alg_module_init    00000000000af9fc     OpensslLib:evp_cnf.obj
 0004:00002150       $unwind$do_tcreate         00000000000afa10     OpensslLib:asn_mstbl.obj
 0004:00002168       $unwind$ssl_module_init    00000000000afa28     OpensslLib:conf_ssl.obj
 0004:00002180       $unwind$oid_module_init    00000000000afa40     OpensslLib:asn_moid.obj
 0004:00002180       $unwind$ec_GFp_simple_is_on_curve 00000000000afa40     OpensslLib:ecp_smpl.obj
 0004:00002180       $unwind$ec_GFp_simple_point_get_affine_coordinates 00000000000afa40     OpensslLib:ecp_smpl.obj
 0004:0000219c       $unwind$Round              00000000000afa5c     OpensslLib:keccak1600.obj
 0004:000021b4       $unwind$KeccakF1600        00000000000afa74     OpensslLib:keccak1600.obj
 0004:000021c4       $unwind$SHA3_squeeze       00000000000afa84     OpensslLib:keccak1600.obj
 0004:000021d8       $unwind$sm3_block_data_order 00000000000afa98     OpensslLib:sm3.obj
 0004:000021f0       $unwind$probable_prime_dh  00000000000afab0     OpensslLib:bn_prime.obj
 0004:00002208       $unwind$sc_montmul         00000000000afac8     OpensslLib:scalar.obj
 0004:00002220       $unwind$curve448_scalar_decode_long 00000000000afae0     OpensslLib:scalar.obj
 0004:0000223c       $unwind$gf_eq              00000000000afafc     OpensslLib:f_generic.obj
 0004:00002244       $unwind$gf_isr             00000000000afb04     OpensslLib:f_generic.obj
 0004:00002258       $unwind$gf_mul             00000000000afb18     OpensslLib:f_impl.obj
 0004:00002270       $unwind$ec_GFp_simple_add  00000000000afb30     OpensslLib:ecp_smpl.obj
 0004:00002288       $unwind$ec_GFp_simple_cmp  00000000000afb48     OpensslLib:ecp_smpl.obj
 0004:000022a4       $unwind$QuickSortWorker    00000000000afb64     BaseCryptLib:CrtWrapper.obj
