 ArpDxe

 Timestamp is 61ee7049 (Mon Jan 24 17:24:25 2022)

 Preferred load address is 0000000000000000

 Start         Length     Name                   Class
 0001:00000000 00000208H .text                   CODE
 0001:00000208 000028d5H .text$mn                CODE
 0002:00000000 00000180H .data                   DATA
 0002:00000180 00000088H .rdata                  DATA
 0002:00000208 00000020H .bss                    DATA
 0002:00000228 00000020H .rdata$voltmd           DATA
 0002:00000248 000000a8H .rdata$zzzdbg           DATA
 0003:00000000 000001b0H .pdata                  DATA
 0004:00000000 00000200H .xdata                  DATA

  Address         Publics by Value              Rva+Base               Lib:Object

 0000:00000000       __x64_code_ranges_to_entry_points_count 0000000000000000     <absolute>
 0000:00000000       __x64_code_ranges_to_entry_points 0000000000000000     <absolute>
 0000:00000000       __hybrid_code_map_count    0000000000000000     <absolute>
 0000:00000000       __arm64x_redirection_metadata 0000000000000000     <absolute>
 0000:00000000       __guard_fids_count         0000000000000000     <absolute>
 0000:00000000       __guard_iat_table          0000000000000000     <absolute>
 0000:00000000       __arm64x_extra_rfe_table   0000000000000000     <absolute>
 0000:00000000       __guard_iat_count          0000000000000000     <absolute>
 0000:00000000       __guard_longjmp_count      0000000000000000     <absolute>
 0000:00000000       __arm64x_native_entrypoint 0000000000000000     <absolute>
 0000:00000000       __dynamic_value_reloc_table 0000000000000000     <absolute>
 0000:00000000       __hybrid_auxiliary_iat     0000000000000000     <absolute>
 0000:00000000       __guard_eh_cont_table      0000000000000000     <absolute>
 0000:00000000       __hybrid_code_map          0000000000000000     <absolute>
 0000:00000000       __enclave_config           0000000000000000     <absolute>
 0000:00000000       __hybrid_auxiliary_iat_copy 0000000000000000     <absolute>
 0000:00000000       __arm64x_redirection_metadata_count 0000000000000000     <absolute>
 0000:00000000       __guard_longjmp_table      0000000000000000     <absolute>
 0000:00000000       __arm64x_extra_rfe_table_size 0000000000000000     <absolute>
 0000:00000000       __AbsoluteZero             0000000000000000     <absolute>
 0000:00000000       __guard_check_icall_a64n_fptr 0000000000000000     <absolute>
 0000:00000000       __guard_fids_table         0000000000000000     <absolute>
 0000:00000000       __guard_flags              0000000000000000     <absolute>
 0000:00000000       __guard_eh_cont_count      0000000000000000     <absolute>
 0001:00000000       InternalMemCopyMem         0000000000000280     BaseMemoryLibRepStr:CopyMem.obj
 0001:00000040       InternalMemZeroMem         00000000000002c0     BaseMemoryLibRepStr:ZeroMem.obj
 0001:00000060       InternalMemCompareMem      00000000000002e0     BaseMemoryLibRepStr:CompareMem.obj
 0001:00000080       InternalMemSetMem          0000000000000300     BaseMemoryLibRepStr:SetMem.obj
 0001:000000a0       InternalMemSetMem64        0000000000000320     BaseMemoryLibRepStr:SetMem64.obj
 0001:000000c0       InternalMemSetMem32        0000000000000340     BaseMemoryLibRepStr:SetMem32.obj
 0001:000000e0       CpuPause                   0000000000000360     BaseLib:CpuPause.obj
 0001:000000f0       SevNoRepIo                 0000000000000370     BaseIoLibIntrinsicSev:IoFifoSev.obj
 0001:00000130       IoReadFifo8                00000000000003b0     BaseIoLibIntrinsicSev:IoFifoSev.obj
 0001:00000152       IoReadFifo16               00000000000003d2     BaseIoLibIntrinsicSev:IoFifoSev.obj
 0001:00000178       IoReadFifo32               00000000000003f8     BaseIoLibIntrinsicSev:IoFifoSev.obj
 0001:0000019b       IoWriteFifo8               000000000000041b     BaseIoLibIntrinsicSev:IoFifoSev.obj
 0001:000001bd       IoWriteFifo16              000000000000043d     BaseIoLibIntrinsicSev:IoFifoSev.obj
 0001:000001e3       IoWriteFifo32              0000000000000463     BaseIoLibIntrinsicSev:IoFifoSev.obj
 0001:00000208       _DriverUnloadHandler       0000000000000488 f   UefiDriverEntryPoint:DriverEntryPoint.obj
 0001:0000038c       _ModuleEntryPoint          000000000000060c f   UefiDriverEntryPoint:DriverEntryPoint.obj
 0001:00000470       ArpCreateService           00000000000006f0 f   ArpDxe:ArpDriver.obj
 0001:00000660       ArpCleanService            00000000000008e0 f   ArpDxe:ArpDriver.obj
 0001:00000740       ArpDriverBindingSupported  00000000000009c0 f   ArpDxe:ArpDriver.obj
 0001:000007c4       ArpDriverBindingStart      0000000000000a44 f   ArpDxe:ArpDriver.obj
 0001:00000884       ArpDriverBindingStop       0000000000000b04 f   ArpDxe:ArpDriver.obj
 0001:00000a24       ArpServiceBindingCreateChild 0000000000000ca4 f   ArpDxe:ArpDriver.obj
 0001:00000bf8       ArpServiceBindingDestroyChild 0000000000000e78 f   ArpDxe:ArpDriver.obj
 0001:00000d70       ArpComponentNameGetDriverName 0000000000000ff0 f   ArpDxe:ComponentName.obj
 0001:00000da4       ArpComponentNameGetControllerName 0000000000001024 f   ArpDxe:ComponentName.obj
 0001:00000ec0       ArpOnFrameRcvdDpc          0000000000001140 f   ArpDxe:ArpImpl.obj
 0001:0000118c       ArpOnFrameRcvd             000000000000140c f   ArpDxe:ArpImpl.obj
 0001:000011a8       ArpOnFrameSentDpc          0000000000001428 f   ArpDxe:ArpImpl.obj
 0001:000011fc       ArpOnFrameSent             000000000000147c f   ArpDxe:ArpImpl.obj
 0001:00001218       ArpTimerHandler            0000000000001498 f   ArpDxe:ArpImpl.obj
 0001:00001380       ArpFindNextCacheEntryInTable 0000000000001600 f   ArpDxe:ArpImpl.obj
 0001:00001460       ArpFindDeniedCacheEntry    00000000000016e0 f   ArpDxe:ArpImpl.obj
 0001:000014d0       ArpAllocCacheEntry         0000000000001750 f   ArpDxe:ArpImpl.obj
 0001:0000156c       ArpAddressResolved         00000000000017ec f   ArpDxe:ArpImpl.obj
 0001:00001644       ArpFillAddressInCacheEntry 00000000000018c4 f   ArpDxe:ArpImpl.obj
 0001:000016d0       ArpConfigureInstance       0000000000001950 f   ArpDxe:ArpImpl.obj
 0001:0000184c       ArpSendFrame               0000000000001acc f   ArpDxe:ArpImpl.obj
 0001:00001ad8       ArpDeleteCacheEntryInTable 0000000000001d58 f   ArpDxe:ArpImpl.obj
 0001:00001bbc       ArpDeleteCacheEntry        0000000000001e3c f   ArpDxe:ArpImpl.obj
 0001:00001c38       ArpCancelRequest           0000000000001eb8 f   ArpDxe:ArpImpl.obj
 0001:00001d04       ArpFindCacheEntry          0000000000001f84 f   ArpDxe:ArpImpl.obj
 0001:00001ff8       ArpConfigure               0000000000002278 f   ArpDxe:ArpMain.obj
 0001:0000207c       ArpAdd                     00000000000022fc f   ArpDxe:ArpMain.obj
 0001:00002268       ArpFind                    00000000000024e8 f   ArpDxe:ArpMain.obj
 0001:00002354       ArpDelete                  00000000000025d4 f   ArpDxe:ArpMain.obj
 0001:000023f8       ArpFlush                   0000000000002678 f   ArpDxe:ArpMain.obj
 0001:00002480       ArpRequest                 0000000000002700 f   ArpDxe:ArpMain.obj
 0001:00002760       ArpCancel                  00000000000029e0 f   ArpDxe:ArpMain.obj
 0001:00002820       InternalAllocatePool       0000000000002aa0 f   UefiMemoryAllocationLib:MemoryAllocationLib.obj
 0001:00002850       IsLanguageSupported        0000000000002ad0 f   UefiLib:UefiLib.obj
 0001:000028f4       LookupUnicodeString2       0000000000002b74 f   UefiLib:UefiLib.obj
 0001:00002a0c       NetMapAllocItem            0000000000002c8c f   DxeNetLib:DxeNetLib.obj
 0001:00002a7c       NetMapInsertTail           0000000000002cfc f   DxeNetLib:DxeNetLib.obj
 0002:00000000       gEfiLoadedImageProtocolGuid 0000000000002d60     ArpDxe:AutoGen.obj
 0002:00000010       gEfiComponentName2ProtocolGuid 0000000000002d70     ArpDxe:AutoGen.obj
 0002:00000020       gEfiDevicePathUtilitiesProtocolGuid 0000000000002d80     ArpDxe:AutoGen.obj
 0002:00000030       gEfiManagedNetworkServiceBindingProtocolGuid 0000000000002d90     ArpDxe:AutoGen.obj
 0002:00000040       gEfiDriverBindingProtocolGuid 0000000000002da0     ArpDxe:AutoGen.obj
 0002:00000050       gEfiArpServiceBindingProtocolGuid 0000000000002db0     ArpDxe:AutoGen.obj
 0002:00000060       gEfiComponentNameProtocolGuid 0000000000002dc0     ArpDxe:AutoGen.obj
 0002:00000070       gEfiDpcProtocolGuid        0000000000002dd0     ArpDxe:AutoGen.obj
 0002:00000080       gEfiManagedNetworkProtocolGuid 0000000000002de0     ArpDxe:AutoGen.obj
 0002:00000090       gEfiArpProtocolGuid        0000000000002df0     ArpDxe:AutoGen.obj
 0002:000000a0       gArpDriverBinding          0000000000002e00     ArpDxe:ArpDriver.obj
 0002:000000d0       gArpComponentName2         0000000000002e30     ArpDxe:ComponentName.obj
 0002:000000e8       gArpComponentName          0000000000002e48     ArpDxe:ComponentName.obj
 0002:00000100       mArpDriverNameTable        0000000000002e60     ArpDxe:ComponentName.obj
 0002:00000120       mArpControllerNameTable    0000000000002e80     ArpDxe:ComponentName.obj
 0002:00000140       mEfiArpProtocolTemplate    0000000000002ea0     ArpDxe:ArpImpl.obj
 0002:00000180       ??_C@_03LKLGDMJI@eng@      0000000000002ee0     ArpDxe:ComponentName.obj
 0002:00000184       ??_C@_02LFNMGJAP@en@       0000000000002ee4     ArpDxe:ComponentName.obj
 0002:00000188       ??_C@_06DALJLGPG@eng?$DLen@ 0000000000002ee8     ArpDxe:ComponentName.obj
 0002:00000190       ??_C@_1DG@MAGPPHDD@?$AAA?$AAR?$AAP?$AA?5?$AAN?$AAe?$AAt?$AAw?$AAo?$AAr?$AAk?$AA?5?$AAS?$AAe?$AAr@ 0000000000002ef0     ArpDxe:ComponentName.obj
 0002:000001c8       ??_C@_1BO@OPAEHCBJ@?$AAA?$AAR?$AAP?$AA?5?$AAC?$AAo?$AAn?$AAt?$AAr?$AAo?$AAl?$AAl?$AAe?$AAr@ 0000000000002f28     ArpDxe:ComponentName.obj
 0002:00000208       gST                        0000000000002f68     UefiBootServicesTableLib:UefiBootServicesTableLib.obj
 0002:00000210       gBS                        0000000000002f70     UefiBootServicesTableLib:UefiBootServicesTableLib.obj
 0002:00000218       mDevicePathLibDevicePathUtilities 0000000000002f78     UefiDevicePathLibDevicePathProtocol:UefiDevicePathLib.obj
 0002:00000220       mDpc                       0000000000002f80     <common>
 0002:00000228       __volatile_metadata        0000000000002f88     <linker-defined>

 entry point at        0001:0000038c

 Static symbols

 0001:0000001a       InternalMemCopyMem.0       000000000000029a     BaseMemoryLibRepStr:CopyMem.obj
 0001:0000002a       @CopyBackward              00000000000002aa     BaseMemoryLibRepStr:CopyMem.obj
 0001:00000033       @CopyBytes                 00000000000002b3     BaseMemoryLibRepStr:CopyMem.obj
 0001:0000012a       @UseRepIo                  00000000000003aa     BaseIoLibIntrinsicSev:IoFifoSev.obj
 0001:0000012c       @SevNoRepIo_Done           00000000000003ac     BaseIoLibIntrinsicSev:IoFifoSev.obj
 0001:00000144       @IoReadFifo8_NoRep         00000000000003c4     BaseIoLibIntrinsicSev:IoFifoSev.obj
 0001:00000146       @IoReadFifo8_Loop          00000000000003c6     BaseIoLibIntrinsicSev:IoFifoSev.obj
 0001:0000014e       @IoReadFifo8_Done          00000000000003ce     BaseIoLibIntrinsicSev:IoFifoSev.obj
 0001:00000167       @IoReadFifo16_NoRep        00000000000003e7     BaseIoLibIntrinsicSev:IoFifoSev.obj
 0001:00000169       @IoReadFifo16_Loop         00000000000003e9     BaseIoLibIntrinsicSev:IoFifoSev.obj
 0001:00000174       @IoReadFifo16_Done         00000000000003f4     BaseIoLibIntrinsicSev:IoFifoSev.obj
 0001:0000018c       @IoReadFifo32_NoRep        000000000000040c     BaseIoLibIntrinsicSev:IoFifoSev.obj
 0001:0000018e       @IoReadFifo32_Loop         000000000000040e     BaseIoLibIntrinsicSev:IoFifoSev.obj
 0001:00000197       @IoReadFifo32_Done         0000000000000417     BaseIoLibIntrinsicSev:IoFifoSev.obj
 0001:000001af       @IoWriteFifo8_NoRep        000000000000042f     BaseIoLibIntrinsicSev:IoFifoSev.obj
 0001:000001b1       @IoWriteFifo8_Loop         0000000000000431     BaseIoLibIntrinsicSev:IoFifoSev.obj
 0001:000001b9       @IoWriteFifo8_Done         0000000000000439     BaseIoLibIntrinsicSev:IoFifoSev.obj
 0001:000001d2       @IoWriteFifo16_NoRep       0000000000000452     BaseIoLibIntrinsicSev:IoFifoSev.obj
 0001:000001d4       @IoWriteFifo16_Loop        0000000000000454     BaseIoLibIntrinsicSev:IoFifoSev.obj
 0001:000001df       @IoWriteFifo16_Done        000000000000045f     BaseIoLibIntrinsicSev:IoFifoSev.obj
 0001:000001f7       @IoWriteFifo32_NoRep       0000000000000477     BaseIoLibIntrinsicSev:IoFifoSev.obj
 0001:000001f9       @IoWriteFifo32_Loop        0000000000000479     BaseIoLibIntrinsicSev:IoFifoSev.obj
 0001:00000202       @IoWriteFifo32_Done        0000000000000482     BaseIoLibIntrinsicSev:IoFifoSev.obj
 0004:00000000       $unwind$_DriverUnloadHandler 0000000000003220     UefiDriverEntryPoint:DriverEntryPoint.obj
 0004:00000010       $unwind$_ModuleEntryPoint  0000000000003230     UefiDriverEntryPoint:DriverEntryPoint.obj
 0004:00000018       $unwind$ArpCreateService   0000000000003238     ArpDxe:ArpDriver.obj
 0004:0000002c       $unwind$ArpCleanService    000000000000324c     ArpDxe:ArpDriver.obj
 0004:00000038       $unwind$ArpDriverBindingSupported 0000000000003258     ArpDxe:ArpDriver.obj
 0004:00000038       $unwind$ArpFindDeniedCacheEntry 0000000000003258     ArpDxe:ArpImpl.obj
 0004:00000044       $unwind$ArpDriverBindingStart 0000000000003264     ArpDxe:ArpDriver.obj
 0004:00000050       $unwind$ArpDriverBindingStop 0000000000003270     ArpDxe:ArpDriver.obj
 0004:00000068       $unwind$ArpServiceBindingCreateChild 0000000000003288     ArpDxe:ArpDriver.obj
 0004:00000080       $unwind$ArpServiceBindingDestroyChild 00000000000032a0     ArpDxe:ArpDriver.obj
 0004:00000094       $unwind$ArpComponentNameGetDriverName 00000000000032b4     ArpDxe:ComponentName.obj
 0004:0000009c       $unwind$ArpComponentNameGetControllerName 00000000000032bc     ArpDxe:ComponentName.obj
 0004:000000b0       $unwind$ArpOnFrameRcvdDpc  00000000000032d0     ArpDxe:ArpImpl.obj
 0004:000000d0       $unwind$ArpAllocCacheEntry 00000000000032f0     ArpDxe:ArpImpl.obj
 0004:000000d0       $unwind$ArpOnFrameSentDpc  00000000000032f0     ArpDxe:ArpImpl.obj
 0004:000000d0       $unwind$ArpFlush           00000000000032f0     ArpDxe:ArpMain.obj
 0004:000000d0       $unwind$NetMapAllocItem    00000000000032f0     DxeNetLib:DxeNetLib.obj
 0004:000000dc       $unwind$ArpTimerHandler    00000000000032fc     ArpDxe:ArpImpl.obj
 0004:000000f4       $unwind$ArpFindNextCacheEntryInTable 0000000000003314     ArpDxe:ArpImpl.obj
 0004:0000010c       $unwind$ArpAddressResolved 000000000000332c     ArpDxe:ArpImpl.obj
 0004:0000010c       $unwind$ArpCancelRequest   000000000000332c     ArpDxe:ArpImpl.obj
 0004:0000010c       $unwind$ArpDeleteCacheEntryInTable 000000000000332c     ArpDxe:ArpImpl.obj
 0004:00000128       $unwind$ArpFillAddressInCacheEntry 0000000000003348     ArpDxe:ArpImpl.obj
 0004:00000138       $unwind$ArpConfigureInstance 0000000000003358     ArpDxe:ArpImpl.obj
 0004:00000148       $unwind$ArpSendFrame       0000000000003368     ArpDxe:ArpImpl.obj
 0004:00000160       $unwind$ArpDeleteCacheEntry 0000000000003380     ArpDxe:ArpImpl.obj
 0004:00000178       $unwind$ArpFindCacheEntry  0000000000003398     ArpDxe:ArpImpl.obj
 0004:00000198       $unwind$LookupUnicodeString2 00000000000033b8     UefiLib:UefiLib.obj
 0004:00000198       $unwind$ArpConfigure       00000000000033b8     ArpDxe:ArpMain.obj
 0004:00000198       $unwind$NetMapInsertTail   00000000000033b8     DxeNetLib:DxeNetLib.obj
 0004:000001a8       $unwind$ArpAdd             00000000000033c8     ArpDxe:ArpMain.obj
 0004:000001a8       $unwind$ArpRequest         00000000000033c8     ArpDxe:ArpMain.obj
 0004:000001c8       $unwind$ArpFind            00000000000033e8     ArpDxe:ArpMain.obj
 0004:000001e4       $unwind$ArpCancel          0000000000003404     ArpDxe:ArpMain.obj
 0004:000001e4       $unwind$ArpDelete          0000000000003404     ArpDxe:ArpMain.obj
 0004:000001f8       $unwind$InternalAllocatePool 0000000000003418     UefiMemoryAllocationLib:MemoryAllocationLib.obj
